; ModuleID = '/root/project/RuyiTuner/third_party/train/llvm-project/libcxx/test/std/algorithms/alg.modifying.operations/alg.copy/ranges.copy_backward.pass.cpp'
source_filename = "/root/project/RuyiTuner/third_party/train/llvm-project/libcxx/test/std/algorithms/alg.modifying.operations/alg.copy/ranges.copy_backward.pass.cpp"
target datalayout = "e-m:e-p270:32:32-p271:32:32-p272:64:64-i64:64-i128:128-f80:128-n8:16:32:64-S128"
target triple = "x86_64-unknown-linux-gnu"

%"struct.std::ranges::__copy_backward_fn" = type { i8 }
%"struct.std::ranges::__equal_fn" = type { i8 }
%"struct.std::array.55" = type { [10 x i32] }
%"struct.std::array" = type { [4 x i32] }
%"class.std::deque" = type { %"class.std::_Deque_base" }
%"class.std::_Deque_base" = type { %"struct.std::_Deque_base<int, std::allocator<int>>::_Deque_impl" }
%"struct.std::_Deque_base<int, std::allocator<int>>::_Deque_impl" = type { %"struct.std::_Deque_base<int, std::allocator<int>>::_Deque_impl_data" }
%"struct.std::_Deque_base<int, std::allocator<int>>::_Deque_impl_data" = type { ptr, i64, %"struct.std::_Deque_iterator", %"struct.std::_Deque_iterator" }
%"struct.std::_Deque_iterator" = type { ptr, ptr, ptr, ptr }
%"struct.std::ranges::join_view<std::ranges::ref_view<std::vector<std::ranges::subrange<bidirectional_iterator<__gnu_cxx::__normal_iterator<int *, std::vector<int>>>>>>>::_Iterator" = type { %"class.__gnu_cxx::__normal_iterator.57", %"class.std::optional", ptr }
%"class.__gnu_cxx::__normal_iterator.57" = type { ptr }
%"class.std::optional" = type { %"struct.std::_Optional_base" }
%"struct.std::_Optional_base" = type { %"struct.std::_Optional_payload" }
%"struct.std::_Optional_payload" = type { %"struct.std::_Optional_payload_base.base", [7 x i8] }
%"struct.std::_Optional_payload_base.base" = type { %"union.std::_Optional_payload_base<bidirectional_iterator<__gnu_cxx::__normal_iterator<int *, std::vector<int>>>>::_Storage", i8 }
%"union.std::_Optional_payload_base<bidirectional_iterator<__gnu_cxx::__normal_iterator<int *, std::vector<int>>>>::_Storage" = type { %class.bidirectional_iterator.25 }
%class.bidirectional_iterator.25 = type <{ %"class.__gnu_cxx::__normal_iterator", %"struct.support::double_move_tracker", [7 x i8] }>
%"class.__gnu_cxx::__normal_iterator" = type { ptr }
%"struct.support::double_move_tracker" = type { i8 }
%"class.std::vector.37" = type { %"struct.std::_Vector_base.38" }
%"struct.std::_Vector_base.38" = type { %"struct.std::_Vector_base<std::vector<int>, std::allocator<std::vector<int>>>::_Vector_impl" }
%"struct.std::_Vector_base<std::vector<int>, std::allocator<std::vector<int>>>::_Vector_impl" = type { %"struct.std::_Vector_base<std::vector<int>, std::allocator<std::vector<int>>>::_Vector_impl_data" }
%"struct.std::_Vector_base<std::vector<int>, std::allocator<std::vector<int>>>::_Vector_impl_data" = type { ptr, ptr, ptr }
%"class.std::ranges::transform_view" = type { %"class.std::ranges::ref_view.43" }
%"class.std::ranges::ref_view.43" = type { ptr }
%"class.std::vector.45" = type { %"struct.std::_Vector_base.46" }
%"struct.std::_Vector_base.46" = type { %"struct.std::_Vector_base<std::ranges::subrange<bidirectional_iterator<__gnu_cxx::__normal_iterator<int *, std::vector<int>>>>, std::allocator<std::ranges::subrange<bidirectional_iterator<__gnu_cxx::__normal_iterator<int *, std::vector<int>>>>>>::_Vector_impl" }
%"struct.std::_Vector_base<std::ranges::subrange<bidirectional_iterator<__gnu_cxx::__normal_iterator<int *, std::vector<int>>>>, std::allocator<std::ranges::subrange<bidirectional_iterator<__gnu_cxx::__normal_iterator<int *, std::vector<int>>>>>>::_Vector_impl" = type { %"struct.std::_Vector_base<std::ranges::subrange<bidirectional_iterator<__gnu_cxx::__normal_iterator<int *, std::vector<int>>>>, std::allocator<std::ranges::subrange<bidirectional_iterator<__gnu_cxx::__normal_iterator<int *, std::vector<int>>>>>>::_Vector_impl_data" }
%"struct.std::_Vector_base<std::ranges::subrange<bidirectional_iterator<__gnu_cxx::__normal_iterator<int *, std::vector<int>>>>, std::allocator<std::ranges::subrange<bidirectional_iterator<__gnu_cxx::__normal_iterator<int *, std::vector<int>>>>>>::_Vector_impl_data" = type { ptr, ptr, ptr }
%"class.std::ranges::join_view" = type { %"class.std::ranges::ref_view.52" }
%"class.std::ranges::ref_view.52" = type { ptr }
%"class.std::vector" = type { %"struct.std::_Vector_base" }
%"struct.std::_Vector_base" = type { %"struct.std::_Vector_base<int, std::allocator<int>>::_Vector_impl" }
%"struct.std::_Vector_base<int, std::allocator<int>>::_Vector_impl" = type { %"struct.std::_Vector_base<int, std::allocator<int>>::_Vector_impl_data" }
%"struct.std::_Vector_base<int, std::allocator<int>>::_Vector_impl_data" = type { ptr, ptr, ptr }
%"struct.std::ranges::in_out_result.56" = type { ptr, %"struct.std::ranges::join_view<std::ranges::ref_view<std::vector<std::ranges::subrange<bidirectional_iterator<__gnu_cxx::__normal_iterator<int *, std::vector<int>>>>>>>::_Iterator" }
%"struct.std::ranges::in_out_result.58" = type { %"struct.std::ranges::join_view<std::ranges::ref_view<std::vector<std::ranges::subrange<bidirectional_iterator<__gnu_cxx::__normal_iterator<int *, std::vector<int>>>>>>>::_Iterator" }
%"struct.std::ranges::in_out_result.59" = type { %"struct.std::ranges::join_view<std::ranges::ref_view<std::vector<std::ranges::subrange<bidirectional_iterator<__gnu_cxx::__normal_iterator<int *, std::vector<int>>>>>>>::_Iterator", ptr }
%"struct.std::ranges::in_out_result.63" = type { %"struct.std::ranges::join_view<std::ranges::ref_view<std::vector<std::ranges::subrange<bidirectional_iterator<__gnu_cxx::__normal_iterator<int *, std::vector<int>>>>>>>::_Iterator", %"struct.std::ranges::join_view<std::ranges::ref_view<std::vector<std::ranges::subrange<bidirectional_iterator<__gnu_cxx::__normal_iterator<int *, std::vector<int>>>>>>>::_Iterator" }
%"class.std::ranges::subrange.30" = type { %class.bidirectional_iterator.25, %class.bidirectional_iterator.base.26, [7 x i8] }
%class.bidirectional_iterator.base.26 = type <{ %"class.__gnu_cxx::__normal_iterator", %"struct.support::double_move_tracker" }>
%class.random_access_iterator.76 = type <{ %"struct.std::_Deque_iterator", %"struct.support::double_move_tracker", [7 x i8] }>
%class.bidirectional_iterator.15 = type <{ %"struct.std::_Deque_iterator", %"struct.support::double_move_tracker", [7 x i8] }>
%"struct.std::ranges::in_out_result.75" = type { %class.random_access_iterator.base.77, [7 x i8], %class.bidirectional_iterator.base.16, [7 x i8] }
%class.random_access_iterator.base.77 = type <{ %"struct.std::_Deque_iterator", %"struct.support::double_move_tracker" }>
%class.bidirectional_iterator.base.16 = type <{ %"struct.std::_Deque_iterator", %"struct.support::double_move_tracker" }>
%"struct.std::ranges::join_view<std::ranges::ref_view<std::vector<std::ranges::subrange<random_access_iterator<__gnu_cxx::__normal_iterator<int *, std::vector<int>>>>>>>::_Iterator" = type { %"class.__gnu_cxx::__normal_iterator.110", %"class.std::optional.111", ptr }
%"class.__gnu_cxx::__normal_iterator.110" = type { ptr }
%"class.std::optional.111" = type { %"struct.std::_Optional_base.112" }
%"struct.std::_Optional_base.112" = type { %"struct.std::_Optional_payload.114" }
%"struct.std::_Optional_payload.114" = type { %"struct.std::_Optional_payload_base.base.116", [7 x i8] }
%"struct.std::_Optional_payload_base.base.116" = type { %"union.std::_Optional_payload_base<random_access_iterator<__gnu_cxx::__normal_iterator<int *, std::vector<int>>>>::_Storage", i8 }
%"union.std::_Optional_payload_base<random_access_iterator<__gnu_cxx::__normal_iterator<int *, std::vector<int>>>>::_Storage" = type { %class.random_access_iterator.85 }
%class.random_access_iterator.85 = type <{ %"class.__gnu_cxx::__normal_iterator", %"struct.support::double_move_tracker", [7 x i8] }>
%"class.std::ranges::transform_view.96" = type { %"class.std::ranges::ref_view.43" }
%"class.std::vector.98" = type { %"struct.std::_Vector_base.99" }
%"struct.std::_Vector_base.99" = type { %"struct.std::_Vector_base<std::ranges::subrange<random_access_iterator<__gnu_cxx::__normal_iterator<int *, std::vector<int>>>>, std::allocator<std::ranges::subrange<random_access_iterator<__gnu_cxx::__normal_iterator<int *, std::vector<int>>>>>>::_Vector_impl" }
%"struct.std::_Vector_base<std::ranges::subrange<random_access_iterator<__gnu_cxx::__normal_iterator<int *, std::vector<int>>>>, std::allocator<std::ranges::subrange<random_access_iterator<__gnu_cxx::__normal_iterator<int *, std::vector<int>>>>>>::_Vector_impl" = type { %"struct.std::_Vector_base<std::ranges::subrange<random_access_iterator<__gnu_cxx::__normal_iterator<int *, std::vector<int>>>>, std::allocator<std::ranges::subrange<random_access_iterator<__gnu_cxx::__normal_iterator<int *, std::vector<int>>>>>>::_Vector_impl_data" }
%"struct.std::_Vector_base<std::ranges::subrange<random_access_iterator<__gnu_cxx::__normal_iterator<int *, std::vector<int>>>>, std::allocator<std::ranges::subrange<random_access_iterator<__gnu_cxx::__normal_iterator<int *, std::vector<int>>>>>>::_Vector_impl_data" = type { ptr, ptr, ptr }
%"class.std::ranges::join_view.105" = type { %"class.std::ranges::ref_view.107" }
%"class.std::ranges::ref_view.107" = type { ptr }
%"struct.std::ranges::in_out_result.109" = type { ptr, %"struct.std::ranges::join_view<std::ranges::ref_view<std::vector<std::ranges::subrange<random_access_iterator<__gnu_cxx::__normal_iterator<int *, std::vector<int>>>>>>>::_Iterator" }
%"struct.std::ranges::in_out_result.119" = type { %"struct.std::ranges::join_view<std::ranges::ref_view<std::vector<std::ranges::subrange<random_access_iterator<__gnu_cxx::__normal_iterator<int *, std::vector<int>>>>>>>::_Iterator" }
%"struct.std::ranges::in_out_result.121" = type { %"struct.std::ranges::join_view<std::ranges::ref_view<std::vector<std::ranges::subrange<random_access_iterator<__gnu_cxx::__normal_iterator<int *, std::vector<int>>>>>>>::_Iterator", ptr }
%"struct.std::ranges::in_out_result.125" = type { %"struct.std::ranges::join_view<std::ranges::ref_view<std::vector<std::ranges::subrange<random_access_iterator<__gnu_cxx::__normal_iterator<int *, std::vector<int>>>>>>>::_Iterator", %"struct.std::ranges::join_view<std::ranges::ref_view<std::vector<std::ranges::subrange<random_access_iterator<__gnu_cxx::__normal_iterator<int *, std::vector<int>>>>>>>::_Iterator" }
%"class.std::ranges::subrange.88" = type { %class.random_access_iterator.85, %class.random_access_iterator.base.86, [7 x i8] }
%class.random_access_iterator.base.86 = type <{ %"class.__gnu_cxx::__normal_iterator", %"struct.support::double_move_tracker" }>
%"class.std::ranges::transform_view.166" = type { %"class.std::ranges::ref_view.43" }
%"class.std::vector.168" = type { %"struct.std::_Vector_base.169" }
%"struct.std::_Vector_base.169" = type { %"struct.std::_Vector_base<std::ranges::subrange<__gnu_cxx::__normal_iterator<int *, std::vector<int>>>, std::allocator<std::ranges::subrange<__gnu_cxx::__normal_iterator<int *, std::vector<int>>>>>::_Vector_impl" }
%"struct.std::_Vector_base<std::ranges::subrange<__gnu_cxx::__normal_iterator<int *, std::vector<int>>>, std::allocator<std::ranges::subrange<__gnu_cxx::__normal_iterator<int *, std::vector<int>>>>>::_Vector_impl" = type { %"struct.std::_Vector_base<std::ranges::subrange<__gnu_cxx::__normal_iterator<int *, std::vector<int>>>, std::allocator<std::ranges::subrange<__gnu_cxx::__normal_iterator<int *, std::vector<int>>>>>::_Vector_impl_data" }
%"struct.std::_Vector_base<std::ranges::subrange<__gnu_cxx::__normal_iterator<int *, std::vector<int>>>, std::allocator<std::ranges::subrange<__gnu_cxx::__normal_iterator<int *, std::vector<int>>>>>::_Vector_impl_data" = type { ptr, ptr, ptr }
%"class.std::ranges::join_view.175" = type { %"class.std::ranges::ref_view.177" }
%"class.std::ranges::ref_view.177" = type { ptr }
%"class.std::ranges::subrange.155" = type { %"class.__gnu_cxx::__normal_iterator", %"class.__gnu_cxx::__normal_iterator" }
%"struct.std::ranges::in_out_result.208" = type { %class.random_access_iterator.base.77, [7 x i8], %class.random_access_iterator.base.77, [7 x i8] }
%struct.ProxyIterator.295 = type { %class.random_access_iterator.76 }
%struct.ProxyIterator.272 = type { %class.bidirectional_iterator.15 }
%"struct.std::ranges::in_out_result.294" = type { %struct.ProxyIterator.295, %struct.ProxyIterator.272 }
%"struct.std::ranges::in_out_result.346" = type { %struct.ProxyIterator.295, %struct.ProxyIterator.295 }

$_Z4testv = comdat any

$_Z17test_in_iteratorsI22bidirectional_iteratorEvv = comdat any

$_Z17test_in_iteratorsI22random_access_iteratorEvv = comdat any

$_Z17test_in_iteratorsISt15type_identity_tEvv = comdat any

$_Z15test_containersISt5dequeIiSaIiEES2_22bidirectional_iteratorISt15_Deque_iteratorIiRiPiEES8_S8_Evv = comdat any

$_Z15test_containersISt5dequeIiSaIiEESt6vectorIiS1_E22bidirectional_iteratorISt15_Deque_iteratorIiRiPiEES5_IN9__gnu_cxx17__normal_iteratorIS8_S4_EEESA_Evv = comdat any

$_Z15test_containersISt6vectorIiSaIiEESt5dequeIiS1_E22bidirectional_iteratorIN9__gnu_cxx17__normal_iteratorIPiS2_EEES5_ISt15_Deque_iteratorIiRiS8_EESA_Evv = comdat any

$_Z15test_containersISt6vectorIiSaIiEES2_22bidirectional_iteratorIN9__gnu_cxx17__normal_iteratorIPiS2_EEES8_S8_Evv = comdat any

$_Z14test_join_viewI22bidirectional_iteratorIN9__gnu_cxx17__normal_iteratorIPiSt6vectorIiSaIiEEEEES8_Evv = comdat any

$_ZNSt5dequeIiSaIiEED2Ev = comdat any

$_ZNSt11_Deque_baseIiSaIiEED2Ev = comdat any

$_ZNSt11_Deque_baseIiSaIiEE17_M_initialize_mapEm = comdat any

$__clang_call_terminate = comdat any

$_ZNSt11_Deque_baseIiSaIiEE15_M_create_nodesEPPiS3_ = comdat any

$_ZNKSt6ranges18__copy_backward_fnclITkNS_19bidirectional_rangeENS_9join_viewINS_8ref_viewISt6vectorINS_8subrangeI22bidirectional_iteratorIN9__gnu_cxx17__normal_iteratorIPiS4_IiSaIiEEEEESD_LNS_13subrange_kindE0EEESaISF_EEEEEETkSt22bidirectional_iteratorS9_Q19indirectly_copyableIDTclsr6ranges13__cust_accessE7__beginclsr3stdE7declvalIRT_EEEET0_EEENS_13in_out_resultINSt13__conditionalIX14borrowed_rangeISK_EEE4typeISM_NS_8danglingEEESN_EEOSK_SN_ = comdat any

$_ZNSt6vectorIS_IiSaIiEESaIS1_EED2Ev = comdat any

$_ZNKSt6ranges10__equal_fnclITkNS_11input_rangeENS_9join_viewINS_8ref_viewISt6vectorINS_8subrangeI22bidirectional_iteratorIN9__gnu_cxx17__normal_iteratorIPiS4_IiSaIiEEEEESD_LNS_13subrange_kindE0EEESaISF_EEEEEETkNS_11input_rangeESt5arrayIiLm10EENS_8equal_toESt8identitySN_Q21indirectly_comparableIDTclsr6ranges13__cust_accessE7__beginclsr3stdE7declvalIRT_EEEEDTclsr6ranges13__cust_accessE7__beginclsr3stdE7declvalIRT0_EEEET1_T2_T3_EEEbOSO_OSR_SU_SV_SW_ = comdat any

$_ZNKSt6ranges18__copy_backward_fnclITkNS_19bidirectional_rangeENS_9join_viewINS_8ref_viewISt6vectorINS_8subrangeI22bidirectional_iteratorIN9__gnu_cxx17__normal_iteratorIPiS4_IiSaIiEEEEESD_LNS_13subrange_kindE0EEESaISF_EEEEEETkSt22bidirectional_iteratorNSJ_9_IteratorILb1EEEQ19indirectly_copyableIDTclsr6ranges13__cust_accessE7__beginclsr3stdE7declvalIRT_EEEET0_EEENS_13in_out_resultINSt13__conditionalIX14borrowed_rangeISM_EEE4typeISO_NS_8danglingEEESP_EEOSM_SP_ = comdat any

$_ZNSt6vectorINSt6ranges8subrangeI22bidirectional_iteratorIN9__gnu_cxx17__normal_iteratorIPiS_IiSaIiEEEEES9_LNS0_13subrange_kindE0EEESaISB_EE19_M_range_initializeINS0_14transform_viewINS0_8ref_viewIS_IS7_SaIS7_EEEEZ14test_join_viewIS9_S9_EvvEUlRT_E_E9_IteratorILb0EEEEEvSL_SL_St18input_iterator_tag = comdat any

$_ZNSt6vectorINSt6ranges8subrangeI22bidirectional_iteratorIN9__gnu_cxx17__normal_iteratorIPiS_IiSaIiEEEEES9_LNS0_13subrange_kindE0EEESaISB_EE17_M_realloc_insertIJSB_EEEvNS4_IPSB_SD_EEDpOT_ = comdat any

$_ZNSt6ranges23__copy_or_move_backwardILb0ETkSt22bidirectional_iteratorNS_9join_viewINS_8ref_viewISt6vectorINS_8subrangeI22bidirectional_iteratorIN9__gnu_cxx17__normal_iteratorIPiS3_IiSaIiEEEEESC_LNS_13subrange_kindE0EEESaISE_EEEEE9_IteratorILb1EEETkSt12sentinel_forIT0_ESK_TkSt22bidirectional_iteratorS8_QquT_18indirectly_movableISM_T2_E19indirectly_copyableISM_SN_EEENSt13__conditionalIXT_EE4typeINS_13in_out_resultISM_SN_EESS_EESM_T1_SN_ = comdat any

$_ZNSt6ranges9join_viewINS_8ref_viewISt6vectorINS_8subrangeI22bidirectional_iteratorIN9__gnu_cxx17__normal_iteratorIPiS2_IiSaIiEEEEESB_LNS_13subrange_kindE0EEESaISD_EEEEE9_IteratorILb1EEmmEvQaaaaaaL_ZNS_9join_view9_Iterator17_S_ref_is_glvalueEE19bidirectional_rangeINSt13__conditionalIXTL0__EE4typeIKT_SP_EEE19bidirectional_rangeIDTdeclsr3stdE7declvalIRDTclsr6ranges13__cust_accessE7__beginclsr3stdE7declvalIRSR_EEEEEEEE12common_rangeISV_E = comdat any

$_ZSt8_DestroyIPSt6vectorIiSaIiEEEvT_S4_ = comdat any

$_ZSt16__do_uninit_copyIPKSt6vectorIiSaIiEEPS2_ET0_T_S7_S6_ = comdat any

$_ZNKSt6ranges18__copy_backward_fnclITkSt22bidirectional_iteratorPiTkSt12sentinel_forIT_ES2_TkSt22bidirectional_iteratorNS_9join_viewINS_8ref_viewISt6vectorINS_8subrangeI22bidirectional_iteratorIN9__gnu_cxx17__normal_iteratorIS2_S7_IiSaIiEEEEESF_LNS_13subrange_kindE0EEESaISH_EEEEE9_IteratorILb1EEEQ19indirectly_copyableIS4_T1_EEENS_13in_out_resultIS4_SO_EES4_T0_SO_ = comdat any

$_ZNKSt6ranges18__copy_backward_fnclITkSt22bidirectional_iteratorNS_9join_viewINS_8ref_viewISt6vectorINS_8subrangeI22bidirectional_iteratorIN9__gnu_cxx17__normal_iteratorIPiS4_IiSaIiEEEEESD_LNS_13subrange_kindE0EEESaISF_EEEEE9_IteratorILb1EEETkSt12sentinel_forIT_ESL_TkSt22bidirectional_iteratorSL_Q19indirectly_copyableISN_T1_EEENS_13in_out_resultISN_SO_EESN_T0_SO_ = comdat any

$_ZNSt6ranges23__copy_or_move_backwardILb0ETkSt22bidirectional_iteratorNS_9join_viewINS_8ref_viewISt6vectorINS_8subrangeI22bidirectional_iteratorIN9__gnu_cxx17__normal_iteratorIPiS3_IiSaIiEEEEESC_LNS_13subrange_kindE0EEESaISE_EEEEE9_IteratorILb1EEETkSt12sentinel_forIT0_ESK_TkSt22bidirectional_iteratorSK_QquT_18indirectly_movableISM_T2_E19indirectly_copyableISM_SN_EEENSt13__conditionalIXT_EE4typeINS_13in_out_resultISM_SN_EESS_EESM_T1_SN_ = comdat any

$_Z15test_containersISt5dequeIiSaIiEES2_22random_access_iteratorISt15_Deque_iteratorIiRiPiEE22bidirectional_iteratorIS7_ES8_Evv = comdat any

$_Z15test_containersISt5dequeIiSaIiEESt6vectorIiS1_E22random_access_iteratorISt15_Deque_iteratorIiRiPiEE22bidirectional_iteratorIN9__gnu_cxx17__normal_iteratorIS8_S4_EEESA_Evv = comdat any

$_Z15test_containersISt6vectorIiSaIiEESt5dequeIiS1_E22random_access_iteratorIN9__gnu_cxx17__normal_iteratorIPiS2_EEE22bidirectional_iteratorISt15_Deque_iteratorIiRiS8_EESA_Evv = comdat any

$_Z15test_containersISt6vectorIiSaIiEES2_22random_access_iteratorIN9__gnu_cxx17__normal_iteratorIPiS2_EEE22bidirectional_iteratorIS7_ES8_Evv = comdat any

$_Z14test_join_viewI22random_access_iteratorIN9__gnu_cxx17__normal_iteratorIPiSt6vectorIiSaIiEEEEES8_Evv = comdat any

$_ZNKSt6ranges18__copy_backward_fnclITkSt22bidirectional_iterator22random_access_iteratorISt15_Deque_iteratorIiRiPiEETkSt12sentinel_forIT_ES7_TkSt22bidirectional_iterator22bidirectional_iteratorIS6_EQ19indirectly_copyableIS9_T1_EEENS_13in_out_resultIS9_SC_EES9_T0_SC_ = comdat any

$_ZNSt6ranges23__copy_or_move_backwardILb0ETkSt22bidirectional_iterator22random_access_iteratorISt15_Deque_iteratorIiRiPiEETkSt12sentinel_forIT0_ES6_TkSt22bidirectional_iterator22bidirectional_iteratorIS5_EQquT_18indirectly_movableIS8_T2_E19indirectly_copyableIS8_SB_EEENSt13__conditionalIXT_EE4typeINS_13in_out_resultIS8_SB_EESG_EES8_T1_SB_ = comdat any

$_ZNKSt6ranges18__copy_backward_fnclITkNS_19bidirectional_rangeENS_9join_viewINS_8ref_viewISt6vectorINS_8subrangeI22random_access_iteratorIN9__gnu_cxx17__normal_iteratorIPiS4_IiSaIiEEEEESD_LNS_13subrange_kindE1EEESaISF_EEEEEETkSt22bidirectional_iteratorS9_Q19indirectly_copyableIDTclsr6ranges13__cust_accessE7__beginclsr3stdE7declvalIRT_EEEET0_EEENS_13in_out_resultINSt13__conditionalIX14borrowed_rangeISK_EEE4typeISM_NS_8danglingEEESN_EEOSK_SN_ = comdat any

$_ZNKSt6ranges10__equal_fnclITkNS_11input_rangeENS_9join_viewINS_8ref_viewISt6vectorINS_8subrangeI22random_access_iteratorIN9__gnu_cxx17__normal_iteratorIPiS4_IiSaIiEEEEESD_LNS_13subrange_kindE1EEESaISF_EEEEEETkNS_11input_rangeESt5arrayIiLm10EENS_8equal_toESt8identitySN_Q21indirectly_comparableIDTclsr6ranges13__cust_accessE7__beginclsr3stdE7declvalIRT_EEEEDTclsr6ranges13__cust_accessE7__beginclsr3stdE7declvalIRT0_EEEET1_T2_T3_EEEbOSO_OSR_SU_SV_SW_ = comdat any

$_ZNKSt6ranges18__copy_backward_fnclITkNS_19bidirectional_rangeENS_9join_viewINS_8ref_viewISt6vectorINS_8subrangeI22random_access_iteratorIN9__gnu_cxx17__normal_iteratorIPiS4_IiSaIiEEEEESD_LNS_13subrange_kindE1EEESaISF_EEEEEETkSt22bidirectional_iteratorNSJ_9_IteratorILb1EEEQ19indirectly_copyableIDTclsr6ranges13__cust_accessE7__beginclsr3stdE7declvalIRT_EEEET0_EEENS_13in_out_resultINSt13__conditionalIX14borrowed_rangeISM_EEE4typeISO_NS_8danglingEEESP_EEOSM_SP_ = comdat any

$_ZNSt6vectorINSt6ranges8subrangeI22random_access_iteratorIN9__gnu_cxx17__normal_iteratorIPiS_IiSaIiEEEEES9_LNS0_13subrange_kindE1EEESaISB_EE19_M_range_initializeINS0_14transform_viewINS0_8ref_viewIS_IS7_SaIS7_EEEEZ14test_join_viewIS9_S9_EvvEUlRT_E_E9_IteratorILb0EEEEEvSL_SL_St18input_iterator_tag = comdat any

$_ZNSt6vectorINSt6ranges8subrangeI22random_access_iteratorIN9__gnu_cxx17__normal_iteratorIPiS_IiSaIiEEEEES9_LNS0_13subrange_kindE1EEESaISB_EE17_M_realloc_insertIJSB_EEEvNS4_IPSB_SD_EEDpOT_ = comdat any

$_ZNSt6ranges23__copy_or_move_backwardILb0ETkSt22bidirectional_iteratorNS_9join_viewINS_8ref_viewISt6vectorINS_8subrangeI22random_access_iteratorIN9__gnu_cxx17__normal_iteratorIPiS3_IiSaIiEEEEESC_LNS_13subrange_kindE1EEESaISE_EEEEE9_IteratorILb1EEETkSt12sentinel_forIT0_ESK_TkSt22bidirectional_iteratorS8_QquT_18indirectly_movableISM_T2_E19indirectly_copyableISM_SN_EEENSt13__conditionalIXT_EE4typeINS_13in_out_resultISM_SN_EESS_EESM_T1_SN_ = comdat any

$_ZNSt6ranges9join_viewINS_8ref_viewISt6vectorINS_8subrangeI22random_access_iteratorIN9__gnu_cxx17__normal_iteratorIPiS2_IiSaIiEEEEESB_LNS_13subrange_kindE1EEESaISD_EEEEE9_IteratorILb1EEmmEvQaaaaaaL_ZNS_9join_view9_Iterator17_S_ref_is_glvalueEE19bidirectional_rangeINSt13__conditionalIXTL0__EE4typeIKT_SP_EEE19bidirectional_rangeIDTdeclsr3stdE7declvalIRDTclsr6ranges13__cust_accessE7__beginclsr3stdE7declvalIRSR_EEEEEEEE12common_rangeISV_E = comdat any

$_ZNKSt6ranges18__copy_backward_fnclITkSt22bidirectional_iteratorPiTkSt12sentinel_forIT_ES2_TkSt22bidirectional_iteratorNS_9join_viewINS_8ref_viewISt6vectorINS_8subrangeI22random_access_iteratorIN9__gnu_cxx17__normal_iteratorIS2_S7_IiSaIiEEEEESF_LNS_13subrange_kindE1EEESaISH_EEEEE9_IteratorILb1EEEQ19indirectly_copyableIS4_T1_EEENS_13in_out_resultIS4_SO_EES4_T0_SO_ = comdat any

$_ZNKSt6ranges18__copy_backward_fnclITkSt22bidirectional_iteratorNS_9join_viewINS_8ref_viewISt6vectorINS_8subrangeI22random_access_iteratorIN9__gnu_cxx17__normal_iteratorIPiS4_IiSaIiEEEEESD_LNS_13subrange_kindE1EEESaISF_EEEEE9_IteratorILb1EEETkSt12sentinel_forIT_ESL_TkSt22bidirectional_iteratorSL_Q19indirectly_copyableISN_T1_EEENS_13in_out_resultISN_SO_EESN_T0_SO_ = comdat any

$_ZNSt6ranges23__copy_or_move_backwardILb0ETkSt22bidirectional_iteratorNS_9join_viewINS_8ref_viewISt6vectorINS_8subrangeI22random_access_iteratorIN9__gnu_cxx17__normal_iteratorIPiS3_IiSaIiEEEEESC_LNS_13subrange_kindE1EEESaISE_EEEEE9_IteratorILb1EEETkSt12sentinel_forIT0_ESK_TkSt22bidirectional_iteratorSK_QquT_18indirectly_movableISM_T2_E19indirectly_copyableISM_SN_EEENSt13__conditionalIXT_EE4typeINS_13in_out_resultISM_SN_EESS_EESM_T1_SN_ = comdat any

$_Z15test_containersISt5dequeIiSaIiEES2_St15_Deque_iteratorIiRiPiE22bidirectional_iteratorIS6_ES6_Evv = comdat any

$_Z15test_containersISt5dequeIiSaIiEESt6vectorIiS1_ESt15_Deque_iteratorIiRiPiE22bidirectional_iteratorIN9__gnu_cxx17__normal_iteratorIS7_S4_EEES8_Evv = comdat any

$_Z15test_containersISt6vectorIiSaIiEESt5dequeIiS1_EN9__gnu_cxx17__normal_iteratorIPiS2_EE22bidirectional_iteratorISt15_Deque_iteratorIiRiS7_EES8_Evv = comdat any

$_Z15test_containersISt6vectorIiSaIiEES2_N9__gnu_cxx17__normal_iteratorIPiS2_EE22bidirectional_iteratorIS6_ES6_Evv = comdat any

$_Z14test_join_viewIN9__gnu_cxx17__normal_iteratorIPiSt6vectorIiSaIiEEEES6_Evv = comdat any

$_ZNKSt6ranges10__equal_fnclITkNS_11input_rangeENS_9join_viewINS_8ref_viewISt6vectorINS_8subrangeIN9__gnu_cxx17__normal_iteratorIPiS4_IiSaIiEEEESB_LNS_13subrange_kindE1EEESaISD_EEEEEETkNS_11input_rangeESt5arrayIiLm10EENS_8equal_toESt8identitySL_Q21indirectly_comparableIDTclsr6ranges13__cust_accessE7__beginclsr3stdE7declvalIRT_EEEEDTclsr6ranges13__cust_accessE7__beginclsr3stdE7declvalIRT0_EEEET1_T2_T3_EEEbOSM_OSP_SS_ST_SU_ = comdat any

$_ZNSt6vectorINSt6ranges8subrangeIN9__gnu_cxx17__normal_iteratorIPiS_IiSaIiEEEES7_LNS0_13subrange_kindE1EEESaIS9_EE19_M_range_initializeINS0_14transform_viewINS0_8ref_viewIS_IS6_SaIS6_EEEEZ14test_join_viewIS7_S7_EvvEUlRT_E_E9_IteratorILb0EEEEEvSJ_SJ_St18input_iterator_tag = comdat any

$_ZNSt6vectorINSt6ranges8subrangeIN9__gnu_cxx17__normal_iteratorIPiS_IiSaIiEEEES7_LNS0_13subrange_kindE1EEESaIS9_EE17_M_realloc_insertIJS9_EEEvNS3_IPS9_SB_EEDpOT_ = comdat any

$_Z15test_containersISt5dequeIiSaIiEES2_22bidirectional_iteratorISt15_Deque_iteratorIiRiPiEE22random_access_iteratorIS7_ES8_Evv = comdat any

$_Z15test_containersISt5dequeIiSaIiEESt6vectorIiS1_E22bidirectional_iteratorISt15_Deque_iteratorIiRiPiEE22random_access_iteratorIN9__gnu_cxx17__normal_iteratorIS8_S4_EEESA_Evv = comdat any

$_Z15test_containersISt6vectorIiSaIiEESt5dequeIiS1_E22bidirectional_iteratorIN9__gnu_cxx17__normal_iteratorIPiS2_EEE22random_access_iteratorISt15_Deque_iteratorIiRiS8_EESA_Evv = comdat any

$_Z15test_containersISt6vectorIiSaIiEES2_22bidirectional_iteratorIN9__gnu_cxx17__normal_iteratorIPiS2_EEE22random_access_iteratorIS7_ES8_Evv = comdat any

$_Z15test_containersISt5dequeIiSaIiEES2_22random_access_iteratorISt15_Deque_iteratorIiRiPiEES8_S8_Evv = comdat any

$_Z15test_containersISt5dequeIiSaIiEESt6vectorIiS1_E22random_access_iteratorISt15_Deque_iteratorIiRiPiEES5_IN9__gnu_cxx17__normal_iteratorIS8_S4_EEESA_Evv = comdat any

$_Z15test_containersISt6vectorIiSaIiEESt5dequeIiS1_E22random_access_iteratorIN9__gnu_cxx17__normal_iteratorIPiS2_EEES5_ISt15_Deque_iteratorIiRiS8_EESA_Evv = comdat any

$_Z15test_containersISt6vectorIiSaIiEES2_22random_access_iteratorIN9__gnu_cxx17__normal_iteratorIPiS2_EEES8_S8_Evv = comdat any

$_ZNKSt6ranges18__copy_backward_fnclITkSt22bidirectional_iterator22random_access_iteratorISt15_Deque_iteratorIiRiPiEETkSt12sentinel_forIT_ES7_TkSt22bidirectional_iteratorS7_Q19indirectly_copyableIS9_T1_EEENS_13in_out_resultIS9_SA_EES9_T0_SA_ = comdat any

$_ZNSt6ranges23__copy_or_move_backwardILb0ETkSt22bidirectional_iterator22random_access_iteratorISt15_Deque_iteratorIiRiPiEETkSt12sentinel_forIT0_ES6_TkSt22bidirectional_iteratorS6_QquT_18indirectly_movableIS8_T2_E19indirectly_copyableIS8_S9_EEENSt13__conditionalIXT_EE4typeINS_13in_out_resultIS8_S9_EESE_EES8_T1_S9_ = comdat any

$_Z15test_containersISt5dequeIiSaIiEES2_St15_Deque_iteratorIiRiPiE22random_access_iteratorIS6_ES6_Evv = comdat any

$_Z15test_containersISt5dequeIiSaIiEESt6vectorIiS1_ESt15_Deque_iteratorIiRiPiE22random_access_iteratorIN9__gnu_cxx17__normal_iteratorIS7_S4_EEES8_Evv = comdat any

$_Z15test_containersISt6vectorIiSaIiEESt5dequeIiS1_EN9__gnu_cxx17__normal_iteratorIPiS2_EE22random_access_iteratorISt15_Deque_iteratorIiRiS7_EES8_Evv = comdat any

$_Z15test_containersISt6vectorIiSaIiEES2_N9__gnu_cxx17__normal_iteratorIPiS2_EE22random_access_iteratorIS6_ES6_Evv = comdat any

$_Z15test_containersISt5dequeIiSaIiEES2_22bidirectional_iteratorISt15_Deque_iteratorIiRiPiEES7_S8_Evv = comdat any

$_Z15test_containersISt5dequeIiSaIiEESt6vectorIiS1_E22bidirectional_iteratorISt15_Deque_iteratorIiRiPiEEN9__gnu_cxx17__normal_iteratorIS8_S4_EESA_Evv = comdat any

$_Z15test_containersISt6vectorIiSaIiEESt5dequeIiS1_E22bidirectional_iteratorIN9__gnu_cxx17__normal_iteratorIPiS2_EEESt15_Deque_iteratorIiRiS8_ESA_Evv = comdat any

$_Z15test_containersISt6vectorIiSaIiEES2_22bidirectional_iteratorIN9__gnu_cxx17__normal_iteratorIPiS2_EEES7_S8_Evv = comdat any

$_Z15test_containersISt5dequeIiSaIiEES2_22random_access_iteratorISt15_Deque_iteratorIiRiPiEES7_S8_Evv = comdat any

$_Z15test_containersISt5dequeIiSaIiEESt6vectorIiS1_E22random_access_iteratorISt15_Deque_iteratorIiRiPiEEN9__gnu_cxx17__normal_iteratorIS8_S4_EESA_Evv = comdat any

$_Z15test_containersISt6vectorIiSaIiEESt5dequeIiS1_E22random_access_iteratorIN9__gnu_cxx17__normal_iteratorIPiS2_EEESt15_Deque_iteratorIiRiS8_ESA_Evv = comdat any

$_Z15test_containersISt6vectorIiSaIiEES2_22random_access_iteratorIN9__gnu_cxx17__normal_iteratorIPiS2_EEES7_S8_Evv = comdat any

$_Z15test_containersISt5dequeIiSaIiEES2_St15_Deque_iteratorIiRiPiES6_S6_Evv = comdat any

$_Z15test_containersISt5dequeIiSaIiEESt6vectorIiS1_ESt15_Deque_iteratorIiRiPiEN9__gnu_cxx17__normal_iteratorIS7_S4_EES8_Evv = comdat any

$_Z15test_containersISt6vectorIiSaIiEESt5dequeIiS1_EN9__gnu_cxx17__normal_iteratorIPiS2_EESt15_Deque_iteratorIiRiS7_ES8_Evv = comdat any

$_Z15test_containersISt6vectorIiSaIiEES2_N9__gnu_cxx17__normal_iteratorIPiS2_EES6_S6_Evv = comdat any

$_Z15test_containersISt5dequeIiSaIiEES2_13ProxyIteratorI22bidirectional_iteratorISt15_Deque_iteratorIiRiPiEEESA_SA_Evv = comdat any

$_Z15test_containersISt5dequeIiSaIiEESt6vectorIiS1_E13ProxyIteratorI22bidirectional_iteratorISt15_Deque_iteratorIiRiPiEEES5_IS6_IN9__gnu_cxx17__normal_iteratorIS9_S4_EEEESC_Evv = comdat any

$_Z15test_containersISt6vectorIiSaIiEESt5dequeIiS1_E13ProxyIteratorI22bidirectional_iteratorIN9__gnu_cxx17__normal_iteratorIPiS2_EEEES5_IS6_ISt15_Deque_iteratorIiRiS9_EEESC_Evv = comdat any

$_Z15test_containersISt6vectorIiSaIiEES2_13ProxyIteratorI22bidirectional_iteratorIN9__gnu_cxx17__normal_iteratorIPiS2_EEEESA_SA_Evv = comdat any

$_Z15test_containersISt5dequeIiSaIiEES2_13ProxyIteratorI22random_access_iteratorISt15_Deque_iteratorIiRiPiEEES3_I22bidirectional_iteratorIS8_EESA_Evv = comdat any

$_Z15test_containersISt5dequeIiSaIiEESt6vectorIiS1_E13ProxyIteratorI22random_access_iteratorISt15_Deque_iteratorIiRiPiEEES5_I22bidirectional_iteratorIN9__gnu_cxx17__normal_iteratorIS9_S4_EEEESC_Evv = comdat any

$_Z15test_containersISt6vectorIiSaIiEESt5dequeIiS1_E13ProxyIteratorI22random_access_iteratorIN9__gnu_cxx17__normal_iteratorIPiS2_EEEES5_I22bidirectional_iteratorISt15_Deque_iteratorIiRiS9_EEESC_Evv = comdat any

$_Z15test_containersISt6vectorIiSaIiEES2_13ProxyIteratorI22random_access_iteratorIN9__gnu_cxx17__normal_iteratorIPiS2_EEEES3_I22bidirectional_iteratorIS8_EESA_Evv = comdat any

$_ZNKSt6ranges18__copy_backward_fnclITkSt22bidirectional_iterator13ProxyIteratorI22random_access_iteratorISt15_Deque_iteratorIiRiPiEEETkSt12sentinel_forIT_ES9_TkSt22bidirectional_iteratorS2_I22bidirectional_iteratorIS7_EEQ19indirectly_copyableISB_T1_EEENS_13in_out_resultISB_SF_EESB_T0_SF_ = comdat any

$_ZNSt6ranges23__copy_or_move_backwardILb0ETkSt22bidirectional_iterator13ProxyIteratorI22random_access_iteratorISt15_Deque_iteratorIiRiPiEEETkSt12sentinel_forIT0_ES8_TkSt22bidirectional_iteratorS1_I22bidirectional_iteratorIS6_EEQquT_18indirectly_movableISA_T2_E19indirectly_copyableISA_SE_EEENSt13__conditionalIXT_EE4typeINS_13in_out_resultISA_SE_EESJ_EESA_T1_SE_ = comdat any

$_Z15test_containersISt5dequeIiSaIiEES2_13ProxyIteratorISt15_Deque_iteratorIiRiPiEES3_I22bidirectional_iteratorIS7_EES8_Evv = comdat any

$_Z15test_containersISt5dequeIiSaIiEESt6vectorIiS1_E13ProxyIteratorISt15_Deque_iteratorIiRiPiEES5_I22bidirectional_iteratorIN9__gnu_cxx17__normal_iteratorIS8_S4_EEEESA_Evv = comdat any

$_Z15test_containersISt6vectorIiSaIiEESt5dequeIiS1_E13ProxyIteratorIN9__gnu_cxx17__normal_iteratorIPiS2_EEES5_I22bidirectional_iteratorISt15_Deque_iteratorIiRiS8_EEESA_Evv = comdat any

$_Z15test_containersISt6vectorIiSaIiEES2_13ProxyIteratorIN9__gnu_cxx17__normal_iteratorIPiS2_EEES3_I22bidirectional_iteratorIS7_EES8_Evv = comdat any

$_Z15test_containersISt5dequeIiSaIiEES2_13ProxyIteratorI22bidirectional_iteratorISt15_Deque_iteratorIiRiPiEEES3_I22random_access_iteratorIS8_EESA_Evv = comdat any

$_Z15test_containersISt5dequeIiSaIiEESt6vectorIiS1_E13ProxyIteratorI22bidirectional_iteratorISt15_Deque_iteratorIiRiPiEEES5_I22random_access_iteratorIN9__gnu_cxx17__normal_iteratorIS9_S4_EEEESC_Evv = comdat any

$_Z15test_containersISt6vectorIiSaIiEESt5dequeIiS1_E13ProxyIteratorI22bidirectional_iteratorIN9__gnu_cxx17__normal_iteratorIPiS2_EEEES5_I22random_access_iteratorISt15_Deque_iteratorIiRiS9_EEESC_Evv = comdat any

$_Z15test_containersISt6vectorIiSaIiEES2_13ProxyIteratorI22bidirectional_iteratorIN9__gnu_cxx17__normal_iteratorIPiS2_EEEES3_I22random_access_iteratorIS8_EESA_Evv = comdat any

$_Z15test_containersISt5dequeIiSaIiEES2_13ProxyIteratorI22random_access_iteratorISt15_Deque_iteratorIiRiPiEEESA_SA_Evv = comdat any

$_Z15test_containersISt5dequeIiSaIiEESt6vectorIiS1_E13ProxyIteratorI22random_access_iteratorISt15_Deque_iteratorIiRiPiEEES5_IS6_IN9__gnu_cxx17__normal_iteratorIS9_S4_EEEESC_Evv = comdat any

$_Z15test_containersISt6vectorIiSaIiEESt5dequeIiS1_E13ProxyIteratorI22random_access_iteratorIN9__gnu_cxx17__normal_iteratorIPiS2_EEEES5_IS6_ISt15_Deque_iteratorIiRiS9_EEESC_Evv = comdat any

$_Z15test_containersISt6vectorIiSaIiEES2_13ProxyIteratorI22random_access_iteratorIN9__gnu_cxx17__normal_iteratorIPiS2_EEEESA_SA_Evv = comdat any

$_ZNKSt6ranges18__copy_backward_fnclITkSt22bidirectional_iterator13ProxyIteratorI22random_access_iteratorISt15_Deque_iteratorIiRiPiEEETkSt12sentinel_forIT_ES9_TkSt22bidirectional_iteratorS9_Q19indirectly_copyableISB_T1_EEENS_13in_out_resultISB_SC_EESB_T0_SC_ = comdat any

$_ZNSt6ranges23__copy_or_move_backwardILb0ETkSt22bidirectional_iterator13ProxyIteratorI22random_access_iteratorISt15_Deque_iteratorIiRiPiEEETkSt12sentinel_forIT0_ES8_TkSt22bidirectional_iteratorS8_QquT_18indirectly_movableISA_T2_E19indirectly_copyableISA_SB_EEENSt13__conditionalIXT_EE4typeINS_13in_out_resultISA_SB_EESG_EESA_T1_SB_ = comdat any

$_Z15test_containersISt5dequeIiSaIiEES2_13ProxyIteratorISt15_Deque_iteratorIiRiPiEES3_I22random_access_iteratorIS7_EES8_Evv = comdat any

$_Z15test_containersISt5dequeIiSaIiEESt6vectorIiS1_E13ProxyIteratorISt15_Deque_iteratorIiRiPiEES5_I22random_access_iteratorIN9__gnu_cxx17__normal_iteratorIS8_S4_EEEESA_Evv = comdat any

$_Z15test_containersISt6vectorIiSaIiEESt5dequeIiS1_E13ProxyIteratorIN9__gnu_cxx17__normal_iteratorIPiS2_EEES5_I22random_access_iteratorISt15_Deque_iteratorIiRiS8_EEESA_Evv = comdat any

$_Z15test_containersISt6vectorIiSaIiEES2_13ProxyIteratorIN9__gnu_cxx17__normal_iteratorIPiS2_EEES3_I22random_access_iteratorIS7_EES8_Evv = comdat any

$_ZNSt6ranges13copy_backwardE = comdat any

$_ZNSt6ranges5equalE = comdat any

@_ZNSt6ranges13copy_backwardE = linkonce_odr dso_local constant %"struct.std::ranges::__copy_backward_fn" undef, comdat, align 1
@.str.1 = private unnamed_addr constant [146 x i8] c"/root/project/RuyiTuner/third_party/train/llvm-project/libcxx/test/std/algorithms/alg.modifying.operations/alg.copy/ranges.copy_backward.pass.cpp\00", align 1
@__PRETTY_FUNCTION__._Z4testv = private unnamed_addr constant [12 x i8] c"bool test()\00", align 1
@.str.2 = private unnamed_addr constant [32 x i8] c"(out == std::array{1, 2, 3, 4})\00", align 1
@.str.13 = private unnamed_addr constant [19 x i8] c"!other.moved_from_\00", align 1
@.str.14 = private unnamed_addr constant [97 x i8] c"/root/project/RuyiTuner/third_party/train/llvm-project/libcxx/test/support/double_move_tracker.h\00", align 1
@__PRETTY_FUNCTION__._ZN7support19double_move_trackeraSEOS0_ = private unnamed_addr constant [85 x i8] c"double_move_tracker &support::double_move_tracker::operator=(double_move_tracker &&)\00", align 1
@__PRETTY_FUNCTION__._ZN7support19double_move_trackerC2EOS0_ = private unnamed_addr constant [74 x i8] c"support::double_move_tracker::double_move_tracker(double_move_tracker &&)\00", align 1
@_ZNSt6ranges5equalE = linkonce_odr dso_local constant %"struct.std::ranges::__equal_fn" undef, comdat, align 1
@.str.17 = private unnamed_addr constant [28 x i8] c"std::ranges::equal(in, out)\00", align 1
@__PRETTY_FUNCTION__._Z15test_containersISt5dequeIiSaIiEES2_22bidirectional_iteratorISt15_Deque_iteratorIiRiPiEES8_S8_Evv = private unnamed_addr constant [300 x i8] c"void test_containers() [InContainer = std::deque<int>, OutContainer = std::deque<int>, In = bidirectional_iterator<std::_Deque_iterator<int, int &, int *>>, Out = bidirectional_iterator<std::_Deque_iterator<int, int &, int *>>, Sent = bidirectional_iterator<std::_Deque_iterator<int, int &, int *>>]\00", align 1
@.str.18 = private unnamed_addr constant [25 x i8] c"base(ret.in) == in.end()\00", align 1
@.str.19 = private unnamed_addr constant [29 x i8] c"base(ret.out) == out.begin()\00", align 1
@__PRETTY_FUNCTION__._Z15test_containersISt5dequeIiSaIiEESt6vectorIiS1_E22bidirectional_iteratorISt15_Deque_iteratorIiRiPiEES5_IN9__gnu_cxx17__normal_iteratorIS8_S4_EEESA_Evv = private unnamed_addr constant [315 x i8] c"void test_containers() [InContainer = std::deque<int>, OutContainer = std::vector<int>, In = bidirectional_iterator<std::_Deque_iterator<int, int &, int *>>, Out = bidirectional_iterator<__gnu_cxx::__normal_iterator<int *, std::vector<int>>>, Sent = bidirectional_iterator<std::_Deque_iterator<int, int &, int *>>]\00", align 1
@__PRETTY_FUNCTION__._Z15test_containersISt6vectorIiSaIiEESt5dequeIiS1_E22bidirectional_iteratorIN9__gnu_cxx17__normal_iteratorIPiS2_EEES5_ISt15_Deque_iteratorIiRiS8_EESA_Evv = private unnamed_addr constant [329 x i8] c"void test_containers() [InContainer = std::vector<int>, OutContainer = std::deque<int>, In = bidirectional_iterator<__gnu_cxx::__normal_iterator<int *, std::vector<int>>>, Out = bidirectional_iterator<std::_Deque_iterator<int, int &, int *>>, Sent = bidirectional_iterator<__gnu_cxx::__normal_iterator<int *, std::vector<int>>>]\00", align 1
@__PRETTY_FUNCTION__._Z15test_containersISt6vectorIiSaIiEES2_22bidirectional_iteratorIN9__gnu_cxx17__normal_iteratorIPiS2_EEES8_S8_Evv = private unnamed_addr constant [344 x i8] c"void test_containers() [InContainer = std::vector<int>, OutContainer = std::vector<int>, In = bidirectional_iterator<__gnu_cxx::__normal_iterator<int *, std::vector<int>>>, Out = bidirectional_iterator<__gnu_cxx::__normal_iterator<int *, std::vector<int>>>, Sent = bidirectional_iterator<__gnu_cxx::__normal_iterator<int *, std::vector<int>>>]\00", align 1
@.str.22 = private unnamed_addr constant [67 x i8] c"std::ranges::equal(arr, std::array{1, 2, 3, 4, 5, 6, 7, 8, 9, 10})\00", align 1
@__PRETTY_FUNCTION__._Z14test_join_viewI22bidirectional_iteratorIN9__gnu_cxx17__normal_iteratorIPiSt6vectorIiSaIiEEEEES8_Evv = private unnamed_addr constant [195 x i8] c"void test_join_view() [Iter = bidirectional_iterator<__gnu_cxx::__normal_iterator<int *, std::vector<int>>>, Sent = bidirectional_iterator<__gnu_cxx::__normal_iterator<int *, std::vector<int>>>]\00", align 1
@.str.24 = private unnamed_addr constant [98 x i8] c"std::ranges::equal(subrange_vector | std::views::join, std::array{1, 2, 3, 4, 5, 6, 7, 8, 9, 10})\00", align 1
@.str.26 = private unnamed_addr constant [101 x i8] c"std::ranges::equal(to_subrange_vector | std::views::join, std::array{1, 2, 3, 4, 5, 6, 7, 8, 9, 10})\00", align 1
@.str.27 = private unnamed_addr constant [26 x i8] c"vector::_M_realloc_insert\00", align 1
@__PRETTY_FUNCTION__._Z15test_containersISt5dequeIiSaIiEES2_22random_access_iteratorISt15_Deque_iteratorIiRiPiEE22bidirectional_iteratorIS7_ES8_Evv = private unnamed_addr constant [300 x i8] c"void test_containers() [InContainer = std::deque<int>, OutContainer = std::deque<int>, In = random_access_iterator<std::_Deque_iterator<int, int &, int *>>, Out = bidirectional_iterator<std::_Deque_iterator<int, int &, int *>>, Sent = random_access_iterator<std::_Deque_iterator<int, int &, int *>>]\00", align 1
@__PRETTY_FUNCTION__._Z15test_containersISt5dequeIiSaIiEESt6vectorIiS1_E22random_access_iteratorISt15_Deque_iteratorIiRiPiEE22bidirectional_iteratorIN9__gnu_cxx17__normal_iteratorIS8_S4_EEESA_Evv = private unnamed_addr constant [315 x i8] c"void test_containers() [InContainer = std::deque<int>, OutContainer = std::vector<int>, In = random_access_iterator<std::_Deque_iterator<int, int &, int *>>, Out = bidirectional_iterator<__gnu_cxx::__normal_iterator<int *, std::vector<int>>>, Sent = random_access_iterator<std::_Deque_iterator<int, int &, int *>>]\00", align 1
@__PRETTY_FUNCTION__._Z15test_containersISt6vectorIiSaIiEESt5dequeIiS1_E22random_access_iteratorIN9__gnu_cxx17__normal_iteratorIPiS2_EEE22bidirectional_iteratorISt15_Deque_iteratorIiRiS8_EESA_Evv = private unnamed_addr constant [329 x i8] c"void test_containers() [InContainer = std::vector<int>, OutContainer = std::deque<int>, In = random_access_iterator<__gnu_cxx::__normal_iterator<int *, std::vector<int>>>, Out = bidirectional_iterator<std::_Deque_iterator<int, int &, int *>>, Sent = random_access_iterator<__gnu_cxx::__normal_iterator<int *, std::vector<int>>>]\00", align 1
@__PRETTY_FUNCTION__._Z15test_containersISt6vectorIiSaIiEES2_22random_access_iteratorIN9__gnu_cxx17__normal_iteratorIPiS2_EEE22bidirectional_iteratorIS7_ES8_Evv = private unnamed_addr constant [344 x i8] c"void test_containers() [InContainer = std::vector<int>, OutContainer = std::vector<int>, In = random_access_iterator<__gnu_cxx::__normal_iterator<int *, std::vector<int>>>, Out = bidirectional_iterator<__gnu_cxx::__normal_iterator<int *, std::vector<int>>>, Sent = random_access_iterator<__gnu_cxx::__normal_iterator<int *, std::vector<int>>>]\00", align 1
@__PRETTY_FUNCTION__._Z14test_join_viewI22random_access_iteratorIN9__gnu_cxx17__normal_iteratorIPiSt6vectorIiSaIiEEEEES8_Evv = private unnamed_addr constant [195 x i8] c"void test_join_view() [Iter = random_access_iterator<__gnu_cxx::__normal_iterator<int *, std::vector<int>>>, Sent = random_access_iterator<__gnu_cxx::__normal_iterator<int *, std::vector<int>>>]\00", align 1
@__PRETTY_FUNCTION__._Z15test_containersISt5dequeIiSaIiEES2_St15_Deque_iteratorIiRiPiE22bidirectional_iteratorIS6_ES6_Evv = private unnamed_addr constant [252 x i8] c"void test_containers() [InContainer = std::deque<int>, OutContainer = std::deque<int>, In = std::_Deque_iterator<int, int &, int *>, Out = bidirectional_iterator<std::_Deque_iterator<int, int &, int *>>, Sent = std::_Deque_iterator<int, int &, int *>]\00", align 1
@__PRETTY_FUNCTION__._Z15test_containersISt5dequeIiSaIiEESt6vectorIiS1_ESt15_Deque_iteratorIiRiPiE22bidirectional_iteratorIN9__gnu_cxx17__normal_iteratorIS7_S4_EEES8_Evv = private unnamed_addr constant [267 x i8] c"void test_containers() [InContainer = std::deque<int>, OutContainer = std::vector<int>, In = std::_Deque_iterator<int, int &, int *>, Out = bidirectional_iterator<__gnu_cxx::__normal_iterator<int *, std::vector<int>>>, Sent = std::_Deque_iterator<int, int &, int *>]\00", align 1
@__PRETTY_FUNCTION__._Z15test_containersISt6vectorIiSaIiEESt5dequeIiS1_EN9__gnu_cxx17__normal_iteratorIPiS2_EE22bidirectional_iteratorISt15_Deque_iteratorIiRiS7_EES8_Evv = private unnamed_addr constant [281 x i8] c"void test_containers() [InContainer = std::vector<int>, OutContainer = std::deque<int>, In = __gnu_cxx::__normal_iterator<int *, std::vector<int>>, Out = bidirectional_iterator<std::_Deque_iterator<int, int &, int *>>, Sent = __gnu_cxx::__normal_iterator<int *, std::vector<int>>]\00", align 1
@__PRETTY_FUNCTION__._Z15test_containersISt6vectorIiSaIiEES2_N9__gnu_cxx17__normal_iteratorIPiS2_EE22bidirectional_iteratorIS6_ES6_Evv = private unnamed_addr constant [296 x i8] c"void test_containers() [InContainer = std::vector<int>, OutContainer = std::vector<int>, In = __gnu_cxx::__normal_iterator<int *, std::vector<int>>, Out = bidirectional_iterator<__gnu_cxx::__normal_iterator<int *, std::vector<int>>>, Sent = __gnu_cxx::__normal_iterator<int *, std::vector<int>>]\00", align 1
@__PRETTY_FUNCTION__._Z14test_join_viewIN9__gnu_cxx17__normal_iteratorIPiSt6vectorIiSaIiEEEES6_Evv = private unnamed_addr constant [147 x i8] c"void test_join_view() [Iter = __gnu_cxx::__normal_iterator<int *, std::vector<int>>, Sent = __gnu_cxx::__normal_iterator<int *, std::vector<int>>]\00", align 1
@__const._Z14test_join_viewIN9__gnu_cxx17__normal_iteratorIPiSt6vectorIiSaIiEEEES6_Evv.arr = private unnamed_addr constant %"struct.std::array.55" { [10 x i32] [i32 1, i32 2, i32 3, i32 4, i32 5, i32 6, i32 7, i32 8, i32 9, i32 10] }, align 4
@constinit.42 = private unnamed_addr constant [10 x i32] [i32 1, i32 2, i32 3, i32 4, i32 5, i32 6, i32 7, i32 8, i32 9, i32 10], align 4
@__PRETTY_FUNCTION__._Z15test_containersISt5dequeIiSaIiEES2_22bidirectional_iteratorISt15_Deque_iteratorIiRiPiEE22random_access_iteratorIS7_ES8_Evv = private unnamed_addr constant [300 x i8] c"void test_containers() [InContainer = std::deque<int>, OutContainer = std::deque<int>, In = bidirectional_iterator<std::_Deque_iterator<int, int &, int *>>, Out = random_access_iterator<std::_Deque_iterator<int, int &, int *>>, Sent = bidirectional_iterator<std::_Deque_iterator<int, int &, int *>>]\00", align 1
@__PRETTY_FUNCTION__._Z15test_containersISt5dequeIiSaIiEESt6vectorIiS1_E22bidirectional_iteratorISt15_Deque_iteratorIiRiPiEE22random_access_iteratorIN9__gnu_cxx17__normal_iteratorIS8_S4_EEESA_Evv = private unnamed_addr constant [315 x i8] c"void test_containers() [InContainer = std::deque<int>, OutContainer = std::vector<int>, In = bidirectional_iterator<std::_Deque_iterator<int, int &, int *>>, Out = random_access_iterator<__gnu_cxx::__normal_iterator<int *, std::vector<int>>>, Sent = bidirectional_iterator<std::_Deque_iterator<int, int &, int *>>]\00", align 1
@__PRETTY_FUNCTION__._Z15test_containersISt6vectorIiSaIiEESt5dequeIiS1_E22bidirectional_iteratorIN9__gnu_cxx17__normal_iteratorIPiS2_EEE22random_access_iteratorISt15_Deque_iteratorIiRiS8_EESA_Evv = private unnamed_addr constant [329 x i8] c"void test_containers() [InContainer = std::vector<int>, OutContainer = std::deque<int>, In = bidirectional_iterator<__gnu_cxx::__normal_iterator<int *, std::vector<int>>>, Out = random_access_iterator<std::_Deque_iterator<int, int &, int *>>, Sent = bidirectional_iterator<__gnu_cxx::__normal_iterator<int *, std::vector<int>>>]\00", align 1
@__PRETTY_FUNCTION__._Z15test_containersISt6vectorIiSaIiEES2_22bidirectional_iteratorIN9__gnu_cxx17__normal_iteratorIPiS2_EEE22random_access_iteratorIS7_ES8_Evv = private unnamed_addr constant [344 x i8] c"void test_containers() [InContainer = std::vector<int>, OutContainer = std::vector<int>, In = bidirectional_iterator<__gnu_cxx::__normal_iterator<int *, std::vector<int>>>, Out = random_access_iterator<__gnu_cxx::__normal_iterator<int *, std::vector<int>>>, Sent = bidirectional_iterator<__gnu_cxx::__normal_iterator<int *, std::vector<int>>>]\00", align 1
@__PRETTY_FUNCTION__._Z15test_containersISt5dequeIiSaIiEES2_22random_access_iteratorISt15_Deque_iteratorIiRiPiEES8_S8_Evv = private unnamed_addr constant [300 x i8] c"void test_containers() [InContainer = std::deque<int>, OutContainer = std::deque<int>, In = random_access_iterator<std::_Deque_iterator<int, int &, int *>>, Out = random_access_iterator<std::_Deque_iterator<int, int &, int *>>, Sent = random_access_iterator<std::_Deque_iterator<int, int &, int *>>]\00", align 1
@__PRETTY_FUNCTION__._Z15test_containersISt5dequeIiSaIiEESt6vectorIiS1_E22random_access_iteratorISt15_Deque_iteratorIiRiPiEES5_IN9__gnu_cxx17__normal_iteratorIS8_S4_EEESA_Evv = private unnamed_addr constant [315 x i8] c"void test_containers() [InContainer = std::deque<int>, OutContainer = std::vector<int>, In = random_access_iterator<std::_Deque_iterator<int, int &, int *>>, Out = random_access_iterator<__gnu_cxx::__normal_iterator<int *, std::vector<int>>>, Sent = random_access_iterator<std::_Deque_iterator<int, int &, int *>>]\00", align 1
@__PRETTY_FUNCTION__._Z15test_containersISt6vectorIiSaIiEESt5dequeIiS1_E22random_access_iteratorIN9__gnu_cxx17__normal_iteratorIPiS2_EEES5_ISt15_Deque_iteratorIiRiS8_EESA_Evv = private unnamed_addr constant [329 x i8] c"void test_containers() [InContainer = std::vector<int>, OutContainer = std::deque<int>, In = random_access_iterator<__gnu_cxx::__normal_iterator<int *, std::vector<int>>>, Out = random_access_iterator<std::_Deque_iterator<int, int &, int *>>, Sent = random_access_iterator<__gnu_cxx::__normal_iterator<int *, std::vector<int>>>]\00", align 1
@__PRETTY_FUNCTION__._Z15test_containersISt6vectorIiSaIiEES2_22random_access_iteratorIN9__gnu_cxx17__normal_iteratorIPiS2_EEES8_S8_Evv = private unnamed_addr constant [344 x i8] c"void test_containers() [InContainer = std::vector<int>, OutContainer = std::vector<int>, In = random_access_iterator<__gnu_cxx::__normal_iterator<int *, std::vector<int>>>, Out = random_access_iterator<__gnu_cxx::__normal_iterator<int *, std::vector<int>>>, Sent = random_access_iterator<__gnu_cxx::__normal_iterator<int *, std::vector<int>>>]\00", align 1
@__PRETTY_FUNCTION__._Z15test_containersISt5dequeIiSaIiEES2_St15_Deque_iteratorIiRiPiE22random_access_iteratorIS6_ES6_Evv = private unnamed_addr constant [252 x i8] c"void test_containers() [InContainer = std::deque<int>, OutContainer = std::deque<int>, In = std::_Deque_iterator<int, int &, int *>, Out = random_access_iterator<std::_Deque_iterator<int, int &, int *>>, Sent = std::_Deque_iterator<int, int &, int *>]\00", align 1
@__PRETTY_FUNCTION__._Z15test_containersISt5dequeIiSaIiEESt6vectorIiS1_ESt15_Deque_iteratorIiRiPiE22random_access_iteratorIN9__gnu_cxx17__normal_iteratorIS7_S4_EEES8_Evv = private unnamed_addr constant [267 x i8] c"void test_containers() [InContainer = std::deque<int>, OutContainer = std::vector<int>, In = std::_Deque_iterator<int, int &, int *>, Out = random_access_iterator<__gnu_cxx::__normal_iterator<int *, std::vector<int>>>, Sent = std::_Deque_iterator<int, int &, int *>]\00", align 1
@__PRETTY_FUNCTION__._Z15test_containersISt6vectorIiSaIiEESt5dequeIiS1_EN9__gnu_cxx17__normal_iteratorIPiS2_EE22random_access_iteratorISt15_Deque_iteratorIiRiS7_EES8_Evv = private unnamed_addr constant [281 x i8] c"void test_containers() [InContainer = std::vector<int>, OutContainer = std::deque<int>, In = __gnu_cxx::__normal_iterator<int *, std::vector<int>>, Out = random_access_iterator<std::_Deque_iterator<int, int &, int *>>, Sent = __gnu_cxx::__normal_iterator<int *, std::vector<int>>]\00", align 1
@__PRETTY_FUNCTION__._Z15test_containersISt6vectorIiSaIiEES2_N9__gnu_cxx17__normal_iteratorIPiS2_EE22random_access_iteratorIS6_ES6_Evv = private unnamed_addr constant [296 x i8] c"void test_containers() [InContainer = std::vector<int>, OutContainer = std::vector<int>, In = __gnu_cxx::__normal_iterator<int *, std::vector<int>>, Out = random_access_iterator<__gnu_cxx::__normal_iterator<int *, std::vector<int>>>, Sent = __gnu_cxx::__normal_iterator<int *, std::vector<int>>]\00", align 1
@__PRETTY_FUNCTION__._Z15test_containersISt5dequeIiSaIiEES2_22bidirectional_iteratorISt15_Deque_iteratorIiRiPiEES7_S8_Evv = private unnamed_addr constant [276 x i8] c"void test_containers() [InContainer = std::deque<int>, OutContainer = std::deque<int>, In = bidirectional_iterator<std::_Deque_iterator<int, int &, int *>>, Out = std::_Deque_iterator<int, int &, int *>, Sent = bidirectional_iterator<std::_Deque_iterator<int, int &, int *>>]\00", align 1
@__PRETTY_FUNCTION__._Z15test_containersISt5dequeIiSaIiEESt6vectorIiS1_E22bidirectional_iteratorISt15_Deque_iteratorIiRiPiEEN9__gnu_cxx17__normal_iteratorIS8_S4_EESA_Evv = private unnamed_addr constant [291 x i8] c"void test_containers() [InContainer = std::deque<int>, OutContainer = std::vector<int>, In = bidirectional_iterator<std::_Deque_iterator<int, int &, int *>>, Out = __gnu_cxx::__normal_iterator<int *, std::vector<int>>, Sent = bidirectional_iterator<std::_Deque_iterator<int, int &, int *>>]\00", align 1
@__PRETTY_FUNCTION__._Z15test_containersISt6vectorIiSaIiEESt5dequeIiS1_E22bidirectional_iteratorIN9__gnu_cxx17__normal_iteratorIPiS2_EEESt15_Deque_iteratorIiRiS8_ESA_Evv = private unnamed_addr constant [305 x i8] c"void test_containers() [InContainer = std::vector<int>, OutContainer = std::deque<int>, In = bidirectional_iterator<__gnu_cxx::__normal_iterator<int *, std::vector<int>>>, Out = std::_Deque_iterator<int, int &, int *>, Sent = bidirectional_iterator<__gnu_cxx::__normal_iterator<int *, std::vector<int>>>]\00", align 1
@__PRETTY_FUNCTION__._Z15test_containersISt6vectorIiSaIiEES2_22bidirectional_iteratorIN9__gnu_cxx17__normal_iteratorIPiS2_EEES7_S8_Evv = private unnamed_addr constant [320 x i8] c"void test_containers() [InContainer = std::vector<int>, OutContainer = std::vector<int>, In = bidirectional_iterator<__gnu_cxx::__normal_iterator<int *, std::vector<int>>>, Out = __gnu_cxx::__normal_iterator<int *, std::vector<int>>, Sent = bidirectional_iterator<__gnu_cxx::__normal_iterator<int *, std::vector<int>>>]\00", align 1
@__PRETTY_FUNCTION__._Z15test_containersISt5dequeIiSaIiEES2_22random_access_iteratorISt15_Deque_iteratorIiRiPiEES7_S8_Evv = private unnamed_addr constant [276 x i8] c"void test_containers() [InContainer = std::deque<int>, OutContainer = std::deque<int>, In = random_access_iterator<std::_Deque_iterator<int, int &, int *>>, Out = std::_Deque_iterator<int, int &, int *>, Sent = random_access_iterator<std::_Deque_iterator<int, int &, int *>>]\00", align 1
@__PRETTY_FUNCTION__._Z15test_containersISt5dequeIiSaIiEESt6vectorIiS1_E22random_access_iteratorISt15_Deque_iteratorIiRiPiEEN9__gnu_cxx17__normal_iteratorIS8_S4_EESA_Evv = private unnamed_addr constant [291 x i8] c"void test_containers() [InContainer = std::deque<int>, OutContainer = std::vector<int>, In = random_access_iterator<std::_Deque_iterator<int, int &, int *>>, Out = __gnu_cxx::__normal_iterator<int *, std::vector<int>>, Sent = random_access_iterator<std::_Deque_iterator<int, int &, int *>>]\00", align 1
@__PRETTY_FUNCTION__._Z15test_containersISt6vectorIiSaIiEESt5dequeIiS1_E22random_access_iteratorIN9__gnu_cxx17__normal_iteratorIPiS2_EEESt15_Deque_iteratorIiRiS8_ESA_Evv = private unnamed_addr constant [305 x i8] c"void test_containers() [InContainer = std::vector<int>, OutContainer = std::deque<int>, In = random_access_iterator<__gnu_cxx::__normal_iterator<int *, std::vector<int>>>, Out = std::_Deque_iterator<int, int &, int *>, Sent = random_access_iterator<__gnu_cxx::__normal_iterator<int *, std::vector<int>>>]\00", align 1
@__PRETTY_FUNCTION__._Z15test_containersISt6vectorIiSaIiEES2_22random_access_iteratorIN9__gnu_cxx17__normal_iteratorIPiS2_EEES7_S8_Evv = private unnamed_addr constant [320 x i8] c"void test_containers() [InContainer = std::vector<int>, OutContainer = std::vector<int>, In = random_access_iterator<__gnu_cxx::__normal_iterator<int *, std::vector<int>>>, Out = __gnu_cxx::__normal_iterator<int *, std::vector<int>>, Sent = random_access_iterator<__gnu_cxx::__normal_iterator<int *, std::vector<int>>>]\00", align 1
@__PRETTY_FUNCTION__._Z15test_containersISt5dequeIiSaIiEES2_St15_Deque_iteratorIiRiPiES6_S6_Evv = private unnamed_addr constant [228 x i8] c"void test_containers() [InContainer = std::deque<int>, OutContainer = std::deque<int>, In = std::_Deque_iterator<int, int &, int *>, Out = std::_Deque_iterator<int, int &, int *>, Sent = std::_Deque_iterator<int, int &, int *>]\00", align 1
@__PRETTY_FUNCTION__._Z15test_containersISt5dequeIiSaIiEESt6vectorIiS1_ESt15_Deque_iteratorIiRiPiEN9__gnu_cxx17__normal_iteratorIS7_S4_EES8_Evv = private unnamed_addr constant [243 x i8] c"void test_containers() [InContainer = std::deque<int>, OutContainer = std::vector<int>, In = std::_Deque_iterator<int, int &, int *>, Out = __gnu_cxx::__normal_iterator<int *, std::vector<int>>, Sent = std::_Deque_iterator<int, int &, int *>]\00", align 1
@__PRETTY_FUNCTION__._Z15test_containersISt6vectorIiSaIiEESt5dequeIiS1_EN9__gnu_cxx17__normal_iteratorIPiS2_EESt15_Deque_iteratorIiRiS7_ES8_Evv = private unnamed_addr constant [257 x i8] c"void test_containers() [InContainer = std::vector<int>, OutContainer = std::deque<int>, In = __gnu_cxx::__normal_iterator<int *, std::vector<int>>, Out = std::_Deque_iterator<int, int &, int *>, Sent = __gnu_cxx::__normal_iterator<int *, std::vector<int>>]\00", align 1
@__PRETTY_FUNCTION__._Z15test_containersISt6vectorIiSaIiEES2_N9__gnu_cxx17__normal_iteratorIPiS2_EES6_S6_Evv = private unnamed_addr constant [272 x i8] c"void test_containers() [InContainer = std::vector<int>, OutContainer = std::vector<int>, In = __gnu_cxx::__normal_iterator<int *, std::vector<int>>, Out = __gnu_cxx::__normal_iterator<int *, std::vector<int>>, Sent = __gnu_cxx::__normal_iterator<int *, std::vector<int>>]\00", align 1
@__PRETTY_FUNCTION__._Z15test_containersISt5dequeIiSaIiEES2_13ProxyIteratorI22bidirectional_iteratorISt15_Deque_iteratorIiRiPiEEESA_SA_Evv = private unnamed_addr constant [345 x i8] c"void test_containers() [InContainer = std::deque<int>, OutContainer = std::deque<int>, In = ProxyIterator<bidirectional_iterator<std::_Deque_iterator<int, int &, int *>>>, Out = ProxyIterator<bidirectional_iterator<std::_Deque_iterator<int, int &, int *>>>, Sent = ProxyIterator<bidirectional_iterator<std::_Deque_iterator<int, int &, int *>>>]\00", align 1
@__PRETTY_FUNCTION__._Z15test_containersISt5dequeIiSaIiEESt6vectorIiS1_E13ProxyIteratorI22bidirectional_iteratorISt15_Deque_iteratorIiRiPiEEES5_IS6_IN9__gnu_cxx17__normal_iteratorIS9_S4_EEEESC_Evv = private unnamed_addr constant [360 x i8] c"void test_containers() [InContainer = std::deque<int>, OutContainer = std::vector<int>, In = ProxyIterator<bidirectional_iterator<std::_Deque_iterator<int, int &, int *>>>, Out = ProxyIterator<bidirectional_iterator<__gnu_cxx::__normal_iterator<int *, std::vector<int>>>>, Sent = ProxyIterator<bidirectional_iterator<std::_Deque_iterator<int, int &, int *>>>]\00", align 1
@__PRETTY_FUNCTION__._Z15test_containersISt6vectorIiSaIiEESt5dequeIiS1_E13ProxyIteratorI22bidirectional_iteratorIN9__gnu_cxx17__normal_iteratorIPiS2_EEEES5_IS6_ISt15_Deque_iteratorIiRiS9_EEESC_Evv = private unnamed_addr constant [374 x i8] c"void test_containers() [InContainer = std::vector<int>, OutContainer = std::deque<int>, In = ProxyIterator<bidirectional_iterator<__gnu_cxx::__normal_iterator<int *, std::vector<int>>>>, Out = ProxyIterator<bidirectional_iterator<std::_Deque_iterator<int, int &, int *>>>, Sent = ProxyIterator<bidirectional_iterator<__gnu_cxx::__normal_iterator<int *, std::vector<int>>>>]\00", align 1
@__PRETTY_FUNCTION__._Z15test_containersISt6vectorIiSaIiEES2_13ProxyIteratorI22bidirectional_iteratorIN9__gnu_cxx17__normal_iteratorIPiS2_EEEESA_SA_Evv = private unnamed_addr constant [389 x i8] c"void test_containers() [InContainer = std::vector<int>, OutContainer = std::vector<int>, In = ProxyIterator<bidirectional_iterator<__gnu_cxx::__normal_iterator<int *, std::vector<int>>>>, Out = ProxyIterator<bidirectional_iterator<__gnu_cxx::__normal_iterator<int *, std::vector<int>>>>, Sent = ProxyIterator<bidirectional_iterator<__gnu_cxx::__normal_iterator<int *, std::vector<int>>>>]\00", align 1
@__PRETTY_FUNCTION__._Z15test_containersISt5dequeIiSaIiEES2_13ProxyIteratorI22random_access_iteratorISt15_Deque_iteratorIiRiPiEEES3_I22bidirectional_iteratorIS8_EESA_Evv = private unnamed_addr constant [345 x i8] c"void test_containers() [InContainer = std::deque<int>, OutContainer = std::deque<int>, In = ProxyIterator<random_access_iterator<std::_Deque_iterator<int, int &, int *>>>, Out = ProxyIterator<bidirectional_iterator<std::_Deque_iterator<int, int &, int *>>>, Sent = ProxyIterator<random_access_iterator<std::_Deque_iterator<int, int &, int *>>>]\00", align 1
@__PRETTY_FUNCTION__._Z15test_containersISt5dequeIiSaIiEESt6vectorIiS1_E13ProxyIteratorI22random_access_iteratorISt15_Deque_iteratorIiRiPiEEES5_I22bidirectional_iteratorIN9__gnu_cxx17__normal_iteratorIS9_S4_EEEESC_Evv = private unnamed_addr constant [360 x i8] c"void test_containers() [InContainer = std::deque<int>, OutContainer = std::vector<int>, In = ProxyIterator<random_access_iterator<std::_Deque_iterator<int, int &, int *>>>, Out = ProxyIterator<bidirectional_iterator<__gnu_cxx::__normal_iterator<int *, std::vector<int>>>>, Sent = ProxyIterator<random_access_iterator<std::_Deque_iterator<int, int &, int *>>>]\00", align 1
@__PRETTY_FUNCTION__._Z15test_containersISt6vectorIiSaIiEESt5dequeIiS1_E13ProxyIteratorI22random_access_iteratorIN9__gnu_cxx17__normal_iteratorIPiS2_EEEES5_I22bidirectional_iteratorISt15_Deque_iteratorIiRiS9_EEESC_Evv = private unnamed_addr constant [374 x i8] c"void test_containers() [InContainer = std::vector<int>, OutContainer = std::deque<int>, In = ProxyIterator<random_access_iterator<__gnu_cxx::__normal_iterator<int *, std::vector<int>>>>, Out = ProxyIterator<bidirectional_iterator<std::_Deque_iterator<int, int &, int *>>>, Sent = ProxyIterator<random_access_iterator<__gnu_cxx::__normal_iterator<int *, std::vector<int>>>>]\00", align 1
@__PRETTY_FUNCTION__._Z15test_containersISt6vectorIiSaIiEES2_13ProxyIteratorI22random_access_iteratorIN9__gnu_cxx17__normal_iteratorIPiS2_EEEES3_I22bidirectional_iteratorIS8_EESA_Evv = private unnamed_addr constant [389 x i8] c"void test_containers() [InContainer = std::vector<int>, OutContainer = std::vector<int>, In = ProxyIterator<random_access_iterator<__gnu_cxx::__normal_iterator<int *, std::vector<int>>>>, Out = ProxyIterator<bidirectional_iterator<__gnu_cxx::__normal_iterator<int *, std::vector<int>>>>, Sent = ProxyIterator<random_access_iterator<__gnu_cxx::__normal_iterator<int *, std::vector<int>>>>]\00", align 1
@__PRETTY_FUNCTION__._Z15test_containersISt5dequeIiSaIiEES2_13ProxyIteratorISt15_Deque_iteratorIiRiPiEES3_I22bidirectional_iteratorIS7_EES8_Evv = private unnamed_addr constant [297 x i8] c"void test_containers() [InContainer = std::deque<int>, OutContainer = std::deque<int>, In = ProxyIterator<std::_Deque_iterator<int, int &, int *>>, Out = ProxyIterator<bidirectional_iterator<std::_Deque_iterator<int, int &, int *>>>, Sent = ProxyIterator<std::_Deque_iterator<int, int &, int *>>]\00", align 1
@__PRETTY_FUNCTION__._Z15test_containersISt5dequeIiSaIiEESt6vectorIiS1_E13ProxyIteratorISt15_Deque_iteratorIiRiPiEES5_I22bidirectional_iteratorIN9__gnu_cxx17__normal_iteratorIS8_S4_EEEESA_Evv = private unnamed_addr constant [312 x i8] c"void test_containers() [InContainer = std::deque<int>, OutContainer = std::vector<int>, In = ProxyIterator<std::_Deque_iterator<int, int &, int *>>, Out = ProxyIterator<bidirectional_iterator<__gnu_cxx::__normal_iterator<int *, std::vector<int>>>>, Sent = ProxyIterator<std::_Deque_iterator<int, int &, int *>>]\00", align 1
@__PRETTY_FUNCTION__._Z15test_containersISt6vectorIiSaIiEESt5dequeIiS1_E13ProxyIteratorIN9__gnu_cxx17__normal_iteratorIPiS2_EEES5_I22bidirectional_iteratorISt15_Deque_iteratorIiRiS8_EEESA_Evv = private unnamed_addr constant [326 x i8] c"void test_containers() [InContainer = std::vector<int>, OutContainer = std::deque<int>, In = ProxyIterator<__gnu_cxx::__normal_iterator<int *, std::vector<int>>>, Out = ProxyIterator<bidirectional_iterator<std::_Deque_iterator<int, int &, int *>>>, Sent = ProxyIterator<__gnu_cxx::__normal_iterator<int *, std::vector<int>>>]\00", align 1
@__PRETTY_FUNCTION__._Z15test_containersISt6vectorIiSaIiEES2_13ProxyIteratorIN9__gnu_cxx17__normal_iteratorIPiS2_EEES3_I22bidirectional_iteratorIS7_EES8_Evv = private unnamed_addr constant [341 x i8] c"void test_containers() [InContainer = std::vector<int>, OutContainer = std::vector<int>, In = ProxyIterator<__gnu_cxx::__normal_iterator<int *, std::vector<int>>>, Out = ProxyIterator<bidirectional_iterator<__gnu_cxx::__normal_iterator<int *, std::vector<int>>>>, Sent = ProxyIterator<__gnu_cxx::__normal_iterator<int *, std::vector<int>>>]\00", align 1
@__PRETTY_FUNCTION__._Z15test_containersISt5dequeIiSaIiEES2_13ProxyIteratorI22bidirectional_iteratorISt15_Deque_iteratorIiRiPiEEES3_I22random_access_iteratorIS8_EESA_Evv = private unnamed_addr constant [345 x i8] c"void test_containers() [InContainer = std::deque<int>, OutContainer = std::deque<int>, In = ProxyIterator<bidirectional_iterator<std::_Deque_iterator<int, int &, int *>>>, Out = ProxyIterator<random_access_iterator<std::_Deque_iterator<int, int &, int *>>>, Sent = ProxyIterator<bidirectional_iterator<std::_Deque_iterator<int, int &, int *>>>]\00", align 1
@__PRETTY_FUNCTION__._Z15test_containersISt5dequeIiSaIiEESt6vectorIiS1_E13ProxyIteratorI22bidirectional_iteratorISt15_Deque_iteratorIiRiPiEEES5_I22random_access_iteratorIN9__gnu_cxx17__normal_iteratorIS9_S4_EEEESC_Evv = private unnamed_addr constant [360 x i8] c"void test_containers() [InContainer = std::deque<int>, OutContainer = std::vector<int>, In = ProxyIterator<bidirectional_iterator<std::_Deque_iterator<int, int &, int *>>>, Out = ProxyIterator<random_access_iterator<__gnu_cxx::__normal_iterator<int *, std::vector<int>>>>, Sent = ProxyIterator<bidirectional_iterator<std::_Deque_iterator<int, int &, int *>>>]\00", align 1
@__PRETTY_FUNCTION__._Z15test_containersISt6vectorIiSaIiEESt5dequeIiS1_E13ProxyIteratorI22bidirectional_iteratorIN9__gnu_cxx17__normal_iteratorIPiS2_EEEES5_I22random_access_iteratorISt15_Deque_iteratorIiRiS9_EEESC_Evv = private unnamed_addr constant [374 x i8] c"void test_containers() [InContainer = std::vector<int>, OutContainer = std::deque<int>, In = ProxyIterator<bidirectional_iterator<__gnu_cxx::__normal_iterator<int *, std::vector<int>>>>, Out = ProxyIterator<random_access_iterator<std::_Deque_iterator<int, int &, int *>>>, Sent = ProxyIterator<bidirectional_iterator<__gnu_cxx::__normal_iterator<int *, std::vector<int>>>>]\00", align 1
@__PRETTY_FUNCTION__._Z15test_containersISt6vectorIiSaIiEES2_13ProxyIteratorI22bidirectional_iteratorIN9__gnu_cxx17__normal_iteratorIPiS2_EEEES3_I22random_access_iteratorIS8_EESA_Evv = private unnamed_addr constant [389 x i8] c"void test_containers() [InContainer = std::vector<int>, OutContainer = std::vector<int>, In = ProxyIterator<bidirectional_iterator<__gnu_cxx::__normal_iterator<int *, std::vector<int>>>>, Out = ProxyIterator<random_access_iterator<__gnu_cxx::__normal_iterator<int *, std::vector<int>>>>, Sent = ProxyIterator<bidirectional_iterator<__gnu_cxx::__normal_iterator<int *, std::vector<int>>>>]\00", align 1
@__PRETTY_FUNCTION__._Z15test_containersISt5dequeIiSaIiEES2_13ProxyIteratorI22random_access_iteratorISt15_Deque_iteratorIiRiPiEEESA_SA_Evv = private unnamed_addr constant [345 x i8] c"void test_containers() [InContainer = std::deque<int>, OutContainer = std::deque<int>, In = ProxyIterator<random_access_iterator<std::_Deque_iterator<int, int &, int *>>>, Out = ProxyIterator<random_access_iterator<std::_Deque_iterator<int, int &, int *>>>, Sent = ProxyIterator<random_access_iterator<std::_Deque_iterator<int, int &, int *>>>]\00", align 1
@__PRETTY_FUNCTION__._Z15test_containersISt5dequeIiSaIiEESt6vectorIiS1_E13ProxyIteratorI22random_access_iteratorISt15_Deque_iteratorIiRiPiEEES5_IS6_IN9__gnu_cxx17__normal_iteratorIS9_S4_EEEESC_Evv = private unnamed_addr constant [360 x i8] c"void test_containers() [InContainer = std::deque<int>, OutContainer = std::vector<int>, In = ProxyIterator<random_access_iterator<std::_Deque_iterator<int, int &, int *>>>, Out = ProxyIterator<random_access_iterator<__gnu_cxx::__normal_iterator<int *, std::vector<int>>>>, Sent = ProxyIterator<random_access_iterator<std::_Deque_iterator<int, int &, int *>>>]\00", align 1
@__PRETTY_FUNCTION__._Z15test_containersISt6vectorIiSaIiEESt5dequeIiS1_E13ProxyIteratorI22random_access_iteratorIN9__gnu_cxx17__normal_iteratorIPiS2_EEEES5_IS6_ISt15_Deque_iteratorIiRiS9_EEESC_Evv = private unnamed_addr constant [374 x i8] c"void test_containers() [InContainer = std::vector<int>, OutContainer = std::deque<int>, In = ProxyIterator<random_access_iterator<__gnu_cxx::__normal_iterator<int *, std::vector<int>>>>, Out = ProxyIterator<random_access_iterator<std::_Deque_iterator<int, int &, int *>>>, Sent = ProxyIterator<random_access_iterator<__gnu_cxx::__normal_iterator<int *, std::vector<int>>>>]\00", align 1
@__PRETTY_FUNCTION__._Z15test_containersISt6vectorIiSaIiEES2_13ProxyIteratorI22random_access_iteratorIN9__gnu_cxx17__normal_iteratorIPiS2_EEEESA_SA_Evv = private unnamed_addr constant [389 x i8] c"void test_containers() [InContainer = std::vector<int>, OutContainer = std::vector<int>, In = ProxyIterator<random_access_iterator<__gnu_cxx::__normal_iterator<int *, std::vector<int>>>>, Out = ProxyIterator<random_access_iterator<__gnu_cxx::__normal_iterator<int *, std::vector<int>>>>, Sent = ProxyIterator<random_access_iterator<__gnu_cxx::__normal_iterator<int *, std::vector<int>>>>]\00", align 1
@__PRETTY_FUNCTION__._Z15test_containersISt5dequeIiSaIiEES2_13ProxyIteratorISt15_Deque_iteratorIiRiPiEES3_I22random_access_iteratorIS7_EES8_Evv = private unnamed_addr constant [297 x i8] c"void test_containers() [InContainer = std::deque<int>, OutContainer = std::deque<int>, In = ProxyIterator<std::_Deque_iterator<int, int &, int *>>, Out = ProxyIterator<random_access_iterator<std::_Deque_iterator<int, int &, int *>>>, Sent = ProxyIterator<std::_Deque_iterator<int, int &, int *>>]\00", align 1
@__PRETTY_FUNCTION__._Z15test_containersISt5dequeIiSaIiEESt6vectorIiS1_E13ProxyIteratorISt15_Deque_iteratorIiRiPiEES5_I22random_access_iteratorIN9__gnu_cxx17__normal_iteratorIS8_S4_EEEESA_Evv = private unnamed_addr constant [312 x i8] c"void test_containers() [InContainer = std::deque<int>, OutContainer = std::vector<int>, In = ProxyIterator<std::_Deque_iterator<int, int &, int *>>, Out = ProxyIterator<random_access_iterator<__gnu_cxx::__normal_iterator<int *, std::vector<int>>>>, Sent = ProxyIterator<std::_Deque_iterator<int, int &, int *>>]\00", align 1
@__PRETTY_FUNCTION__._Z15test_containersISt6vectorIiSaIiEESt5dequeIiS1_E13ProxyIteratorIN9__gnu_cxx17__normal_iteratorIPiS2_EEES5_I22random_access_iteratorISt15_Deque_iteratorIiRiS8_EEESA_Evv = private unnamed_addr constant [326 x i8] c"void test_containers() [InContainer = std::vector<int>, OutContainer = std::deque<int>, In = ProxyIterator<__gnu_cxx::__normal_iterator<int *, std::vector<int>>>, Out = ProxyIterator<random_access_iterator<std::_Deque_iterator<int, int &, int *>>>, Sent = ProxyIterator<__gnu_cxx::__normal_iterator<int *, std::vector<int>>>]\00", align 1
@__PRETTY_FUNCTION__._Z15test_containersISt6vectorIiSaIiEES2_13ProxyIteratorIN9__gnu_cxx17__normal_iteratorIPiS2_EEES3_I22random_access_iteratorIS7_EES8_Evv = private unnamed_addr constant [341 x i8] c"void test_containers() [InContainer = std::vector<int>, OutContainer = std::vector<int>, In = ProxyIterator<__gnu_cxx::__normal_iterator<int *, std::vector<int>>>, Out = ProxyIterator<random_access_iterator<__gnu_cxx::__normal_iterator<int *, std::vector<int>>>>, Sent = ProxyIterator<__gnu_cxx::__normal_iterator<int *, std::vector<int>>>]\00", align 1

; Function Attrs: mustprogress norecurse uwtable
define dso_local noundef i32 @main(i32 noundef %0, ptr noundef readnone captures(none) %1) local_unnamed_addr #0 {
  %3 = tail call noundef zeroext i1 @_Z4testv()
  ret i32 0
}

; Function Attrs: mustprogress uwtable
define linkonce_odr dso_local noundef zeroext i1 @_Z4testv() local_unnamed_addr #1 comdat personality ptr @__gxx_personality_v0 {
  %1 = alloca %"struct.std::array", align 16
  %2 = alloca %"struct.std::array", align 16
  tail call void @_Z17test_in_iteratorsI22bidirectional_iteratorEvv()
  tail call void @_Z17test_in_iteratorsI22random_access_iteratorEvv()
  tail call void @_Z17test_in_iteratorsISt15type_identity_tEvv()
  tail call void @_Z15test_containersISt5dequeIiSaIiEES2_13ProxyIteratorI22bidirectional_iteratorISt15_Deque_iteratorIiRiPiEEESA_SA_Evv()
  tail call void @_Z15test_containersISt5dequeIiSaIiEESt6vectorIiS1_E13ProxyIteratorI22bidirectional_iteratorISt15_Deque_iteratorIiRiPiEEES5_IS6_IN9__gnu_cxx17__normal_iteratorIS9_S4_EEEESC_Evv()
  tail call void @_Z15test_containersISt6vectorIiSaIiEESt5dequeIiS1_E13ProxyIteratorI22bidirectional_iteratorIN9__gnu_cxx17__normal_iteratorIPiS2_EEEES5_IS6_ISt15_Deque_iteratorIiRiS9_EEESC_Evv()
  tail call void @_Z15test_containersISt6vectorIiSaIiEES2_13ProxyIteratorI22bidirectional_iteratorIN9__gnu_cxx17__normal_iteratorIPiS2_EEEESA_SA_Evv()
  tail call void @_Z15test_containersISt5dequeIiSaIiEES2_13ProxyIteratorI22random_access_iteratorISt15_Deque_iteratorIiRiPiEEES3_I22bidirectional_iteratorIS8_EESA_Evv()
  tail call void @_Z15test_containersISt5dequeIiSaIiEESt6vectorIiS1_E13ProxyIteratorI22random_access_iteratorISt15_Deque_iteratorIiRiPiEEES5_I22bidirectional_iteratorIN9__gnu_cxx17__normal_iteratorIS9_S4_EEEESC_Evv()
  tail call void @_Z15test_containersISt6vectorIiSaIiEESt5dequeIiS1_E13ProxyIteratorI22random_access_iteratorIN9__gnu_cxx17__normal_iteratorIPiS2_EEEES5_I22bidirectional_iteratorISt15_Deque_iteratorIiRiS9_EEESC_Evv()
  tail call void @_Z15test_containersISt6vectorIiSaIiEES2_13ProxyIteratorI22random_access_iteratorIN9__gnu_cxx17__normal_iteratorIPiS2_EEEES3_I22bidirectional_iteratorIS8_EESA_Evv()
  tail call void @_Z15test_containersISt5dequeIiSaIiEES2_13ProxyIteratorISt15_Deque_iteratorIiRiPiEES3_I22bidirectional_iteratorIS7_EES8_Evv()
  tail call void @_Z15test_containersISt5dequeIiSaIiEESt6vectorIiS1_E13ProxyIteratorISt15_Deque_iteratorIiRiPiEES5_I22bidirectional_iteratorIN9__gnu_cxx17__normal_iteratorIS8_S4_EEEESA_Evv()
  tail call void @_Z15test_containersISt6vectorIiSaIiEESt5dequeIiS1_E13ProxyIteratorIN9__gnu_cxx17__normal_iteratorIPiS2_EEES5_I22bidirectional_iteratorISt15_Deque_iteratorIiRiS8_EEESA_Evv()
  tail call void @_Z15test_containersISt6vectorIiSaIiEES2_13ProxyIteratorIN9__gnu_cxx17__normal_iteratorIPiS2_EEES3_I22bidirectional_iteratorIS7_EES8_Evv()
  tail call void @_Z15test_containersISt5dequeIiSaIiEES2_13ProxyIteratorI22bidirectional_iteratorISt15_Deque_iteratorIiRiPiEEES3_I22random_access_iteratorIS8_EESA_Evv()
  tail call void @_Z15test_containersISt5dequeIiSaIiEESt6vectorIiS1_E13ProxyIteratorI22bidirectional_iteratorISt15_Deque_iteratorIiRiPiEEES5_I22random_access_iteratorIN9__gnu_cxx17__normal_iteratorIS9_S4_EEEESC_Evv()
  tail call void @_Z15test_containersISt6vectorIiSaIiEESt5dequeIiS1_E13ProxyIteratorI22bidirectional_iteratorIN9__gnu_cxx17__normal_iteratorIPiS2_EEEES5_I22random_access_iteratorISt15_Deque_iteratorIiRiS9_EEESC_Evv()
  tail call void @_Z15test_containersISt6vectorIiSaIiEES2_13ProxyIteratorI22bidirectional_iteratorIN9__gnu_cxx17__normal_iteratorIPiS2_EEEES3_I22random_access_iteratorIS8_EESA_Evv()
  tail call void @_Z15test_containersISt5dequeIiSaIiEES2_13ProxyIteratorI22random_access_iteratorISt15_Deque_iteratorIiRiPiEEESA_SA_Evv()
  tail call void @_Z15test_containersISt5dequeIiSaIiEESt6vectorIiS1_E13ProxyIteratorI22random_access_iteratorISt15_Deque_iteratorIiRiPiEEES5_IS6_IN9__gnu_cxx17__normal_iteratorIS9_S4_EEEESC_Evv()
  tail call void @_Z15test_containersISt6vectorIiSaIiEESt5dequeIiS1_E13ProxyIteratorI22random_access_iteratorIN9__gnu_cxx17__normal_iteratorIPiS2_EEEES5_IS6_ISt15_Deque_iteratorIiRiS9_EEESC_Evv()
  tail call void @_Z15test_containersISt6vectorIiSaIiEES2_13ProxyIteratorI22random_access_iteratorIN9__gnu_cxx17__normal_iteratorIPiS2_EEEESA_SA_Evv()
  tail call void @_Z15test_containersISt5dequeIiSaIiEES2_13ProxyIteratorISt15_Deque_iteratorIiRiPiEES3_I22random_access_iteratorIS7_EES8_Evv()
  tail call void @_Z15test_containersISt5dequeIiSaIiEESt6vectorIiS1_E13ProxyIteratorISt15_Deque_iteratorIiRiPiEES5_I22random_access_iteratorIN9__gnu_cxx17__normal_iteratorIS8_S4_EEEESA_Evv()
  tail call void @_Z15test_containersISt6vectorIiSaIiEESt5dequeIiS1_E13ProxyIteratorIN9__gnu_cxx17__normal_iteratorIPiS2_EEES5_I22random_access_iteratorISt15_Deque_iteratorIiRiS8_EEESA_Evv()
  tail call void @_Z15test_containersISt6vectorIiSaIiEES2_13ProxyIteratorIN9__gnu_cxx17__normal_iteratorIPiS2_EEES3_I22random_access_iteratorIS7_EES8_Evv()
  call void @llvm.lifetime.start.p0(ptr nonnull %1) #17
  store <4 x i32> <i32 1, i32 2, i32 3, i32 4>, ptr %1, align 16
  call void @llvm.lifetime.start.p0(ptr nonnull %2) #17
  store <4 x i32> <i32 1, i32 2, i32 3, i32 4>, ptr %2, align 16, !tbaa !5
  %3 = call i32 @bcmp(ptr noundef nonnull align 4 dereferenceable(16) %1, ptr noundef nonnull align 4 dereferenceable(16) %2, i64 16)
  %4 = icmp eq i32 %3, 0
  br i1 %4, label %6, label %5

5:                                                ; preds = %0
  tail call void @__assert_fail(ptr noundef nonnull @.str.2, ptr noundef nonnull @.str.1, i32 noundef 268, ptr noundef nonnull @__PRETTY_FUNCTION__._Z4testv) #18
  unreachable

6:                                                ; preds = %0
  call void @llvm.lifetime.end.p0(ptr nonnull %2) #17
  call void @llvm.lifetime.end.p0(ptr nonnull %1) #17
  ret i1 true
}

; Function Attrs: mustprogress uwtable
define linkonce_odr dso_local void @_Z17test_in_iteratorsI22bidirectional_iteratorEvv() local_unnamed_addr #1 comdat personality ptr @__gxx_personality_v0 {
  tail call void @_Z15test_containersISt5dequeIiSaIiEES2_22bidirectional_iteratorISt15_Deque_iteratorIiRiPiEES8_S8_Evv()
  tail call void @_Z15test_containersISt5dequeIiSaIiEESt6vectorIiS1_E22bidirectional_iteratorISt15_Deque_iteratorIiRiPiEES5_IN9__gnu_cxx17__normal_iteratorIS8_S4_EEESA_Evv()
  tail call void @_Z15test_containersISt6vectorIiSaIiEESt5dequeIiS1_E22bidirectional_iteratorIN9__gnu_cxx17__normal_iteratorIPiS2_EEES5_ISt15_Deque_iteratorIiRiS8_EESA_Evv()
  tail call void @_Z15test_containersISt6vectorIiSaIiEES2_22bidirectional_iteratorIN9__gnu_cxx17__normal_iteratorIPiS2_EEES8_S8_Evv()
  tail call void @_Z14test_join_viewI22bidirectional_iteratorIN9__gnu_cxx17__normal_iteratorIPiSt6vectorIiSaIiEEEEES8_Evv()
  tail call void @_Z15test_containersISt5dequeIiSaIiEES2_22random_access_iteratorISt15_Deque_iteratorIiRiPiEE22bidirectional_iteratorIS7_ES8_Evv()
  tail call void @_Z15test_containersISt5dequeIiSaIiEESt6vectorIiS1_E22random_access_iteratorISt15_Deque_iteratorIiRiPiEE22bidirectional_iteratorIN9__gnu_cxx17__normal_iteratorIS8_S4_EEESA_Evv()
  tail call void @_Z15test_containersISt6vectorIiSaIiEESt5dequeIiS1_E22random_access_iteratorIN9__gnu_cxx17__normal_iteratorIPiS2_EEE22bidirectional_iteratorISt15_Deque_iteratorIiRiS8_EESA_Evv()
  tail call void @_Z15test_containersISt6vectorIiSaIiEES2_22random_access_iteratorIN9__gnu_cxx17__normal_iteratorIPiS2_EEE22bidirectional_iteratorIS7_ES8_Evv()
  tail call void @_Z14test_join_viewI22random_access_iteratorIN9__gnu_cxx17__normal_iteratorIPiSt6vectorIiSaIiEEEEES8_Evv()
  tail call void @_Z15test_containersISt5dequeIiSaIiEES2_St15_Deque_iteratorIiRiPiE22bidirectional_iteratorIS6_ES6_Evv()
  tail call void @_Z15test_containersISt5dequeIiSaIiEESt6vectorIiS1_ESt15_Deque_iteratorIiRiPiE22bidirectional_iteratorIN9__gnu_cxx17__normal_iteratorIS7_S4_EEES8_Evv()
  tail call void @_Z15test_containersISt6vectorIiSaIiEESt5dequeIiS1_EN9__gnu_cxx17__normal_iteratorIPiS2_EE22bidirectional_iteratorISt15_Deque_iteratorIiRiS7_EES8_Evv()
  tail call void @_Z15test_containersISt6vectorIiSaIiEES2_N9__gnu_cxx17__normal_iteratorIPiS2_EE22bidirectional_iteratorIS6_ES6_Evv()
  tail call void @_Z14test_join_viewIN9__gnu_cxx17__normal_iteratorIPiSt6vectorIiSaIiEEEES6_Evv()
  ret void
}

; Function Attrs: mustprogress uwtable
define linkonce_odr dso_local void @_Z17test_in_iteratorsI22random_access_iteratorEvv() local_unnamed_addr #1 comdat personality ptr @__gxx_personality_v0 {
  tail call void @_Z15test_containersISt5dequeIiSaIiEES2_22bidirectional_iteratorISt15_Deque_iteratorIiRiPiEE22random_access_iteratorIS7_ES8_Evv()
  tail call void @_Z15test_containersISt5dequeIiSaIiEESt6vectorIiS1_E22bidirectional_iteratorISt15_Deque_iteratorIiRiPiEE22random_access_iteratorIN9__gnu_cxx17__normal_iteratorIS8_S4_EEESA_Evv()
  tail call void @_Z15test_containersISt6vectorIiSaIiEESt5dequeIiS1_E22bidirectional_iteratorIN9__gnu_cxx17__normal_iteratorIPiS2_EEE22random_access_iteratorISt15_Deque_iteratorIiRiS8_EESA_Evv()
  tail call void @_Z15test_containersISt6vectorIiSaIiEES2_22bidirectional_iteratorIN9__gnu_cxx17__normal_iteratorIPiS2_EEE22random_access_iteratorIS7_ES8_Evv()
  tail call void @_Z14test_join_viewI22bidirectional_iteratorIN9__gnu_cxx17__normal_iteratorIPiSt6vectorIiSaIiEEEEES8_Evv()
  tail call void @_Z15test_containersISt5dequeIiSaIiEES2_22random_access_iteratorISt15_Deque_iteratorIiRiPiEES8_S8_Evv()
  tail call void @_Z15test_containersISt5dequeIiSaIiEESt6vectorIiS1_E22random_access_iteratorISt15_Deque_iteratorIiRiPiEES5_IN9__gnu_cxx17__normal_iteratorIS8_S4_EEESA_Evv()
  tail call void @_Z15test_containersISt6vectorIiSaIiEESt5dequeIiS1_E22random_access_iteratorIN9__gnu_cxx17__normal_iteratorIPiS2_EEES5_ISt15_Deque_iteratorIiRiS8_EESA_Evv()
  tail call void @_Z15test_containersISt6vectorIiSaIiEES2_22random_access_iteratorIN9__gnu_cxx17__normal_iteratorIPiS2_EEES8_S8_Evv()
  tail call void @_Z14test_join_viewI22random_access_iteratorIN9__gnu_cxx17__normal_iteratorIPiSt6vectorIiSaIiEEEEES8_Evv()
  tail call void @_Z15test_containersISt5dequeIiSaIiEES2_St15_Deque_iteratorIiRiPiE22random_access_iteratorIS6_ES6_Evv()
  tail call void @_Z15test_containersISt5dequeIiSaIiEESt6vectorIiS1_ESt15_Deque_iteratorIiRiPiE22random_access_iteratorIN9__gnu_cxx17__normal_iteratorIS7_S4_EEES8_Evv()
  tail call void @_Z15test_containersISt6vectorIiSaIiEESt5dequeIiS1_EN9__gnu_cxx17__normal_iteratorIPiS2_EE22random_access_iteratorISt15_Deque_iteratorIiRiS7_EES8_Evv()
  tail call void @_Z15test_containersISt6vectorIiSaIiEES2_N9__gnu_cxx17__normal_iteratorIPiS2_EE22random_access_iteratorIS6_ES6_Evv()
  tail call void @_Z14test_join_viewIN9__gnu_cxx17__normal_iteratorIPiSt6vectorIiSaIiEEEES6_Evv()
  ret void
}

; Function Attrs: mustprogress uwtable
define linkonce_odr dso_local void @_Z17test_in_iteratorsISt15type_identity_tEvv() local_unnamed_addr #1 comdat personality ptr @__gxx_personality_v0 {
  tail call void @_Z15test_containersISt5dequeIiSaIiEES2_22bidirectional_iteratorISt15_Deque_iteratorIiRiPiEES7_S8_Evv()
  tail call void @_Z15test_containersISt5dequeIiSaIiEESt6vectorIiS1_E22bidirectional_iteratorISt15_Deque_iteratorIiRiPiEEN9__gnu_cxx17__normal_iteratorIS8_S4_EESA_Evv()
  tail call void @_Z15test_containersISt6vectorIiSaIiEESt5dequeIiS1_E22bidirectional_iteratorIN9__gnu_cxx17__normal_iteratorIPiS2_EEESt15_Deque_iteratorIiRiS8_ESA_Evv()
  tail call void @_Z15test_containersISt6vectorIiSaIiEES2_22bidirectional_iteratorIN9__gnu_cxx17__normal_iteratorIPiS2_EEES7_S8_Evv()
  tail call void @_Z14test_join_viewI22bidirectional_iteratorIN9__gnu_cxx17__normal_iteratorIPiSt6vectorIiSaIiEEEEES8_Evv()
  tail call void @_Z15test_containersISt5dequeIiSaIiEES2_22random_access_iteratorISt15_Deque_iteratorIiRiPiEES7_S8_Evv()
  tail call void @_Z15test_containersISt5dequeIiSaIiEESt6vectorIiS1_E22random_access_iteratorISt15_Deque_iteratorIiRiPiEEN9__gnu_cxx17__normal_iteratorIS8_S4_EESA_Evv()
  tail call void @_Z15test_containersISt6vectorIiSaIiEESt5dequeIiS1_E22random_access_iteratorIN9__gnu_cxx17__normal_iteratorIPiS2_EEESt15_Deque_iteratorIiRiS8_ESA_Evv()
  tail call void @_Z15test_containersISt6vectorIiSaIiEES2_22random_access_iteratorIN9__gnu_cxx17__normal_iteratorIPiS2_EEES7_S8_Evv()
  tail call void @_Z14test_join_viewI22random_access_iteratorIN9__gnu_cxx17__normal_iteratorIPiSt6vectorIiSaIiEEEEES8_Evv()
  tail call void @_Z15test_containersISt5dequeIiSaIiEES2_St15_Deque_iteratorIiRiPiES6_S6_Evv()
  tail call void @_Z15test_containersISt5dequeIiSaIiEESt6vectorIiS1_ESt15_Deque_iteratorIiRiPiEN9__gnu_cxx17__normal_iteratorIS7_S4_EES8_Evv()
  tail call void @_Z15test_containersISt6vectorIiSaIiEESt5dequeIiS1_EN9__gnu_cxx17__normal_iteratorIPiS2_EESt15_Deque_iteratorIiRiS7_ES8_Evv()
  tail call void @_Z15test_containersISt6vectorIiSaIiEES2_N9__gnu_cxx17__normal_iteratorIPiS2_EES6_S6_Evv()
  tail call void @_Z14test_join_viewIN9__gnu_cxx17__normal_iteratorIPiSt6vectorIiSaIiEEEES6_Evv()
  ret void
}

; Function Attrs: mustprogress nocallback nofree nosync nounwind willreturn memory(argmem: readwrite)
declare void @llvm.lifetime.start.p0(ptr captures(none)) #2

; Function Attrs: mustprogress nocallback nofree nosync nounwind willreturn memory(argmem: readwrite)
declare void @llvm.lifetime.end.p0(ptr captures(none)) #2

; Function Attrs: noreturn nounwind
declare void @__assert_fail(ptr noundef, ptr noundef, i32 noundef, ptr noundef) local_unnamed_addr #3

; Function Attrs: mustprogress nocallback nofree nounwind willreturn memory(argmem: readwrite)
declare void @llvm.memcpy.p0.p0.i64(ptr noalias writeonly captures(none), ptr noalias readonly captures(none), i64, i1 immarg) #4

; Function Attrs: mustprogress nocallback nofree nounwind willreturn memory(argmem: write)
declare void @llvm.memset.p0.i64(ptr writeonly captures(none), i8, i64, i1 immarg) #5

; Function Attrs: mustprogress uwtable
define linkonce_odr dso_local void @_Z15test_containersISt5dequeIiSaIiEES2_22bidirectional_iteratorISt15_Deque_iteratorIiRiPiEES8_S8_Evv() local_unnamed_addr #1 comdat personality ptr @__gxx_personality_v0 {
  %1 = alloca %"class.std::deque", align 8
  %2 = alloca %"class.std::deque", align 8
  %3 = alloca %"class.std::deque", align 8
  %4 = alloca %"class.std::deque", align 8
  call void @llvm.lifetime.start.p0(ptr nonnull %1) #17
  call void @llvm.memset.p0.i64(ptr noundef nonnull align 8 dereferenceable(80) %1, i8 0, i64 80, i1 false)
  invoke void @_ZNSt11_Deque_baseIiSaIiEE17_M_initialize_mapEm(ptr noundef nonnull align 8 dereferenceable(80) %1, i64 noundef 4)
          to label %5 unwind label %13

5:                                                ; preds = %0
  %6 = getelementptr inbounds nuw i8, ptr %1, i64 40
  %7 = load ptr, ptr %6, align 8, !tbaa !9
  %8 = getelementptr inbounds nuw i8, ptr %1, i64 72
  %9 = load ptr, ptr %8, align 8, !tbaa !17
  %10 = icmp uge ptr %7, %9
  call void @llvm.assume(i1 %10)
  %11 = getelementptr inbounds nuw i8, ptr %1, i64 56
  %12 = load ptr, ptr %11, align 8, !tbaa !18
  store <4 x i32> <i32 1, i32 2, i32 3, i32 4>, ptr %12, align 4
  call void @llvm.lifetime.start.p0(ptr nonnull %2) #17
  call void @llvm.memset.p0.i64(ptr noundef nonnull align 8 dereferenceable(80) %2, i8 0, i64 80, i1 false)
  invoke void @_ZNSt11_Deque_baseIiSaIiEE17_M_initialize_mapEm(ptr noundef nonnull align 8 dereferenceable(80) %2, i64 noundef 4)
          to label %15 unwind label %159

13:                                               ; preds = %0
  %14 = landingpad { ptr, i32 }
          cleanup
  call void @_ZNSt11_Deque_baseIiSaIiEED2Ev(ptr noundef nonnull align 8 dereferenceable(80) %1) #17
  br label %357

15:                                               ; preds = %5
  %16 = getelementptr inbounds nuw i8, ptr %2, i64 40
  %17 = load ptr, ptr %16, align 8, !tbaa !9
  %18 = getelementptr inbounds nuw i8, ptr %2, i64 72
  %19 = load ptr, ptr %18, align 8, !tbaa !17
  %20 = icmp ult ptr %17, %19
  br i1 %20, label %21, label %26

21:                                               ; preds = %15, %21
  %22 = phi ptr [ %24, %21 ], [ %17, %15 ]
  %23 = load ptr, ptr %22, align 8, !tbaa !19
  %24 = getelementptr inbounds nuw i8, ptr %22, i64 8
  %25 = icmp ult ptr %24, %19
  call void @llvm.memset.p0.i64(ptr noundef nonnull align 4 dereferenceable(512) %23, i8 0, i64 512, i1 false)
  br i1 %25, label %21, label %26, !llvm.loop !20

26:                                               ; preds = %21, %15
  %27 = getelementptr inbounds nuw i8, ptr %2, i64 48
  %28 = getelementptr inbounds nuw i8, ptr %2, i64 56
  %29 = load ptr, ptr %28, align 8, !tbaa !18
  %30 = load ptr, ptr %27, align 8, !tbaa !22
  %31 = ptrtoint ptr %29 to i64
  %32 = ptrtoint ptr %30 to i64
  %33 = icmp eq ptr %29, %30
  br i1 %33, label %41, label %34

34:                                               ; preds = %26
  store i32 0, ptr %29, align 4, !tbaa !5
  %35 = getelementptr inbounds nuw i8, ptr %29, i64 4
  %36 = icmp eq ptr %35, %30
  br i1 %36, label %41, label %37

37:                                               ; preds = %34
  %38 = sub i64 %32, %31
  %39 = and i64 %38, -4
  %40 = add i64 %39, -4
  call void @llvm.memset.p0.i64(ptr nonnull align 4 %35, i8 0, i64 %40, i1 false), !tbaa !5
  br label %41

41:                                               ; preds = %37, %34, %26
  %42 = getelementptr inbounds nuw i8, ptr %1, i64 16
  %43 = load ptr, ptr %42, align 8, !tbaa !23, !noalias !24
  %44 = getelementptr inbounds nuw i8, ptr %1, i64 32
  %45 = getelementptr inbounds nuw i8, ptr %1, i64 48
  %46 = load ptr, ptr %45, align 8, !tbaa !23, !noalias !27
  %47 = load ptr, ptr %11, align 8, !tbaa !30, !noalias !27
  %48 = load ptr, ptr %8, align 8, !tbaa !31, !noalias !27
  %49 = icmp eq ptr %43, %46
  br i1 %49, label %79, label %50

50:                                               ; preds = %41, %72
  %51 = phi ptr [ %73, %72 ], [ %19, %41 ]
  %52 = phi ptr [ %76, %72 ], [ %30, %41 ]
  %53 = phi ptr [ %74, %72 ], [ %29, %41 ]
  %54 = phi ptr [ %66, %72 ], [ %46, %41 ]
  %55 = phi ptr [ %64, %72 ], [ %47, %41 ]
  %56 = phi ptr [ %63, %72 ], [ %48, %41 ]
  %57 = icmp eq ptr %54, %55
  br i1 %57, label %58, label %62

58:                                               ; preds = %50
  %59 = getelementptr inbounds i8, ptr %56, i64 -8
  %60 = load ptr, ptr %59, align 8, !tbaa !19, !noalias !32
  %61 = getelementptr inbounds nuw i8, ptr %60, i64 512
  br label %62

62:                                               ; preds = %58, %50
  %63 = phi ptr [ %59, %58 ], [ %56, %50 ]
  %64 = phi ptr [ %60, %58 ], [ %55, %50 ]
  %65 = phi ptr [ %61, %58 ], [ %54, %50 ]
  %66 = getelementptr inbounds i8, ptr %65, i64 -4
  %67 = icmp eq ptr %52, %53
  br i1 %67, label %68, label %72

68:                                               ; preds = %62
  %69 = getelementptr inbounds i8, ptr %51, i64 -8
  %70 = load ptr, ptr %69, align 8, !tbaa !19, !noalias !32
  %71 = getelementptr inbounds nuw i8, ptr %70, i64 512
  br label %72

72:                                               ; preds = %68, %62
  %73 = phi ptr [ %69, %68 ], [ %51, %62 ]
  %74 = phi ptr [ %70, %68 ], [ %53, %62 ]
  %75 = phi ptr [ %71, %68 ], [ %52, %62 ]
  %76 = getelementptr inbounds i8, ptr %75, i64 -4
  %77 = load i32, ptr %66, align 4, !tbaa !5, !noalias !32
  store i32 %77, ptr %76, align 4, !tbaa !5, !noalias !32
  %78 = icmp eq ptr %43, %66
  br i1 %78, label %79, label %50, !llvm.loop !37

79:                                               ; preds = %72, %41
  %80 = phi ptr [ %30, %41 ], [ %76, %72 ]
  %81 = load ptr, ptr %44, align 8, !tbaa !38, !noalias !39
  %82 = load ptr, ptr %6, align 8, !tbaa !31, !noalias !39
  %83 = getelementptr inbounds nuw i8, ptr %2, i64 16
  %84 = load ptr, ptr %83, align 8, !tbaa !23, !noalias !44
  %85 = getelementptr inbounds nuw i8, ptr %2, i64 32
  %86 = load ptr, ptr %85, align 8, !tbaa !38, !noalias !44
  %87 = ptrtoint ptr %48 to i64
  %88 = ptrtoint ptr %82 to i64
  %89 = sub i64 %87, %88
  %90 = ashr exact i64 %89, 3
  %91 = icmp ne ptr %48, null
  %92 = sext i1 %91 to i64
  %93 = add nsw i64 %90, %92
  %94 = shl nsw i64 %93, 7
  %95 = ptrtoint ptr %46 to i64
  %96 = ptrtoint ptr %47 to i64
  %97 = sub i64 %95, %96
  %98 = ashr exact i64 %97, 2
  %99 = ptrtoint ptr %81 to i64
  %100 = ptrtoint ptr %43 to i64
  %101 = sub i64 %99, %100
  %102 = ashr exact i64 %101, 2
  %103 = add nsw i64 %102, %98
  %104 = add i64 %103, %94
  %105 = ptrtoint ptr %19 to i64
  %106 = ptrtoint ptr %17 to i64
  %107 = sub i64 %105, %106
  %108 = ashr exact i64 %107, 3
  %109 = icmp ne ptr %19, null
  %110 = sext i1 %109 to i64
  %111 = add nsw i64 %108, %110
  %112 = shl nsw i64 %111, 7
  %113 = sub i64 %32, %31
  %114 = ashr exact i64 %113, 2
  %115 = ptrtoint ptr %86 to i64
  %116 = ptrtoint ptr %84 to i64
  %117 = sub i64 %115, %116
  %118 = ashr exact i64 %117, 2
  %119 = add i64 %114, %112
  %120 = add i64 %119, %118
  %121 = icmp eq i64 %104, %120
  br i1 %121, label %122, label %158

122:                                              ; preds = %79
  br i1 %49, label %161, label %123

123:                                              ; preds = %122, %152
  %124 = phi ptr [ %153, %152 ], [ %17, %122 ]
  %125 = phi ptr [ %154, %152 ], [ %86, %122 ]
  %126 = phi ptr [ %155, %152 ], [ %84, %122 ]
  %127 = phi ptr [ %143, %152 ], [ %81, %122 ]
  %128 = phi ptr [ %144, %152 ], [ %82, %122 ]
  %129 = phi ptr [ %156, %152 ], [ %86, %122 ]
  %130 = phi ptr [ %142, %152 ], [ %43, %122 ]
  %131 = load i32, ptr %130, align 4, !tbaa !5
  %132 = load i32, ptr %126, align 4, !tbaa !5
  %133 = icmp eq i32 %131, %132
  br i1 %133, label %134, label %158

134:                                              ; preds = %123
  %135 = getelementptr inbounds nuw i8, ptr %130, i64 4
  %136 = icmp eq ptr %135, %127
  br i1 %136, label %137, label %141

137:                                              ; preds = %134
  %138 = getelementptr inbounds nuw i8, ptr %128, i64 8
  %139 = load ptr, ptr %138, align 8, !tbaa !19
  %140 = getelementptr inbounds nuw i8, ptr %139, i64 512
  br label %141

141:                                              ; preds = %137, %134
  %142 = phi ptr [ %139, %137 ], [ %135, %134 ]
  %143 = phi ptr [ %140, %137 ], [ %127, %134 ]
  %144 = phi ptr [ %138, %137 ], [ %128, %134 ]
  %145 = phi ptr [ %125, %137 ], [ %129, %134 ]
  %146 = getelementptr inbounds nuw i8, ptr %126, i64 4
  %147 = icmp eq ptr %146, %145
  br i1 %147, label %148, label %152

148:                                              ; preds = %141
  %149 = getelementptr inbounds nuw i8, ptr %124, i64 8
  %150 = load ptr, ptr %149, align 8, !tbaa !19
  %151 = getelementptr inbounds nuw i8, ptr %150, i64 512
  br label %152

152:                                              ; preds = %148, %141
  %153 = phi ptr [ %149, %148 ], [ %124, %141 ]
  %154 = phi ptr [ %151, %148 ], [ %125, %141 ]
  %155 = phi ptr [ %150, %148 ], [ %146, %141 ]
  %156 = phi ptr [ %151, %148 ], [ %145, %141 ]
  %157 = icmp eq ptr %142, %46
  br i1 %157, label %161, label %123, !llvm.loop !49

158:                                              ; preds = %123, %79
  call void @__assert_fail(ptr noundef nonnull @.str.17, ptr noundef nonnull @.str.1, i32 noundef 114, ptr noundef nonnull @__PRETTY_FUNCTION__._Z15test_containersISt5dequeIiSaIiEES2_22bidirectional_iteratorISt15_Deque_iteratorIiRiPiEES8_S8_Evv) #18
  unreachable

159:                                              ; preds = %5
  %160 = landingpad { ptr, i32 }
          cleanup
  call void @llvm.lifetime.end.p0(ptr nonnull %2) #17
  call void @_ZNSt5dequeIiSaIiEED2Ev(ptr noundef nonnull align 8 dereferenceable(80) %1) #17
  br label %357

161:                                              ; preds = %152, %122
  %162 = icmp eq ptr %80, %84
  br i1 %162, label %164, label %163

163:                                              ; preds = %161
  call void @__assert_fail(ptr noundef nonnull @.str.19, ptr noundef nonnull @.str.1, i32 noundef 116, ptr noundef nonnull @__PRETTY_FUNCTION__._Z15test_containersISt5dequeIiSaIiEES2_22bidirectional_iteratorISt15_Deque_iteratorIiRiPiEES8_S8_Evv) #18
  unreachable

164:                                              ; preds = %161
  %165 = load ptr, ptr %2, align 8, !tbaa !50
  %166 = icmp eq ptr %165, null
  br i1 %166, label %182, label %167

167:                                              ; preds = %164
  %168 = getelementptr inbounds nuw i8, ptr %19, i64 8
  %169 = icmp ult ptr %17, %168
  br i1 %169, label %170, label %177

170:                                              ; preds = %167, %170
  %171 = phi ptr [ %173, %170 ], [ %17, %167 ]
  %172 = load ptr, ptr %171, align 8, !tbaa !19
  call void @_ZdlPvm(ptr noundef %172, i64 noundef 512) #19
  %173 = getelementptr inbounds nuw i8, ptr %171, i64 8
  %174 = icmp ult ptr %171, %19
  br i1 %174, label %170, label %175, !llvm.loop !51

175:                                              ; preds = %170
  %176 = load ptr, ptr %2, align 8, !tbaa !50
  br label %177

177:                                              ; preds = %175, %167
  %178 = phi ptr [ %176, %175 ], [ %165, %167 ]
  %179 = getelementptr inbounds nuw i8, ptr %2, i64 8
  %180 = load i64, ptr %179, align 8, !tbaa !52
  %181 = shl i64 %180, 3
  call void @_ZdlPvm(ptr noundef %178, i64 noundef %181) #19
  br label %182

182:                                              ; preds = %164, %177
  call void @llvm.lifetime.end.p0(ptr nonnull %2) #17
  %183 = load ptr, ptr %1, align 8, !tbaa !50
  %184 = icmp eq ptr %183, null
  br i1 %184, label %202, label %185

185:                                              ; preds = %182
  %186 = load ptr, ptr %6, align 8, !tbaa !9
  %187 = load ptr, ptr %8, align 8, !tbaa !17
  %188 = getelementptr inbounds nuw i8, ptr %187, i64 8
  %189 = icmp ult ptr %186, %188
  br i1 %189, label %190, label %197

190:                                              ; preds = %185, %190
  %191 = phi ptr [ %193, %190 ], [ %186, %185 ]
  %192 = load ptr, ptr %191, align 8, !tbaa !19
  call void @_ZdlPvm(ptr noundef %192, i64 noundef 512) #19
  %193 = getelementptr inbounds nuw i8, ptr %191, i64 8
  %194 = icmp ult ptr %191, %187
  br i1 %194, label %190, label %195, !llvm.loop !51

195:                                              ; preds = %190
  %196 = load ptr, ptr %1, align 8, !tbaa !50
  br label %197

197:                                              ; preds = %195, %185
  %198 = phi ptr [ %196, %195 ], [ %183, %185 ]
  %199 = getelementptr inbounds nuw i8, ptr %1, i64 8
  %200 = load i64, ptr %199, align 8, !tbaa !52
  %201 = shl i64 %200, 3
  call void @_ZdlPvm(ptr noundef %198, i64 noundef %201) #19
  br label %202

202:                                              ; preds = %182, %197
  call void @llvm.lifetime.end.p0(ptr nonnull %1) #17
  call void @llvm.lifetime.start.p0(ptr nonnull %3) #17
  call void @llvm.memset.p0.i64(ptr noundef nonnull align 8 dereferenceable(80) %3, i8 0, i64 80, i1 false)
  invoke void @_ZNSt11_Deque_baseIiSaIiEE17_M_initialize_mapEm(ptr noundef nonnull align 8 dereferenceable(80) %3, i64 noundef 4)
          to label %203 unwind label %211

203:                                              ; preds = %202
  %204 = getelementptr inbounds nuw i8, ptr %3, i64 40
  %205 = load ptr, ptr %204, align 8, !tbaa !9
  %206 = getelementptr inbounds nuw i8, ptr %3, i64 72
  %207 = load ptr, ptr %206, align 8, !tbaa !17
  %208 = icmp uge ptr %205, %207
  call void @llvm.assume(i1 %208)
  %209 = getelementptr inbounds nuw i8, ptr %3, i64 56
  %210 = load ptr, ptr %209, align 8, !tbaa !18
  store <4 x i32> <i32 1, i32 2, i32 3, i32 4>, ptr %210, align 4
  call void @llvm.lifetime.start.p0(ptr nonnull %4) #17
  call void @llvm.memset.p0.i64(ptr noundef nonnull align 8 dereferenceable(80) %4, i8 0, i64 80, i1 false)
  invoke void @_ZNSt11_Deque_baseIiSaIiEE17_M_initialize_mapEm(ptr noundef nonnull align 8 dereferenceable(80) %4, i64 noundef 4)
          to label %213 unwind label %359

211:                                              ; preds = %202
  %212 = landingpad { ptr, i32 }
          cleanup
  call void @_ZNSt11_Deque_baseIiSaIiEED2Ev(ptr noundef nonnull align 8 dereferenceable(80) %3) #17
  br label %403

213:                                              ; preds = %203
  %214 = getelementptr inbounds nuw i8, ptr %4, i64 40
  %215 = load ptr, ptr %214, align 8, !tbaa !9
  %216 = getelementptr inbounds nuw i8, ptr %4, i64 72
  %217 = load ptr, ptr %216, align 8, !tbaa !17
  %218 = icmp ult ptr %215, %217
  br i1 %218, label %219, label %224

219:                                              ; preds = %213, %219
  %220 = phi ptr [ %222, %219 ], [ %215, %213 ]
  %221 = load ptr, ptr %220, align 8, !tbaa !19
  %222 = getelementptr inbounds nuw i8, ptr %220, i64 8
  %223 = icmp ult ptr %222, %217
  call void @llvm.memset.p0.i64(ptr noundef nonnull align 4 dereferenceable(512) %221, i8 0, i64 512, i1 false)
  br i1 %223, label %219, label %224, !llvm.loop !20

224:                                              ; preds = %219, %213
  %225 = getelementptr inbounds nuw i8, ptr %4, i64 48
  %226 = getelementptr inbounds nuw i8, ptr %4, i64 56
  %227 = load ptr, ptr %226, align 8, !tbaa !18
  %228 = load ptr, ptr %225, align 8, !tbaa !22
  %229 = ptrtoint ptr %227 to i64
  %230 = ptrtoint ptr %228 to i64
  %231 = icmp eq ptr %227, %228
  br i1 %231, label %239, label %232

232:                                              ; preds = %224
  store i32 0, ptr %227, align 4, !tbaa !5
  %233 = getelementptr inbounds nuw i8, ptr %227, i64 4
  %234 = icmp eq ptr %233, %228
  br i1 %234, label %239, label %235

235:                                              ; preds = %232
  %236 = sub i64 %230, %229
  %237 = and i64 %236, -4
  %238 = add i64 %237, -4
  call void @llvm.memset.p0.i64(ptr nonnull align 4 %233, i8 0, i64 %238, i1 false), !tbaa !5
  br label %239

239:                                              ; preds = %235, %232, %224
  %240 = getelementptr inbounds nuw i8, ptr %3, i64 16
  %241 = load ptr, ptr %240, align 8, !tbaa !23, !noalias !53
  %242 = getelementptr inbounds nuw i8, ptr %3, i64 32
  %243 = getelementptr inbounds nuw i8, ptr %3, i64 48
  %244 = load ptr, ptr %243, align 8, !tbaa !23, !noalias !56
  %245 = load ptr, ptr %209, align 8, !tbaa !30, !noalias !56
  %246 = load ptr, ptr %206, align 8, !tbaa !31, !noalias !56
  %247 = icmp eq ptr %241, %244
  br i1 %247, label %277, label %248

248:                                              ; preds = %239, %270
  %249 = phi ptr [ %271, %270 ], [ %217, %239 ]
  %250 = phi ptr [ %274, %270 ], [ %228, %239 ]
  %251 = phi ptr [ %272, %270 ], [ %227, %239 ]
  %252 = phi ptr [ %264, %270 ], [ %244, %239 ]
  %253 = phi ptr [ %262, %270 ], [ %245, %239 ]
  %254 = phi ptr [ %261, %270 ], [ %246, %239 ]
  %255 = icmp eq ptr %252, %253
  br i1 %255, label %256, label %260

256:                                              ; preds = %248
  %257 = getelementptr inbounds i8, ptr %254, i64 -8
  %258 = load ptr, ptr %257, align 8, !tbaa !19, !noalias !59
  %259 = getelementptr inbounds nuw i8, ptr %258, i64 512
  br label %260

260:                                              ; preds = %256, %248
  %261 = phi ptr [ %257, %256 ], [ %254, %248 ]
  %262 = phi ptr [ %258, %256 ], [ %253, %248 ]
  %263 = phi ptr [ %259, %256 ], [ %252, %248 ]
  %264 = getelementptr inbounds i8, ptr %263, i64 -4
  %265 = icmp eq ptr %250, %251
  br i1 %265, label %266, label %270

266:                                              ; preds = %260
  %267 = getelementptr inbounds i8, ptr %249, i64 -8
  %268 = load ptr, ptr %267, align 8, !tbaa !19, !noalias !59
  %269 = getelementptr inbounds nuw i8, ptr %268, i64 512
  br label %270

270:                                              ; preds = %266, %260
  %271 = phi ptr [ %267, %266 ], [ %249, %260 ]
  %272 = phi ptr [ %268, %266 ], [ %251, %260 ]
  %273 = phi ptr [ %269, %266 ], [ %250, %260 ]
  %274 = getelementptr inbounds i8, ptr %273, i64 -4
  %275 = load i32, ptr %264, align 4, !tbaa !5, !noalias !59
  store i32 %275, ptr %274, align 4, !tbaa !5, !noalias !59
  %276 = icmp eq ptr %241, %264
  br i1 %276, label %277, label %248, !llvm.loop !37

277:                                              ; preds = %270, %239
  %278 = phi ptr [ %228, %239 ], [ %274, %270 ]
  %279 = load ptr, ptr %242, align 8, !tbaa !38, !noalias !66
  %280 = load ptr, ptr %204, align 8, !tbaa !31, !noalias !66
  %281 = getelementptr inbounds nuw i8, ptr %4, i64 16
  %282 = load ptr, ptr %281, align 8, !tbaa !23, !noalias !71
  %283 = getelementptr inbounds nuw i8, ptr %4, i64 32
  %284 = load ptr, ptr %283, align 8, !tbaa !38, !noalias !71
  %285 = ptrtoint ptr %246 to i64
  %286 = ptrtoint ptr %280 to i64
  %287 = sub i64 %285, %286
  %288 = ashr exact i64 %287, 3
  %289 = icmp ne ptr %246, null
  %290 = sext i1 %289 to i64
  %291 = add nsw i64 %288, %290
  %292 = shl nsw i64 %291, 7
  %293 = ptrtoint ptr %244 to i64
  %294 = ptrtoint ptr %245 to i64
  %295 = sub i64 %293, %294
  %296 = ashr exact i64 %295, 2
  %297 = ptrtoint ptr %279 to i64
  %298 = ptrtoint ptr %241 to i64
  %299 = sub i64 %297, %298
  %300 = ashr exact i64 %299, 2
  %301 = add nsw i64 %300, %296
  %302 = add i64 %301, %292
  %303 = ptrtoint ptr %217 to i64
  %304 = ptrtoint ptr %215 to i64
  %305 = sub i64 %303, %304
  %306 = ashr exact i64 %305, 3
  %307 = icmp ne ptr %217, null
  %308 = sext i1 %307 to i64
  %309 = add nsw i64 %306, %308
  %310 = shl nsw i64 %309, 7
  %311 = sub i64 %230, %229
  %312 = ashr exact i64 %311, 2
  %313 = ptrtoint ptr %284 to i64
  %314 = ptrtoint ptr %282 to i64
  %315 = sub i64 %313, %314
  %316 = ashr exact i64 %315, 2
  %317 = add i64 %312, %310
  %318 = add i64 %317, %316
  %319 = icmp eq i64 %302, %318
  br i1 %319, label %320, label %356

320:                                              ; preds = %277
  br i1 %247, label %361, label %321

321:                                              ; preds = %320, %350
  %322 = phi ptr [ %351, %350 ], [ %215, %320 ]
  %323 = phi ptr [ %352, %350 ], [ %284, %320 ]
  %324 = phi ptr [ %353, %350 ], [ %282, %320 ]
  %325 = phi ptr [ %341, %350 ], [ %279, %320 ]
  %326 = phi ptr [ %342, %350 ], [ %280, %320 ]
  %327 = phi ptr [ %354, %350 ], [ %284, %320 ]
  %328 = phi ptr [ %340, %350 ], [ %241, %320 ]
  %329 = load i32, ptr %328, align 4, !tbaa !5
  %330 = load i32, ptr %324, align 4, !tbaa !5
  %331 = icmp eq i32 %329, %330
  br i1 %331, label %332, label %356

332:                                              ; preds = %321
  %333 = getelementptr inbounds nuw i8, ptr %328, i64 4
  %334 = icmp eq ptr %333, %325
  br i1 %334, label %335, label %339

335:                                              ; preds = %332
  %336 = getelementptr inbounds nuw i8, ptr %326, i64 8
  %337 = load ptr, ptr %336, align 8, !tbaa !19
  %338 = getelementptr inbounds nuw i8, ptr %337, i64 512
  br label %339

339:                                              ; preds = %335, %332
  %340 = phi ptr [ %337, %335 ], [ %333, %332 ]
  %341 = phi ptr [ %338, %335 ], [ %325, %332 ]
  %342 = phi ptr [ %336, %335 ], [ %326, %332 ]
  %343 = phi ptr [ %323, %335 ], [ %327, %332 ]
  %344 = getelementptr inbounds nuw i8, ptr %324, i64 4
  %345 = icmp eq ptr %344, %343
  br i1 %345, label %346, label %350

346:                                              ; preds = %339
  %347 = getelementptr inbounds nuw i8, ptr %322, i64 8
  %348 = load ptr, ptr %347, align 8, !tbaa !19
  %349 = getelementptr inbounds nuw i8, ptr %348, i64 512
  br label %350

350:                                              ; preds = %346, %339
  %351 = phi ptr [ %347, %346 ], [ %322, %339 ]
  %352 = phi ptr [ %349, %346 ], [ %323, %339 ]
  %353 = phi ptr [ %348, %346 ], [ %344, %339 ]
  %354 = phi ptr [ %349, %346 ], [ %343, %339 ]
  %355 = icmp eq ptr %340, %244
  br i1 %355, label %361, label %321, !llvm.loop !49

356:                                              ; preds = %321, %277
  call void @__assert_fail(ptr noundef nonnull @.str.17, ptr noundef nonnull @.str.1, i32 noundef 123, ptr noundef nonnull @__PRETTY_FUNCTION__._Z15test_containersISt5dequeIiSaIiEES2_22bidirectional_iteratorISt15_Deque_iteratorIiRiPiEES8_S8_Evv) #18
  unreachable

357:                                              ; preds = %159, %13
  %358 = phi { ptr, i32 } [ %160, %159 ], [ %14, %13 ]
  call void @llvm.lifetime.end.p0(ptr nonnull %1) #17
  br label %405

359:                                              ; preds = %203
  %360 = landingpad { ptr, i32 }
          cleanup
  call void @llvm.lifetime.end.p0(ptr nonnull %4) #17
  call void @_ZNSt5dequeIiSaIiEED2Ev(ptr noundef nonnull align 8 dereferenceable(80) %3) #17
  br label %403

361:                                              ; preds = %350, %320
  %362 = icmp eq ptr %278, %282
  br i1 %362, label %364, label %363

363:                                              ; preds = %361
  call void @__assert_fail(ptr noundef nonnull @.str.19, ptr noundef nonnull @.str.1, i32 noundef 125, ptr noundef nonnull @__PRETTY_FUNCTION__._Z15test_containersISt5dequeIiSaIiEES2_22bidirectional_iteratorISt15_Deque_iteratorIiRiPiEES8_S8_Evv) #18
  unreachable

364:                                              ; preds = %361
  %365 = load ptr, ptr %4, align 8, !tbaa !50
  %366 = icmp eq ptr %365, null
  br i1 %366, label %382, label %367

367:                                              ; preds = %364
  %368 = getelementptr inbounds nuw i8, ptr %217, i64 8
  %369 = icmp ult ptr %215, %368
  br i1 %369, label %370, label %377

370:                                              ; preds = %367, %370
  %371 = phi ptr [ %373, %370 ], [ %215, %367 ]
  %372 = load ptr, ptr %371, align 8, !tbaa !19
  call void @_ZdlPvm(ptr noundef %372, i64 noundef 512) #19
  %373 = getelementptr inbounds nuw i8, ptr %371, i64 8
  %374 = icmp ult ptr %371, %217
  br i1 %374, label %370, label %375, !llvm.loop !51

375:                                              ; preds = %370
  %376 = load ptr, ptr %4, align 8, !tbaa !50
  br label %377

377:                                              ; preds = %375, %367
  %378 = phi ptr [ %376, %375 ], [ %365, %367 ]
  %379 = getelementptr inbounds nuw i8, ptr %4, i64 8
  %380 = load i64, ptr %379, align 8, !tbaa !52
  %381 = shl i64 %380, 3
  call void @_ZdlPvm(ptr noundef %378, i64 noundef %381) #19
  br label %382

382:                                              ; preds = %364, %377
  call void @llvm.lifetime.end.p0(ptr nonnull %4) #17
  %383 = load ptr, ptr %3, align 8, !tbaa !50
  %384 = icmp eq ptr %383, null
  br i1 %384, label %402, label %385

385:                                              ; preds = %382
  %386 = load ptr, ptr %204, align 8, !tbaa !9
  %387 = load ptr, ptr %206, align 8, !tbaa !17
  %388 = getelementptr inbounds nuw i8, ptr %387, i64 8
  %389 = icmp ult ptr %386, %388
  br i1 %389, label %390, label %397

390:                                              ; preds = %385, %390
  %391 = phi ptr [ %393, %390 ], [ %386, %385 ]
  %392 = load ptr, ptr %391, align 8, !tbaa !19
  call void @_ZdlPvm(ptr noundef %392, i64 noundef 512) #19
  %393 = getelementptr inbounds nuw i8, ptr %391, i64 8
  %394 = icmp ult ptr %391, %387
  br i1 %394, label %390, label %395, !llvm.loop !51

395:                                              ; preds = %390
  %396 = load ptr, ptr %3, align 8, !tbaa !50
  br label %397

397:                                              ; preds = %395, %385
  %398 = phi ptr [ %396, %395 ], [ %383, %385 ]
  %399 = getelementptr inbounds nuw i8, ptr %3, i64 8
  %400 = load i64, ptr %399, align 8, !tbaa !52
  %401 = shl i64 %400, 3
  call void @_ZdlPvm(ptr noundef %398, i64 noundef %401) #19
  br label %402

402:                                              ; preds = %382, %397
  call void @llvm.lifetime.end.p0(ptr nonnull %3) #17
  ret void

403:                                              ; preds = %359, %211
  %404 = phi { ptr, i32 } [ %360, %359 ], [ %212, %211 ]
  call void @llvm.lifetime.end.p0(ptr nonnull %3) #17
  br label %405

405:                                              ; preds = %403, %357
  %406 = phi { ptr, i32 } [ %404, %403 ], [ %358, %357 ]
  resume { ptr, i32 } %406
}

; Function Attrs: mustprogress uwtable
define linkonce_odr dso_local void @_Z15test_containersISt5dequeIiSaIiEESt6vectorIiS1_E22bidirectional_iteratorISt15_Deque_iteratorIiRiPiEES5_IN9__gnu_cxx17__normal_iteratorIS8_S4_EEESA_Evv() local_unnamed_addr #1 comdat personality ptr @__gxx_personality_v0 {
  %1 = alloca %"class.std::deque", align 8
  %2 = alloca %"class.std::deque", align 8
  call void @llvm.lifetime.start.p0(ptr nonnull %1) #17
  call void @llvm.memset.p0.i64(ptr noundef nonnull align 8 dereferenceable(80) %1, i8 0, i64 80, i1 false)
  invoke void @_ZNSt11_Deque_baseIiSaIiEE17_M_initialize_mapEm(ptr noundef nonnull align 8 dereferenceable(80) %1, i64 noundef 4)
          to label %3 unwind label %12

3:                                                ; preds = %0
  %4 = getelementptr inbounds nuw i8, ptr %1, i64 40
  %5 = load ptr, ptr %4, align 8, !tbaa !9
  %6 = getelementptr inbounds nuw i8, ptr %1, i64 72
  %7 = load ptr, ptr %6, align 8, !tbaa !17
  %8 = icmp uge ptr %5, %7
  call void @llvm.assume(i1 %8)
  %9 = getelementptr inbounds nuw i8, ptr %1, i64 56
  %10 = load ptr, ptr %9, align 8, !tbaa !18
  store <4 x i32> <i32 1, i32 2, i32 3, i32 4>, ptr %10, align 4
  %11 = invoke noalias noundef nonnull dereferenceable(16) ptr @_Znwm(i64 noundef 16) #20
          to label %14 unwind label %91

12:                                               ; preds = %0
  %13 = landingpad { ptr, i32 }
          cleanup
  call void @_ZNSt11_Deque_baseIiSaIiEED2Ev(ptr noundef nonnull align 8 dereferenceable(80) %1) #17
  br label %204

14:                                               ; preds = %3
  %15 = getelementptr inbounds nuw i8, ptr %1, i64 16
  call void @llvm.memset.p0.i64(ptr noundef nonnull align 4 dereferenceable(16) %11, i8 0, i64 16, i1 false)
  %16 = load ptr, ptr %15, align 8, !tbaa !23, !noalias !76
  %17 = getelementptr inbounds nuw i8, ptr %1, i64 32
  %18 = getelementptr inbounds nuw i8, ptr %1, i64 48
  %19 = load ptr, ptr %18, align 8, !tbaa !23, !noalias !79
  %20 = load ptr, ptr %9, align 8, !tbaa !30, !noalias !79
  %21 = load ptr, ptr %6, align 8, !tbaa !31, !noalias !79
  %22 = icmp eq ptr %16, %19
  br i1 %22, label %45, label %23

23:                                               ; preds = %14
  %24 = getelementptr inbounds nuw i8, ptr %11, i64 16
  br label %25

25:                                               ; preds = %23, %35
  %26 = phi ptr [ %40, %35 ], [ %24, %23 ]
  %27 = phi ptr [ %39, %35 ], [ %19, %23 ]
  %28 = phi ptr [ %37, %35 ], [ %20, %23 ]
  %29 = phi ptr [ %36, %35 ], [ %21, %23 ]
  %30 = icmp eq ptr %27, %28
  br i1 %30, label %31, label %35

31:                                               ; preds = %25
  %32 = getelementptr inbounds i8, ptr %29, i64 -8
  %33 = load ptr, ptr %32, align 8, !tbaa !19, !noalias !82
  %34 = getelementptr inbounds nuw i8, ptr %33, i64 512
  br label %35

35:                                               ; preds = %31, %25
  %36 = phi ptr [ %32, %31 ], [ %29, %25 ]
  %37 = phi ptr [ %33, %31 ], [ %28, %25 ]
  %38 = phi ptr [ %34, %31 ], [ %27, %25 ]
  %39 = getelementptr inbounds i8, ptr %38, i64 -4
  %40 = getelementptr inbounds i8, ptr %26, i64 -4
  %41 = load i32, ptr %39, align 4, !tbaa !5, !noalias !82
  store i32 %41, ptr %40, align 4, !tbaa !5, !noalias !82
  %42 = icmp eq ptr %16, %39
  br i1 %42, label %43, label %25, !llvm.loop !87

43:                                               ; preds = %35
  %44 = icmp eq ptr %40, %11
  br label %45

45:                                               ; preds = %43, %14
  %46 = phi i1 [ false, %14 ], [ %44, %43 ]
  %47 = load ptr, ptr %17, align 8, !tbaa !38, !noalias !88
  %48 = load ptr, ptr %4, align 8, !tbaa !31, !noalias !88
  %49 = ptrtoint ptr %21 to i64
  %50 = ptrtoint ptr %48 to i64
  %51 = sub i64 %49, %50
  %52 = ashr exact i64 %51, 3
  %53 = icmp ne ptr %21, null
  %54 = sext i1 %53 to i64
  %55 = add nsw i64 %52, %54
  %56 = shl nsw i64 %55, 7
  %57 = ptrtoint ptr %19 to i64
  %58 = ptrtoint ptr %20 to i64
  %59 = sub i64 %57, %58
  %60 = ashr exact i64 %59, 2
  %61 = ptrtoint ptr %47 to i64
  %62 = ptrtoint ptr %16 to i64
  %63 = sub i64 %61, %62
  %64 = ashr exact i64 %63, 2
  %65 = add nsw i64 %64, %60
  %66 = add i64 %65, %56
  %67 = icmp eq i64 %66, 4
  br i1 %67, label %68, label %90

68:                                               ; preds = %45
  br i1 %22, label %93, label %69

69:                                               ; preds = %68, %84
  %70 = phi ptr [ %86, %84 ], [ %48, %68 ]
  %71 = phi ptr [ %87, %84 ], [ %47, %68 ]
  %72 = phi ptr [ %85, %84 ], [ %16, %68 ]
  %73 = phi ptr [ %88, %84 ], [ %11, %68 ]
  %74 = load i32, ptr %72, align 4, !tbaa !5
  %75 = load i32, ptr %73, align 4, !tbaa !5
  %76 = icmp eq i32 %74, %75
  br i1 %76, label %77, label %90

77:                                               ; preds = %69
  %78 = getelementptr inbounds nuw i8, ptr %72, i64 4
  %79 = icmp eq ptr %78, %71
  br i1 %79, label %80, label %84

80:                                               ; preds = %77
  %81 = getelementptr inbounds nuw i8, ptr %70, i64 8
  %82 = load ptr, ptr %81, align 8, !tbaa !19
  %83 = getelementptr inbounds nuw i8, ptr %82, i64 512
  br label %84

84:                                               ; preds = %80, %77
  %85 = phi ptr [ %78, %77 ], [ %82, %80 ]
  %86 = phi ptr [ %70, %77 ], [ %81, %80 ]
  %87 = phi ptr [ %71, %77 ], [ %83, %80 ]
  %88 = getelementptr inbounds nuw i8, ptr %73, i64 4
  %89 = icmp eq ptr %85, %19
  br i1 %89, label %93, label %69, !llvm.loop !93

90:                                               ; preds = %69, %45
  call void @__assert_fail(ptr noundef nonnull @.str.17, ptr noundef nonnull @.str.1, i32 noundef 114, ptr noundef nonnull @__PRETTY_FUNCTION__._Z15test_containersISt5dequeIiSaIiEESt6vectorIiS1_E22bidirectional_iteratorISt15_Deque_iteratorIiRiPiEES5_IN9__gnu_cxx17__normal_iteratorIS8_S4_EEESA_Evv) #18
  unreachable

91:                                               ; preds = %3
  %92 = landingpad { ptr, i32 }
          cleanup
  call void @_ZNSt5dequeIiSaIiEED2Ev(ptr noundef nonnull align 8 dereferenceable(80) %1) #17
  br label %204

93:                                               ; preds = %84, %68
  br i1 %46, label %95, label %94

94:                                               ; preds = %93
  call void @__assert_fail(ptr noundef nonnull @.str.19, ptr noundef nonnull @.str.1, i32 noundef 116, ptr noundef nonnull @__PRETTY_FUNCTION__._Z15test_containersISt5dequeIiSaIiEESt6vectorIiS1_E22bidirectional_iteratorISt15_Deque_iteratorIiRiPiEES5_IN9__gnu_cxx17__normal_iteratorIS8_S4_EEESA_Evv) #18
  unreachable

95:                                               ; preds = %93
  call void @_ZdlPvm(ptr noundef nonnull %11, i64 noundef 16) #19
  %96 = load ptr, ptr %1, align 8, !tbaa !50
  %97 = icmp eq ptr %96, null
  br i1 %97, label %115, label %98

98:                                               ; preds = %95
  %99 = load ptr, ptr %4, align 8, !tbaa !9
  %100 = load ptr, ptr %6, align 8, !tbaa !17
  %101 = getelementptr inbounds nuw i8, ptr %100, i64 8
  %102 = icmp ult ptr %99, %101
  br i1 %102, label %103, label %110

103:                                              ; preds = %98, %103
  %104 = phi ptr [ %106, %103 ], [ %99, %98 ]
  %105 = load ptr, ptr %104, align 8, !tbaa !19
  call void @_ZdlPvm(ptr noundef %105, i64 noundef 512) #19
  %106 = getelementptr inbounds nuw i8, ptr %104, i64 8
  %107 = icmp ult ptr %104, %100
  br i1 %107, label %103, label %108, !llvm.loop !51

108:                                              ; preds = %103
  %109 = load ptr, ptr %1, align 8, !tbaa !50
  br label %110

110:                                              ; preds = %108, %98
  %111 = phi ptr [ %109, %108 ], [ %96, %98 ]
  %112 = getelementptr inbounds nuw i8, ptr %1, i64 8
  %113 = load i64, ptr %112, align 8, !tbaa !52
  %114 = shl i64 %113, 3
  call void @_ZdlPvm(ptr noundef %111, i64 noundef %114) #19
  br label %115

115:                                              ; preds = %95, %110
  call void @llvm.lifetime.end.p0(ptr nonnull %1) #17
  call void @llvm.lifetime.start.p0(ptr nonnull %2) #17
  call void @llvm.memset.p0.i64(ptr noundef nonnull align 8 dereferenceable(80) %2, i8 0, i64 80, i1 false)
  invoke void @_ZNSt11_Deque_baseIiSaIiEE17_M_initialize_mapEm(ptr noundef nonnull align 8 dereferenceable(80) %2, i64 noundef 4)
          to label %116 unwind label %125

116:                                              ; preds = %115
  %117 = getelementptr inbounds nuw i8, ptr %2, i64 40
  %118 = load ptr, ptr %117, align 8, !tbaa !9
  %119 = getelementptr inbounds nuw i8, ptr %2, i64 72
  %120 = load ptr, ptr %119, align 8, !tbaa !17
  %121 = icmp uge ptr %118, %120
  call void @llvm.assume(i1 %121)
  %122 = getelementptr inbounds nuw i8, ptr %2, i64 56
  %123 = load ptr, ptr %122, align 8, !tbaa !18
  store <4 x i32> <i32 1, i32 2, i32 3, i32 4>, ptr %123, align 4
  %124 = invoke noalias noundef nonnull dereferenceable(16) ptr @_Znwm(i64 noundef 16) #20
          to label %127 unwind label %206

125:                                              ; preds = %115
  %126 = landingpad { ptr, i32 }
          cleanup
  call void @_ZNSt11_Deque_baseIiSaIiEED2Ev(ptr noundef nonnull align 8 dereferenceable(80) %2) #17
  br label %231

127:                                              ; preds = %116
  %128 = getelementptr inbounds nuw i8, ptr %2, i64 16
  call void @llvm.memset.p0.i64(ptr noundef nonnull align 4 dereferenceable(16) %124, i8 0, i64 16, i1 false)
  %129 = load ptr, ptr %128, align 8, !tbaa !23, !noalias !94
  %130 = getelementptr inbounds nuw i8, ptr %2, i64 32
  %131 = getelementptr inbounds nuw i8, ptr %2, i64 48
  %132 = load ptr, ptr %131, align 8, !tbaa !23, !noalias !97
  %133 = load ptr, ptr %122, align 8, !tbaa !30, !noalias !97
  %134 = load ptr, ptr %119, align 8, !tbaa !31, !noalias !97
  %135 = icmp eq ptr %129, %132
  br i1 %135, label %158, label %136

136:                                              ; preds = %127
  %137 = getelementptr inbounds nuw i8, ptr %124, i64 16
  br label %138

138:                                              ; preds = %136, %148
  %139 = phi ptr [ %153, %148 ], [ %137, %136 ]
  %140 = phi ptr [ %152, %148 ], [ %132, %136 ]
  %141 = phi ptr [ %150, %148 ], [ %133, %136 ]
  %142 = phi ptr [ %149, %148 ], [ %134, %136 ]
  %143 = icmp eq ptr %140, %141
  br i1 %143, label %144, label %148

144:                                              ; preds = %138
  %145 = getelementptr inbounds i8, ptr %142, i64 -8
  %146 = load ptr, ptr %145, align 8, !tbaa !19, !noalias !100
  %147 = getelementptr inbounds nuw i8, ptr %146, i64 512
  br label %148

148:                                              ; preds = %144, %138
  %149 = phi ptr [ %145, %144 ], [ %142, %138 ]
  %150 = phi ptr [ %146, %144 ], [ %141, %138 ]
  %151 = phi ptr [ %147, %144 ], [ %140, %138 ]
  %152 = getelementptr inbounds i8, ptr %151, i64 -4
  %153 = getelementptr inbounds i8, ptr %139, i64 -4
  %154 = load i32, ptr %152, align 4, !tbaa !5, !noalias !100
  store i32 %154, ptr %153, align 4, !tbaa !5, !noalias !100
  %155 = icmp eq ptr %129, %152
  br i1 %155, label %156, label %138, !llvm.loop !87

156:                                              ; preds = %148
  %157 = icmp eq ptr %153, %124
  br label %158

158:                                              ; preds = %156, %127
  %159 = phi i1 [ false, %127 ], [ %157, %156 ]
  %160 = load ptr, ptr %130, align 8, !tbaa !38, !noalias !107
  %161 = load ptr, ptr %117, align 8, !tbaa !31, !noalias !107
  %162 = ptrtoint ptr %134 to i64
  %163 = ptrtoint ptr %161 to i64
  %164 = sub i64 %162, %163
  %165 = ashr exact i64 %164, 3
  %166 = icmp ne ptr %134, null
  %167 = sext i1 %166 to i64
  %168 = add nsw i64 %165, %167
  %169 = shl nsw i64 %168, 7
  %170 = ptrtoint ptr %132 to i64
  %171 = ptrtoint ptr %133 to i64
  %172 = sub i64 %170, %171
  %173 = ashr exact i64 %172, 2
  %174 = ptrtoint ptr %160 to i64
  %175 = ptrtoint ptr %129 to i64
  %176 = sub i64 %174, %175
  %177 = ashr exact i64 %176, 2
  %178 = add nsw i64 %177, %173
  %179 = add i64 %178, %169
  %180 = icmp eq i64 %179, 4
  br i1 %180, label %181, label %203

181:                                              ; preds = %158
  br i1 %135, label %208, label %182

182:                                              ; preds = %181, %197
  %183 = phi ptr [ %199, %197 ], [ %161, %181 ]
  %184 = phi ptr [ %200, %197 ], [ %160, %181 ]
  %185 = phi ptr [ %198, %197 ], [ %129, %181 ]
  %186 = phi ptr [ %201, %197 ], [ %124, %181 ]
  %187 = load i32, ptr %185, align 4, !tbaa !5
  %188 = load i32, ptr %186, align 4, !tbaa !5
  %189 = icmp eq i32 %187, %188
  br i1 %189, label %190, label %203

190:                                              ; preds = %182
  %191 = getelementptr inbounds nuw i8, ptr %185, i64 4
  %192 = icmp eq ptr %191, %184
  br i1 %192, label %193, label %197

193:                                              ; preds = %190
  %194 = getelementptr inbounds nuw i8, ptr %183, i64 8
  %195 = load ptr, ptr %194, align 8, !tbaa !19
  %196 = getelementptr inbounds nuw i8, ptr %195, i64 512
  br label %197

197:                                              ; preds = %193, %190
  %198 = phi ptr [ %191, %190 ], [ %195, %193 ]
  %199 = phi ptr [ %183, %190 ], [ %194, %193 ]
  %200 = phi ptr [ %184, %190 ], [ %196, %193 ]
  %201 = getelementptr inbounds nuw i8, ptr %186, i64 4
  %202 = icmp eq ptr %198, %132
  br i1 %202, label %208, label %182, !llvm.loop !93

203:                                              ; preds = %182, %158
  call void @__assert_fail(ptr noundef nonnull @.str.17, ptr noundef nonnull @.str.1, i32 noundef 123, ptr noundef nonnull @__PRETTY_FUNCTION__._Z15test_containersISt5dequeIiSaIiEESt6vectorIiS1_E22bidirectional_iteratorISt15_Deque_iteratorIiRiPiEES5_IN9__gnu_cxx17__normal_iteratorIS8_S4_EEESA_Evv) #18
  unreachable

204:                                              ; preds = %91, %12
  %205 = phi { ptr, i32 } [ %92, %91 ], [ %13, %12 ]
  call void @llvm.lifetime.end.p0(ptr nonnull %1) #17
  br label %233

206:                                              ; preds = %116
  %207 = landingpad { ptr, i32 }
          cleanup
  call void @_ZNSt5dequeIiSaIiEED2Ev(ptr noundef nonnull align 8 dereferenceable(80) %2) #17
  br label %231

208:                                              ; preds = %197, %181
  br i1 %159, label %210, label %209

209:                                              ; preds = %208
  call void @__assert_fail(ptr noundef nonnull @.str.19, ptr noundef nonnull @.str.1, i32 noundef 125, ptr noundef nonnull @__PRETTY_FUNCTION__._Z15test_containersISt5dequeIiSaIiEESt6vectorIiS1_E22bidirectional_iteratorISt15_Deque_iteratorIiRiPiEES5_IN9__gnu_cxx17__normal_iteratorIS8_S4_EEESA_Evv) #18
  unreachable

210:                                              ; preds = %208
  call void @_ZdlPvm(ptr noundef nonnull %124, i64 noundef 16) #19
  %211 = load ptr, ptr %2, align 8, !tbaa !50
  %212 = icmp eq ptr %211, null
  br i1 %212, label %230, label %213

213:                                              ; preds = %210
  %214 = load ptr, ptr %117, align 8, !tbaa !9
  %215 = load ptr, ptr %119, align 8, !tbaa !17
  %216 = getelementptr inbounds nuw i8, ptr %215, i64 8
  %217 = icmp ult ptr %214, %216
  br i1 %217, label %218, label %225

218:                                              ; preds = %213, %218
  %219 = phi ptr [ %221, %218 ], [ %214, %213 ]
  %220 = load ptr, ptr %219, align 8, !tbaa !19
  call void @_ZdlPvm(ptr noundef %220, i64 noundef 512) #19
  %221 = getelementptr inbounds nuw i8, ptr %219, i64 8
  %222 = icmp ult ptr %219, %215
  br i1 %222, label %218, label %223, !llvm.loop !51

223:                                              ; preds = %218
  %224 = load ptr, ptr %2, align 8, !tbaa !50
  br label %225

225:                                              ; preds = %223, %213
  %226 = phi ptr [ %224, %223 ], [ %211, %213 ]
  %227 = getelementptr inbounds nuw i8, ptr %2, i64 8
  %228 = load i64, ptr %227, align 8, !tbaa !52
  %229 = shl i64 %228, 3
  call void @_ZdlPvm(ptr noundef %226, i64 noundef %229) #19
  br label %230

230:                                              ; preds = %210, %225
  call void @llvm.lifetime.end.p0(ptr nonnull %2) #17
  ret void

231:                                              ; preds = %206, %125
  %232 = phi { ptr, i32 } [ %207, %206 ], [ %126, %125 ]
  call void @llvm.lifetime.end.p0(ptr nonnull %2) #17
  br label %233

233:                                              ; preds = %231, %204
  %234 = phi { ptr, i32 } [ %232, %231 ], [ %205, %204 ]
  resume { ptr, i32 } %234
}

; Function Attrs: mustprogress uwtable
define linkonce_odr dso_local void @_Z15test_containersISt6vectorIiSaIiEESt5dequeIiS1_E22bidirectional_iteratorIN9__gnu_cxx17__normal_iteratorIPiS2_EEES5_ISt15_Deque_iteratorIiRiS8_EESA_Evv() local_unnamed_addr #1 comdat personality ptr @__gxx_personality_v0 {
  %1 = alloca %"class.std::deque", align 8
  %2 = alloca %"class.std::deque", align 8
  %3 = tail call noalias noundef nonnull dereferenceable(16) ptr @_Znwm(i64 noundef 16) #20
  %4 = getelementptr inbounds nuw i8, ptr %3, i64 4
  %5 = getelementptr inbounds nuw i8, ptr %3, i64 8
  %6 = getelementptr inbounds nuw i8, ptr %3, i64 12
  store <4 x i32> <i32 1, i32 2, i32 3, i32 4>, ptr %3, align 4
  call void @llvm.lifetime.start.p0(ptr nonnull %1) #17
  call void @llvm.memset.p0.i64(ptr noundef nonnull align 8 dereferenceable(80) %1, i8 0, i64 80, i1 false)
  invoke void @_ZNSt11_Deque_baseIiSaIiEE17_M_initialize_mapEm(ptr noundef nonnull align 8 dereferenceable(80) %1, i64 noundef 4)
          to label %7 unwind label %143

7:                                                ; preds = %0
  %8 = getelementptr inbounds nuw i8, ptr %1, i64 40
  %9 = load ptr, ptr %8, align 8, !tbaa !9
  %10 = getelementptr inbounds nuw i8, ptr %1, i64 72
  %11 = load ptr, ptr %10, align 8, !tbaa !17
  %12 = icmp ult ptr %9, %11
  br i1 %12, label %13, label %18

13:                                               ; preds = %7, %13
  %14 = phi ptr [ %16, %13 ], [ %9, %7 ]
  %15 = load ptr, ptr %14, align 8, !tbaa !19
  %16 = getelementptr inbounds nuw i8, ptr %14, i64 8
  %17 = icmp ult ptr %16, %11
  call void @llvm.memset.p0.i64(ptr noundef nonnull align 4 dereferenceable(512) %15, i8 0, i64 512, i1 false)
  br i1 %17, label %13, label %18, !llvm.loop !20

18:                                               ; preds = %13, %7
  %19 = getelementptr inbounds nuw i8, ptr %1, i64 48
  %20 = getelementptr inbounds nuw i8, ptr %1, i64 56
  %21 = load ptr, ptr %20, align 8, !tbaa !18
  %22 = load ptr, ptr %19, align 8, !tbaa !22
  %23 = ptrtoint ptr %21 to i64
  %24 = ptrtoint ptr %22 to i64
  %25 = icmp eq ptr %21, %22
  br i1 %25, label %33, label %26

26:                                               ; preds = %18
  store i32 0, ptr %21, align 4, !tbaa !5
  %27 = getelementptr inbounds nuw i8, ptr %21, i64 4
  %28 = icmp eq ptr %27, %22
  br i1 %28, label %37, label %29

29:                                               ; preds = %26
  %30 = sub i64 %24, %23
  %31 = and i64 %30, -4
  %32 = add i64 %31, -4
  call void @llvm.memset.p0.i64(ptr nonnull align 4 %27, i8 0, i64 %32, i1 false), !tbaa !5
  br label %37

33:                                               ; preds = %18
  %34 = getelementptr inbounds i8, ptr %11, i64 -8
  %35 = load ptr, ptr %34, align 8, !tbaa !19, !noalias !112
  %36 = getelementptr inbounds nuw i8, ptr %35, i64 512
  br label %37

37:                                               ; preds = %29, %26, %33
  %38 = phi ptr [ %34, %33 ], [ %11, %26 ], [ %11, %29 ]
  %39 = phi ptr [ %35, %33 ], [ %21, %26 ], [ %21, %29 ]
  %40 = phi ptr [ %36, %33 ], [ %22, %26 ], [ %22, %29 ]
  %41 = getelementptr inbounds nuw i8, ptr %3, i64 12
  %42 = getelementptr inbounds i8, ptr %40, i64 -4
  %43 = load i32, ptr %41, align 4, !tbaa !5, !noalias !112
  store i32 %43, ptr %42, align 4, !tbaa !5, !noalias !112
  %44 = getelementptr inbounds nuw i8, ptr %3, i64 8
  %45 = icmp eq ptr %42, %39
  br i1 %45, label %46, label %50

46:                                               ; preds = %37
  %47 = getelementptr inbounds i8, ptr %38, i64 -8
  %48 = load ptr, ptr %47, align 8, !tbaa !19, !noalias !112
  %49 = getelementptr inbounds nuw i8, ptr %48, i64 512
  br label %50

50:                                               ; preds = %46, %37
  %51 = phi ptr [ %47, %46 ], [ %38, %37 ]
  %52 = phi ptr [ %48, %46 ], [ %39, %37 ]
  %53 = phi ptr [ %49, %46 ], [ %42, %37 ]
  %54 = getelementptr inbounds i8, ptr %53, i64 -4
  %55 = load i32, ptr %44, align 4, !tbaa !5, !noalias !112
  store i32 %55, ptr %54, align 4, !tbaa !5, !noalias !112
  %56 = getelementptr inbounds nuw i8, ptr %3, i64 4
  %57 = icmp eq ptr %54, %52
  br i1 %57, label %58, label %62

58:                                               ; preds = %50
  %59 = getelementptr inbounds i8, ptr %51, i64 -8
  %60 = load ptr, ptr %59, align 8, !tbaa !19, !noalias !112
  %61 = getelementptr inbounds nuw i8, ptr %60, i64 512
  br label %62

62:                                               ; preds = %58, %50
  %63 = phi ptr [ %59, %58 ], [ %51, %50 ]
  %64 = phi ptr [ %60, %58 ], [ %52, %50 ]
  %65 = phi ptr [ %61, %58 ], [ %54, %50 ]
  %66 = getelementptr inbounds i8, ptr %65, i64 -4
  %67 = load i32, ptr %56, align 4, !tbaa !5, !noalias !112
  store i32 %67, ptr %66, align 4, !tbaa !5, !noalias !112
  %68 = icmp eq ptr %66, %64
  br i1 %68, label %69, label %73

69:                                               ; preds = %62
  %70 = getelementptr inbounds i8, ptr %63, i64 -8
  %71 = load ptr, ptr %70, align 8, !tbaa !19, !noalias !112
  %72 = getelementptr inbounds nuw i8, ptr %71, i64 512
  br label %73

73:                                               ; preds = %69, %62
  %74 = phi ptr [ %72, %69 ], [ %66, %62 ]
  %75 = getelementptr inbounds i8, ptr %74, i64 -4
  %76 = load i32, ptr %3, align 4, !tbaa !5, !noalias !112
  store i32 %76, ptr %75, align 4, !tbaa !5, !noalias !112
  %77 = getelementptr inbounds nuw i8, ptr %1, i64 16
  %78 = load ptr, ptr %77, align 8, !tbaa !23, !noalias !117
  %79 = getelementptr inbounds nuw i8, ptr %1, i64 32
  %80 = load ptr, ptr %79, align 8, !tbaa !38, !noalias !117
  %81 = ptrtoint ptr %11 to i64
  %82 = ptrtoint ptr %9 to i64
  %83 = sub i64 %81, %82
  %84 = ashr exact i64 %83, 3
  %85 = icmp ne ptr %11, null
  %86 = sext i1 %85 to i64
  %87 = add nsw i64 %84, %86
  %88 = shl nsw i64 %87, 7
  %89 = sub i64 %24, %23
  %90 = ashr exact i64 %89, 2
  %91 = ptrtoint ptr %80 to i64
  %92 = ptrtoint ptr %78 to i64
  %93 = sub i64 %91, %92
  %94 = ashr exact i64 %93, 2
  %95 = add i64 %90, %88
  %96 = add i64 %95, %94
  %97 = icmp eq i64 %96, 4
  br i1 %97, label %98, label %142

98:                                               ; preds = %73
  %99 = load i32, ptr %78, align 4, !tbaa !5
  %100 = icmp eq i32 %76, %99
  br i1 %100, label %101, label %142

101:                                              ; preds = %98
  %102 = getelementptr inbounds nuw i8, ptr %78, i64 4
  %103 = icmp eq ptr %102, %80
  br i1 %103, label %104, label %108

104:                                              ; preds = %101
  %105 = getelementptr inbounds nuw i8, ptr %9, i64 8
  %106 = load ptr, ptr %105, align 8, !tbaa !19
  %107 = getelementptr inbounds nuw i8, ptr %106, i64 512
  br label %108

108:                                              ; preds = %104, %101
  %109 = phi ptr [ %9, %101 ], [ %105, %104 ]
  %110 = phi ptr [ %80, %101 ], [ %107, %104 ]
  %111 = phi ptr [ %102, %101 ], [ %106, %104 ]
  %112 = load i32, ptr %4, align 4, !tbaa !5
  %113 = load i32, ptr %111, align 4, !tbaa !5
  %114 = icmp eq i32 %112, %113
  br i1 %114, label %115, label %142

115:                                              ; preds = %108
  %116 = getelementptr inbounds nuw i8, ptr %111, i64 4
  %117 = icmp eq ptr %116, %110
  br i1 %117, label %118, label %122

118:                                              ; preds = %115
  %119 = getelementptr inbounds nuw i8, ptr %109, i64 8
  %120 = load ptr, ptr %119, align 8, !tbaa !19
  %121 = getelementptr inbounds nuw i8, ptr %120, i64 512
  br label %122

122:                                              ; preds = %118, %115
  %123 = phi ptr [ %109, %115 ], [ %119, %118 ]
  %124 = phi ptr [ %110, %115 ], [ %121, %118 ]
  %125 = phi ptr [ %116, %115 ], [ %120, %118 ]
  %126 = load i32, ptr %5, align 4, !tbaa !5
  %127 = load i32, ptr %125, align 4, !tbaa !5
  %128 = icmp eq i32 %126, %127
  br i1 %128, label %129, label %142

129:                                              ; preds = %122
  %130 = getelementptr inbounds nuw i8, ptr %125, i64 4
  %131 = icmp eq ptr %130, %124
  br i1 %131, label %132, label %135

132:                                              ; preds = %129
  %133 = getelementptr inbounds nuw i8, ptr %123, i64 8
  %134 = load ptr, ptr %133, align 8, !tbaa !19
  br label %135

135:                                              ; preds = %132, %129
  %136 = phi ptr [ %130, %129 ], [ %134, %132 ]
  %137 = load i32, ptr %6, align 4, !tbaa !5
  %138 = load i32, ptr %136, align 4, !tbaa !5
  %139 = icmp eq i32 %137, %138
  br i1 %139, label %140, label %142

140:                                              ; preds = %135
  %141 = icmp eq ptr %75, %78
  br i1 %141, label %146, label %145

142:                                              ; preds = %98, %108, %122, %135, %73
  call void @__assert_fail(ptr noundef nonnull @.str.17, ptr noundef nonnull @.str.1, i32 noundef 114, ptr noundef nonnull @__PRETTY_FUNCTION__._Z15test_containersISt6vectorIiSaIiEESt5dequeIiS1_E22bidirectional_iteratorIN9__gnu_cxx17__normal_iteratorIPiS2_EEES5_ISt15_Deque_iteratorIiRiS8_EESA_Evv) #18
  unreachable

143:                                              ; preds = %0
  %144 = landingpad { ptr, i32 }
          cleanup
  call void @llvm.lifetime.end.p0(ptr nonnull %1) #17
  br label %327

145:                                              ; preds = %140
  call void @__assert_fail(ptr noundef nonnull @.str.19, ptr noundef nonnull @.str.1, i32 noundef 116, ptr noundef nonnull @__PRETTY_FUNCTION__._Z15test_containersISt6vectorIiSaIiEESt5dequeIiS1_E22bidirectional_iteratorIN9__gnu_cxx17__normal_iteratorIPiS2_EEES5_ISt15_Deque_iteratorIiRiS8_EESA_Evv) #18
  unreachable

146:                                              ; preds = %140
  %147 = load ptr, ptr %1, align 8, !tbaa !50
  %148 = icmp eq ptr %147, null
  br i1 %148, label %164, label %149

149:                                              ; preds = %146
  %150 = getelementptr inbounds nuw i8, ptr %11, i64 8
  %151 = icmp ult ptr %9, %150
  br i1 %151, label %152, label %159

152:                                              ; preds = %149, %152
  %153 = phi ptr [ %155, %152 ], [ %9, %149 ]
  %154 = load ptr, ptr %153, align 8, !tbaa !19
  call void @_ZdlPvm(ptr noundef %154, i64 noundef 512) #19
  %155 = getelementptr inbounds nuw i8, ptr %153, i64 8
  %156 = icmp ult ptr %153, %11
  br i1 %156, label %152, label %157, !llvm.loop !51

157:                                              ; preds = %152
  %158 = load ptr, ptr %1, align 8, !tbaa !50
  br label %159

159:                                              ; preds = %157, %149
  %160 = phi ptr [ %158, %157 ], [ %147, %149 ]
  %161 = getelementptr inbounds nuw i8, ptr %1, i64 8
  %162 = load i64, ptr %161, align 8, !tbaa !52
  %163 = shl i64 %162, 3
  call void @_ZdlPvm(ptr noundef %160, i64 noundef %163) #19
  br label %164

164:                                              ; preds = %146, %159
  call void @llvm.lifetime.end.p0(ptr nonnull %1) #17
  call void @_ZdlPvm(ptr noundef nonnull %3, i64 noundef 16) #19
  %165 = call noalias noundef nonnull dereferenceable(16) ptr @_Znwm(i64 noundef 16) #20
  %166 = getelementptr inbounds nuw i8, ptr %165, i64 4
  %167 = getelementptr inbounds nuw i8, ptr %165, i64 8
  %168 = getelementptr inbounds nuw i8, ptr %165, i64 12
  store <4 x i32> <i32 1, i32 2, i32 3, i32 4>, ptr %165, align 4
  call void @llvm.lifetime.start.p0(ptr nonnull %2) #17
  call void @llvm.memset.p0.i64(ptr noundef nonnull align 8 dereferenceable(80) %2, i8 0, i64 80, i1 false)
  invoke void @_ZNSt11_Deque_baseIiSaIiEE17_M_initialize_mapEm(ptr noundef nonnull align 8 dereferenceable(80) %2, i64 noundef 4)
          to label %169 unwind label %305

169:                                              ; preds = %164
  %170 = getelementptr inbounds nuw i8, ptr %2, i64 40
  %171 = load ptr, ptr %170, align 8, !tbaa !9
  %172 = getelementptr inbounds nuw i8, ptr %2, i64 72
  %173 = load ptr, ptr %172, align 8, !tbaa !17
  %174 = icmp ult ptr %171, %173
  br i1 %174, label %175, label %180

175:                                              ; preds = %169, %175
  %176 = phi ptr [ %178, %175 ], [ %171, %169 ]
  %177 = load ptr, ptr %176, align 8, !tbaa !19
  %178 = getelementptr inbounds nuw i8, ptr %176, i64 8
  %179 = icmp ult ptr %178, %173
  call void @llvm.memset.p0.i64(ptr noundef nonnull align 4 dereferenceable(512) %177, i8 0, i64 512, i1 false)
  br i1 %179, label %175, label %180, !llvm.loop !20

180:                                              ; preds = %175, %169
  %181 = getelementptr inbounds nuw i8, ptr %2, i64 48
  %182 = getelementptr inbounds nuw i8, ptr %2, i64 56
  %183 = load ptr, ptr %182, align 8, !tbaa !18
  %184 = load ptr, ptr %181, align 8, !tbaa !22
  %185 = ptrtoint ptr %183 to i64
  %186 = ptrtoint ptr %184 to i64
  %187 = icmp eq ptr %183, %184
  br i1 %187, label %195, label %188

188:                                              ; preds = %180
  store i32 0, ptr %183, align 4, !tbaa !5
  %189 = getelementptr inbounds nuw i8, ptr %183, i64 4
  %190 = icmp eq ptr %189, %184
  br i1 %190, label %199, label %191

191:                                              ; preds = %188
  %192 = sub i64 %186, %185
  %193 = and i64 %192, -4
  %194 = add i64 %193, -4
  call void @llvm.memset.p0.i64(ptr nonnull align 4 %189, i8 0, i64 %194, i1 false), !tbaa !5
  br label %199

195:                                              ; preds = %180
  %196 = getelementptr inbounds i8, ptr %173, i64 -8
  %197 = load ptr, ptr %196, align 8, !tbaa !19, !noalias !122
  %198 = getelementptr inbounds nuw i8, ptr %197, i64 512
  br label %199

199:                                              ; preds = %191, %188, %195
  %200 = phi ptr [ %196, %195 ], [ %173, %188 ], [ %173, %191 ]
  %201 = phi ptr [ %197, %195 ], [ %183, %188 ], [ %183, %191 ]
  %202 = phi ptr [ %198, %195 ], [ %184, %188 ], [ %184, %191 ]
  %203 = getelementptr inbounds nuw i8, ptr %165, i64 12
  %204 = getelementptr inbounds i8, ptr %202, i64 -4
  %205 = load i32, ptr %203, align 4, !tbaa !5, !noalias !122
  store i32 %205, ptr %204, align 4, !tbaa !5, !noalias !122
  %206 = getelementptr inbounds nuw i8, ptr %165, i64 8
  %207 = icmp eq ptr %204, %201
  br i1 %207, label %208, label %212

208:                                              ; preds = %199
  %209 = getelementptr inbounds i8, ptr %200, i64 -8
  %210 = load ptr, ptr %209, align 8, !tbaa !19, !noalias !122
  %211 = getelementptr inbounds nuw i8, ptr %210, i64 512
  br label %212

212:                                              ; preds = %208, %199
  %213 = phi ptr [ %209, %208 ], [ %200, %199 ]
  %214 = phi ptr [ %210, %208 ], [ %201, %199 ]
  %215 = phi ptr [ %211, %208 ], [ %204, %199 ]
  %216 = getelementptr inbounds i8, ptr %215, i64 -4
  %217 = load i32, ptr %206, align 4, !tbaa !5, !noalias !122
  store i32 %217, ptr %216, align 4, !tbaa !5, !noalias !122
  %218 = getelementptr inbounds nuw i8, ptr %165, i64 4
  %219 = icmp eq ptr %216, %214
  br i1 %219, label %220, label %224

220:                                              ; preds = %212
  %221 = getelementptr inbounds i8, ptr %213, i64 -8
  %222 = load ptr, ptr %221, align 8, !tbaa !19, !noalias !122
  %223 = getelementptr inbounds nuw i8, ptr %222, i64 512
  br label %224

224:                                              ; preds = %220, %212
  %225 = phi ptr [ %221, %220 ], [ %213, %212 ]
  %226 = phi ptr [ %222, %220 ], [ %214, %212 ]
  %227 = phi ptr [ %223, %220 ], [ %216, %212 ]
  %228 = getelementptr inbounds i8, ptr %227, i64 -4
  %229 = load i32, ptr %218, align 4, !tbaa !5, !noalias !122
  store i32 %229, ptr %228, align 4, !tbaa !5, !noalias !122
  %230 = icmp eq ptr %228, %226
  br i1 %230, label %231, label %235

231:                                              ; preds = %224
  %232 = getelementptr inbounds i8, ptr %225, i64 -8
  %233 = load ptr, ptr %232, align 8, !tbaa !19, !noalias !122
  %234 = getelementptr inbounds nuw i8, ptr %233, i64 512
  br label %235

235:                                              ; preds = %231, %224
  %236 = phi ptr [ %234, %231 ], [ %228, %224 ]
  %237 = getelementptr inbounds i8, ptr %236, i64 -4
  %238 = load i32, ptr %165, align 4, !tbaa !5, !noalias !122
  store i32 %238, ptr %237, align 4, !tbaa !5, !noalias !122
  %239 = getelementptr inbounds nuw i8, ptr %2, i64 16
  %240 = load ptr, ptr %239, align 8, !tbaa !23, !noalias !129
  %241 = getelementptr inbounds nuw i8, ptr %2, i64 32
  %242 = load ptr, ptr %241, align 8, !tbaa !38, !noalias !129
  %243 = ptrtoint ptr %173 to i64
  %244 = ptrtoint ptr %171 to i64
  %245 = sub i64 %243, %244
  %246 = ashr exact i64 %245, 3
  %247 = icmp ne ptr %173, null
  %248 = sext i1 %247 to i64
  %249 = add nsw i64 %246, %248
  %250 = shl nsw i64 %249, 7
  %251 = sub i64 %186, %185
  %252 = ashr exact i64 %251, 2
  %253 = ptrtoint ptr %242 to i64
  %254 = ptrtoint ptr %240 to i64
  %255 = sub i64 %253, %254
  %256 = ashr exact i64 %255, 2
  %257 = add i64 %252, %250
  %258 = add i64 %257, %256
  %259 = icmp eq i64 %258, 4
  br i1 %259, label %260, label %304

260:                                              ; preds = %235
  %261 = load i32, ptr %240, align 4, !tbaa !5
  %262 = icmp eq i32 %238, %261
  br i1 %262, label %263, label %304

263:                                              ; preds = %260
  %264 = getelementptr inbounds nuw i8, ptr %240, i64 4
  %265 = icmp eq ptr %264, %242
  br i1 %265, label %266, label %270

266:                                              ; preds = %263
  %267 = getelementptr inbounds nuw i8, ptr %171, i64 8
  %268 = load ptr, ptr %267, align 8, !tbaa !19
  %269 = getelementptr inbounds nuw i8, ptr %268, i64 512
  br label %270

270:                                              ; preds = %266, %263
  %271 = phi ptr [ %171, %263 ], [ %267, %266 ]
  %272 = phi ptr [ %242, %263 ], [ %269, %266 ]
  %273 = phi ptr [ %264, %263 ], [ %268, %266 ]
  %274 = load i32, ptr %166, align 4, !tbaa !5
  %275 = load i32, ptr %273, align 4, !tbaa !5
  %276 = icmp eq i32 %274, %275
  br i1 %276, label %277, label %304

277:                                              ; preds = %270
  %278 = getelementptr inbounds nuw i8, ptr %273, i64 4
  %279 = icmp eq ptr %278, %272
  br i1 %279, label %280, label %284

280:                                              ; preds = %277
  %281 = getelementptr inbounds nuw i8, ptr %271, i64 8
  %282 = load ptr, ptr %281, align 8, !tbaa !19
  %283 = getelementptr inbounds nuw i8, ptr %282, i64 512
  br label %284

284:                                              ; preds = %280, %277
  %285 = phi ptr [ %271, %277 ], [ %281, %280 ]
  %286 = phi ptr [ %272, %277 ], [ %283, %280 ]
  %287 = phi ptr [ %278, %277 ], [ %282, %280 ]
  %288 = load i32, ptr %167, align 4, !tbaa !5
  %289 = load i32, ptr %287, align 4, !tbaa !5
  %290 = icmp eq i32 %288, %289
  br i1 %290, label %291, label %304

291:                                              ; preds = %284
  %292 = getelementptr inbounds nuw i8, ptr %287, i64 4
  %293 = icmp eq ptr %292, %286
  br i1 %293, label %294, label %297

294:                                              ; preds = %291
  %295 = getelementptr inbounds nuw i8, ptr %285, i64 8
  %296 = load ptr, ptr %295, align 8, !tbaa !19
  br label %297

297:                                              ; preds = %294, %291
  %298 = phi ptr [ %292, %291 ], [ %296, %294 ]
  %299 = load i32, ptr %168, align 4, !tbaa !5
  %300 = load i32, ptr %298, align 4, !tbaa !5
  %301 = icmp eq i32 %299, %300
  br i1 %301, label %302, label %304

302:                                              ; preds = %297
  %303 = icmp eq ptr %237, %240
  br i1 %303, label %308, label %307

304:                                              ; preds = %260, %270, %284, %297, %235
  call void @__assert_fail(ptr noundef nonnull @.str.17, ptr noundef nonnull @.str.1, i32 noundef 123, ptr noundef nonnull @__PRETTY_FUNCTION__._Z15test_containersISt6vectorIiSaIiEESt5dequeIiS1_E22bidirectional_iteratorIN9__gnu_cxx17__normal_iteratorIPiS2_EEES5_ISt15_Deque_iteratorIiRiS8_EESA_Evv) #18
  unreachable

305:                                              ; preds = %164
  %306 = landingpad { ptr, i32 }
          cleanup
  call void @llvm.lifetime.end.p0(ptr nonnull %2) #17
  br label %327

307:                                              ; preds = %302
  call void @__assert_fail(ptr noundef nonnull @.str.19, ptr noundef nonnull @.str.1, i32 noundef 125, ptr noundef nonnull @__PRETTY_FUNCTION__._Z15test_containersISt6vectorIiSaIiEESt5dequeIiS1_E22bidirectional_iteratorIN9__gnu_cxx17__normal_iteratorIPiS2_EEES5_ISt15_Deque_iteratorIiRiS8_EESA_Evv) #18
  unreachable

308:                                              ; preds = %302
  %309 = load ptr, ptr %2, align 8, !tbaa !50
  %310 = icmp eq ptr %309, null
  br i1 %310, label %326, label %311

311:                                              ; preds = %308
  %312 = getelementptr inbounds nuw i8, ptr %173, i64 8
  %313 = icmp ult ptr %171, %312
  br i1 %313, label %314, label %321

314:                                              ; preds = %311, %314
  %315 = phi ptr [ %317, %314 ], [ %171, %311 ]
  %316 = load ptr, ptr %315, align 8, !tbaa !19
  call void @_ZdlPvm(ptr noundef %316, i64 noundef 512) #19
  %317 = getelementptr inbounds nuw i8, ptr %315, i64 8
  %318 = icmp ult ptr %315, %173
  br i1 %318, label %314, label %319, !llvm.loop !51

319:                                              ; preds = %314
  %320 = load ptr, ptr %2, align 8, !tbaa !50
  br label %321

321:                                              ; preds = %319, %311
  %322 = phi ptr [ %320, %319 ], [ %309, %311 ]
  %323 = getelementptr inbounds nuw i8, ptr %2, i64 8
  %324 = load i64, ptr %323, align 8, !tbaa !52
  %325 = shl i64 %324, 3
  call void @_ZdlPvm(ptr noundef %322, i64 noundef %325) #19
  br label %326

326:                                              ; preds = %308, %321
  call void @llvm.lifetime.end.p0(ptr nonnull %2) #17
  call void @_ZdlPvm(ptr noundef nonnull %165, i64 noundef 16) #19
  ret void

327:                                              ; preds = %305, %143
  %328 = phi ptr [ %165, %305 ], [ %3, %143 ]
  %329 = phi { ptr, i32 } [ %306, %305 ], [ %144, %143 ]
  call void @_ZdlPvm(ptr noundef nonnull %328, i64 noundef 16) #19
  resume { ptr, i32 } %329
}

; Function Attrs: mustprogress uwtable
define linkonce_odr dso_local void @_Z15test_containersISt6vectorIiSaIiEES2_22bidirectional_iteratorIN9__gnu_cxx17__normal_iteratorIPiS2_EEES8_S8_Evv() local_unnamed_addr #1 comdat personality ptr @__gxx_personality_v0 {
  %1 = tail call noalias noundef nonnull dereferenceable(16) ptr @_Znwm(i64 noundef 16) #20
  store <4 x i32> <i32 1, i32 2, i32 3, i32 4>, ptr %1, align 4
  %2 = invoke noalias noundef nonnull dereferenceable(16) ptr @_Znwm(i64 noundef 16) #20
          to label %3 unwind label %7

3:                                                ; preds = %0
  tail call void @llvm.memcpy.p0.p0.i64(ptr noundef nonnull align 4 dereferenceable(16) %2, ptr noundef nonnull align 4 dereferenceable(16) %1, i64 16, i1 false), !tbaa !5, !noalias !134
  %4 = tail call i32 @bcmp(ptr noundef nonnull dereferenceable(16) %1, ptr noundef nonnull dereferenceable(16) %2, i64 16)
  %5 = icmp eq i32 %4, 0
  br i1 %5, label %9, label %6

6:                                                ; preds = %3
  tail call void @__assert_fail(ptr noundef nonnull @.str.17, ptr noundef nonnull @.str.1, i32 noundef 114, ptr noundef nonnull @__PRETTY_FUNCTION__._Z15test_containersISt6vectorIiSaIiEES2_22bidirectional_iteratorIN9__gnu_cxx17__normal_iteratorIPiS2_EEES8_S8_Evv) #18
  unreachable

7:                                                ; preds = %0
  %8 = landingpad { ptr, i32 }
          cleanup
  br label %19

9:                                                ; preds = %3
  tail call void @_ZdlPvm(ptr noundef nonnull %2, i64 noundef 16) #19
  tail call void @_ZdlPvm(ptr noundef nonnull %1, i64 noundef 16) #19
  %10 = tail call noalias noundef nonnull dereferenceable(16) ptr @_Znwm(i64 noundef 16) #20
  store <4 x i32> <i32 1, i32 2, i32 3, i32 4>, ptr %10, align 4
  %11 = invoke noalias noundef nonnull dereferenceable(16) ptr @_Znwm(i64 noundef 16) #20
          to label %12 unwind label %16

12:                                               ; preds = %9
  tail call void @llvm.memcpy.p0.p0.i64(ptr noundef nonnull align 4 dereferenceable(16) %11, ptr noundef nonnull align 4 dereferenceable(16) %10, i64 16, i1 false), !tbaa !5, !noalias !139
  %13 = tail call i32 @bcmp(ptr noundef nonnull dereferenceable(16) %10, ptr noundef nonnull dereferenceable(16) %11, i64 16)
  %14 = icmp eq i32 %13, 0
  br i1 %14, label %18, label %15

15:                                               ; preds = %12
  tail call void @__assert_fail(ptr noundef nonnull @.str.17, ptr noundef nonnull @.str.1, i32 noundef 123, ptr noundef nonnull @__PRETTY_FUNCTION__._Z15test_containersISt6vectorIiSaIiEES2_22bidirectional_iteratorIN9__gnu_cxx17__normal_iteratorIPiS2_EEES8_S8_Evv) #18
  unreachable

16:                                               ; preds = %9
  %17 = landingpad { ptr, i32 }
          cleanup
  br label %19

18:                                               ; preds = %12
  tail call void @_ZdlPvm(ptr noundef nonnull %11, i64 noundef 16) #19
  tail call void @_ZdlPvm(ptr noundef nonnull %10, i64 noundef 16) #19
  ret void

19:                                               ; preds = %16, %7
  %20 = phi ptr [ %10, %16 ], [ %1, %7 ]
  %21 = phi { ptr, i32 } [ %17, %16 ], [ %8, %7 ]
  tail call void @_ZdlPvm(ptr noundef nonnull %20, i64 noundef 16) #19
  resume { ptr, i32 } %21
}

; Function Attrs: mustprogress uwtable
define linkonce_odr dso_local void @_Z14test_join_viewI22bidirectional_iteratorIN9__gnu_cxx17__normal_iteratorIPiSt6vectorIiSaIiEEEEES8_Evv() local_unnamed_addr #1 comdat personality ptr @__gxx_personality_v0 {
  %1 = alloca %"struct.std::ranges::join_view<std::ranges::ref_view<std::vector<std::ranges::subrange<bidirectional_iterator<__gnu_cxx::__normal_iterator<int *, std::vector<int>>>>>>>::_Iterator", align 8
  %2 = alloca %"class.std::vector.37", align 8
  %3 = alloca %"class.std::ranges::transform_view", align 8
  %4 = alloca %"class.std::vector.45", align 8
  %5 = alloca %"class.std::ranges::join_view", align 8
  %6 = alloca %"class.std::vector.37", align 8
  %7 = alloca [4 x %"class.std::vector"], align 8
  %8 = alloca %"class.std::ranges::transform_view", align 8
  %9 = alloca %"class.std::vector.45", align 8
  %10 = alloca %"struct.std::array.55", align 4
  %11 = alloca %"class.std::ranges::join_view", align 8
  %12 = alloca %"class.std::vector.37", align 8
  %13 = alloca [4 x %"class.std::vector"], align 8
  %14 = alloca %"class.std::ranges::transform_view", align 8
  %15 = alloca %"class.std::vector.45", align 8
  %16 = alloca %"struct.std::array.55", align 4
  %17 = alloca %"class.std::ranges::join_view", align 8
  %18 = alloca %"struct.std::ranges::in_out_result.56", align 8
  %19 = alloca %"class.std::ranges::join_view", align 8
  %20 = alloca %"struct.std::array.55", align 4
  %21 = alloca %"class.std::vector.37", align 8
  %22 = alloca [4 x %"class.std::vector"], align 8
  %23 = alloca %"class.std::ranges::transform_view", align 8
  %24 = alloca %"class.std::vector.45", align 8
  %25 = alloca %"class.std::vector.37", align 8
  %26 = alloca [4 x %"class.std::vector"], align 8
  %27 = alloca %"class.std::ranges::transform_view", align 8
  %28 = alloca %"class.std::vector.45", align 8
  %29 = alloca %"class.std::ranges::join_view", align 8
  %30 = alloca %"struct.std::ranges::join_view<std::ranges::ref_view<std::vector<std::ranges::subrange<bidirectional_iterator<__gnu_cxx::__normal_iterator<int *, std::vector<int>>>>>>>::_Iterator", align 8
  %31 = alloca %"class.std::ranges::join_view", align 8
  %32 = alloca %"struct.std::ranges::in_out_result.58", align 8
  %33 = alloca %"class.std::ranges::join_view", align 8
  %34 = alloca %"struct.std::array.55", align 4
  call void @llvm.lifetime.start.p0(ptr nonnull %2) #17
  call void @llvm.memset.p0.i64(ptr noundef nonnull align 8 dereferenceable(24) %2, i8 0, i64 24, i1 false)
  call void @llvm.lifetime.start.p0(ptr nonnull %3) #17
  store ptr %2, ptr %3, align 8
  call void @llvm.lifetime.start.p0(ptr nonnull %4) #17
  %35 = getelementptr inbounds nuw i8, ptr %2, i64 8
  call void @llvm.memset.p0.i64(ptr noundef nonnull align 8 dereferenceable(24) %4, i8 0, i64 24, i1 false)
  invoke void @_ZNSt6vectorINSt6ranges8subrangeI22bidirectional_iteratorIN9__gnu_cxx17__normal_iteratorIPiS_IiSaIiEEEEES9_LNS0_13subrange_kindE0EEESaISB_EE19_M_range_initializeINS0_14transform_viewINS0_8ref_viewIS_IS7_SaIS7_EEEEZ14test_join_viewIS9_S9_EvvEUlRT_E_E9_IteratorILb0EEEEEvSL_SL_St18input_iterator_tag(ptr noundef nonnull align 8 dereferenceable(24) %4, ptr null, ptr nonnull %3, ptr null, ptr nonnull %3)
          to label %40 unwind label %36

36:                                               ; preds = %0
  %37 = landingpad { ptr, i32 }
          cleanup
  %38 = load ptr, ptr %4, align 8, !tbaa !146
  %39 = icmp eq ptr %38, null
  br i1 %39, label %181, label %173

40:                                               ; preds = %0
  call void @llvm.lifetime.start.p0(ptr nonnull %5) #17
  store ptr %4, ptr %5, align 8
  %41 = invoke ptr @_ZNKSt6ranges18__copy_backward_fnclITkNS_19bidirectional_rangeENS_9join_viewINS_8ref_viewISt6vectorINS_8subrangeI22bidirectional_iteratorIN9__gnu_cxx17__normal_iteratorIPiS4_IiSaIiEEEEESD_LNS_13subrange_kindE0EEESaISF_EEEEEETkSt22bidirectional_iteratorS9_Q19indirectly_copyableIDTclsr6ranges13__cust_accessE7__beginclsr3stdE7declvalIRT_EEEET0_EEENS_13in_out_resultINSt13__conditionalIX14borrowed_rangeISK_EEE4typeISM_NS_8danglingEEESN_EEOSK_SN_(ptr noundef nonnull align 1 dereferenceable(1) @_ZNSt6ranges13copy_backwardE, ptr noundef nonnull align 8 dereferenceable(8) %5, ptr noundef null)
          to label %42 unwind label %169

42:                                               ; preds = %40
  call void @llvm.lifetime.end.p0(ptr nonnull %5) #17
  %43 = load ptr, ptr %4, align 8, !tbaa !146
  %44 = icmp eq ptr %43, null
  br i1 %44, label %51, label %45

45:                                               ; preds = %42
  %46 = getelementptr inbounds nuw i8, ptr %4, i64 16
  %47 = load ptr, ptr %46, align 8, !tbaa !149
  %48 = ptrtoint ptr %47 to i64
  %49 = ptrtoint ptr %43 to i64
  %50 = sub i64 %48, %49
  call void @_ZdlPvm(ptr noundef nonnull %43, i64 noundef %50) #19
  br label %51

51:                                               ; preds = %42, %45
  call void @llvm.lifetime.end.p0(ptr nonnull %4) #17
  call void @llvm.lifetime.end.p0(ptr nonnull %3) #17
  %52 = load ptr, ptr %2, align 8, !tbaa !150
  %53 = load ptr, ptr %35, align 8, !tbaa !153
  %54 = icmp eq ptr %52, %53
  br i1 %54, label %70, label %55

55:                                               ; preds = %51, %65
  %56 = phi ptr [ %66, %65 ], [ %52, %51 ]
  %57 = load ptr, ptr %56, align 8, !tbaa !154
  %58 = icmp eq ptr %57, null
  br i1 %58, label %65, label %59

59:                                               ; preds = %55
  %60 = getelementptr inbounds nuw i8, ptr %56, i64 16
  %61 = load ptr, ptr %60, align 8, !tbaa !156
  %62 = ptrtoint ptr %61 to i64
  %63 = ptrtoint ptr %57 to i64
  %64 = sub i64 %62, %63
  call void @_ZdlPvm(ptr noundef nonnull %57, i64 noundef %64) #19
  br label %65

65:                                               ; preds = %59, %55
  %66 = getelementptr inbounds nuw i8, ptr %56, i64 24
  %67 = icmp eq ptr %66, %53
  br i1 %67, label %68, label %55, !llvm.loop !157

68:                                               ; preds = %65
  %69 = load ptr, ptr %2, align 8, !tbaa !150
  br label %70

70:                                               ; preds = %68, %51
  %71 = phi ptr [ %69, %68 ], [ %52, %51 ]
  %72 = icmp eq ptr %71, null
  br i1 %72, label %79, label %73

73:                                               ; preds = %70
  %74 = getelementptr inbounds nuw i8, ptr %2, i64 16
  %75 = load ptr, ptr %74, align 8, !tbaa !158
  %76 = ptrtoint ptr %75 to i64
  %77 = ptrtoint ptr %71 to i64
  %78 = sub i64 %76, %77
  call void @_ZdlPvm(ptr noundef nonnull %71, i64 noundef %78) #19
  br label %79

79:                                               ; preds = %70, %73
  call void @llvm.lifetime.end.p0(ptr nonnull %2) #17
  call void @llvm.lifetime.start.p0(ptr nonnull %6) #17
  call void @llvm.lifetime.start.p0(ptr nonnull %7) #17
  %80 = invoke noalias noundef nonnull dereferenceable(16) ptr @_Znwm(i64 noundef 16) #20
          to label %81 unwind label %183

81:                                               ; preds = %79
  store ptr %80, ptr %7, align 8, !tbaa !154
  %82 = getelementptr inbounds nuw i8, ptr %80, i64 16
  %83 = getelementptr inbounds nuw i8, ptr %7, i64 16
  store ptr %82, ptr %83, align 8, !tbaa !156
  store <4 x i32> <i32 1, i32 2, i32 3, i32 4>, ptr %80, align 4
  %84 = getelementptr inbounds nuw i8, ptr %7, i64 8
  store ptr %82, ptr %84, align 8, !tbaa !159
  %85 = getelementptr inbounds nuw i8, ptr %7, i64 24
  call void @llvm.memset.p0.i64(ptr noundef nonnull align 8 dereferenceable(24) %85, i8 0, i64 24, i1 false)
  %86 = invoke noalias noundef nonnull dereferenceable(16) ptr @_Znwm(i64 noundef 16) #20
          to label %87 unwind label %185

87:                                               ; preds = %81
  store ptr %86, ptr %85, align 8, !tbaa !154
  %88 = getelementptr inbounds nuw i8, ptr %86, i64 16
  %89 = getelementptr inbounds nuw i8, ptr %7, i64 40
  store ptr %88, ptr %89, align 8, !tbaa !156
  store <4 x i32> <i32 5, i32 6, i32 7, i32 8>, ptr %86, align 4
  %90 = getelementptr inbounds nuw i8, ptr %7, i64 32
  store ptr %88, ptr %90, align 8, !tbaa !159
  %91 = getelementptr inbounds nuw i8, ptr %7, i64 48
  call void @llvm.memset.p0.i64(ptr noundef nonnull align 8 dereferenceable(24) %91, i8 0, i64 24, i1 false)
  %92 = invoke noalias noundef nonnull dereferenceable(8) ptr @_Znwm(i64 noundef 8) #20
          to label %93 unwind label %187

93:                                               ; preds = %87
  store ptr %92, ptr %91, align 8, !tbaa !154
  %94 = getelementptr inbounds nuw i8, ptr %92, i64 8
  %95 = getelementptr inbounds nuw i8, ptr %7, i64 64
  store ptr %94, ptr %95, align 8, !tbaa !156
  store i32 9, ptr %92, align 4
  %96 = getelementptr inbounds nuw i8, ptr %92, i64 4
  store i32 10, ptr %96, align 4
  %97 = getelementptr inbounds nuw i8, ptr %7, i64 56
  store ptr %94, ptr %97, align 8, !tbaa !159
  %98 = getelementptr inbounds nuw i8, ptr %7, i64 72
  call void @llvm.memset.p0.i64(ptr noundef nonnull align 8 dereferenceable(24) %98, i8 0, i64 24, i1 false)
  call void @llvm.memset.p0.i64(ptr noundef nonnull align 8 dereferenceable(24) %6, i8 0, i64 24, i1 false)
  %99 = invoke noalias noundef nonnull dereferenceable(96) ptr @_Znwm(i64 noundef 96) #20
          to label %100 unwind label %105

100:                                              ; preds = %93
  %101 = getelementptr inbounds nuw i8, ptr %7, i64 96
  store ptr %99, ptr %6, align 8, !tbaa !150
  %102 = getelementptr inbounds nuw i8, ptr %99, i64 96
  %103 = getelementptr inbounds nuw i8, ptr %6, i64 16
  store ptr %102, ptr %103, align 8, !tbaa !158
  %104 = invoke noundef ptr @_ZSt16__do_uninit_copyIPKSt6vectorIiSaIiEEPS2_ET0_T_S7_S6_(ptr noundef nonnull %7, ptr noundef nonnull %101, ptr noundef nonnull %99)
          to label %115 unwind label %105

105:                                              ; preds = %100, %93
  %106 = landingpad { ptr, i32 }
          cleanup
  %107 = load ptr, ptr %6, align 8, !tbaa !150
  %108 = icmp eq ptr %107, null
  br i1 %108, label %189, label %109

109:                                              ; preds = %105
  %110 = getelementptr inbounds nuw i8, ptr %6, i64 16
  %111 = load ptr, ptr %110, align 8, !tbaa !158
  %112 = ptrtoint ptr %111 to i64
  %113 = ptrtoint ptr %107 to i64
  %114 = sub i64 %112, %113
  call void @_ZdlPvm(ptr noundef nonnull %107, i64 noundef %114) #19
  br label %189

115:                                              ; preds = %100
  %116 = getelementptr inbounds nuw i8, ptr %6, i64 8
  store ptr %104, ptr %116, align 8, !tbaa !153
  %117 = getelementptr inbounds nuw i8, ptr %7, i64 72
  %118 = load ptr, ptr %117, align 8, !tbaa !154
  %119 = icmp eq ptr %118, null
  br i1 %119, label %126, label %120

120:                                              ; preds = %115
  %121 = getelementptr inbounds nuw i8, ptr %7, i64 88
  %122 = load ptr, ptr %121, align 8, !tbaa !156
  %123 = ptrtoint ptr %122 to i64
  %124 = ptrtoint ptr %118 to i64
  %125 = sub i64 %123, %124
  call void @_ZdlPvm(ptr noundef nonnull %118, i64 noundef %125) #19
  br label %126

126:                                              ; preds = %115, %120
  %127 = getelementptr inbounds nuw i8, ptr %7, i64 48
  %128 = load ptr, ptr %127, align 8, !tbaa !154
  %129 = icmp eq ptr %128, null
  br i1 %129, label %136, label %130

130:                                              ; preds = %126
  %131 = getelementptr inbounds nuw i8, ptr %7, i64 64
  %132 = load ptr, ptr %131, align 8, !tbaa !156
  %133 = ptrtoint ptr %132 to i64
  %134 = ptrtoint ptr %128 to i64
  %135 = sub i64 %133, %134
  call void @_ZdlPvm(ptr noundef nonnull %128, i64 noundef %135) #19
  br label %136

136:                                              ; preds = %130, %126
  %137 = getelementptr inbounds nuw i8, ptr %7, i64 24
  %138 = load ptr, ptr %137, align 8, !tbaa !154
  %139 = icmp eq ptr %138, null
  br i1 %139, label %146, label %140

140:                                              ; preds = %136
  %141 = getelementptr inbounds nuw i8, ptr %7, i64 40
  %142 = load ptr, ptr %141, align 8, !tbaa !156
  %143 = ptrtoint ptr %142 to i64
  %144 = ptrtoint ptr %138 to i64
  %145 = sub i64 %143, %144
  call void @_ZdlPvm(ptr noundef nonnull %138, i64 noundef %145) #19
  br label %146

146:                                              ; preds = %140, %136
  %147 = load ptr, ptr %7, align 8, !tbaa !154
  %148 = icmp eq ptr %147, null
  br i1 %148, label %155, label %149

149:                                              ; preds = %146
  %150 = getelementptr inbounds nuw i8, ptr %7, i64 16
  %151 = load ptr, ptr %150, align 8, !tbaa !156
  %152 = ptrtoint ptr %151 to i64
  %153 = ptrtoint ptr %147 to i64
  %154 = sub i64 %152, %153
  call void @_ZdlPvm(ptr noundef nonnull %147, i64 noundef %154) #19
  br label %155

155:                                              ; preds = %149, %146
  call void @llvm.lifetime.end.p0(ptr nonnull %7) #17
  call void @llvm.lifetime.start.p0(ptr nonnull %8) #17
  store ptr %6, ptr %8, align 8
  call void @llvm.lifetime.start.p0(ptr nonnull %9) #17
  %156 = load ptr, ptr %6, align 8, !tbaa !160
  %157 = load ptr, ptr %116, align 8, !tbaa !160
  call void @llvm.memset.p0.i64(ptr noundef nonnull align 8 dereferenceable(24) %9, i8 0, i64 24, i1 false)
  invoke void @_ZNSt6vectorINSt6ranges8subrangeI22bidirectional_iteratorIN9__gnu_cxx17__normal_iteratorIPiS_IiSaIiEEEEES9_LNS0_13subrange_kindE0EEESaISB_EE19_M_range_initializeINS0_14transform_viewINS0_8ref_viewIS_IS7_SaIS7_EEEEZ14test_join_viewIS9_S9_EvvEUlRT_E_E9_IteratorILb0EEEEEvSL_SL_St18input_iterator_tag(ptr noundef nonnull align 8 dereferenceable(24) %9, ptr %156, ptr nonnull %8, ptr %157, ptr nonnull %8)
          to label %162 unwind label %158

158:                                              ; preds = %155
  %159 = landingpad { ptr, i32 }
          cleanup
  %160 = load ptr, ptr %9, align 8, !tbaa !146
  %161 = icmp eq ptr %160, null
  br i1 %161, label %388, label %380

162:                                              ; preds = %155
  call void @llvm.lifetime.start.p0(ptr nonnull %10) #17
  call void @llvm.lifetime.start.p0(ptr nonnull %11) #17
  store ptr %9, ptr %11, align 8
  %163 = getelementptr inbounds nuw i8, ptr %10, i64 40
  %164 = invoke ptr @_ZNKSt6ranges18__copy_backward_fnclITkNS_19bidirectional_rangeENS_9join_viewINS_8ref_viewISt6vectorINS_8subrangeI22bidirectional_iteratorIN9__gnu_cxx17__normal_iteratorIPiS4_IiSaIiEEEEESD_LNS_13subrange_kindE0EEESaISF_EEEEEETkSt22bidirectional_iteratorS9_Q19indirectly_copyableIDTclsr6ranges13__cust_accessE7__beginclsr3stdE7declvalIRT_EEEET0_EEENS_13in_out_resultINSt13__conditionalIX14borrowed_rangeISK_EEE4typeISM_NS_8danglingEEESN_EEOSK_SN_(ptr noundef nonnull align 1 dereferenceable(1) @_ZNSt6ranges13copy_backwardE, ptr noundef nonnull align 8 dereferenceable(8) %11, ptr noundef nonnull %163)
          to label %165 unwind label %246

165:                                              ; preds = %162
  call void @llvm.lifetime.end.p0(ptr nonnull %11) #17
  %166 = call i32 @bcmp(ptr noundef nonnull align 4 dereferenceable(40) %10, ptr noundef nonnull align 4 dereferenceable(40) @constinit.42, i64 40)
  %167 = icmp eq i32 %166, 0
  br i1 %167, label %250, label %168

168:                                              ; preds = %165
  call void @__assert_fail(ptr noundef nonnull @.str.22, ptr noundef nonnull @.str.1, i32 noundef 150, ptr noundef nonnull @__PRETTY_FUNCTION__._Z14test_join_viewI22bidirectional_iteratorIN9__gnu_cxx17__normal_iteratorIPiSt6vectorIiSaIiEEEEES8_Evv) #18
  unreachable

169:                                              ; preds = %40
  %170 = landingpad { ptr, i32 }
          cleanup
  call void @llvm.lifetime.end.p0(ptr nonnull %5) #17
  %171 = load ptr, ptr %4, align 8, !tbaa !146
  %172 = icmp eq ptr %171, null
  br i1 %172, label %181, label %173

173:                                              ; preds = %169, %36
  %174 = phi ptr [ %38, %36 ], [ %171, %169 ]
  %175 = phi { ptr, i32 } [ %37, %36 ], [ %170, %169 ]
  %176 = getelementptr inbounds nuw i8, ptr %4, i64 16
  %177 = load ptr, ptr %176, align 8, !tbaa !149
  %178 = ptrtoint ptr %177 to i64
  %179 = ptrtoint ptr %174 to i64
  %180 = sub i64 %178, %179
  call void @_ZdlPvm(ptr noundef nonnull %174, i64 noundef %180) #19
  br label %181

181:                                              ; preds = %173, %169, %36
  %182 = phi { ptr, i32 } [ %37, %36 ], [ %170, %169 ], [ %175, %173 ]
  call void @llvm.lifetime.end.p0(ptr nonnull %4) #17
  call void @llvm.lifetime.end.p0(ptr nonnull %3) #17
  call void @_ZNSt6vectorIS_IiSaIiEESaIS1_EED2Ev(ptr noundef nonnull align 8 dereferenceable(24) %2) #17
  call void @llvm.lifetime.end.p0(ptr nonnull %2) #17
  br label %919

183:                                              ; preds = %79
  %184 = landingpad { ptr, i32 }
          cleanup
  br label %244

185:                                              ; preds = %81
  %186 = landingpad { ptr, i32 }
          cleanup
  br label %228

187:                                              ; preds = %87
  %188 = landingpad { ptr, i32 }
          cleanup
  br label %228

189:                                              ; preds = %105, %109
  %190 = getelementptr inbounds nuw i8, ptr %7, i64 72
  %191 = load ptr, ptr %190, align 8, !tbaa !154
  %192 = icmp eq ptr %191, null
  br i1 %192, label %199, label %193

193:                                              ; preds = %189
  %194 = getelementptr inbounds nuw i8, ptr %7, i64 88
  %195 = load ptr, ptr %194, align 8, !tbaa !156
  %196 = ptrtoint ptr %195 to i64
  %197 = ptrtoint ptr %191 to i64
  %198 = sub i64 %196, %197
  call void @_ZdlPvm(ptr noundef nonnull %191, i64 noundef %198) #19
  br label %199

199:                                              ; preds = %189, %193
  %200 = getelementptr inbounds nuw i8, ptr %7, i64 48
  %201 = load ptr, ptr %200, align 8, !tbaa !154
  %202 = icmp eq ptr %201, null
  br i1 %202, label %209, label %203

203:                                              ; preds = %199
  %204 = getelementptr inbounds nuw i8, ptr %7, i64 64
  %205 = load ptr, ptr %204, align 8, !tbaa !156
  %206 = ptrtoint ptr %205 to i64
  %207 = ptrtoint ptr %201 to i64
  %208 = sub i64 %206, %207
  call void @_ZdlPvm(ptr noundef nonnull %201, i64 noundef %208) #19
  br label %209

209:                                              ; preds = %203, %199
  %210 = getelementptr inbounds nuw i8, ptr %7, i64 24
  %211 = load ptr, ptr %210, align 8, !tbaa !154
  %212 = icmp eq ptr %211, null
  br i1 %212, label %219, label %213

213:                                              ; preds = %209
  %214 = getelementptr inbounds nuw i8, ptr %7, i64 40
  %215 = load ptr, ptr %214, align 8, !tbaa !156
  %216 = ptrtoint ptr %215 to i64
  %217 = ptrtoint ptr %211 to i64
  %218 = sub i64 %216, %217
  call void @_ZdlPvm(ptr noundef nonnull %211, i64 noundef %218) #19
  br label %219

219:                                              ; preds = %213, %209
  %220 = load ptr, ptr %7, align 8, !tbaa !154
  %221 = icmp eq ptr %220, null
  br i1 %221, label %244, label %222

222:                                              ; preds = %219
  %223 = getelementptr inbounds nuw i8, ptr %7, i64 16
  %224 = load ptr, ptr %223, align 8, !tbaa !156
  %225 = ptrtoint ptr %224 to i64
  %226 = ptrtoint ptr %220 to i64
  %227 = sub i64 %225, %226
  call void @_ZdlPvm(ptr noundef nonnull %220, i64 noundef %227) #19
  br label %244

228:                                              ; preds = %185, %187
  %229 = phi ptr [ %85, %185 ], [ %91, %187 ]
  %230 = phi { ptr, i32 } [ %186, %185 ], [ %188, %187 ]
  br label %231

231:                                              ; preds = %228, %242
  %232 = phi ptr [ %233, %242 ], [ %229, %228 ]
  %233 = getelementptr inbounds i8, ptr %232, i64 -24
  %234 = load ptr, ptr %233, align 8, !tbaa !154
  %235 = icmp eq ptr %234, null
  br i1 %235, label %242, label %236

236:                                              ; preds = %231
  %237 = getelementptr inbounds i8, ptr %232, i64 -8
  %238 = load ptr, ptr %237, align 8, !tbaa !156
  %239 = ptrtoint ptr %238 to i64
  %240 = ptrtoint ptr %234 to i64
  %241 = sub i64 %239, %240
  call void @_ZdlPvm(ptr noundef nonnull %234, i64 noundef %241) #19
  br label %242

242:                                              ; preds = %231, %236
  %243 = icmp eq ptr %233, %7
  br i1 %243, label %244, label %231

244:                                              ; preds = %242, %219, %222, %183
  %245 = phi { ptr, i32 } [ %184, %183 ], [ %106, %222 ], [ %106, %219 ], [ %230, %242 ]
  call void @llvm.lifetime.end.p0(ptr nonnull %7) #17
  br label %390

246:                                              ; preds = %162
  %247 = landingpad { ptr, i32 }
          cleanup
  call void @llvm.lifetime.end.p0(ptr nonnull %11) #17
  call void @llvm.lifetime.end.p0(ptr nonnull %10) #17
  %248 = load ptr, ptr %9, align 8, !tbaa !146
  %249 = icmp eq ptr %248, null
  br i1 %249, label %388, label %380

250:                                              ; preds = %165
  call void @llvm.lifetime.end.p0(ptr nonnull %10) #17
  %251 = load ptr, ptr %9, align 8, !tbaa !146
  %252 = icmp eq ptr %251, null
  br i1 %252, label %259, label %253

253:                                              ; preds = %250
  %254 = getelementptr inbounds nuw i8, ptr %9, i64 16
  %255 = load ptr, ptr %254, align 8, !tbaa !149
  %256 = ptrtoint ptr %255 to i64
  %257 = ptrtoint ptr %251 to i64
  %258 = sub i64 %256, %257
  call void @_ZdlPvm(ptr noundef nonnull %251, i64 noundef %258) #19
  br label %259

259:                                              ; preds = %250, %253
  call void @llvm.lifetime.end.p0(ptr nonnull %9) #17
  call void @llvm.lifetime.end.p0(ptr nonnull %8) #17
  %260 = load ptr, ptr %6, align 8, !tbaa !150
  %261 = load ptr, ptr %116, align 8, !tbaa !153
  %262 = icmp eq ptr %260, %261
  br i1 %262, label %278, label %263

263:                                              ; preds = %259, %273
  %264 = phi ptr [ %274, %273 ], [ %260, %259 ]
  %265 = load ptr, ptr %264, align 8, !tbaa !154
  %266 = icmp eq ptr %265, null
  br i1 %266, label %273, label %267

267:                                              ; preds = %263
  %268 = getelementptr inbounds nuw i8, ptr %264, i64 16
  %269 = load ptr, ptr %268, align 8, !tbaa !156
  %270 = ptrtoint ptr %269 to i64
  %271 = ptrtoint ptr %265 to i64
  %272 = sub i64 %270, %271
  call void @_ZdlPvm(ptr noundef nonnull %265, i64 noundef %272) #19
  br label %273

273:                                              ; preds = %267, %263
  %274 = getelementptr inbounds nuw i8, ptr %264, i64 24
  %275 = icmp eq ptr %274, %261
  br i1 %275, label %276, label %263, !llvm.loop !157

276:                                              ; preds = %273
  %277 = load ptr, ptr %6, align 8, !tbaa !150
  br label %278

278:                                              ; preds = %276, %259
  %279 = phi ptr [ %277, %276 ], [ %260, %259 ]
  %280 = icmp eq ptr %279, null
  br i1 %280, label %286, label %281

281:                                              ; preds = %278
  %282 = load ptr, ptr %103, align 8, !tbaa !158
  %283 = ptrtoint ptr %282 to i64
  %284 = ptrtoint ptr %279 to i64
  %285 = sub i64 %283, %284
  call void @_ZdlPvm(ptr noundef nonnull %279, i64 noundef %285) #19
  br label %286

286:                                              ; preds = %278, %281
  call void @llvm.lifetime.end.p0(ptr nonnull %6) #17
  call void @llvm.lifetime.start.p0(ptr nonnull %12) #17
  call void @llvm.lifetime.start.p0(ptr nonnull %13) #17
  %287 = invoke noalias noundef nonnull dereferenceable(16) ptr @_Znwm(i64 noundef 16) #20
          to label %288 unwind label %392

288:                                              ; preds = %286
  store ptr %287, ptr %13, align 8, !tbaa !154
  %289 = getelementptr inbounds nuw i8, ptr %287, i64 16
  %290 = getelementptr inbounds nuw i8, ptr %13, i64 16
  store ptr %289, ptr %290, align 8, !tbaa !156
  %291 = getelementptr inbounds nuw i8, ptr %13, i64 8
  call void @llvm.memset.p0.i64(ptr noundef nonnull align 4 dereferenceable(16) %287, i8 0, i64 16, i1 false)
  store ptr %289, ptr %291, align 8, !tbaa !159
  %292 = getelementptr inbounds nuw i8, ptr %13, i64 24
  call void @llvm.memset.p0.i64(ptr noundef nonnull align 8 dereferenceable(24) %292, i8 0, i64 24, i1 false)
  %293 = invoke noalias noundef nonnull dereferenceable(8) ptr @_Znwm(i64 noundef 8) #20
          to label %294 unwind label %394

294:                                              ; preds = %288
  store ptr %293, ptr %292, align 8, !tbaa !154
  %295 = getelementptr inbounds nuw i8, ptr %293, i64 8
  %296 = getelementptr inbounds nuw i8, ptr %13, i64 40
  store ptr %295, ptr %296, align 8, !tbaa !156
  store i32 0, ptr %293, align 4
  %297 = getelementptr inbounds nuw i8, ptr %293, i64 4
  store i32 0, ptr %297, align 4
  %298 = getelementptr inbounds nuw i8, ptr %13, i64 32
  store ptr %295, ptr %298, align 8, !tbaa !159
  %299 = getelementptr inbounds nuw i8, ptr %13, i64 48
  call void @llvm.memset.p0.i64(ptr noundef nonnull align 8 dereferenceable(24) %299, i8 0, i64 24, i1 false)
  %300 = invoke noalias noundef nonnull dereferenceable(16) ptr @_Znwm(i64 noundef 16) #20
          to label %301 unwind label %396

301:                                              ; preds = %294
  store ptr %300, ptr %299, align 8, !tbaa !154
  %302 = getelementptr inbounds nuw i8, ptr %300, i64 16
  %303 = getelementptr inbounds nuw i8, ptr %13, i64 64
  store ptr %302, ptr %303, align 8, !tbaa !156
  %304 = getelementptr inbounds nuw i8, ptr %13, i64 56
  call void @llvm.memset.p0.i64(ptr noundef nonnull align 4 dereferenceable(16) %300, i8 0, i64 16, i1 false)
  store ptr %302, ptr %304, align 8, !tbaa !159
  %305 = getelementptr inbounds nuw i8, ptr %13, i64 72
  call void @llvm.memset.p0.i64(ptr noundef nonnull align 8 dereferenceable(24) %305, i8 0, i64 24, i1 false)
  call void @llvm.memset.p0.i64(ptr noundef nonnull align 8 dereferenceable(24) %12, i8 0, i64 24, i1 false)
  %306 = invoke noalias noundef nonnull dereferenceable(96) ptr @_Znwm(i64 noundef 96) #20
          to label %307 unwind label %312

307:                                              ; preds = %301
  %308 = getelementptr inbounds nuw i8, ptr %13, i64 96
  store ptr %306, ptr %12, align 8, !tbaa !150
  %309 = getelementptr inbounds nuw i8, ptr %306, i64 96
  %310 = getelementptr inbounds nuw i8, ptr %12, i64 16
  store ptr %309, ptr %310, align 8, !tbaa !158
  %311 = invoke noundef ptr @_ZSt16__do_uninit_copyIPKSt6vectorIiSaIiEEPS2_ET0_T_S7_S6_(ptr noundef nonnull %13, ptr noundef nonnull %308, ptr noundef nonnull %306)
          to label %322 unwind label %312

312:                                              ; preds = %307, %301
  %313 = landingpad { ptr, i32 }
          cleanup
  %314 = load ptr, ptr %12, align 8, !tbaa !150
  %315 = icmp eq ptr %314, null
  br i1 %315, label %398, label %316

316:                                              ; preds = %312
  %317 = getelementptr inbounds nuw i8, ptr %12, i64 16
  %318 = load ptr, ptr %317, align 8, !tbaa !158
  %319 = ptrtoint ptr %318 to i64
  %320 = ptrtoint ptr %314 to i64
  %321 = sub i64 %319, %320
  call void @_ZdlPvm(ptr noundef nonnull %314, i64 noundef %321) #19
  br label %398

322:                                              ; preds = %307
  %323 = getelementptr inbounds nuw i8, ptr %12, i64 8
  store ptr %311, ptr %323, align 8, !tbaa !153
  %324 = getelementptr inbounds nuw i8, ptr %13, i64 72
  %325 = load ptr, ptr %324, align 8, !tbaa !154
  %326 = icmp eq ptr %325, null
  br i1 %326, label %333, label %327

327:                                              ; preds = %322
  %328 = getelementptr inbounds nuw i8, ptr %13, i64 88
  %329 = load ptr, ptr %328, align 8, !tbaa !156
  %330 = ptrtoint ptr %329 to i64
  %331 = ptrtoint ptr %325 to i64
  %332 = sub i64 %330, %331
  call void @_ZdlPvm(ptr noundef nonnull %325, i64 noundef %332) #19
  br label %333

333:                                              ; preds = %322, %327
  %334 = getelementptr inbounds nuw i8, ptr %13, i64 48
  %335 = load ptr, ptr %334, align 8, !tbaa !154
  %336 = icmp eq ptr %335, null
  br i1 %336, label %343, label %337

337:                                              ; preds = %333
  %338 = getelementptr inbounds nuw i8, ptr %13, i64 64
  %339 = load ptr, ptr %338, align 8, !tbaa !156
  %340 = ptrtoint ptr %339 to i64
  %341 = ptrtoint ptr %335 to i64
  %342 = sub i64 %340, %341
  call void @_ZdlPvm(ptr noundef nonnull %335, i64 noundef %342) #19
  br label %343

343:                                              ; preds = %337, %333
  %344 = getelementptr inbounds nuw i8, ptr %13, i64 24
  %345 = load ptr, ptr %344, align 8, !tbaa !154
  %346 = icmp eq ptr %345, null
  br i1 %346, label %353, label %347

347:                                              ; preds = %343
  %348 = getelementptr inbounds nuw i8, ptr %13, i64 40
  %349 = load ptr, ptr %348, align 8, !tbaa !156
  %350 = ptrtoint ptr %349 to i64
  %351 = ptrtoint ptr %345 to i64
  %352 = sub i64 %350, %351
  call void @_ZdlPvm(ptr noundef nonnull %345, i64 noundef %352) #19
  br label %353

353:                                              ; preds = %347, %343
  %354 = load ptr, ptr %13, align 8, !tbaa !154
  %355 = icmp eq ptr %354, null
  br i1 %355, label %362, label %356

356:                                              ; preds = %353
  %357 = getelementptr inbounds nuw i8, ptr %13, i64 16
  %358 = load ptr, ptr %357, align 8, !tbaa !156
  %359 = ptrtoint ptr %358 to i64
  %360 = ptrtoint ptr %354 to i64
  %361 = sub i64 %359, %360
  call void @_ZdlPvm(ptr noundef nonnull %354, i64 noundef %361) #19
  br label %362

362:                                              ; preds = %356, %353
  call void @llvm.lifetime.end.p0(ptr nonnull %13) #17
  call void @llvm.lifetime.start.p0(ptr nonnull %14) #17
  store ptr %12, ptr %14, align 8
  call void @llvm.lifetime.start.p0(ptr nonnull %15) #17
  %363 = load ptr, ptr %12, align 8, !tbaa !160
  %364 = load ptr, ptr %323, align 8, !tbaa !160
  call void @llvm.memset.p0.i64(ptr noundef nonnull align 8 dereferenceable(24) %15, i8 0, i64 24, i1 false)
  invoke void @_ZNSt6vectorINSt6ranges8subrangeI22bidirectional_iteratorIN9__gnu_cxx17__normal_iteratorIPiS_IiSaIiEEEEES9_LNS0_13subrange_kindE0EEESaISB_EE19_M_range_initializeINS0_14transform_viewINS0_8ref_viewIS_IS7_SaIS7_EEEEZ14test_join_viewIS9_S9_EvvEUlRT_E_E9_IteratorILb0EEEEEvSL_SL_St18input_iterator_tag(ptr noundef nonnull align 8 dereferenceable(24) %15, ptr %363, ptr nonnull %14, ptr %364, ptr nonnull %14)
          to label %369 unwind label %365

365:                                              ; preds = %362
  %366 = landingpad { ptr, i32 }
          cleanup
  %367 = load ptr, ptr %15, align 8, !tbaa !146
  %368 = icmp eq ptr %367, null
  br i1 %368, label %682, label %674

369:                                              ; preds = %362
  call void @llvm.lifetime.start.p0(ptr nonnull %16) #17
  call void @llvm.memcpy.p0.p0.i64(ptr noundef nonnull align 4 dereferenceable(40) %16, ptr noundef nonnull align 4 dereferenceable(40) @__const._Z14test_join_viewIN9__gnu_cxx17__normal_iteratorIPiSt6vectorIiSaIiEEEES6_Evv.arr, i64 40, i1 false)
  call void @llvm.lifetime.start.p0(ptr nonnull %17) #17
  store ptr %15, ptr %17, align 8
  %370 = getelementptr inbounds nuw i8, ptr %15, i64 8
  %371 = load ptr, ptr %370, align 8, !tbaa !161, !noalias !162
  call void @llvm.lifetime.start.p0(ptr nonnull %18) #17
  call void @llvm.lifetime.start.p0(ptr nonnull %1)
  %372 = ptrtoint ptr %371 to i64
  store i64 %372, ptr %1, align 8, !tbaa !161, !noalias !165
  %373 = getelementptr inbounds nuw i8, ptr %1, i64 24
  store i8 0, ptr %373, align 8, !tbaa !168, !noalias !165
  %374 = getelementptr inbounds nuw i8, ptr %16, i64 40
  %375 = getelementptr inbounds nuw i8, ptr %1, i64 32
  store ptr %17, ptr %375, align 8, !tbaa !171, !noalias !165
  invoke void @_ZNKSt6ranges18__copy_backward_fnclITkSt22bidirectional_iteratorPiTkSt12sentinel_forIT_ES2_TkSt22bidirectional_iteratorNS_9join_viewINS_8ref_viewISt6vectorINS_8subrangeI22bidirectional_iteratorIN9__gnu_cxx17__normal_iteratorIS2_S7_IiSaIiEEEEESF_LNS_13subrange_kindE0EEESaISH_EEEEE9_IteratorILb1EEEQ19indirectly_copyableIS4_T1_EEENS_13in_out_resultIS4_SO_EES4_T0_SO_(ptr dead_on_unwind nonnull writable sret(%"struct.std::ranges::in_out_result.56") align 8 %18, ptr noundef nonnull align 1 dereferenceable(1) @_ZNSt6ranges13copy_backwardE, ptr noundef nonnull align 4 dereferenceable(40) %16, ptr noundef nonnull %374, ptr dead_on_return noundef nonnull %1)
          to label %376 unwind label %455

376:                                              ; preds = %369
  call void @llvm.lifetime.end.p0(ptr nonnull %1)
  call void @llvm.lifetime.end.p0(ptr nonnull %18) #17
  call void @llvm.lifetime.end.p0(ptr nonnull %17) #17
  call void @llvm.lifetime.start.p0(ptr nonnull %19) #17
  store ptr %15, ptr %19, align 8
  call void @llvm.lifetime.start.p0(ptr nonnull %20) #17
  call void @llvm.memcpy.p0.p0.i64(ptr noundef nonnull align 4 dereferenceable(40) %20, ptr noundef nonnull align 4 dereferenceable(40) @constinit.42, i64 40, i1 false), !tbaa.struct !178
  %377 = invoke noundef zeroext i1 @_ZNKSt6ranges10__equal_fnclITkNS_11input_rangeENS_9join_viewINS_8ref_viewISt6vectorINS_8subrangeI22bidirectional_iteratorIN9__gnu_cxx17__normal_iteratorIPiS4_IiSaIiEEEEESD_LNS_13subrange_kindE0EEESaISF_EEEEEETkNS_11input_rangeESt5arrayIiLm10EENS_8equal_toESt8identitySN_Q21indirectly_comparableIDTclsr6ranges13__cust_accessE7__beginclsr3stdE7declvalIRT_EEEEDTclsr6ranges13__cust_accessE7__beginclsr3stdE7declvalIRT0_EEEET1_T2_T3_EEEbOSO_OSR_SU_SV_SW_(ptr noundef nonnull align 1 dereferenceable(1) @_ZNSt6ranges5equalE, ptr noundef nonnull align 8 dereferenceable(8) %19, ptr noundef nonnull align 4 dereferenceable(40) %20)
          to label %378 unwind label %457

378:                                              ; preds = %376
  br i1 %377, label %459, label %379

379:                                              ; preds = %378
  call void @__assert_fail(ptr noundef nonnull @.str.24, ptr noundef nonnull @.str.1, i32 noundef 159, ptr noundef nonnull @__PRETTY_FUNCTION__._Z14test_join_viewI22bidirectional_iteratorIN9__gnu_cxx17__normal_iteratorIPiSt6vectorIiSaIiEEEEES8_Evv) #18
  unreachable

380:                                              ; preds = %246, %158
  %381 = phi ptr [ %160, %158 ], [ %248, %246 ]
  %382 = phi { ptr, i32 } [ %159, %158 ], [ %247, %246 ]
  %383 = getelementptr inbounds nuw i8, ptr %9, i64 16
  %384 = load ptr, ptr %383, align 8, !tbaa !149
  %385 = ptrtoint ptr %384 to i64
  %386 = ptrtoint ptr %381 to i64
  %387 = sub i64 %385, %386
  call void @_ZdlPvm(ptr noundef nonnull %381, i64 noundef %387) #19
  br label %388

388:                                              ; preds = %380, %246, %158
  %389 = phi { ptr, i32 } [ %159, %158 ], [ %247, %246 ], [ %382, %380 ]
  call void @llvm.lifetime.end.p0(ptr nonnull %9) #17
  call void @llvm.lifetime.end.p0(ptr nonnull %8) #17
  call void @_ZNSt6vectorIS_IiSaIiEESaIS1_EED2Ev(ptr noundef nonnull align 8 dereferenceable(24) %6) #17
  br label %390

390:                                              ; preds = %388, %244
  %391 = phi { ptr, i32 } [ %389, %388 ], [ %245, %244 ]
  call void @llvm.lifetime.end.p0(ptr nonnull %6) #17
  br label %919

392:                                              ; preds = %286
  %393 = landingpad { ptr, i32 }
          cleanup
  br label %453

394:                                              ; preds = %288
  %395 = landingpad { ptr, i32 }
          cleanup
  br label %437

396:                                              ; preds = %294
  %397 = landingpad { ptr, i32 }
          cleanup
  br label %437

398:                                              ; preds = %312, %316
  %399 = getelementptr inbounds nuw i8, ptr %13, i64 72
  %400 = load ptr, ptr %399, align 8, !tbaa !154
  %401 = icmp eq ptr %400, null
  br i1 %401, label %408, label %402

402:                                              ; preds = %398
  %403 = getelementptr inbounds nuw i8, ptr %13, i64 88
  %404 = load ptr, ptr %403, align 8, !tbaa !156
  %405 = ptrtoint ptr %404 to i64
  %406 = ptrtoint ptr %400 to i64
  %407 = sub i64 %405, %406
  call void @_ZdlPvm(ptr noundef nonnull %400, i64 noundef %407) #19
  br label %408

408:                                              ; preds = %398, %402
  %409 = getelementptr inbounds nuw i8, ptr %13, i64 48
  %410 = load ptr, ptr %409, align 8, !tbaa !154
  %411 = icmp eq ptr %410, null
  br i1 %411, label %418, label %412

412:                                              ; preds = %408
  %413 = getelementptr inbounds nuw i8, ptr %13, i64 64
  %414 = load ptr, ptr %413, align 8, !tbaa !156
  %415 = ptrtoint ptr %414 to i64
  %416 = ptrtoint ptr %410 to i64
  %417 = sub i64 %415, %416
  call void @_ZdlPvm(ptr noundef nonnull %410, i64 noundef %417) #19
  br label %418

418:                                              ; preds = %412, %408
  %419 = getelementptr inbounds nuw i8, ptr %13, i64 24
  %420 = load ptr, ptr %419, align 8, !tbaa !154
  %421 = icmp eq ptr %420, null
  br i1 %421, label %428, label %422

422:                                              ; preds = %418
  %423 = getelementptr inbounds nuw i8, ptr %13, i64 40
  %424 = load ptr, ptr %423, align 8, !tbaa !156
  %425 = ptrtoint ptr %424 to i64
  %426 = ptrtoint ptr %420 to i64
  %427 = sub i64 %425, %426
  call void @_ZdlPvm(ptr noundef nonnull %420, i64 noundef %427) #19
  br label %428

428:                                              ; preds = %422, %418
  %429 = load ptr, ptr %13, align 8, !tbaa !154
  %430 = icmp eq ptr %429, null
  br i1 %430, label %453, label %431

431:                                              ; preds = %428
  %432 = getelementptr inbounds nuw i8, ptr %13, i64 16
  %433 = load ptr, ptr %432, align 8, !tbaa !156
  %434 = ptrtoint ptr %433 to i64
  %435 = ptrtoint ptr %429 to i64
  %436 = sub i64 %434, %435
  call void @_ZdlPvm(ptr noundef nonnull %429, i64 noundef %436) #19
  br label %453

437:                                              ; preds = %394, %396
  %438 = phi ptr [ %292, %394 ], [ %299, %396 ]
  %439 = phi { ptr, i32 } [ %395, %394 ], [ %397, %396 ]
  br label %440

440:                                              ; preds = %437, %451
  %441 = phi ptr [ %442, %451 ], [ %438, %437 ]
  %442 = getelementptr inbounds i8, ptr %441, i64 -24
  %443 = load ptr, ptr %442, align 8, !tbaa !154
  %444 = icmp eq ptr %443, null
  br i1 %444, label %451, label %445

445:                                              ; preds = %440
  %446 = getelementptr inbounds i8, ptr %441, i64 -8
  %447 = load ptr, ptr %446, align 8, !tbaa !156
  %448 = ptrtoint ptr %447 to i64
  %449 = ptrtoint ptr %443 to i64
  %450 = sub i64 %448, %449
  call void @_ZdlPvm(ptr noundef nonnull %443, i64 noundef %450) #19
  br label %451

451:                                              ; preds = %440, %445
  %452 = icmp eq ptr %442, %13
  br i1 %452, label %453, label %440

453:                                              ; preds = %451, %428, %431, %392
  %454 = phi { ptr, i32 } [ %393, %392 ], [ %313, %431 ], [ %313, %428 ], [ %439, %451 ]
  call void @llvm.lifetime.end.p0(ptr nonnull %13) #17
  br label %684

455:                                              ; preds = %369
  %456 = landingpad { ptr, i32 }
          cleanup
  call void @llvm.lifetime.end.p0(ptr nonnull %18) #17
  call void @llvm.lifetime.end.p0(ptr nonnull %17) #17
  br label %670

457:                                              ; preds = %376
  %458 = landingpad { ptr, i32 }
          cleanup
  call void @llvm.lifetime.end.p0(ptr nonnull %20) #17
  call void @llvm.lifetime.end.p0(ptr nonnull %19) #17
  br label %670

459:                                              ; preds = %378
  call void @llvm.lifetime.end.p0(ptr nonnull %20) #17
  call void @llvm.lifetime.end.p0(ptr nonnull %19) #17
  call void @llvm.lifetime.end.p0(ptr nonnull %16) #17
  %460 = load ptr, ptr %15, align 8, !tbaa !146
  %461 = icmp eq ptr %460, null
  br i1 %461, label %468, label %462

462:                                              ; preds = %459
  %463 = getelementptr inbounds nuw i8, ptr %15, i64 16
  %464 = load ptr, ptr %463, align 8, !tbaa !149
  %465 = ptrtoint ptr %464 to i64
  %466 = ptrtoint ptr %460 to i64
  %467 = sub i64 %465, %466
  call void @_ZdlPvm(ptr noundef nonnull %460, i64 noundef %467) #19
  br label %468

468:                                              ; preds = %459, %462
  call void @llvm.lifetime.end.p0(ptr nonnull %15) #17
  call void @llvm.lifetime.end.p0(ptr nonnull %14) #17
  %469 = load ptr, ptr %12, align 8, !tbaa !150
  %470 = load ptr, ptr %323, align 8, !tbaa !153
  %471 = icmp eq ptr %469, %470
  br i1 %471, label %487, label %472

472:                                              ; preds = %468, %482
  %473 = phi ptr [ %483, %482 ], [ %469, %468 ]
  %474 = load ptr, ptr %473, align 8, !tbaa !154
  %475 = icmp eq ptr %474, null
  br i1 %475, label %482, label %476

476:                                              ; preds = %472
  %477 = getelementptr inbounds nuw i8, ptr %473, i64 16
  %478 = load ptr, ptr %477, align 8, !tbaa !156
  %479 = ptrtoint ptr %478 to i64
  %480 = ptrtoint ptr %474 to i64
  %481 = sub i64 %479, %480
  call void @_ZdlPvm(ptr noundef nonnull %474, i64 noundef %481) #19
  br label %482

482:                                              ; preds = %476, %472
  %483 = getelementptr inbounds nuw i8, ptr %473, i64 24
  %484 = icmp eq ptr %483, %470
  br i1 %484, label %485, label %472, !llvm.loop !157

485:                                              ; preds = %482
  %486 = load ptr, ptr %12, align 8, !tbaa !150
  br label %487

487:                                              ; preds = %485, %468
  %488 = phi ptr [ %486, %485 ], [ %469, %468 ]
  %489 = icmp eq ptr %488, null
  br i1 %489, label %495, label %490

490:                                              ; preds = %487
  %491 = load ptr, ptr %310, align 8, !tbaa !158
  %492 = ptrtoint ptr %491 to i64
  %493 = ptrtoint ptr %488 to i64
  %494 = sub i64 %492, %493
  call void @_ZdlPvm(ptr noundef nonnull %488, i64 noundef %494) #19
  br label %495

495:                                              ; preds = %487, %490
  call void @llvm.lifetime.end.p0(ptr nonnull %12) #17
  call void @llvm.lifetime.start.p0(ptr nonnull %21) #17
  call void @llvm.lifetime.start.p0(ptr nonnull %22) #17
  %496 = invoke noalias noundef nonnull dereferenceable(16) ptr @_Znwm(i64 noundef 16) #20
          to label %497 unwind label %686

497:                                              ; preds = %495
  store ptr %496, ptr %22, align 8, !tbaa !154
  %498 = getelementptr inbounds nuw i8, ptr %496, i64 16
  %499 = getelementptr inbounds nuw i8, ptr %22, i64 16
  store ptr %498, ptr %499, align 8, !tbaa !156
  store <4 x i32> <i32 1, i32 2, i32 3, i32 4>, ptr %496, align 4
  %500 = getelementptr inbounds nuw i8, ptr %22, i64 8
  store ptr %498, ptr %500, align 8, !tbaa !159
  %501 = getelementptr inbounds nuw i8, ptr %22, i64 24
  call void @llvm.memset.p0.i64(ptr noundef nonnull align 8 dereferenceable(24) %501, i8 0, i64 24, i1 false)
  %502 = invoke noalias noundef nonnull dereferenceable(16) ptr @_Znwm(i64 noundef 16) #20
          to label %503 unwind label %688

503:                                              ; preds = %497
  store ptr %502, ptr %501, align 8, !tbaa !154
  %504 = getelementptr inbounds nuw i8, ptr %502, i64 16
  %505 = getelementptr inbounds nuw i8, ptr %22, i64 40
  store ptr %504, ptr %505, align 8, !tbaa !156
  store <4 x i32> <i32 5, i32 6, i32 7, i32 8>, ptr %502, align 4
  %506 = getelementptr inbounds nuw i8, ptr %22, i64 32
  store ptr %504, ptr %506, align 8, !tbaa !159
  %507 = getelementptr inbounds nuw i8, ptr %22, i64 48
  call void @llvm.memset.p0.i64(ptr noundef nonnull align 8 dereferenceable(24) %507, i8 0, i64 24, i1 false)
  %508 = invoke noalias noundef nonnull dereferenceable(8) ptr @_Znwm(i64 noundef 8) #20
          to label %509 unwind label %690

509:                                              ; preds = %503
  store ptr %508, ptr %507, align 8, !tbaa !154
  %510 = getelementptr inbounds nuw i8, ptr %508, i64 8
  %511 = getelementptr inbounds nuw i8, ptr %22, i64 64
  store ptr %510, ptr %511, align 8, !tbaa !156
  store i32 9, ptr %508, align 4
  %512 = getelementptr inbounds nuw i8, ptr %508, i64 4
  store i32 10, ptr %512, align 4
  %513 = getelementptr inbounds nuw i8, ptr %22, i64 56
  store ptr %510, ptr %513, align 8, !tbaa !159
  %514 = getelementptr inbounds nuw i8, ptr %22, i64 72
  call void @llvm.memset.p0.i64(ptr noundef nonnull align 8 dereferenceable(24) %514, i8 0, i64 24, i1 false)
  call void @llvm.memset.p0.i64(ptr noundef nonnull align 8 dereferenceable(24) %21, i8 0, i64 24, i1 false)
  %515 = invoke noalias noundef nonnull dereferenceable(96) ptr @_Znwm(i64 noundef 96) #20
          to label %516 unwind label %521

516:                                              ; preds = %509
  %517 = getelementptr inbounds nuw i8, ptr %22, i64 96
  store ptr %515, ptr %21, align 8, !tbaa !150
  %518 = getelementptr inbounds nuw i8, ptr %515, i64 96
  %519 = getelementptr inbounds nuw i8, ptr %21, i64 16
  store ptr %518, ptr %519, align 8, !tbaa !158
  %520 = invoke noundef ptr @_ZSt16__do_uninit_copyIPKSt6vectorIiSaIiEEPS2_ET0_T_S7_S6_(ptr noundef nonnull %22, ptr noundef nonnull %517, ptr noundef nonnull %515)
          to label %531 unwind label %521

521:                                              ; preds = %516, %509
  %522 = landingpad { ptr, i32 }
          cleanup
  %523 = load ptr, ptr %21, align 8, !tbaa !150
  %524 = icmp eq ptr %523, null
  br i1 %524, label %692, label %525

525:                                              ; preds = %521
  %526 = getelementptr inbounds nuw i8, ptr %21, i64 16
  %527 = load ptr, ptr %526, align 8, !tbaa !158
  %528 = ptrtoint ptr %527 to i64
  %529 = ptrtoint ptr %523 to i64
  %530 = sub i64 %528, %529
  call void @_ZdlPvm(ptr noundef nonnull %523, i64 noundef %530) #19
  br label %692

531:                                              ; preds = %516
  %532 = getelementptr inbounds nuw i8, ptr %21, i64 8
  store ptr %520, ptr %532, align 8, !tbaa !153
  %533 = getelementptr inbounds nuw i8, ptr %22, i64 72
  %534 = load ptr, ptr %533, align 8, !tbaa !154
  %535 = icmp eq ptr %534, null
  br i1 %535, label %542, label %536

536:                                              ; preds = %531
  %537 = getelementptr inbounds nuw i8, ptr %22, i64 88
  %538 = load ptr, ptr %537, align 8, !tbaa !156
  %539 = ptrtoint ptr %538 to i64
  %540 = ptrtoint ptr %534 to i64
  %541 = sub i64 %539, %540
  call void @_ZdlPvm(ptr noundef nonnull %534, i64 noundef %541) #19
  br label %542

542:                                              ; preds = %531, %536
  %543 = getelementptr inbounds nuw i8, ptr %22, i64 48
  %544 = load ptr, ptr %543, align 8, !tbaa !154
  %545 = icmp eq ptr %544, null
  br i1 %545, label %552, label %546

546:                                              ; preds = %542
  %547 = getelementptr inbounds nuw i8, ptr %22, i64 64
  %548 = load ptr, ptr %547, align 8, !tbaa !156
  %549 = ptrtoint ptr %548 to i64
  %550 = ptrtoint ptr %544 to i64
  %551 = sub i64 %549, %550
  call void @_ZdlPvm(ptr noundef nonnull %544, i64 noundef %551) #19
  br label %552

552:                                              ; preds = %546, %542
  %553 = getelementptr inbounds nuw i8, ptr %22, i64 24
  %554 = load ptr, ptr %553, align 8, !tbaa !154
  %555 = icmp eq ptr %554, null
  br i1 %555, label %562, label %556

556:                                              ; preds = %552
  %557 = getelementptr inbounds nuw i8, ptr %22, i64 40
  %558 = load ptr, ptr %557, align 8, !tbaa !156
  %559 = ptrtoint ptr %558 to i64
  %560 = ptrtoint ptr %554 to i64
  %561 = sub i64 %559, %560
  call void @_ZdlPvm(ptr noundef nonnull %554, i64 noundef %561) #19
  br label %562

562:                                              ; preds = %556, %552
  %563 = load ptr, ptr %22, align 8, !tbaa !154
  %564 = icmp eq ptr %563, null
  br i1 %564, label %571, label %565

565:                                              ; preds = %562
  %566 = getelementptr inbounds nuw i8, ptr %22, i64 16
  %567 = load ptr, ptr %566, align 8, !tbaa !156
  %568 = ptrtoint ptr %567 to i64
  %569 = ptrtoint ptr %563 to i64
  %570 = sub i64 %568, %569
  call void @_ZdlPvm(ptr noundef nonnull %563, i64 noundef %570) #19
  br label %571

571:                                              ; preds = %565, %562
  call void @llvm.lifetime.end.p0(ptr nonnull %22) #17
  call void @llvm.lifetime.start.p0(ptr nonnull %23) #17
  store ptr %21, ptr %23, align 8
  call void @llvm.lifetime.start.p0(ptr nonnull %24) #17
  %572 = load ptr, ptr %21, align 8, !tbaa !160
  %573 = load ptr, ptr %532, align 8, !tbaa !160
  call void @llvm.memset.p0.i64(ptr noundef nonnull align 8 dereferenceable(24) %24, i8 0, i64 24, i1 false)
  invoke void @_ZNSt6vectorINSt6ranges8subrangeI22bidirectional_iteratorIN9__gnu_cxx17__normal_iteratorIPiS_IiSaIiEEEEES9_LNS0_13subrange_kindE0EEESaISB_EE19_M_range_initializeINS0_14transform_viewINS0_8ref_viewIS_IS7_SaIS7_EEEEZ14test_join_viewIS9_S9_EvvEUlRT_E_E9_IteratorILb0EEEEEvSL_SL_St18input_iterator_tag(ptr noundef nonnull align 8 dereferenceable(24) %24, ptr %572, ptr nonnull %23, ptr %573, ptr nonnull %23)
          to label %578 unwind label %574

574:                                              ; preds = %571
  %575 = landingpad { ptr, i32 }
          cleanup
  %576 = load ptr, ptr %24, align 8, !tbaa !146
  %577 = icmp eq ptr %576, null
  br i1 %577, label %915, label %907

578:                                              ; preds = %571
  call void @llvm.lifetime.start.p0(ptr nonnull %25) #17
  call void @llvm.lifetime.start.p0(ptr nonnull %26) #17
  %579 = invoke noalias noundef nonnull dereferenceable(16) ptr @_Znwm(i64 noundef 16) #20
          to label %580 unwind label %749

580:                                              ; preds = %578
  store ptr %579, ptr %26, align 8, !tbaa !154
  %581 = getelementptr inbounds nuw i8, ptr %579, i64 16
  %582 = getelementptr inbounds nuw i8, ptr %26, i64 16
  store ptr %581, ptr %582, align 8, !tbaa !156
  %583 = getelementptr inbounds nuw i8, ptr %26, i64 8
  call void @llvm.memset.p0.i64(ptr noundef nonnull align 4 dereferenceable(16) %579, i8 0, i64 16, i1 false)
  store ptr %581, ptr %583, align 8, !tbaa !159
  %584 = getelementptr inbounds nuw i8, ptr %26, i64 24
  call void @llvm.memset.p0.i64(ptr noundef nonnull align 8 dereferenceable(24) %584, i8 0, i64 24, i1 false)
  %585 = invoke noalias noundef nonnull dereferenceable(16) ptr @_Znwm(i64 noundef 16) #20
          to label %586 unwind label %751

586:                                              ; preds = %580
  store ptr %585, ptr %584, align 8, !tbaa !154
  %587 = getelementptr inbounds nuw i8, ptr %585, i64 16
  %588 = getelementptr inbounds nuw i8, ptr %26, i64 40
  store ptr %587, ptr %588, align 8, !tbaa !156
  %589 = getelementptr inbounds nuw i8, ptr %26, i64 32
  call void @llvm.memset.p0.i64(ptr noundef nonnull align 4 dereferenceable(16) %585, i8 0, i64 16, i1 false)
  store ptr %587, ptr %589, align 8, !tbaa !159
  %590 = getelementptr inbounds nuw i8, ptr %26, i64 48
  %591 = getelementptr inbounds nuw i8, ptr %26, i64 72
  call void @llvm.memset.p0.i64(ptr noundef nonnull align 8 dereferenceable(48) %590, i8 0, i64 48, i1 false)
  %592 = invoke noalias noundef nonnull dereferenceable(8) ptr @_Znwm(i64 noundef 8) #20
          to label %593 unwind label %753

593:                                              ; preds = %586
  store ptr %592, ptr %591, align 8, !tbaa !154
  %594 = getelementptr inbounds nuw i8, ptr %592, i64 8
  %595 = getelementptr inbounds nuw i8, ptr %26, i64 88
  store ptr %594, ptr %595, align 8, !tbaa !156
  store i32 0, ptr %592, align 4
  %596 = getelementptr inbounds nuw i8, ptr %592, i64 4
  store i32 0, ptr %596, align 4
  %597 = getelementptr inbounds nuw i8, ptr %26, i64 80
  store ptr %594, ptr %597, align 8, !tbaa !159
  call void @llvm.memset.p0.i64(ptr noundef nonnull align 8 dereferenceable(24) %25, i8 0, i64 24, i1 false)
  %598 = invoke noalias noundef nonnull dereferenceable(96) ptr @_Znwm(i64 noundef 96) #20
          to label %599 unwind label %604

599:                                              ; preds = %593
  %600 = getelementptr inbounds nuw i8, ptr %26, i64 96
  store ptr %598, ptr %25, align 8, !tbaa !150
  %601 = getelementptr inbounds nuw i8, ptr %598, i64 96
  %602 = getelementptr inbounds nuw i8, ptr %25, i64 16
  store ptr %601, ptr %602, align 8, !tbaa !158
  %603 = invoke noundef ptr @_ZSt16__do_uninit_copyIPKSt6vectorIiSaIiEEPS2_ET0_T_S7_S6_(ptr noundef nonnull %26, ptr noundef nonnull %600, ptr noundef nonnull %598)
          to label %614 unwind label %604

604:                                              ; preds = %599, %593
  %605 = landingpad { ptr, i32 }
          cleanup
  %606 = load ptr, ptr %25, align 8, !tbaa !150
  %607 = icmp eq ptr %606, null
  br i1 %607, label %755, label %608

608:                                              ; preds = %604
  %609 = getelementptr inbounds nuw i8, ptr %25, i64 16
  %610 = load ptr, ptr %609, align 8, !tbaa !158
  %611 = ptrtoint ptr %610 to i64
  %612 = ptrtoint ptr %606 to i64
  %613 = sub i64 %611, %612
  call void @_ZdlPvm(ptr noundef nonnull %606, i64 noundef %613) #19
  br label %755

614:                                              ; preds = %599
  %615 = getelementptr inbounds nuw i8, ptr %25, i64 8
  store ptr %603, ptr %615, align 8, !tbaa !153
  %616 = getelementptr inbounds nuw i8, ptr %26, i64 72
  %617 = load ptr, ptr %616, align 8, !tbaa !154
  %618 = icmp eq ptr %617, null
  br i1 %618, label %625, label %619

619:                                              ; preds = %614
  %620 = getelementptr inbounds nuw i8, ptr %26, i64 88
  %621 = load ptr, ptr %620, align 8, !tbaa !156
  %622 = ptrtoint ptr %621 to i64
  %623 = ptrtoint ptr %617 to i64
  %624 = sub i64 %622, %623
  call void @_ZdlPvm(ptr noundef nonnull %617, i64 noundef %624) #19
  br label %625

625:                                              ; preds = %614, %619
  %626 = getelementptr inbounds nuw i8, ptr %26, i64 48
  %627 = load ptr, ptr %626, align 8, !tbaa !154
  %628 = icmp eq ptr %627, null
  br i1 %628, label %635, label %629

629:                                              ; preds = %625
  %630 = getelementptr inbounds nuw i8, ptr %26, i64 64
  %631 = load ptr, ptr %630, align 8, !tbaa !156
  %632 = ptrtoint ptr %631 to i64
  %633 = ptrtoint ptr %627 to i64
  %634 = sub i64 %632, %633
  call void @_ZdlPvm(ptr noundef nonnull %627, i64 noundef %634) #19
  br label %635

635:                                              ; preds = %629, %625
  %636 = getelementptr inbounds nuw i8, ptr %26, i64 24
  %637 = load ptr, ptr %636, align 8, !tbaa !154
  %638 = icmp eq ptr %637, null
  br i1 %638, label %645, label %639

639:                                              ; preds = %635
  %640 = getelementptr inbounds nuw i8, ptr %26, i64 40
  %641 = load ptr, ptr %640, align 8, !tbaa !156
  %642 = ptrtoint ptr %641 to i64
  %643 = ptrtoint ptr %637 to i64
  %644 = sub i64 %642, %643
  call void @_ZdlPvm(ptr noundef nonnull %637, i64 noundef %644) #19
  br label %645

645:                                              ; preds = %639, %635
  %646 = load ptr, ptr %26, align 8, !tbaa !154
  %647 = icmp eq ptr %646, null
  br i1 %647, label %654, label %648

648:                                              ; preds = %645
  %649 = getelementptr inbounds nuw i8, ptr %26, i64 16
  %650 = load ptr, ptr %649, align 8, !tbaa !156
  %651 = ptrtoint ptr %650 to i64
  %652 = ptrtoint ptr %646 to i64
  %653 = sub i64 %651, %652
  call void @_ZdlPvm(ptr noundef nonnull %646, i64 noundef %653) #19
  br label %654

654:                                              ; preds = %648, %645
  call void @llvm.lifetime.end.p0(ptr nonnull %26) #17
  call void @llvm.lifetime.start.p0(ptr nonnull %27) #17
  store ptr %25, ptr %27, align 8
  call void @llvm.lifetime.start.p0(ptr nonnull %28) #17
  %655 = load ptr, ptr %25, align 8, !tbaa !160
  %656 = load ptr, ptr %615, align 8, !tbaa !160
  call void @llvm.memset.p0.i64(ptr noundef nonnull align 8 dereferenceable(24) %28, i8 0, i64 24, i1 false)
  invoke void @_ZNSt6vectorINSt6ranges8subrangeI22bidirectional_iteratorIN9__gnu_cxx17__normal_iteratorIPiS_IiSaIiEEEEES9_LNS0_13subrange_kindE0EEESaISB_EE19_M_range_initializeINS0_14transform_viewINS0_8ref_viewIS_IS7_SaIS7_EEEEZ14test_join_viewIS9_S9_EvvEUlRT_E_E9_IteratorILb0EEEEEvSL_SL_St18input_iterator_tag(ptr noundef nonnull align 8 dereferenceable(24) %28, ptr %655, ptr nonnull %27, ptr %656, ptr nonnull %27)
          to label %661 unwind label %657

657:                                              ; preds = %654
  %658 = landingpad { ptr, i32 }
          cleanup
  %659 = load ptr, ptr %28, align 8, !tbaa !146
  %660 = icmp eq ptr %659, null
  br i1 %660, label %901, label %893

661:                                              ; preds = %654
  call void @llvm.lifetime.start.p0(ptr nonnull %29) #17
  store ptr %24, ptr %29, align 8
  call void @llvm.lifetime.start.p0(ptr nonnull %31) #17
  store ptr %28, ptr %31, align 8
  call void @llvm.experimental.noalias.scope.decl(metadata !180)
  %662 = getelementptr inbounds nuw i8, ptr %28, i64 8
  %663 = load ptr, ptr %662, align 8, !tbaa !161, !noalias !180
  store ptr %663, ptr %30, align 8, !tbaa !161, !alias.scope !180
  %664 = getelementptr inbounds nuw i8, ptr %30, i64 24
  %665 = getelementptr inbounds nuw i8, ptr %30, i64 32
  store ptr %31, ptr %665, align 8, !tbaa !171, !alias.scope !180
  store i8 0, ptr %664, align 8, !tbaa !168, !alias.scope !180
  call void @llvm.lifetime.start.p0(ptr nonnull %32) #17
  invoke void @_ZNKSt6ranges18__copy_backward_fnclITkNS_19bidirectional_rangeENS_9join_viewINS_8ref_viewISt6vectorINS_8subrangeI22bidirectional_iteratorIN9__gnu_cxx17__normal_iteratorIPiS4_IiSaIiEEEEESD_LNS_13subrange_kindE0EEESaISF_EEEEEETkSt22bidirectional_iteratorNSJ_9_IteratorILb1EEEQ19indirectly_copyableIDTclsr6ranges13__cust_accessE7__beginclsr3stdE7declvalIRT_EEEET0_EEENS_13in_out_resultINSt13__conditionalIX14borrowed_rangeISM_EEE4typeISO_NS_8danglingEEESP_EEOSM_SP_(ptr dead_on_unwind nonnull writable sret(%"struct.std::ranges::in_out_result.58") align 8 %32, ptr noundef nonnull align 1 dereferenceable(1) @_ZNSt6ranges13copy_backwardE, ptr noundef nonnull align 8 dereferenceable(8) %29, ptr dead_on_return noundef nonnull %30)
          to label %666 unwind label %812

666:                                              ; preds = %661
  call void @llvm.lifetime.end.p0(ptr nonnull %32) #17
  call void @llvm.lifetime.end.p0(ptr nonnull %31) #17
  call void @llvm.lifetime.end.p0(ptr nonnull %29) #17
  call void @llvm.lifetime.start.p0(ptr nonnull %33) #17
  store ptr %28, ptr %33, align 8
  call void @llvm.lifetime.start.p0(ptr nonnull %34) #17
  call void @llvm.memcpy.p0.p0.i64(ptr noundef nonnull align 4 dereferenceable(40) %34, ptr noundef nonnull align 4 dereferenceable(40) @constinit.42, i64 40, i1 false), !tbaa.struct !178
  %667 = invoke noundef zeroext i1 @_ZNKSt6ranges10__equal_fnclITkNS_11input_rangeENS_9join_viewINS_8ref_viewISt6vectorINS_8subrangeI22bidirectional_iteratorIN9__gnu_cxx17__normal_iteratorIPiS4_IiSaIiEEEEESD_LNS_13subrange_kindE0EEESaISF_EEEEEETkNS_11input_rangeESt5arrayIiLm10EENS_8equal_toESt8identitySN_Q21indirectly_comparableIDTclsr6ranges13__cust_accessE7__beginclsr3stdE7declvalIRT_EEEEDTclsr6ranges13__cust_accessE7__beginclsr3stdE7declvalIRT0_EEEET1_T2_T3_EEEbOSO_OSR_SU_SV_SW_(ptr noundef nonnull align 1 dereferenceable(1) @_ZNSt6ranges5equalE, ptr noundef nonnull align 8 dereferenceable(8) %33, ptr noundef nonnull align 4 dereferenceable(40) %34)
          to label %668 unwind label %814

668:                                              ; preds = %666
  br i1 %667, label %816, label %669

669:                                              ; preds = %668
  call void @__assert_fail(ptr noundef nonnull @.str.26, ptr noundef nonnull @.str.1, i32 noundef 170, ptr noundef nonnull @__PRETTY_FUNCTION__._Z14test_join_viewI22bidirectional_iteratorIN9__gnu_cxx17__normal_iteratorIPiSt6vectorIiSaIiEEEEES8_Evv) #18
  unreachable

670:                                              ; preds = %457, %455
  %671 = phi { ptr, i32 } [ %458, %457 ], [ %456, %455 ]
  call void @llvm.lifetime.end.p0(ptr nonnull %16) #17
  %672 = load ptr, ptr %15, align 8, !tbaa !146
  %673 = icmp eq ptr %672, null
  br i1 %673, label %682, label %674

674:                                              ; preds = %670, %365
  %675 = phi ptr [ %367, %365 ], [ %672, %670 ]
  %676 = phi { ptr, i32 } [ %366, %365 ], [ %671, %670 ]
  %677 = getelementptr inbounds nuw i8, ptr %15, i64 16
  %678 = load ptr, ptr %677, align 8, !tbaa !149
  %679 = ptrtoint ptr %678 to i64
  %680 = ptrtoint ptr %675 to i64
  %681 = sub i64 %679, %680
  call void @_ZdlPvm(ptr noundef nonnull %675, i64 noundef %681) #19
  br label %682

682:                                              ; preds = %674, %670, %365
  %683 = phi { ptr, i32 } [ %366, %365 ], [ %671, %670 ], [ %676, %674 ]
  call void @llvm.lifetime.end.p0(ptr nonnull %15) #17
  call void @llvm.lifetime.end.p0(ptr nonnull %14) #17
  call void @_ZNSt6vectorIS_IiSaIiEESaIS1_EED2Ev(ptr noundef nonnull align 8 dereferenceable(24) %12) #17
  br label %684

684:                                              ; preds = %682, %453
  %685 = phi { ptr, i32 } [ %683, %682 ], [ %454, %453 ]
  call void @llvm.lifetime.end.p0(ptr nonnull %12) #17
  br label %919

686:                                              ; preds = %495
  %687 = landingpad { ptr, i32 }
          cleanup
  br label %747

688:                                              ; preds = %497
  %689 = landingpad { ptr, i32 }
          cleanup
  br label %731

690:                                              ; preds = %503
  %691 = landingpad { ptr, i32 }
          cleanup
  br label %731

692:                                              ; preds = %521, %525
  %693 = getelementptr inbounds nuw i8, ptr %22, i64 72
  %694 = load ptr, ptr %693, align 8, !tbaa !154
  %695 = icmp eq ptr %694, null
  br i1 %695, label %702, label %696

696:                                              ; preds = %692
  %697 = getelementptr inbounds nuw i8, ptr %22, i64 88
  %698 = load ptr, ptr %697, align 8, !tbaa !156
  %699 = ptrtoint ptr %698 to i64
  %700 = ptrtoint ptr %694 to i64
  %701 = sub i64 %699, %700
  call void @_ZdlPvm(ptr noundef nonnull %694, i64 noundef %701) #19
  br label %702

702:                                              ; preds = %692, %696
  %703 = getelementptr inbounds nuw i8, ptr %22, i64 48
  %704 = load ptr, ptr %703, align 8, !tbaa !154
  %705 = icmp eq ptr %704, null
  br i1 %705, label %712, label %706

706:                                              ; preds = %702
  %707 = getelementptr inbounds nuw i8, ptr %22, i64 64
  %708 = load ptr, ptr %707, align 8, !tbaa !156
  %709 = ptrtoint ptr %708 to i64
  %710 = ptrtoint ptr %704 to i64
  %711 = sub i64 %709, %710
  call void @_ZdlPvm(ptr noundef nonnull %704, i64 noundef %711) #19
  br label %712

712:                                              ; preds = %706, %702
  %713 = getelementptr inbounds nuw i8, ptr %22, i64 24
  %714 = load ptr, ptr %713, align 8, !tbaa !154
  %715 = icmp eq ptr %714, null
  br i1 %715, label %722, label %716

716:                                              ; preds = %712
  %717 = getelementptr inbounds nuw i8, ptr %22, i64 40
  %718 = load ptr, ptr %717, align 8, !tbaa !156
  %719 = ptrtoint ptr %718 to i64
  %720 = ptrtoint ptr %714 to i64
  %721 = sub i64 %719, %720
  call void @_ZdlPvm(ptr noundef nonnull %714, i64 noundef %721) #19
  br label %722

722:                                              ; preds = %716, %712
  %723 = load ptr, ptr %22, align 8, !tbaa !154
  %724 = icmp eq ptr %723, null
  br i1 %724, label %747, label %725

725:                                              ; preds = %722
  %726 = getelementptr inbounds nuw i8, ptr %22, i64 16
  %727 = load ptr, ptr %726, align 8, !tbaa !156
  %728 = ptrtoint ptr %727 to i64
  %729 = ptrtoint ptr %723 to i64
  %730 = sub i64 %728, %729
  call void @_ZdlPvm(ptr noundef nonnull %723, i64 noundef %730) #19
  br label %747

731:                                              ; preds = %688, %690
  %732 = phi ptr [ %501, %688 ], [ %507, %690 ]
  %733 = phi { ptr, i32 } [ %689, %688 ], [ %691, %690 ]
  br label %734

734:                                              ; preds = %731, %745
  %735 = phi ptr [ %736, %745 ], [ %732, %731 ]
  %736 = getelementptr inbounds i8, ptr %735, i64 -24
  %737 = load ptr, ptr %736, align 8, !tbaa !154
  %738 = icmp eq ptr %737, null
  br i1 %738, label %745, label %739

739:                                              ; preds = %734
  %740 = getelementptr inbounds i8, ptr %735, i64 -8
  %741 = load ptr, ptr %740, align 8, !tbaa !156
  %742 = ptrtoint ptr %741 to i64
  %743 = ptrtoint ptr %737 to i64
  %744 = sub i64 %742, %743
  call void @_ZdlPvm(ptr noundef nonnull %737, i64 noundef %744) #19
  br label %745

745:                                              ; preds = %734, %739
  %746 = icmp eq ptr %736, %22
  br i1 %746, label %747, label %734

747:                                              ; preds = %745, %722, %725, %686
  %748 = phi { ptr, i32 } [ %687, %686 ], [ %522, %725 ], [ %522, %722 ], [ %733, %745 ]
  call void @llvm.lifetime.end.p0(ptr nonnull %22) #17
  br label %917

749:                                              ; preds = %578
  %750 = landingpad { ptr, i32 }
          cleanup
  br label %810

751:                                              ; preds = %580
  %752 = landingpad { ptr, i32 }
          cleanup
  br label %794

753:                                              ; preds = %586
  %754 = landingpad { ptr, i32 }
          cleanup
  br label %794

755:                                              ; preds = %604, %608
  %756 = getelementptr inbounds nuw i8, ptr %26, i64 72
  %757 = load ptr, ptr %756, align 8, !tbaa !154
  %758 = icmp eq ptr %757, null
  br i1 %758, label %765, label %759

759:                                              ; preds = %755
  %760 = getelementptr inbounds nuw i8, ptr %26, i64 88
  %761 = load ptr, ptr %760, align 8, !tbaa !156
  %762 = ptrtoint ptr %761 to i64
  %763 = ptrtoint ptr %757 to i64
  %764 = sub i64 %762, %763
  call void @_ZdlPvm(ptr noundef nonnull %757, i64 noundef %764) #19
  br label %765

765:                                              ; preds = %755, %759
  %766 = getelementptr inbounds nuw i8, ptr %26, i64 48
  %767 = load ptr, ptr %766, align 8, !tbaa !154
  %768 = icmp eq ptr %767, null
  br i1 %768, label %775, label %769

769:                                              ; preds = %765
  %770 = getelementptr inbounds nuw i8, ptr %26, i64 64
  %771 = load ptr, ptr %770, align 8, !tbaa !156
  %772 = ptrtoint ptr %771 to i64
  %773 = ptrtoint ptr %767 to i64
  %774 = sub i64 %772, %773
  call void @_ZdlPvm(ptr noundef nonnull %767, i64 noundef %774) #19
  br label %775

775:                                              ; preds = %769, %765
  %776 = getelementptr inbounds nuw i8, ptr %26, i64 24
  %777 = load ptr, ptr %776, align 8, !tbaa !154
  %778 = icmp eq ptr %777, null
  br i1 %778, label %785, label %779

779:                                              ; preds = %775
  %780 = getelementptr inbounds nuw i8, ptr %26, i64 40
  %781 = load ptr, ptr %780, align 8, !tbaa !156
  %782 = ptrtoint ptr %781 to i64
  %783 = ptrtoint ptr %777 to i64
  %784 = sub i64 %782, %783
  call void @_ZdlPvm(ptr noundef nonnull %777, i64 noundef %784) #19
  br label %785

785:                                              ; preds = %779, %775
  %786 = load ptr, ptr %26, align 8, !tbaa !154
  %787 = icmp eq ptr %786, null
  br i1 %787, label %810, label %788

788:                                              ; preds = %785
  %789 = getelementptr inbounds nuw i8, ptr %26, i64 16
  %790 = load ptr, ptr %789, align 8, !tbaa !156
  %791 = ptrtoint ptr %790 to i64
  %792 = ptrtoint ptr %786 to i64
  %793 = sub i64 %791, %792
  call void @_ZdlPvm(ptr noundef nonnull %786, i64 noundef %793) #19
  br label %810

794:                                              ; preds = %751, %753
  %795 = phi ptr [ %584, %751 ], [ %591, %753 ]
  %796 = phi { ptr, i32 } [ %752, %751 ], [ %754, %753 ]
  br label %797

797:                                              ; preds = %794, %808
  %798 = phi ptr [ %799, %808 ], [ %795, %794 ]
  %799 = getelementptr inbounds i8, ptr %798, i64 -24
  %800 = load ptr, ptr %799, align 8, !tbaa !154
  %801 = icmp eq ptr %800, null
  br i1 %801, label %808, label %802

802:                                              ; preds = %797
  %803 = getelementptr inbounds i8, ptr %798, i64 -8
  %804 = load ptr, ptr %803, align 8, !tbaa !156
  %805 = ptrtoint ptr %804 to i64
  %806 = ptrtoint ptr %800 to i64
  %807 = sub i64 %805, %806
  call void @_ZdlPvm(ptr noundef nonnull %800, i64 noundef %807) #19
  br label %808

808:                                              ; preds = %797, %802
  %809 = icmp eq ptr %799, %26
  br i1 %809, label %810, label %797

810:                                              ; preds = %808, %785, %788, %749
  %811 = phi { ptr, i32 } [ %750, %749 ], [ %605, %788 ], [ %605, %785 ], [ %796, %808 ]
  call void @llvm.lifetime.end.p0(ptr nonnull %26) #17
  br label %903

812:                                              ; preds = %661
  %813 = landingpad { ptr, i32 }
          cleanup
  call void @llvm.lifetime.end.p0(ptr nonnull %32) #17
  call void @llvm.lifetime.end.p0(ptr nonnull %31) #17
  call void @llvm.lifetime.end.p0(ptr nonnull %29) #17
  br label %889

814:                                              ; preds = %666
  %815 = landingpad { ptr, i32 }
          cleanup
  call void @llvm.lifetime.end.p0(ptr nonnull %34) #17
  call void @llvm.lifetime.end.p0(ptr nonnull %33) #17
  br label %889

816:                                              ; preds = %668
  call void @llvm.lifetime.end.p0(ptr nonnull %34) #17
  call void @llvm.lifetime.end.p0(ptr nonnull %33) #17
  %817 = load ptr, ptr %28, align 8, !tbaa !146
  %818 = icmp eq ptr %817, null
  br i1 %818, label %825, label %819

819:                                              ; preds = %816
  %820 = getelementptr inbounds nuw i8, ptr %28, i64 16
  %821 = load ptr, ptr %820, align 8, !tbaa !149
  %822 = ptrtoint ptr %821 to i64
  %823 = ptrtoint ptr %817 to i64
  %824 = sub i64 %822, %823
  call void @_ZdlPvm(ptr noundef nonnull %817, i64 noundef %824) #19
  br label %825

825:                                              ; preds = %816, %819
  call void @llvm.lifetime.end.p0(ptr nonnull %28) #17
  call void @llvm.lifetime.end.p0(ptr nonnull %27) #17
  %826 = load ptr, ptr %25, align 8, !tbaa !150
  %827 = load ptr, ptr %615, align 8, !tbaa !153
  %828 = icmp eq ptr %826, %827
  br i1 %828, label %844, label %829

829:                                              ; preds = %825, %839
  %830 = phi ptr [ %840, %839 ], [ %826, %825 ]
  %831 = load ptr, ptr %830, align 8, !tbaa !154
  %832 = icmp eq ptr %831, null
  br i1 %832, label %839, label %833

833:                                              ; preds = %829
  %834 = getelementptr inbounds nuw i8, ptr %830, i64 16
  %835 = load ptr, ptr %834, align 8, !tbaa !156
  %836 = ptrtoint ptr %835 to i64
  %837 = ptrtoint ptr %831 to i64
  %838 = sub i64 %836, %837
  call void @_ZdlPvm(ptr noundef nonnull %831, i64 noundef %838) #19
  br label %839

839:                                              ; preds = %833, %829
  %840 = getelementptr inbounds nuw i8, ptr %830, i64 24
  %841 = icmp eq ptr %840, %827
  br i1 %841, label %842, label %829, !llvm.loop !157

842:                                              ; preds = %839
  %843 = load ptr, ptr %25, align 8, !tbaa !150
  br label %844

844:                                              ; preds = %842, %825
  %845 = phi ptr [ %843, %842 ], [ %826, %825 ]
  %846 = icmp eq ptr %845, null
  br i1 %846, label %852, label %847

847:                                              ; preds = %844
  %848 = load ptr, ptr %602, align 8, !tbaa !158
  %849 = ptrtoint ptr %848 to i64
  %850 = ptrtoint ptr %845 to i64
  %851 = sub i64 %849, %850
  call void @_ZdlPvm(ptr noundef nonnull %845, i64 noundef %851) #19
  br label %852

852:                                              ; preds = %844, %847
  call void @llvm.lifetime.end.p0(ptr nonnull %25) #17
  %853 = load ptr, ptr %24, align 8, !tbaa !146
  %854 = icmp eq ptr %853, null
  br i1 %854, label %861, label %855

855:                                              ; preds = %852
  %856 = getelementptr inbounds nuw i8, ptr %24, i64 16
  %857 = load ptr, ptr %856, align 8, !tbaa !149
  %858 = ptrtoint ptr %857 to i64
  %859 = ptrtoint ptr %853 to i64
  %860 = sub i64 %858, %859
  call void @_ZdlPvm(ptr noundef nonnull %853, i64 noundef %860) #19
  br label %861

861:                                              ; preds = %852, %855
  call void @llvm.lifetime.end.p0(ptr nonnull %24) #17
  call void @llvm.lifetime.end.p0(ptr nonnull %23) #17
  %862 = load ptr, ptr %21, align 8, !tbaa !150
  %863 = load ptr, ptr %532, align 8, !tbaa !153
  %864 = icmp eq ptr %862, %863
  br i1 %864, label %880, label %865

865:                                              ; preds = %861, %875
  %866 = phi ptr [ %876, %875 ], [ %862, %861 ]
  %867 = load ptr, ptr %866, align 8, !tbaa !154
  %868 = icmp eq ptr %867, null
  br i1 %868, label %875, label %869

869:                                              ; preds = %865
  %870 = getelementptr inbounds nuw i8, ptr %866, i64 16
  %871 = load ptr, ptr %870, align 8, !tbaa !156
  %872 = ptrtoint ptr %871 to i64
  %873 = ptrtoint ptr %867 to i64
  %874 = sub i64 %872, %873
  call void @_ZdlPvm(ptr noundef nonnull %867, i64 noundef %874) #19
  br label %875

875:                                              ; preds = %869, %865
  %876 = getelementptr inbounds nuw i8, ptr %866, i64 24
  %877 = icmp eq ptr %876, %863
  br i1 %877, label %878, label %865, !llvm.loop !157

878:                                              ; preds = %875
  %879 = load ptr, ptr %21, align 8, !tbaa !150
  br label %880

880:                                              ; preds = %878, %861
  %881 = phi ptr [ %879, %878 ], [ %862, %861 ]
  %882 = icmp eq ptr %881, null
  br i1 %882, label %888, label %883

883:                                              ; preds = %880
  %884 = load ptr, ptr %519, align 8, !tbaa !158
  %885 = ptrtoint ptr %884 to i64
  %886 = ptrtoint ptr %881 to i64
  %887 = sub i64 %885, %886
  call void @_ZdlPvm(ptr noundef nonnull %881, i64 noundef %887) #19
  br label %888

888:                                              ; preds = %880, %883
  call void @llvm.lifetime.end.p0(ptr nonnull %21) #17
  ret void

889:                                              ; preds = %814, %812
  %890 = phi { ptr, i32 } [ %815, %814 ], [ %813, %812 ]
  %891 = load ptr, ptr %28, align 8, !tbaa !146
  %892 = icmp eq ptr %891, null
  br i1 %892, label %901, label %893

893:                                              ; preds = %889, %657
  %894 = phi ptr [ %659, %657 ], [ %891, %889 ]
  %895 = phi { ptr, i32 } [ %658, %657 ], [ %890, %889 ]
  %896 = getelementptr inbounds nuw i8, ptr %28, i64 16
  %897 = load ptr, ptr %896, align 8, !tbaa !149
  %898 = ptrtoint ptr %897 to i64
  %899 = ptrtoint ptr %894 to i64
  %900 = sub i64 %898, %899
  call void @_ZdlPvm(ptr noundef nonnull %894, i64 noundef %900) #19
  br label %901

901:                                              ; preds = %893, %889, %657
  %902 = phi { ptr, i32 } [ %658, %657 ], [ %890, %889 ], [ %895, %893 ]
  call void @llvm.lifetime.end.p0(ptr nonnull %28) #17
  call void @llvm.lifetime.end.p0(ptr nonnull %27) #17
  call void @_ZNSt6vectorIS_IiSaIiEESaIS1_EED2Ev(ptr noundef nonnull align 8 dereferenceable(24) %25) #17
  br label %903

903:                                              ; preds = %901, %810
  %904 = phi { ptr, i32 } [ %902, %901 ], [ %811, %810 ]
  call void @llvm.lifetime.end.p0(ptr nonnull %25) #17
  %905 = load ptr, ptr %24, align 8, !tbaa !146
  %906 = icmp eq ptr %905, null
  br i1 %906, label %915, label %907

907:                                              ; preds = %903, %574
  %908 = phi ptr [ %576, %574 ], [ %905, %903 ]
  %909 = phi { ptr, i32 } [ %575, %574 ], [ %904, %903 ]
  %910 = getelementptr inbounds nuw i8, ptr %24, i64 16
  %911 = load ptr, ptr %910, align 8, !tbaa !149
  %912 = ptrtoint ptr %911 to i64
  %913 = ptrtoint ptr %908 to i64
  %914 = sub i64 %912, %913
  call void @_ZdlPvm(ptr noundef nonnull %908, i64 noundef %914) #19
  br label %915

915:                                              ; preds = %907, %903, %574
  %916 = phi { ptr, i32 } [ %575, %574 ], [ %904, %903 ], [ %909, %907 ]
  call void @llvm.lifetime.end.p0(ptr nonnull %24) #17
  call void @llvm.lifetime.end.p0(ptr nonnull %23) #17
  call void @_ZNSt6vectorIS_IiSaIiEESaIS1_EED2Ev(ptr noundef nonnull align 8 dereferenceable(24) %21) #17
  br label %917

917:                                              ; preds = %915, %747
  %918 = phi { ptr, i32 } [ %916, %915 ], [ %748, %747 ]
  call void @llvm.lifetime.end.p0(ptr nonnull %21) #17
  br label %919

919:                                              ; preds = %917, %684, %390, %181
  %920 = phi { ptr, i32 } [ %918, %917 ], [ %685, %684 ], [ %391, %390 ], [ %182, %181 ]
  resume { ptr, i32 } %920
}

declare i32 @__gxx_personality_v0(...)

; Function Attrs: mustprogress nounwind uwtable
define linkonce_odr dso_local void @_ZNSt5dequeIiSaIiEED2Ev(ptr noundef nonnull align 8 dereferenceable(80) %0) unnamed_addr #6 comdat align 2 personality ptr @__gxx_personality_v0 {
  %2 = load ptr, ptr %0, align 8, !tbaa !50
  %3 = icmp eq ptr %2, null
  br i1 %3, label %23, label %4

4:                                                ; preds = %1
  %5 = getelementptr inbounds nuw i8, ptr %0, i64 72
  %6 = getelementptr inbounds nuw i8, ptr %0, i64 40
  %7 = load ptr, ptr %6, align 8, !tbaa !9
  %8 = load ptr, ptr %5, align 8, !tbaa !17
  %9 = getelementptr inbounds nuw i8, ptr %8, i64 8
  %10 = icmp ult ptr %7, %9
  br i1 %10, label %11, label %18

11:                                               ; preds = %4, %11
  %12 = phi ptr [ %14, %11 ], [ %7, %4 ]
  %13 = load ptr, ptr %12, align 8, !tbaa !19
  tail call void @_ZdlPvm(ptr noundef %13, i64 noundef 512) #19
  %14 = getelementptr inbounds nuw i8, ptr %12, i64 8
  %15 = icmp ult ptr %12, %8
  br i1 %15, label %11, label %16, !llvm.loop !51

16:                                               ; preds = %11
  %17 = load ptr, ptr %0, align 8, !tbaa !50
  br label %18

18:                                               ; preds = %16, %4
  %19 = phi ptr [ %17, %16 ], [ %2, %4 ]
  %20 = getelementptr inbounds nuw i8, ptr %0, i64 8
  %21 = load i64, ptr %20, align 8, !tbaa !52
  %22 = shl i64 %21, 3
  tail call void @_ZdlPvm(ptr noundef %19, i64 noundef %22) #19
  br label %23

23:                                               ; preds = %1, %18
  ret void
}

; Function Attrs: mustprogress nounwind uwtable
define linkonce_odr dso_local void @_ZNSt11_Deque_baseIiSaIiEED2Ev(ptr noundef nonnull align 8 dereferenceable(80) %0) unnamed_addr #6 comdat align 2 personality ptr @__gxx_personality_v0 {
  %2 = load ptr, ptr %0, align 8, !tbaa !50
  %3 = icmp eq ptr %2, null
  br i1 %3, label %23, label %4

4:                                                ; preds = %1
  %5 = getelementptr inbounds nuw i8, ptr %0, i64 40
  %6 = load ptr, ptr %5, align 8, !tbaa !9
  %7 = getelementptr inbounds nuw i8, ptr %0, i64 72
  %8 = load ptr, ptr %7, align 8, !tbaa !17
  %9 = getelementptr inbounds nuw i8, ptr %8, i64 8
  %10 = icmp ult ptr %6, %9
  br i1 %10, label %11, label %18

11:                                               ; preds = %4, %11
  %12 = phi ptr [ %14, %11 ], [ %6, %4 ]
  %13 = load ptr, ptr %12, align 8, !tbaa !19
  tail call void @_ZdlPvm(ptr noundef %13, i64 noundef 512) #19
  %14 = getelementptr inbounds nuw i8, ptr %12, i64 8
  %15 = icmp ult ptr %12, %8
  br i1 %15, label %11, label %16, !llvm.loop !51

16:                                               ; preds = %11
  %17 = load ptr, ptr %0, align 8, !tbaa !50
  br label %18

18:                                               ; preds = %16, %4
  %19 = phi ptr [ %17, %16 ], [ %2, %4 ]
  %20 = getelementptr inbounds nuw i8, ptr %0, i64 8
  %21 = load i64, ptr %20, align 8, !tbaa !52
  %22 = shl i64 %21, 3
  tail call void @_ZdlPvm(ptr noundef %19, i64 noundef %22) #19
  br label %23

23:                                               ; preds = %18, %1
  ret void
}

; Function Attrs: mustprogress uwtable
define linkonce_odr dso_local void @_ZNSt11_Deque_baseIiSaIiEE17_M_initialize_mapEm(ptr noundef nonnull align 8 dereferenceable(80) %0, i64 noundef %1) local_unnamed_addr #1 comdat align 2 personality ptr @__gxx_personality_v0 {
  %3 = lshr i64 %1, 7
  %4 = add nuw nsw i64 %3, 1
  %5 = tail call i64 @llvm.umax.i64(i64 %3, i64 5)
  %6 = add nuw nsw i64 %5, 3
  %7 = getelementptr inbounds nuw i8, ptr %0, i64 8
  store i64 %6, ptr %7, align 8, !tbaa !52
  %8 = shl nuw nsw i64 %6, 3
  %9 = tail call noalias noundef nonnull ptr @_Znwm(i64 noundef %8) #20
  store ptr %9, ptr %0, align 8, !tbaa !50
  %10 = sub nsw i64 %6, %4
  %11 = lshr i64 %10, 1
  %12 = getelementptr inbounds nuw ptr, ptr %9, i64 %11
  %13 = getelementptr inbounds nuw ptr, ptr %12, i64 %4
  invoke void @_ZNSt11_Deque_baseIiSaIiEE15_M_create_nodesEPPiS3_(ptr noundef nonnull align 8 dereferenceable(80) %0, ptr noundef nonnull %12, ptr noundef nonnull %13)
          to label %24 unwind label %14

14:                                               ; preds = %2
  %15 = landingpad { ptr, i32 }
          catch ptr null
  %16 = extractvalue { ptr, i32 } %15, 0
  %17 = tail call ptr @__cxa_begin_catch(ptr %16) #17
  %18 = load ptr, ptr %0, align 8, !tbaa !50
  %19 = load i64, ptr %7, align 8, !tbaa !52
  %20 = shl i64 %19, 3
  tail call void @_ZdlPvm(ptr noundef %18, i64 noundef %20) #19
  tail call void @llvm.memset.p0.i64(ptr noundef nonnull align 8 dereferenceable(16) %0, i8 0, i64 16, i1 false)
  invoke void @__cxa_rethrow() #21
          to label %43 unwind label %21

21:                                               ; preds = %14
  %22 = landingpad { ptr, i32 }
          cleanup
  invoke void @__cxa_end_catch()
          to label %23 unwind label %40

23:                                               ; preds = %21
  resume { ptr, i32 } %22

24:                                               ; preds = %2
  %25 = getelementptr inbounds nuw i8, ptr %0, i64 16
  %26 = getelementptr inbounds nuw i8, ptr %0, i64 40
  store ptr %12, ptr %26, align 8, !tbaa !31
  %27 = load ptr, ptr %12, align 8, !tbaa !19
  %28 = getelementptr inbounds nuw i8, ptr %0, i64 24
  store ptr %27, ptr %28, align 8, !tbaa !30
  %29 = getelementptr inbounds nuw i8, ptr %27, i64 512
  %30 = getelementptr inbounds nuw i8, ptr %0, i64 32
  store ptr %29, ptr %30, align 8, !tbaa !38
  %31 = getelementptr inbounds nuw i8, ptr %0, i64 48
  %32 = getelementptr inbounds i8, ptr %13, i64 -8
  %33 = getelementptr inbounds nuw i8, ptr %0, i64 72
  store ptr %32, ptr %33, align 8, !tbaa !31
  %34 = load ptr, ptr %32, align 8, !tbaa !19
  %35 = getelementptr inbounds nuw i8, ptr %0, i64 56
  store ptr %34, ptr %35, align 8, !tbaa !30
  %36 = getelementptr inbounds nuw i8, ptr %34, i64 512
  %37 = getelementptr inbounds nuw i8, ptr %0, i64 64
  store ptr %36, ptr %37, align 8, !tbaa !38
  store ptr %27, ptr %25, align 8, !tbaa !183
  %38 = and i64 %1, 127
  %39 = getelementptr inbounds nuw i32, ptr %34, i64 %38
  store ptr %39, ptr %31, align 8, !tbaa !22
  ret void

40:                                               ; preds = %21
  %41 = landingpad { ptr, i32 }
          catch ptr null
  %42 = extractvalue { ptr, i32 } %41, 0
  tail call void @__clang_call_terminate(ptr %42) #18
  unreachable

43:                                               ; preds = %14
  unreachable
}

declare ptr @__cxa_begin_catch(ptr) local_unnamed_addr

declare void @__cxa_rethrow() local_unnamed_addr

declare void @__cxa_end_catch() local_unnamed_addr

; Function Attrs: noinline noreturn nounwind uwtable
define linkonce_odr hidden void @__clang_call_terminate(ptr noundef %0) local_unnamed_addr #7 comdat {
  %2 = tail call ptr @__cxa_begin_catch(ptr %0) #17
  tail call void @_ZSt9terminatev() #18
  unreachable
}

; Function Attrs: cold nofree noreturn
declare void @_ZSt9terminatev() local_unnamed_addr #8

; Function Attrs: mustprogress uwtable
define linkonce_odr dso_local void @_ZNSt11_Deque_baseIiSaIiEE15_M_create_nodesEPPiS3_(ptr noundef nonnull align 8 dereferenceable(80) %0, ptr noundef %1, ptr noundef %2) local_unnamed_addr #1 comdat align 2 personality ptr @__gxx_personality_v0 {
  %4 = icmp ult ptr %1, %2
  br i1 %4, label %5, label %25

5:                                                ; preds = %3, %8
  %6 = phi ptr [ %9, %8 ], [ %1, %3 ]
  %7 = invoke noalias noundef nonnull dereferenceable(512) ptr @_Znwm(i64 noundef 512) #20
          to label %8 unwind label %11

8:                                                ; preds = %5
  store ptr %7, ptr %6, align 8, !tbaa !19
  %9 = getelementptr inbounds nuw i8, ptr %6, i64 8
  %10 = icmp ult ptr %9, %2
  br i1 %10, label %5, label %25, !llvm.loop !184

11:                                               ; preds = %5
  %12 = landingpad { ptr, i32 }
          catch ptr null
  %13 = extractvalue { ptr, i32 } %12, 0
  %14 = tail call ptr @__cxa_begin_catch(ptr %13) #17
  %15 = icmp ult ptr %1, %6
  br i1 %15, label %16, label %21

16:                                               ; preds = %11, %16
  %17 = phi ptr [ %19, %16 ], [ %1, %11 ]
  %18 = load ptr, ptr %17, align 8, !tbaa !19
  tail call void @_ZdlPvm(ptr noundef %18, i64 noundef 512) #19
  %19 = getelementptr inbounds nuw i8, ptr %17, i64 8
  %20 = icmp ult ptr %19, %6
  br i1 %20, label %16, label %21, !llvm.loop !51

21:                                               ; preds = %16, %11
  invoke void @__cxa_rethrow() #21
          to label %29 unwind label %22

22:                                               ; preds = %21
  %23 = landingpad { ptr, i32 }
          cleanup
  invoke void @__cxa_end_catch()
          to label %24 unwind label %26

24:                                               ; preds = %22
  resume { ptr, i32 } %23

25:                                               ; preds = %8, %3
  ret void

26:                                               ; preds = %22
  %27 = landingpad { ptr, i32 }
          catch ptr null
  %28 = extractvalue { ptr, i32 } %27, 0
  tail call void @__clang_call_terminate(ptr %28) #18
  unreachable

29:                                               ; preds = %21
  unreachable
}

; Function Attrs: noreturn
declare void @_ZSt28__throw_bad_array_new_lengthv() local_unnamed_addr #9

; Function Attrs: nobuiltin allocsize(0)
declare noundef nonnull ptr @_Znwm(i64 noundef) local_unnamed_addr #10

; Function Attrs: nobuiltin nounwind
declare void @_ZdlPvm(ptr noundef, i64 noundef) local_unnamed_addr #11

; Function Attrs: noreturn
declare void @_ZSt20__throw_length_errorPKc(ptr noundef) local_unnamed_addr #9

; Function Attrs: mustprogress nocallback nofree nounwind willreturn memory(argmem: readwrite)
declare void @llvm.memmove.p0.p0.i64(ptr writeonly captures(none), ptr readonly captures(none), i64, i1 immarg) #4

; Function Attrs: mustprogress uwtable
define linkonce_odr dso_local ptr @_ZNKSt6ranges18__copy_backward_fnclITkNS_19bidirectional_rangeENS_9join_viewINS_8ref_viewISt6vectorINS_8subrangeI22bidirectional_iteratorIN9__gnu_cxx17__normal_iteratorIPiS4_IiSaIiEEEEESD_LNS_13subrange_kindE0EEESaISF_EEEEEETkSt22bidirectional_iteratorS9_Q19indirectly_copyableIDTclsr6ranges13__cust_accessE7__beginclsr3stdE7declvalIRT_EEEET0_EEENS_13in_out_resultINSt13__conditionalIX14borrowed_rangeISK_EEE4typeISM_NS_8danglingEEESN_EEOSK_SN_(ptr noundef nonnull align 1 dereferenceable(1) %0, ptr noundef nonnull align 8 dereferenceable(8) %1, ptr noundef %2) local_unnamed_addr #1 comdat align 2 {
  %4 = alloca %"struct.std::ranges::join_view<std::ranges::ref_view<std::vector<std::ranges::subrange<bidirectional_iterator<__gnu_cxx::__normal_iterator<int *, std::vector<int>>>>>>>::_Iterator", align 8
  %5 = alloca %"struct.std::ranges::join_view<std::ranges::ref_view<std::vector<std::ranges::subrange<bidirectional_iterator<__gnu_cxx::__normal_iterator<int *, std::vector<int>>>>>>>::_Iterator", align 8
  %6 = alloca %"struct.std::ranges::in_out_result.59", align 8
  call void @llvm.lifetime.start.p0(ptr nonnull %6) #17
  %7 = load ptr, ptr %1, align 8, !tbaa !185, !noalias !188
  %8 = load ptr, ptr %7, align 8, !tbaa !161, !noalias !188
  %9 = getelementptr inbounds nuw i8, ptr %7, i64 8
  %10 = load ptr, ptr %9, align 8, !tbaa !161, !noalias !188
  %11 = icmp eq ptr %8, %10
  br i1 %11, label %45, label %12

12:                                               ; preds = %3
  %13 = getelementptr inbounds nuw i8, ptr %8, i64 8
  %14 = load i8, ptr %13, align 8, !tbaa !191, !noalias !188
  %15 = trunc nuw i8 %14 to i1
  br i1 %15, label %34, label %16

16:                                               ; preds = %12
  %17 = load i64, ptr %8, align 8, !tbaa !19, !noalias !188
  %18 = inttoptr i64 %17 to ptr
  %19 = getelementptr inbounds nuw i8, ptr %8, i64 16
  %20 = load ptr, ptr %19, align 8, !tbaa !19, !noalias !188
  %21 = icmp eq ptr %20, %18
  br i1 %21, label %22, label %49

22:                                               ; preds = %16
  %23 = getelementptr inbounds nuw i8, ptr %8, i64 32
  %24 = icmp eq ptr %23, %10
  br i1 %24, label %45, label %25

25:                                               ; preds = %22
  %26 = getelementptr inbounds nuw i8, ptr %8, i64 40
  %27 = load i8, ptr %26, align 8, !tbaa !191, !noalias !188
  %28 = trunc nuw i8 %27 to i1
  br i1 %28, label %33, label %35

29:                                               ; preds = %42
  %30 = getelementptr inbounds nuw i8, ptr %36, i64 40
  %31 = load i8, ptr %30, align 8, !tbaa !191, !noalias !188
  %32 = trunc nuw i8 %31 to i1
  br i1 %32, label %33, label %35, !llvm.loop !192

33:                                               ; preds = %29, %25
  tail call void @__assert_fail(ptr noundef nonnull @.str.13, ptr noundef nonnull @.str.14, i32 noundef 31, ptr noundef nonnull @__PRETTY_FUNCTION__._ZN7support19double_move_trackeraSEOS0_) #18, !noalias !188
  unreachable

34:                                               ; preds = %12
  tail call void @__assert_fail(ptr noundef nonnull @.str.13, ptr noundef nonnull @.str.14, i32 noundef 24, ptr noundef nonnull @__PRETTY_FUNCTION__._ZN7support19double_move_trackerC2EOS0_) #18, !noalias !188
  unreachable

35:                                               ; preds = %25, %29
  %36 = phi ptr [ %43, %29 ], [ %23, %25 ]
  %37 = load i64, ptr %36, align 8, !tbaa !19, !noalias !188
  %38 = inttoptr i64 %37 to ptr
  %39 = getelementptr inbounds nuw i8, ptr %36, i64 16
  %40 = load ptr, ptr %39, align 8, !tbaa !19, !noalias !188
  %41 = icmp eq ptr %40, %38
  br i1 %41, label %42, label %49

42:                                               ; preds = %35
  %43 = getelementptr inbounds nuw i8, ptr %36, i64 32
  %44 = icmp eq ptr %43, %10
  br i1 %44, label %45, label %29, !llvm.loop !192

45:                                               ; preds = %42, %22, %3
  %46 = phi ptr [ %10, %22 ], [ %8, %3 ], [ %10, %42 ]
  call void @llvm.lifetime.start.p0(ptr nonnull %4)
  call void @llvm.lifetime.start.p0(ptr nonnull %5)
  %47 = ptrtoint ptr %46 to i64
  store i64 %47, ptr %4, align 8, !tbaa !161, !noalias !194
  %48 = getelementptr inbounds nuw i8, ptr %4, i64 24
  store i8 0, ptr %48, align 8, !tbaa !168, !noalias !194
  br label %56

49:                                               ; preds = %35, %16
  %50 = phi ptr [ %8, %16 ], [ %36, %35 ]
  %51 = phi i64 [ %17, %16 ], [ %37, %35 ]
  call void @llvm.lifetime.start.p0(ptr nonnull %4)
  call void @llvm.lifetime.start.p0(ptr nonnull %5)
  %52 = ptrtoint ptr %50 to i64
  store i64 %52, ptr %4, align 8, !tbaa !161, !noalias !197
  %53 = getelementptr inbounds nuw i8, ptr %4, i64 24
  %54 = getelementptr inbounds nuw i8, ptr %4, i64 8
  store i64 %51, ptr %54, align 8, !tbaa !19, !noalias !197
  %55 = getelementptr inbounds nuw i8, ptr %4, i64 16
  store i8 0, ptr %55, align 8, !tbaa !199, !noalias !197
  store i8 1, ptr %53, align 8, !tbaa !168, !noalias !197
  br label %56

56:                                               ; preds = %49, %45
  %57 = getelementptr inbounds nuw i8, ptr %4, i64 32
  store ptr %1, ptr %57, align 8, !tbaa !171, !noalias !197
  %58 = ptrtoint ptr %10 to i64
  store i64 %58, ptr %5, align 8, !tbaa !161, !noalias !197
  %59 = getelementptr inbounds nuw i8, ptr %5, i64 24
  store i8 0, ptr %59, align 8, !tbaa !168, !noalias !197
  %60 = getelementptr inbounds nuw i8, ptr %5, i64 32
  store ptr %1, ptr %60, align 8, !tbaa !171, !noalias !197
  call void @_ZNSt6ranges23__copy_or_move_backwardILb0ETkSt22bidirectional_iteratorNS_9join_viewINS_8ref_viewISt6vectorINS_8subrangeI22bidirectional_iteratorIN9__gnu_cxx17__normal_iteratorIPiS3_IiSaIiEEEEESC_LNS_13subrange_kindE0EEESaISE_EEEEE9_IteratorILb1EEETkSt12sentinel_forIT0_ESK_TkSt22bidirectional_iteratorS8_QquT_18indirectly_movableISM_T2_E19indirectly_copyableISM_SN_EEENSt13__conditionalIXT_EE4typeINS_13in_out_resultISM_SN_EESS_EESM_T1_SN_(ptr dead_on_unwind nonnull writable sret(%"struct.std::ranges::in_out_result.59") align 8 %6, ptr dead_on_return noundef nonnull %4, ptr dead_on_return noundef nonnull %5, ptr noundef %2)
  call void @llvm.lifetime.end.p0(ptr nonnull %4)
  call void @llvm.lifetime.end.p0(ptr nonnull %5)
  %61 = getelementptr inbounds nuw i8, ptr %6, i64 40
  %62 = load ptr, ptr %61, align 8, !tbaa !19
  call void @llvm.lifetime.end.p0(ptr nonnull %6) #17
  ret ptr %62
}

; Function Attrs: mustprogress nounwind uwtable
define linkonce_odr dso_local void @_ZNSt6vectorIS_IiSaIiEESaIS1_EED2Ev(ptr noundef nonnull align 8 dereferenceable(24) %0) unnamed_addr #6 comdat align 2 personality ptr @__gxx_personality_v0 {
  %2 = load ptr, ptr %0, align 8, !tbaa !150
  %3 = getelementptr inbounds nuw i8, ptr %0, i64 8
  %4 = load ptr, ptr %3, align 8, !tbaa !153
  %5 = icmp eq ptr %2, %4
  br i1 %5, label %21, label %6

6:                                                ; preds = %1, %16
  %7 = phi ptr [ %17, %16 ], [ %2, %1 ]
  %8 = load ptr, ptr %7, align 8, !tbaa !154
  %9 = icmp eq ptr %8, null
  br i1 %9, label %16, label %10

10:                                               ; preds = %6
  %11 = getelementptr inbounds nuw i8, ptr %7, i64 16
  %12 = load ptr, ptr %11, align 8, !tbaa !156
  %13 = ptrtoint ptr %12 to i64
  %14 = ptrtoint ptr %8 to i64
  %15 = sub i64 %13, %14
  tail call void @_ZdlPvm(ptr noundef nonnull %8, i64 noundef %15) #19
  br label %16

16:                                               ; preds = %10, %6
  %17 = getelementptr inbounds nuw i8, ptr %7, i64 24
  %18 = icmp eq ptr %17, %4
  br i1 %18, label %19, label %6, !llvm.loop !157

19:                                               ; preds = %16
  %20 = load ptr, ptr %0, align 8, !tbaa !150
  br label %21

21:                                               ; preds = %19, %1
  %22 = phi ptr [ %20, %19 ], [ %2, %1 ]
  %23 = icmp eq ptr %22, null
  br i1 %23, label %30, label %24

24:                                               ; preds = %21
  %25 = getelementptr inbounds nuw i8, ptr %0, i64 16
  %26 = load ptr, ptr %25, align 8, !tbaa !158
  %27 = ptrtoint ptr %26 to i64
  %28 = ptrtoint ptr %22 to i64
  %29 = sub i64 %27, %28
  tail call void @_ZdlPvm(ptr noundef nonnull %22, i64 noundef %29) #19
  br label %30

30:                                               ; preds = %21, %24
  ret void
}

; Function Attrs: mustprogress uwtable
