; ModuleID = '/root/project/RuyiTuner/third_party/train/llvm-project/libcxx/test/std/algorithms/alg.modifying.operations/alg.copy/copy_if.pass.cpp'
source_filename = "/root/project/RuyiTuner/third_party/train/llvm-project/libcxx/test/std/algorithms/alg.modifying.operations/alg.copy/copy_if.pass.cpp"
target datalayout = "e-m:e-p270:32:32-p271:32:32-p272:64:64-i64:64-i128:128-f80:128-n8:16:32:64-S128"
target triple = "x86_64-unknown-linux-gnu"

$_ZN5types8for_eachIJPi19contiguous_iteratorIS1_E22random_access_iteratorIS1_E22bidirectional_iteratorIS1_E16forward_iteratorIS1_E20cpp17_input_iteratorIS1_S1_E21cpp17_output_iteratorIS1_EE12TestOutItersIPKiEEEvNS_9type_listIJDpT_EEET0_ = comdat any

$_ZN5types8for_eachIJPi19contiguous_iteratorIS1_E22random_access_iteratorIS1_E22bidirectional_iteratorIS1_E16forward_iteratorIS1_E20cpp17_input_iteratorIS1_S1_E21cpp17_output_iteratorIS1_EE12TestOutItersIS2_IPKiEEEEvNS_9type_listIJDpT_EEET0_ = comdat any

$_ZN5types8for_eachIJPi19contiguous_iteratorIS1_E22random_access_iteratorIS1_E22bidirectional_iteratorIS1_E16forward_iteratorIS1_E20cpp17_input_iteratorIS1_S1_E21cpp17_output_iteratorIS1_EE12TestOutItersIS4_IPKiEEEEvNS_9type_listIJDpT_EEET0_ = comdat any

$_ZN5types8for_eachIJPi19contiguous_iteratorIS1_E22random_access_iteratorIS1_E22bidirectional_iteratorIS1_E16forward_iteratorIS1_E20cpp17_input_iteratorIS1_S1_E21cpp17_output_iteratorIS1_EE12TestOutItersIS6_IPKiEEEEvNS_9type_listIJDpT_EEET0_ = comdat any

$_ZN5types8for_eachIJPi19contiguous_iteratorIS1_E22random_access_iteratorIS1_E22bidirectional_iteratorIS1_E16forward_iteratorIS1_E20cpp17_input_iteratorIS1_S1_E21cpp17_output_iteratorIS1_EE12TestOutItersIS8_IPKiEEEEvNS_9type_listIJDpT_EEET0_ = comdat any

$_ZN5types8for_eachIJPi19contiguous_iteratorIS1_E22random_access_iteratorIS1_E22bidirectional_iteratorIS1_E16forward_iteratorIS1_E20cpp17_input_iteratorIS1_S1_E21cpp17_output_iteratorIS1_EE12TestOutItersISA_IPKiSG_EEEEvNS_9type_listIJDpT_EEET0_ = comdat any

@.str = private unnamed_addr constant [26 x i8] c"base(r) == ib + N / 3 + 1\00", align 1
@.str.1 = private unnamed_addr constant [133 x i8] c"/root/project/RuyiTuner/third_party/train/llvm-project/libcxx/test/std/algorithms/alg.modifying.operations/alg.copy/copy_if.pass.cpp\00", align 1
@__PRETTY_FUNCTION__._ZN12TestOutItersIPKiEclIPiEEvv = private unnamed_addr constant [85 x i8] c"void TestOutIters<const int *>::operator()() [InIter = const int *, OutIter = int *]\00", align 1
@.str.2 = private unnamed_addr constant [15 x i8] c"ib[i] % 3 == 0\00", align 1
@__PRETTY_FUNCTION__._ZN12TestOutItersIPKiEclI19contiguous_iteratorIPiEEEvv = private unnamed_addr constant [106 x i8] c"void TestOutIters<const int *>::operator()() [InIter = const int *, OutIter = contiguous_iterator<int *>]\00", align 1
@__PRETTY_FUNCTION__._ZN12TestOutItersIPKiEclI22random_access_iteratorIPiEEEvv = private unnamed_addr constant [109 x i8] c"void TestOutIters<const int *>::operator()() [InIter = const int *, OutIter = random_access_iterator<int *>]\00", align 1
@__PRETTY_FUNCTION__._ZN12TestOutItersIPKiEclI22bidirectional_iteratorIPiEEEvv = private unnamed_addr constant [109 x i8] c"void TestOutIters<const int *>::operator()() [InIter = const int *, OutIter = bidirectional_iterator<int *>]\00", align 1
@__PRETTY_FUNCTION__._ZN12TestOutItersIPKiEclI16forward_iteratorIPiEEEvv = private unnamed_addr constant [103 x i8] c"void TestOutIters<const int *>::operator()() [InIter = const int *, OutIter = forward_iterator<int *>]\00", align 1
@__PRETTY_FUNCTION__._ZN12TestOutItersIPKiEclI20cpp17_input_iteratorIPiS5_EEEvv = private unnamed_addr constant [107 x i8] c"void TestOutIters<const int *>::operator()() [InIter = const int *, OutIter = cpp17_input_iterator<int *>]\00", align 1
@__PRETTY_FUNCTION__._ZN12TestOutItersIPKiEclI21cpp17_output_iteratorIPiEEEvv = private unnamed_addr constant [108 x i8] c"void TestOutIters<const int *>::operator()() [InIter = const int *, OutIter = cpp17_output_iterator<int *>]\00", align 1
@__PRETTY_FUNCTION__._ZN12TestOutItersI19contiguous_iteratorIPKiEEclIPiEEvv = private unnamed_addr constant [127 x i8] c"void TestOutIters<contiguous_iterator<const int *>>::operator()() [InIter = contiguous_iterator<const int *>, OutIter = int *]\00", align 1
@__PRETTY_FUNCTION__._ZN12TestOutItersI19contiguous_iteratorIPKiEEclIS0_IPiEEEvv = private unnamed_addr constant [148 x i8] c"void TestOutIters<contiguous_iterator<const int *>>::operator()() [InIter = contiguous_iterator<const int *>, OutIter = contiguous_iterator<int *>]\00", align 1
@__PRETTY_FUNCTION__._ZN12TestOutItersI19contiguous_iteratorIPKiEEclI22random_access_iteratorIPiEEEvv = private unnamed_addr constant [151 x i8] c"void TestOutIters<contiguous_iterator<const int *>>::operator()() [InIter = contiguous_iterator<const int *>, OutIter = random_access_iterator<int *>]\00", align 1
@__PRETTY_FUNCTION__._ZN12TestOutItersI19contiguous_iteratorIPKiEEclI22bidirectional_iteratorIPiEEEvv = private unnamed_addr constant [151 x i8] c"void TestOutIters<contiguous_iterator<const int *>>::operator()() [InIter = contiguous_iterator<const int *>, OutIter = bidirectional_iterator<int *>]\00", align 1
@__PRETTY_FUNCTION__._ZN12TestOutItersI19contiguous_iteratorIPKiEEclI16forward_iteratorIPiEEEvv = private unnamed_addr constant [145 x i8] c"void TestOutIters<contiguous_iterator<const int *>>::operator()() [InIter = contiguous_iterator<const int *>, OutIter = forward_iterator<int *>]\00", align 1
@__PRETTY_FUNCTION__._ZN12TestOutItersI19contiguous_iteratorIPKiEEclI20cpp17_input_iteratorIPiS7_EEEvv = private unnamed_addr constant [149 x i8] c"void TestOutIters<contiguous_iterator<const int *>>::operator()() [InIter = contiguous_iterator<const int *>, OutIter = cpp17_input_iterator<int *>]\00", align 1
@__PRETTY_FUNCTION__._ZN12TestOutItersI19contiguous_iteratorIPKiEEclI21cpp17_output_iteratorIPiEEEvv = private unnamed_addr constant [150 x i8] c"void TestOutIters<contiguous_iterator<const int *>>::operator()() [InIter = contiguous_iterator<const int *>, OutIter = cpp17_output_iterator<int *>]\00", align 1
@__PRETTY_FUNCTION__._ZN12TestOutItersI22random_access_iteratorIPKiEEclIPiEEvv = private unnamed_addr constant [133 x i8] c"void TestOutIters<random_access_iterator<const int *>>::operator()() [InIter = random_access_iterator<const int *>, OutIter = int *]\00", align 1
@__PRETTY_FUNCTION__._ZN12TestOutItersI22random_access_iteratorIPKiEEclI19contiguous_iteratorIPiEEEvv = private unnamed_addr constant [154 x i8] c"void TestOutIters<random_access_iterator<const int *>>::operator()() [InIter = random_access_iterator<const int *>, OutIter = contiguous_iterator<int *>]\00", align 1
@__PRETTY_FUNCTION__._ZN12TestOutItersI22random_access_iteratorIPKiEEclIS0_IPiEEEvv = private unnamed_addr constant [157 x i8] c"void TestOutIters<random_access_iterator<const int *>>::operator()() [InIter = random_access_iterator<const int *>, OutIter = random_access_iterator<int *>]\00", align 1
@__PRETTY_FUNCTION__._ZN12TestOutItersI22random_access_iteratorIPKiEEclI22bidirectional_iteratorIPiEEEvv = private unnamed_addr constant [157 x i8] c"void TestOutIters<random_access_iterator<const int *>>::operator()() [InIter = random_access_iterator<const int *>, OutIter = bidirectional_iterator<int *>]\00", align 1
@__PRETTY_FUNCTION__._ZN12TestOutItersI22random_access_iteratorIPKiEEclI16forward_iteratorIPiEEEvv = private unnamed_addr constant [151 x i8] c"void TestOutIters<random_access_iterator<const int *>>::operator()() [InIter = random_access_iterator<const int *>, OutIter = forward_iterator<int *>]\00", align 1
@__PRETTY_FUNCTION__._ZN12TestOutItersI22random_access_iteratorIPKiEEclI20cpp17_input_iteratorIPiS7_EEEvv = private unnamed_addr constant [155 x i8] c"void TestOutIters<random_access_iterator<const int *>>::operator()() [InIter = random_access_iterator<const int *>, OutIter = cpp17_input_iterator<int *>]\00", align 1
@__PRETTY_FUNCTION__._ZN12TestOutItersI22random_access_iteratorIPKiEEclI21cpp17_output_iteratorIPiEEEvv = private unnamed_addr constant [156 x i8] c"void TestOutIters<random_access_iterator<const int *>>::operator()() [InIter = random_access_iterator<const int *>, OutIter = cpp17_output_iterator<int *>]\00", align 1
@__PRETTY_FUNCTION__._ZN12TestOutItersI22bidirectional_iteratorIPKiEEclIPiEEvv = private unnamed_addr constant [133 x i8] c"void TestOutIters<bidirectional_iterator<const int *>>::operator()() [InIter = bidirectional_iterator<const int *>, OutIter = int *]\00", align 1
@__PRETTY_FUNCTION__._ZN12TestOutItersI22bidirectional_iteratorIPKiEEclI19contiguous_iteratorIPiEEEvv = private unnamed_addr constant [154 x i8] c"void TestOutIters<bidirectional_iterator<const int *>>::operator()() [InIter = bidirectional_iterator<const int *>, OutIter = contiguous_iterator<int *>]\00", align 1
@__PRETTY_FUNCTION__._ZN12TestOutItersI22bidirectional_iteratorIPKiEEclI22random_access_iteratorIPiEEEvv = private unnamed_addr constant [157 x i8] c"void TestOutIters<bidirectional_iterator<const int *>>::operator()() [InIter = bidirectional_iterator<const int *>, OutIter = random_access_iterator<int *>]\00", align 1
@__PRETTY_FUNCTION__._ZN12TestOutItersI22bidirectional_iteratorIPKiEEclIS0_IPiEEEvv = private unnamed_addr constant [157 x i8] c"void TestOutIters<bidirectional_iterator<const int *>>::operator()() [InIter = bidirectional_iterator<const int *>, OutIter = bidirectional_iterator<int *>]\00", align 1
@__PRETTY_FUNCTION__._ZN12TestOutItersI22bidirectional_iteratorIPKiEEclI16forward_iteratorIPiEEEvv = private unnamed_addr constant [151 x i8] c"void TestOutIters<bidirectional_iterator<const int *>>::operator()() [InIter = bidirectional_iterator<const int *>, OutIter = forward_iterator<int *>]\00", align 1
@__PRETTY_FUNCTION__._ZN12TestOutItersI22bidirectional_iteratorIPKiEEclI20cpp17_input_iteratorIPiS7_EEEvv = private unnamed_addr constant [155 x i8] c"void TestOutIters<bidirectional_iterator<const int *>>::operator()() [InIter = bidirectional_iterator<const int *>, OutIter = cpp17_input_iterator<int *>]\00", align 1
@__PRETTY_FUNCTION__._ZN12TestOutItersI22bidirectional_iteratorIPKiEEclI21cpp17_output_iteratorIPiEEEvv = private unnamed_addr constant [156 x i8] c"void TestOutIters<bidirectional_iterator<const int *>>::operator()() [InIter = bidirectional_iterator<const int *>, OutIter = cpp17_output_iterator<int *>]\00", align 1
@__PRETTY_FUNCTION__._ZN12TestOutItersI16forward_iteratorIPKiEEclIPiEEvv = private unnamed_addr constant [121 x i8] c"void TestOutIters<forward_iterator<const int *>>::operator()() [InIter = forward_iterator<const int *>, OutIter = int *]\00", align 1
@__PRETTY_FUNCTION__._ZN12TestOutItersI16forward_iteratorIPKiEEclI19contiguous_iteratorIPiEEEvv = private unnamed_addr constant [142 x i8] c"void TestOutIters<forward_iterator<const int *>>::operator()() [InIter = forward_iterator<const int *>, OutIter = contiguous_iterator<int *>]\00", align 1
@__PRETTY_FUNCTION__._ZN12TestOutItersI16forward_iteratorIPKiEEclI22random_access_iteratorIPiEEEvv = private unnamed_addr constant [145 x i8] c"void TestOutIters<forward_iterator<const int *>>::operator()() [InIter = forward_iterator<const int *>, OutIter = random_access_iterator<int *>]\00", align 1
@__PRETTY_FUNCTION__._ZN12TestOutItersI16forward_iteratorIPKiEEclI22bidirectional_iteratorIPiEEEvv = private unnamed_addr constant [145 x i8] c"void TestOutIters<forward_iterator<const int *>>::operator()() [InIter = forward_iterator<const int *>, OutIter = bidirectional_iterator<int *>]\00", align 1
@__PRETTY_FUNCTION__._ZN12TestOutItersI16forward_iteratorIPKiEEclIS0_IPiEEEvv = private unnamed_addr constant [139 x i8] c"void TestOutIters<forward_iterator<const int *>>::operator()() [InIter = forward_iterator<const int *>, OutIter = forward_iterator<int *>]\00", align 1
@__PRETTY_FUNCTION__._ZN12TestOutItersI16forward_iteratorIPKiEEclI20cpp17_input_iteratorIPiS7_EEEvv = private unnamed_addr constant [143 x i8] c"void TestOutIters<forward_iterator<const int *>>::operator()() [InIter = forward_iterator<const int *>, OutIter = cpp17_input_iterator<int *>]\00", align 1
@__PRETTY_FUNCTION__._ZN12TestOutItersI16forward_iteratorIPKiEEclI21cpp17_output_iteratorIPiEEEvv = private unnamed_addr constant [144 x i8] c"void TestOutIters<forward_iterator<const int *>>::operator()() [InIter = forward_iterator<const int *>, OutIter = cpp17_output_iterator<int *>]\00", align 1
@__PRETTY_FUNCTION__._ZN12TestOutItersI20cpp17_input_iteratorIPKiS2_EEclIPiEEvv = private unnamed_addr constant [129 x i8] c"void TestOutIters<cpp17_input_iterator<const int *>>::operator()() [InIter = cpp17_input_iterator<const int *>, OutIter = int *]\00", align 1
@__PRETTY_FUNCTION__._ZN12TestOutItersI20cpp17_input_iteratorIPKiS2_EEclI19contiguous_iteratorIPiEEEvv = private unnamed_addr constant [150 x i8] c"void TestOutIters<cpp17_input_iterator<const int *>>::operator()() [InIter = cpp17_input_iterator<const int *>, OutIter = contiguous_iterator<int *>]\00", align 1
@__PRETTY_FUNCTION__._ZN12TestOutItersI20cpp17_input_iteratorIPKiS2_EEclI22random_access_iteratorIPiEEEvv = private unnamed_addr constant [153 x i8] c"void TestOutIters<cpp17_input_iterator<const int *>>::operator()() [InIter = cpp17_input_iterator<const int *>, OutIter = random_access_iterator<int *>]\00", align 1
@__PRETTY_FUNCTION__._ZN12TestOutItersI20cpp17_input_iteratorIPKiS2_EEclI22bidirectional_iteratorIPiEEEvv = private unnamed_addr constant [153 x i8] c"void TestOutIters<cpp17_input_iterator<const int *>>::operator()() [InIter = cpp17_input_iterator<const int *>, OutIter = bidirectional_iterator<int *>]\00", align 1
@__PRETTY_FUNCTION__._ZN12TestOutItersI20cpp17_input_iteratorIPKiS2_EEclI16forward_iteratorIPiEEEvv = private unnamed_addr constant [147 x i8] c"void TestOutIters<cpp17_input_iterator<const int *>>::operator()() [InIter = cpp17_input_iterator<const int *>, OutIter = forward_iterator<int *>]\00", align 1
@__PRETTY_FUNCTION__._ZN12TestOutItersI20cpp17_input_iteratorIPKiS2_EEclIS0_IPiS6_EEEvv = private unnamed_addr constant [151 x i8] c"void TestOutIters<cpp17_input_iterator<const int *>>::operator()() [InIter = cpp17_input_iterator<const int *>, OutIter = cpp17_input_iterator<int *>]\00", align 1
@__PRETTY_FUNCTION__._ZN12TestOutItersI20cpp17_input_iteratorIPKiS2_EEclI21cpp17_output_iteratorIPiEEEvv = private unnamed_addr constant [152 x i8] c"void TestOutIters<cpp17_input_iterator<const int *>>::operator()() [InIter = cpp17_input_iterator<const int *>, OutIter = cpp17_output_iterator<int *>]\00", align 1

; Function Attrs: mustprogress norecurse uwtable
define dso_local noundef i32 @main(i32 noundef %0, ptr noundef readnone captures(none) %1) local_unnamed_addr #0 {
  tail call void @_ZN5types8for_eachIJPi19contiguous_iteratorIS1_E22random_access_iteratorIS1_E22bidirectional_iteratorIS1_E16forward_iteratorIS1_E20cpp17_input_iteratorIS1_S1_E21cpp17_output_iteratorIS1_EE12TestOutItersIPKiEEEvNS_9type_listIJDpT_EEET0_()
  tail call void @_ZN5types8for_eachIJPi19contiguous_iteratorIS1_E22random_access_iteratorIS1_E22bidirectional_iteratorIS1_E16forward_iteratorIS1_E20cpp17_input_iteratorIS1_S1_E21cpp17_output_iteratorIS1_EE12TestOutItersIS2_IPKiEEEEvNS_9type_listIJDpT_EEET0_()
  tail call void @_ZN5types8for_eachIJPi19contiguous_iteratorIS1_E22random_access_iteratorIS1_E22bidirectional_iteratorIS1_E16forward_iteratorIS1_E20cpp17_input_iteratorIS1_S1_E21cpp17_output_iteratorIS1_EE12TestOutItersIS4_IPKiEEEEvNS_9type_listIJDpT_EEET0_()
  tail call void @_ZN5types8for_eachIJPi19contiguous_iteratorIS1_E22random_access_iteratorIS1_E22bidirectional_iteratorIS1_E16forward_iteratorIS1_E20cpp17_input_iteratorIS1_S1_E21cpp17_output_iteratorIS1_EE12TestOutItersIS6_IPKiEEEEvNS_9type_listIJDpT_EEET0_()
  tail call void @_ZN5types8for_eachIJPi19contiguous_iteratorIS1_E22random_access_iteratorIS1_E22bidirectional_iteratorIS1_E16forward_iteratorIS1_E20cpp17_input_iteratorIS1_S1_E21cpp17_output_iteratorIS1_EE12TestOutItersIS8_IPKiEEEEvNS_9type_listIJDpT_EEET0_()
  tail call void @_ZN5types8for_eachIJPi19contiguous_iteratorIS1_E22random_access_iteratorIS1_E22bidirectional_iteratorIS1_E16forward_iteratorIS1_E20cpp17_input_iteratorIS1_S1_E21cpp17_output_iteratorIS1_EE12TestOutItersISA_IPKiSG_EEEEvNS_9type_listIJDpT_EEET0_()
  ret i32 0
}

; Function Attrs: mustprogress uwtable
define linkonce_odr dso_local void @_ZN5types8for_eachIJPi19contiguous_iteratorIS1_E22random_access_iteratorIS1_E22bidirectional_iteratorIS1_E16forward_iteratorIS1_E20cpp17_input_iteratorIS1_S1_E21cpp17_output_iteratorIS1_EE12TestOutItersIPKiEEEvNS_9type_listIJDpT_EEET0_() local_unnamed_addr #1 comdat {
  %1 = alloca [1000 x i32], align 16
  %2 = alloca [1000 x i32], align 16
  %3 = alloca [1000 x i32], align 16
  %4 = alloca [1000 x i32], align 16
  %5 = alloca [1000 x i32], align 16
  %6 = alloca [1000 x i32], align 16
  %7 = alloca [1000 x i32], align 16
  %8 = alloca [1000 x i32], align 16
  %9 = alloca [1000 x i32], align 16
  %10 = alloca [1000 x i32], align 16
  %11 = alloca [1000 x i32], align 16
  %12 = alloca [1000 x i32], align 16
  %13 = alloca [1000 x i32], align 16
  %14 = alloca [1000 x i32], align 16
  call void @llvm.lifetime.start.p0(ptr nonnull %13) #5
  call void @llvm.memset.p0.i64(ptr noundef nonnull align 16 dereferenceable(4000) %13, i8 0, i64 4000, i1 false)
  br label %15

15:                                               ; preds = %22, %0
  %16 = phi i64 [ 0, %0 ], [ %38, %22 ]
  %17 = phi <4 x i32> [ <i32 0, i32 1, i32 2, i32 3>, %0 ], [ %39, %22 ]
  %18 = add <4 x i32> %17, splat (i32 4)
  %19 = getelementptr inbounds nuw i32, ptr %13, i64 %16
  %20 = getelementptr inbounds nuw i8, ptr %19, i64 16
  store <4 x i32> %17, ptr %19, align 16, !tbaa !5
  store <4 x i32> %18, ptr %20, align 16, !tbaa !5
  %21 = icmp eq i64 %16, 992
  br i1 %21, label %40, label %22, !llvm.loop !9

22:                                               ; preds = %15
  %23 = add <4 x i32> %17, splat (i32 8)
  %24 = add <4 x i32> %17, splat (i32 12)
  %25 = getelementptr inbounds nuw i32, ptr %13, i64 %16
  %26 = getelementptr inbounds nuw i8, ptr %25, i64 32
  %27 = getelementptr inbounds nuw i8, ptr %25, i64 48
  store <4 x i32> %23, ptr %26, align 16, !tbaa !5
  store <4 x i32> %24, ptr %27, align 16, !tbaa !5
  %28 = add <4 x i32> %17, splat (i32 16)
  %29 = add <4 x i32> %17, splat (i32 20)
  %30 = getelementptr inbounds nuw i32, ptr %13, i64 %16
  %31 = getelementptr inbounds nuw i8, ptr %30, i64 64
  %32 = getelementptr inbounds nuw i8, ptr %30, i64 80
  store <4 x i32> %28, ptr %31, align 16, !tbaa !5
  store <4 x i32> %29, ptr %32, align 16, !tbaa !5
  %33 = add <4 x i32> %17, splat (i32 24)
  %34 = add <4 x i32> %17, splat (i32 28)
  %35 = getelementptr inbounds nuw i32, ptr %13, i64 %16
  %36 = getelementptr inbounds nuw i8, ptr %35, i64 96
  %37 = getelementptr inbounds nuw i8, ptr %35, i64 112
  store <4 x i32> %33, ptr %36, align 16, !tbaa !5
  store <4 x i32> %34, ptr %37, align 16, !tbaa !5
  %38 = add nuw nsw i64 %16, 32
  %39 = add <4 x i32> %17, splat (i32 32)
  br label %15

40:                                               ; preds = %15
  call void @llvm.lifetime.start.p0(ptr nonnull %14) #5
  call void @llvm.memset.p0.i64(ptr noundef nonnull align 16 dereferenceable(4000) %14, i8 0, i64 4000, i1 false)
  br label %41

41:                                               ; preds = %61, %40
  %42 = phi i64 [ 0, %40 ], [ %62, %61 ]
  %43 = phi i64 [ 0, %40 ], [ %63, %61 ]
  %44 = getelementptr inbounds nuw i8, ptr %13, i64 %43
  %45 = load i32, ptr %44, align 8, !tbaa !5
  %46 = srem i32 %45, 3
  %47 = icmp eq i32 %46, 0
  br i1 %47, label %48, label %51

48:                                               ; preds = %41
  %49 = getelementptr inbounds nuw i8, ptr %14, i64 %42
  store i32 %45, ptr %49, align 4, !tbaa !5
  %50 = add nuw nsw i64 %42, 4
  br label %51

51:                                               ; preds = %48, %41
  %52 = phi i64 [ %50, %48 ], [ %42, %41 ]
  %53 = getelementptr inbounds nuw i8, ptr %13, i64 %43
  %54 = getelementptr inbounds nuw i8, ptr %53, i64 4
  %55 = load i32, ptr %54, align 4, !tbaa !5
  %56 = srem i32 %55, 3
  %57 = icmp eq i32 %56, 0
  br i1 %57, label %58, label %61

58:                                               ; preds = %51
  %59 = getelementptr inbounds nuw i8, ptr %14, i64 %52
  store i32 %55, ptr %59, align 4, !tbaa !5
  %60 = add nuw nsw i64 %52, 4
  br label %61

61:                                               ; preds = %58, %51
  %62 = phi i64 [ %60, %58 ], [ %52, %51 ]
  %63 = add nuw nsw i64 %43, 8
  %64 = icmp eq i64 %63, 4000
  br i1 %64, label %65, label %41, !llvm.loop !13

65:                                               ; preds = %61
  %66 = icmp eq i64 %62, 1336
  br i1 %66, label %67, label %80

67:                                               ; preds = %65, %67
  %68 = phi i64 [ %74, %67 ], [ 0, %65 ]
  %69 = getelementptr inbounds nuw i32, ptr %14, i64 %68
  %70 = load <4 x i32>, ptr %69, align 16, !tbaa !5
  %71 = freeze <4 x i32> %70
  %72 = srem <4 x i32> %71, splat (i32 3)
  %73 = icmp ne <4 x i32> %72, zeroinitializer
  %74 = add nuw i64 %68, 4
  %75 = bitcast <4 x i1> %73 to i4
  %76 = icmp ne i4 %75, 0
  %77 = icmp eq i64 %74, 332
  %78 = or i1 %76, %77
  br i1 %78, label %79, label %67, !llvm.loop !14

79:                                               ; preds = %67
  br i1 %76, label %92, label %87

80:                                               ; preds = %65
  tail call void @__assert_fail(ptr noundef nonnull @.str, ptr noundef nonnull @.str.1, i32 noundef 39, ptr noundef nonnull @__PRETTY_FUNCTION__._ZN12TestOutItersIPKiEclIPiEEvv) #6
  unreachable

81:                                               ; preds = %87
  %82 = getelementptr inbounds nuw i8, ptr %14, i64 1332
  %83 = load i32, ptr %82, align 4, !tbaa !5
  %84 = srem i32 %83, 3
  %85 = icmp eq i32 %84, 0
  br i1 %85, label %86, label %92

86:                                               ; preds = %81
  call void @llvm.lifetime.end.p0(ptr nonnull %14) #5
  call void @llvm.lifetime.end.p0(ptr nonnull %13) #5
  call void @llvm.lifetime.start.p0(ptr nonnull %11) #5
  call void @llvm.memset.p0.i64(ptr noundef nonnull align 16 dereferenceable(4000) %11, i8 0, i64 4000, i1 false)
  br label %93

87:                                               ; preds = %79
  %88 = getelementptr inbounds nuw i8, ptr %14, i64 1328
  %89 = load i32, ptr %88, align 16, !tbaa !5
  %90 = srem i32 %89, 3
  %91 = icmp eq i32 %90, 0
  br i1 %91, label %81, label %92

92:                                               ; preds = %87, %81, %79
  tail call void @__assert_fail(ptr noundef nonnull @.str.2, ptr noundef nonnull @.str.1, i32 noundef 41, ptr noundef nonnull @__PRETTY_FUNCTION__._ZN12TestOutItersIPKiEclIPiEEvv) #6
  unreachable

93:                                               ; preds = %100, %86
  %94 = phi i64 [ 0, %86 ], [ %116, %100 ]
  %95 = phi <4 x i32> [ <i32 0, i32 1, i32 2, i32 3>, %86 ], [ %117, %100 ]
  %96 = add <4 x i32> %95, splat (i32 4)
  %97 = getelementptr inbounds nuw i32, ptr %11, i64 %94
  %98 = getelementptr inbounds nuw i8, ptr %97, i64 16
  store <4 x i32> %95, ptr %97, align 16, !tbaa !5
  store <4 x i32> %96, ptr %98, align 16, !tbaa !5
  %99 = icmp eq i64 %94, 992
  br i1 %99, label %118, label %100, !llvm.loop !15

100:                                              ; preds = %93
  %101 = add <4 x i32> %95, splat (i32 8)
  %102 = add <4 x i32> %95, splat (i32 12)
  %103 = getelementptr inbounds nuw i32, ptr %11, i64 %94
  %104 = getelementptr inbounds nuw i8, ptr %103, i64 32
  %105 = getelementptr inbounds nuw i8, ptr %103, i64 48
  store <4 x i32> %101, ptr %104, align 16, !tbaa !5
  store <4 x i32> %102, ptr %105, align 16, !tbaa !5
  %106 = add <4 x i32> %95, splat (i32 16)
  %107 = add <4 x i32> %95, splat (i32 20)
  %108 = getelementptr inbounds nuw i32, ptr %11, i64 %94
  %109 = getelementptr inbounds nuw i8, ptr %108, i64 64
  %110 = getelementptr inbounds nuw i8, ptr %108, i64 80
  store <4 x i32> %106, ptr %109, align 16, !tbaa !5
  store <4 x i32> %107, ptr %110, align 16, !tbaa !5
  %111 = add <4 x i32> %95, splat (i32 24)
  %112 = add <4 x i32> %95, splat (i32 28)
  %113 = getelementptr inbounds nuw i32, ptr %11, i64 %94
  %114 = getelementptr inbounds nuw i8, ptr %113, i64 96
  %115 = getelementptr inbounds nuw i8, ptr %113, i64 112
  store <4 x i32> %111, ptr %114, align 16, !tbaa !5
  store <4 x i32> %112, ptr %115, align 16, !tbaa !5
  %116 = add nuw nsw i64 %94, 32
  %117 = add <4 x i32> %95, splat (i32 32)
  br label %93

118:                                              ; preds = %93
  call void @llvm.lifetime.start.p0(ptr nonnull %12) #5
  call void @llvm.memset.p0.i64(ptr noundef nonnull align 16 dereferenceable(4000) %12, i8 0, i64 4000, i1 false)
  br label %119

119:                                              ; preds = %139, %118
  %120 = phi i64 [ 0, %118 ], [ %140, %139 ]
  %121 = phi i64 [ 0, %118 ], [ %141, %139 ]
  %122 = getelementptr inbounds nuw i8, ptr %11, i64 %121
  %123 = load i32, ptr %122, align 8, !tbaa !5, !noalias !16
  %124 = srem i32 %123, 3
  %125 = icmp eq i32 %124, 0
  br i1 %125, label %126, label %129

126:                                              ; preds = %119
  %127 = getelementptr inbounds nuw i8, ptr %12, i64 %120
  store i32 %123, ptr %127, align 4, !tbaa !5, !noalias !16
  %128 = add nuw nsw i64 %120, 4
  br label %129

129:                                              ; preds = %126, %119
  %130 = phi i64 [ %128, %126 ], [ %120, %119 ]
  %131 = getelementptr inbounds nuw i8, ptr %11, i64 %121
  %132 = getelementptr inbounds nuw i8, ptr %131, i64 4
  %133 = load i32, ptr %132, align 4, !tbaa !5, !noalias !16
  %134 = srem i32 %133, 3
  %135 = icmp eq i32 %134, 0
  br i1 %135, label %136, label %139

136:                                              ; preds = %129
  %137 = getelementptr inbounds nuw i8, ptr %12, i64 %130
  store i32 %133, ptr %137, align 4, !tbaa !5, !noalias !16
  %138 = add nuw nsw i64 %130, 4
  br label %139

139:                                              ; preds = %136, %129
  %140 = phi i64 [ %138, %136 ], [ %130, %129 ]
  %141 = add nuw nsw i64 %121, 8
  %142 = icmp eq i64 %141, 4000
  br i1 %142, label %143, label %119, !llvm.loop !19

143:                                              ; preds = %139
  %144 = icmp eq i64 %140, 1336
  br i1 %144, label %145, label %158

145:                                              ; preds = %143, %145
  %146 = phi i64 [ %152, %145 ], [ 0, %143 ]
  %147 = getelementptr inbounds nuw i32, ptr %12, i64 %146
  %148 = load <4 x i32>, ptr %147, align 16, !tbaa !5
  %149 = freeze <4 x i32> %148
  %150 = srem <4 x i32> %149, splat (i32 3)
  %151 = icmp ne <4 x i32> %150, zeroinitializer
  %152 = add nuw i64 %146, 4
  %153 = bitcast <4 x i1> %151 to i4
  %154 = icmp ne i4 %153, 0
  %155 = icmp eq i64 %152, 332
  %156 = or i1 %154, %155
  br i1 %156, label %157, label %145, !llvm.loop !20

157:                                              ; preds = %145
  br i1 %154, label %170, label %165

158:                                              ; preds = %143
  tail call void @__assert_fail(ptr noundef nonnull @.str, ptr noundef nonnull @.str.1, i32 noundef 39, ptr noundef nonnull @__PRETTY_FUNCTION__._ZN12TestOutItersIPKiEclI19contiguous_iteratorIPiEEEvv) #6
  unreachable

159:                                              ; preds = %165
  %160 = getelementptr inbounds nuw i8, ptr %12, i64 1332
  %161 = load i32, ptr %160, align 4, !tbaa !5
  %162 = srem i32 %161, 3
  %163 = icmp eq i32 %162, 0
  br i1 %163, label %164, label %170

164:                                              ; preds = %159
  call void @llvm.lifetime.end.p0(ptr nonnull %12) #5
  call void @llvm.lifetime.end.p0(ptr nonnull %11) #5
  call void @llvm.lifetime.start.p0(ptr nonnull %9) #5
  call void @llvm.memset.p0.i64(ptr noundef nonnull align 16 dereferenceable(4000) %9, i8 0, i64 4000, i1 false)
  br label %171

165:                                              ; preds = %157
  %166 = getelementptr inbounds nuw i8, ptr %12, i64 1328
  %167 = load i32, ptr %166, align 16, !tbaa !5
  %168 = srem i32 %167, 3
  %169 = icmp eq i32 %168, 0
  br i1 %169, label %159, label %170

170:                                              ; preds = %165, %159, %157
  tail call void @__assert_fail(ptr noundef nonnull @.str.2, ptr noundef nonnull @.str.1, i32 noundef 41, ptr noundef nonnull @__PRETTY_FUNCTION__._ZN12TestOutItersIPKiEclI19contiguous_iteratorIPiEEEvv) #6
  unreachable

171:                                              ; preds = %178, %164
  %172 = phi i64 [ 0, %164 ], [ %194, %178 ]
  %173 = phi <4 x i32> [ <i32 0, i32 1, i32 2, i32 3>, %164 ], [ %195, %178 ]
  %174 = add <4 x i32> %173, splat (i32 4)
  %175 = getelementptr inbounds nuw i32, ptr %9, i64 %172
  %176 = getelementptr inbounds nuw i8, ptr %175, i64 16
  store <4 x i32> %173, ptr %175, align 16, !tbaa !5
  store <4 x i32> %174, ptr %176, align 16, !tbaa !5
  %177 = icmp eq i64 %172, 992
  br i1 %177, label %196, label %178, !llvm.loop !21

178:                                              ; preds = %171
  %179 = add <4 x i32> %173, splat (i32 8)
  %180 = add <4 x i32> %173, splat (i32 12)
  %181 = getelementptr inbounds nuw i32, ptr %9, i64 %172
  %182 = getelementptr inbounds nuw i8, ptr %181, i64 32
  %183 = getelementptr inbounds nuw i8, ptr %181, i64 48
  store <4 x i32> %179, ptr %182, align 16, !tbaa !5
  store <4 x i32> %180, ptr %183, align 16, !tbaa !5
  %184 = add <4 x i32> %173, splat (i32 16)
  %185 = add <4 x i32> %173, splat (i32 20)
  %186 = getelementptr inbounds nuw i32, ptr %9, i64 %172
  %187 = getelementptr inbounds nuw i8, ptr %186, i64 64
  %188 = getelementptr inbounds nuw i8, ptr %186, i64 80
  store <4 x i32> %184, ptr %187, align 16, !tbaa !5
  store <4 x i32> %185, ptr %188, align 16, !tbaa !5
  %189 = add <4 x i32> %173, splat (i32 24)
  %190 = add <4 x i32> %173, splat (i32 28)
  %191 = getelementptr inbounds nuw i32, ptr %9, i64 %172
  %192 = getelementptr inbounds nuw i8, ptr %191, i64 96
  %193 = getelementptr inbounds nuw i8, ptr %191, i64 112
  store <4 x i32> %189, ptr %192, align 16, !tbaa !5
  store <4 x i32> %190, ptr %193, align 16, !tbaa !5
  %194 = add nuw nsw i64 %172, 32
  %195 = add <4 x i32> %173, splat (i32 32)
  br label %171

196:                                              ; preds = %171
  call void @llvm.lifetime.start.p0(ptr nonnull %10) #5
  call void @llvm.memset.p0.i64(ptr noundef nonnull align 16 dereferenceable(4000) %10, i8 0, i64 4000, i1 false)
  br label %197

197:                                              ; preds = %217, %196
  %198 = phi i64 [ 0, %196 ], [ %218, %217 ]
  %199 = phi i64 [ 0, %196 ], [ %219, %217 ]
  %200 = getelementptr inbounds nuw i8, ptr %9, i64 %199
  %201 = load i32, ptr %200, align 8, !tbaa !5, !noalias !22
  %202 = srem i32 %201, 3
  %203 = icmp eq i32 %202, 0
  br i1 %203, label %204, label %207

204:                                              ; preds = %197
  %205 = getelementptr inbounds nuw i8, ptr %10, i64 %198
  store i32 %201, ptr %205, align 4, !tbaa !5, !noalias !22
  %206 = add nuw nsw i64 %198, 4
  br label %207

207:                                              ; preds = %204, %197
  %208 = phi i64 [ %206, %204 ], [ %198, %197 ]
  %209 = getelementptr inbounds nuw i8, ptr %9, i64 %199
  %210 = getelementptr inbounds nuw i8, ptr %209, i64 4
  %211 = load i32, ptr %210, align 4, !tbaa !5, !noalias !22
  %212 = srem i32 %211, 3
  %213 = icmp eq i32 %212, 0
  br i1 %213, label %214, label %217

214:                                              ; preds = %207
  %215 = getelementptr inbounds nuw i8, ptr %10, i64 %208
  store i32 %211, ptr %215, align 4, !tbaa !5, !noalias !22
  %216 = add nuw nsw i64 %208, 4
  br label %217

217:                                              ; preds = %214, %207
  %218 = phi i64 [ %216, %214 ], [ %208, %207 ]
  %219 = add nuw nsw i64 %199, 8
  %220 = icmp eq i64 %219, 4000
  br i1 %220, label %221, label %197, !llvm.loop !25

221:                                              ; preds = %217
  %222 = icmp eq i64 %218, 1336
  br i1 %222, label %223, label %236

223:                                              ; preds = %221, %223
  %224 = phi i64 [ %230, %223 ], [ 0, %221 ]
  %225 = getelementptr inbounds nuw i32, ptr %10, i64 %224
  %226 = load <4 x i32>, ptr %225, align 16, !tbaa !5
  %227 = freeze <4 x i32> %226
  %228 = srem <4 x i32> %227, splat (i32 3)
  %229 = icmp ne <4 x i32> %228, zeroinitializer
  %230 = add nuw i64 %224, 4
  %231 = bitcast <4 x i1> %229 to i4
  %232 = icmp ne i4 %231, 0
  %233 = icmp eq i64 %230, 332
  %234 = or i1 %232, %233
  br i1 %234, label %235, label %223, !llvm.loop !26

235:                                              ; preds = %223
  br i1 %232, label %248, label %243

236:                                              ; preds = %221
  tail call void @__assert_fail(ptr noundef nonnull @.str, ptr noundef nonnull @.str.1, i32 noundef 39, ptr noundef nonnull @__PRETTY_FUNCTION__._ZN12TestOutItersIPKiEclI22random_access_iteratorIPiEEEvv) #6
  unreachable

237:                                              ; preds = %243
  %238 = getelementptr inbounds nuw i8, ptr %10, i64 1332
  %239 = load i32, ptr %238, align 4, !tbaa !5
  %240 = srem i32 %239, 3
  %241 = icmp eq i32 %240, 0
  br i1 %241, label %242, label %248

242:                                              ; preds = %237
  call void @llvm.lifetime.end.p0(ptr nonnull %10) #5
  call void @llvm.lifetime.end.p0(ptr nonnull %9) #5
  call void @llvm.lifetime.start.p0(ptr nonnull %7) #5
  call void @llvm.memset.p0.i64(ptr noundef nonnull align 16 dereferenceable(4000) %7, i8 0, i64 4000, i1 false)
  br label %249

243:                                              ; preds = %235
  %244 = getelementptr inbounds nuw i8, ptr %10, i64 1328
  %245 = load i32, ptr %244, align 16, !tbaa !5
  %246 = srem i32 %245, 3
  %247 = icmp eq i32 %246, 0
  br i1 %247, label %237, label %248

248:                                              ; preds = %243, %237, %235
  tail call void @__assert_fail(ptr noundef nonnull @.str.2, ptr noundef nonnull @.str.1, i32 noundef 41, ptr noundef nonnull @__PRETTY_FUNCTION__._ZN12TestOutItersIPKiEclI22random_access_iteratorIPiEEEvv) #6
  unreachable

249:                                              ; preds = %256, %242
  %250 = phi i64 [ 0, %242 ], [ %272, %256 ]
  %251 = phi <4 x i32> [ <i32 0, i32 1, i32 2, i32 3>, %242 ], [ %273, %256 ]
  %252 = add <4 x i32> %251, splat (i32 4)
  %253 = getelementptr inbounds nuw i32, ptr %7, i64 %250
  %254 = getelementptr inbounds nuw i8, ptr %253, i64 16
  store <4 x i32> %251, ptr %253, align 16, !tbaa !5
  store <4 x i32> %252, ptr %254, align 16, !tbaa !5
  %255 = icmp eq i64 %250, 992
  br i1 %255, label %274, label %256, !llvm.loop !27

256:                                              ; preds = %249
  %257 = add <4 x i32> %251, splat (i32 8)
  %258 = add <4 x i32> %251, splat (i32 12)
  %259 = getelementptr inbounds nuw i32, ptr %7, i64 %250
  %260 = getelementptr inbounds nuw i8, ptr %259, i64 32
  %261 = getelementptr inbounds nuw i8, ptr %259, i64 48
  store <4 x i32> %257, ptr %260, align 16, !tbaa !5
  store <4 x i32> %258, ptr %261, align 16, !tbaa !5
  %262 = add <4 x i32> %251, splat (i32 16)
  %263 = add <4 x i32> %251, splat (i32 20)
  %264 = getelementptr inbounds nuw i32, ptr %7, i64 %250
  %265 = getelementptr inbounds nuw i8, ptr %264, i64 64
  %266 = getelementptr inbounds nuw i8, ptr %264, i64 80
  store <4 x i32> %262, ptr %265, align 16, !tbaa !5
  store <4 x i32> %263, ptr %266, align 16, !tbaa !5
  %267 = add <4 x i32> %251, splat (i32 24)
  %268 = add <4 x i32> %251, splat (i32 28)
  %269 = getelementptr inbounds nuw i32, ptr %7, i64 %250
  %270 = getelementptr inbounds nuw i8, ptr %269, i64 96
  %271 = getelementptr inbounds nuw i8, ptr %269, i64 112
  store <4 x i32> %267, ptr %270, align 16, !tbaa !5
  store <4 x i32> %268, ptr %271, align 16, !tbaa !5
  %272 = add nuw nsw i64 %250, 32
  %273 = add <4 x i32> %251, splat (i32 32)
  br label %249

274:                                              ; preds = %249
  call void @llvm.lifetime.start.p0(ptr nonnull %8) #5
  call void @llvm.memset.p0.i64(ptr noundef nonnull align 16 dereferenceable(4000) %8, i8 0, i64 4000, i1 false)
  br label %275

275:                                              ; preds = %295, %274
  %276 = phi i64 [ 0, %274 ], [ %296, %295 ]
  %277 = phi i64 [ 0, %274 ], [ %297, %295 ]
  %278 = getelementptr inbounds nuw i8, ptr %7, i64 %277
  %279 = load i32, ptr %278, align 8, !tbaa !5, !noalias !28
  %280 = srem i32 %279, 3
  %281 = icmp eq i32 %280, 0
  br i1 %281, label %282, label %285

282:                                              ; preds = %275
  %283 = getelementptr inbounds nuw i8, ptr %8, i64 %276
  store i32 %279, ptr %283, align 4, !tbaa !5, !noalias !28
  %284 = add nuw nsw i64 %276, 4
  br label %285

285:                                              ; preds = %282, %275
  %286 = phi i64 [ %284, %282 ], [ %276, %275 ]
  %287 = getelementptr inbounds nuw i8, ptr %7, i64 %277
  %288 = getelementptr inbounds nuw i8, ptr %287, i64 4
  %289 = load i32, ptr %288, align 4, !tbaa !5, !noalias !28
  %290 = srem i32 %289, 3
  %291 = icmp eq i32 %290, 0
  br i1 %291, label %292, label %295

292:                                              ; preds = %285
  %293 = getelementptr inbounds nuw i8, ptr %8, i64 %286
  store i32 %289, ptr %293, align 4, !tbaa !5, !noalias !28
  %294 = add nuw nsw i64 %286, 4
  br label %295

295:                                              ; preds = %292, %285
  %296 = phi i64 [ %294, %292 ], [ %286, %285 ]
  %297 = add nuw nsw i64 %277, 8
  %298 = icmp eq i64 %297, 4000
  br i1 %298, label %299, label %275, !llvm.loop !31

299:                                              ; preds = %295
  %300 = icmp eq i64 %296, 1336
  br i1 %300, label %301, label %314

301:                                              ; preds = %299, %301
  %302 = phi i64 [ %308, %301 ], [ 0, %299 ]
  %303 = getelementptr inbounds nuw i32, ptr %8, i64 %302
  %304 = load <4 x i32>, ptr %303, align 16, !tbaa !5
  %305 = freeze <4 x i32> %304
  %306 = srem <4 x i32> %305, splat (i32 3)
  %307 = icmp ne <4 x i32> %306, zeroinitializer
  %308 = add nuw i64 %302, 4
  %309 = bitcast <4 x i1> %307 to i4
  %310 = icmp ne i4 %309, 0
  %311 = icmp eq i64 %308, 332
  %312 = or i1 %310, %311
  br i1 %312, label %313, label %301, !llvm.loop !32

313:                                              ; preds = %301
  br i1 %310, label %326, label %321

314:                                              ; preds = %299
  tail call void @__assert_fail(ptr noundef nonnull @.str, ptr noundef nonnull @.str.1, i32 noundef 39, ptr noundef nonnull @__PRETTY_FUNCTION__._ZN12TestOutItersIPKiEclI22bidirectional_iteratorIPiEEEvv) #6
  unreachable

315:                                              ; preds = %321
  %316 = getelementptr inbounds nuw i8, ptr %8, i64 1332
  %317 = load i32, ptr %316, align 4, !tbaa !5
  %318 = srem i32 %317, 3
  %319 = icmp eq i32 %318, 0
  br i1 %319, label %320, label %326

320:                                              ; preds = %315
  call void @llvm.lifetime.end.p0(ptr nonnull %8) #5
  call void @llvm.lifetime.end.p0(ptr nonnull %7) #5
  call void @llvm.lifetime.start.p0(ptr nonnull %5) #5
  call void @llvm.memset.p0.i64(ptr noundef nonnull align 16 dereferenceable(4000) %5, i8 0, i64 4000, i1 false)
  br label %327

321:                                              ; preds = %313
  %322 = getelementptr inbounds nuw i8, ptr %8, i64 1328
  %323 = load i32, ptr %322, align 16, !tbaa !5
  %324 = srem i32 %323, 3
  %325 = icmp eq i32 %324, 0
  br i1 %325, label %315, label %326

326:                                              ; preds = %321, %315, %313
  tail call void @__assert_fail(ptr noundef nonnull @.str.2, ptr noundef nonnull @.str.1, i32 noundef 41, ptr noundef nonnull @__PRETTY_FUNCTION__._ZN12TestOutItersIPKiEclI22bidirectional_iteratorIPiEEEvv) #6
  unreachable

327:                                              ; preds = %334, %320
  %328 = phi i64 [ 0, %320 ], [ %350, %334 ]
  %329 = phi <4 x i32> [ <i32 0, i32 1, i32 2, i32 3>, %320 ], [ %351, %334 ]
  %330 = add <4 x i32> %329, splat (i32 4)
  %331 = getelementptr inbounds nuw i32, ptr %5, i64 %328
  %332 = getelementptr inbounds nuw i8, ptr %331, i64 16
  store <4 x i32> %329, ptr %331, align 16, !tbaa !5
  store <4 x i32> %330, ptr %332, align 16, !tbaa !5
  %333 = icmp eq i64 %328, 992
  br i1 %333, label %352, label %334, !llvm.loop !33

334:                                              ; preds = %327
  %335 = add <4 x i32> %329, splat (i32 8)
  %336 = add <4 x i32> %329, splat (i32 12)
  %337 = getelementptr inbounds nuw i32, ptr %5, i64 %328
  %338 = getelementptr inbounds nuw i8, ptr %337, i64 32
  %339 = getelementptr inbounds nuw i8, ptr %337, i64 48
  store <4 x i32> %335, ptr %338, align 16, !tbaa !5
  store <4 x i32> %336, ptr %339, align 16, !tbaa !5
  %340 = add <4 x i32> %329, splat (i32 16)
  %341 = add <4 x i32> %329, splat (i32 20)
  %342 = getelementptr inbounds nuw i32, ptr %5, i64 %328
  %343 = getelementptr inbounds nuw i8, ptr %342, i64 64
  %344 = getelementptr inbounds nuw i8, ptr %342, i64 80
  store <4 x i32> %340, ptr %343, align 16, !tbaa !5
  store <4 x i32> %341, ptr %344, align 16, !tbaa !5
  %345 = add <4 x i32> %329, splat (i32 24)
  %346 = add <4 x i32> %329, splat (i32 28)
  %347 = getelementptr inbounds nuw i32, ptr %5, i64 %328
  %348 = getelementptr inbounds nuw i8, ptr %347, i64 96
  %349 = getelementptr inbounds nuw i8, ptr %347, i64 112
  store <4 x i32> %345, ptr %348, align 16, !tbaa !5
  store <4 x i32> %346, ptr %349, align 16, !tbaa !5
  %350 = add nuw nsw i64 %328, 32
  %351 = add <4 x i32> %329, splat (i32 32)
  br label %327

352:                                              ; preds = %327
  call void @llvm.lifetime.start.p0(ptr nonnull %6) #5
  call void @llvm.memset.p0.i64(ptr noundef nonnull align 16 dereferenceable(4000) %6, i8 0, i64 4000, i1 false)
  br label %353

353:                                              ; preds = %373, %352
  %354 = phi i64 [ 0, %352 ], [ %374, %373 ]
  %355 = phi i64 [ 0, %352 ], [ %375, %373 ]
  %356 = getelementptr inbounds nuw i8, ptr %5, i64 %355
  %357 = load i32, ptr %356, align 8, !tbaa !5, !noalias !34
  %358 = srem i32 %357, 3
  %359 = icmp eq i32 %358, 0
  br i1 %359, label %360, label %363

360:                                              ; preds = %353
  %361 = getelementptr inbounds nuw i8, ptr %6, i64 %354
  store i32 %357, ptr %361, align 4, !tbaa !5, !noalias !34
  %362 = add nuw nsw i64 %354, 4
  br label %363

363:                                              ; preds = %360, %353
  %364 = phi i64 [ %362, %360 ], [ %354, %353 ]
  %365 = getelementptr inbounds nuw i8, ptr %5, i64 %355
  %366 = getelementptr inbounds nuw i8, ptr %365, i64 4
  %367 = load i32, ptr %366, align 4, !tbaa !5, !noalias !34
  %368 = srem i32 %367, 3
  %369 = icmp eq i32 %368, 0
  br i1 %369, label %370, label %373

370:                                              ; preds = %363
  %371 = getelementptr inbounds nuw i8, ptr %6, i64 %364
  store i32 %367, ptr %371, align 4, !tbaa !5, !noalias !34
  %372 = add nuw nsw i64 %364, 4
  br label %373

373:                                              ; preds = %370, %363
  %374 = phi i64 [ %372, %370 ], [ %364, %363 ]
  %375 = add nuw nsw i64 %355, 8
  %376 = icmp eq i64 %375, 4000
  br i1 %376, label %377, label %353, !llvm.loop !37

377:                                              ; preds = %373
  %378 = icmp eq i64 %374, 1336
  br i1 %378, label %379, label %392

379:                                              ; preds = %377, %379
  %380 = phi i64 [ %386, %379 ], [ 0, %377 ]
  %381 = getelementptr inbounds nuw i32, ptr %6, i64 %380
  %382 = load <4 x i32>, ptr %381, align 16, !tbaa !5
  %383 = freeze <4 x i32> %382
  %384 = srem <4 x i32> %383, splat (i32 3)
  %385 = icmp ne <4 x i32> %384, zeroinitializer
  %386 = add nuw i64 %380, 4
  %387 = bitcast <4 x i1> %385 to i4
  %388 = icmp ne i4 %387, 0
  %389 = icmp eq i64 %386, 332
  %390 = or i1 %388, %389
  br i1 %390, label %391, label %379, !llvm.loop !38

391:                                              ; preds = %379
  br i1 %388, label %404, label %399

392:                                              ; preds = %377
  tail call void @__assert_fail(ptr noundef nonnull @.str, ptr noundef nonnull @.str.1, i32 noundef 39, ptr noundef nonnull @__PRETTY_FUNCTION__._ZN12TestOutItersIPKiEclI16forward_iteratorIPiEEEvv) #6
  unreachable

393:                                              ; preds = %399
  %394 = getelementptr inbounds nuw i8, ptr %6, i64 1332
  %395 = load i32, ptr %394, align 4, !tbaa !5
  %396 = srem i32 %395, 3
  %397 = icmp eq i32 %396, 0
  br i1 %397, label %398, label %404

398:                                              ; preds = %393
  call void @llvm.lifetime.end.p0(ptr nonnull %6) #5
  call void @llvm.lifetime.end.p0(ptr nonnull %5) #5
  call void @llvm.lifetime.start.p0(ptr nonnull %3) #5
  call void @llvm.memset.p0.i64(ptr noundef nonnull align 16 dereferenceable(4000) %3, i8 0, i64 4000, i1 false)
  br label %405

399:                                              ; preds = %391
  %400 = getelementptr inbounds nuw i8, ptr %6, i64 1328
  %401 = load i32, ptr %400, align 16, !tbaa !5
  %402 = srem i32 %401, 3
  %403 = icmp eq i32 %402, 0
  br i1 %403, label %393, label %404

404:                                              ; preds = %399, %393, %391
  tail call void @__assert_fail(ptr noundef nonnull @.str.2, ptr noundef nonnull @.str.1, i32 noundef 41, ptr noundef nonnull @__PRETTY_FUNCTION__._ZN12TestOutItersIPKiEclI16forward_iteratorIPiEEEvv) #6
  unreachable

405:                                              ; preds = %412, %398
  %406 = phi i64 [ 0, %398 ], [ %428, %412 ]
  %407 = phi <4 x i32> [ <i32 0, i32 1, i32 2, i32 3>, %398 ], [ %429, %412 ]
  %408 = add <4 x i32> %407, splat (i32 4)
  %409 = getelementptr inbounds nuw i32, ptr %3, i64 %406
  %410 = getelementptr inbounds nuw i8, ptr %409, i64 16
  store <4 x i32> %407, ptr %409, align 16, !tbaa !5
  store <4 x i32> %408, ptr %410, align 16, !tbaa !5
  %411 = icmp eq i64 %406, 992
  br i1 %411, label %430, label %412, !llvm.loop !39

412:                                              ; preds = %405
  %413 = add <4 x i32> %407, splat (i32 8)
  %414 = add <4 x i32> %407, splat (i32 12)
  %415 = getelementptr inbounds nuw i32, ptr %3, i64 %406
  %416 = getelementptr inbounds nuw i8, ptr %415, i64 32
  %417 = getelementptr inbounds nuw i8, ptr %415, i64 48
  store <4 x i32> %413, ptr %416, align 16, !tbaa !5
  store <4 x i32> %414, ptr %417, align 16, !tbaa !5
  %418 = add <4 x i32> %407, splat (i32 16)
  %419 = add <4 x i32> %407, splat (i32 20)
  %420 = getelementptr inbounds nuw i32, ptr %3, i64 %406
  %421 = getelementptr inbounds nuw i8, ptr %420, i64 64
  %422 = getelementptr inbounds nuw i8, ptr %420, i64 80
  store <4 x i32> %418, ptr %421, align 16, !tbaa !5
  store <4 x i32> %419, ptr %422, align 16, !tbaa !5
  %423 = add <4 x i32> %407, splat (i32 24)
  %424 = add <4 x i32> %407, splat (i32 28)
  %425 = getelementptr inbounds nuw i32, ptr %3, i64 %406
  %426 = getelementptr inbounds nuw i8, ptr %425, i64 96
  %427 = getelementptr inbounds nuw i8, ptr %425, i64 112
  store <4 x i32> %423, ptr %426, align 16, !tbaa !5
  store <4 x i32> %424, ptr %427, align 16, !tbaa !5
  %428 = add nuw nsw i64 %406, 32
  %429 = add <4 x i32> %407, splat (i32 32)
  br label %405

430:                                              ; preds = %405
  call void @llvm.lifetime.start.p0(ptr nonnull %4) #5
  call void @llvm.memset.p0.i64(ptr noundef nonnull align 16 dereferenceable(4000) %4, i8 0, i64 4000, i1 false)
  br label %431

431:                                              ; preds = %451, %430
  %432 = phi i64 [ 0, %430 ], [ %452, %451 ]
  %433 = phi i64 [ 0, %430 ], [ %453, %451 ]
  %434 = getelementptr inbounds nuw i8, ptr %3, i64 %433
  %435 = load i32, ptr %434, align 8, !tbaa !5, !noalias !40
  %436 = srem i32 %435, 3
  %437 = icmp eq i32 %436, 0
  br i1 %437, label %438, label %441

438:                                              ; preds = %431
  %439 = getelementptr inbounds nuw i8, ptr %4, i64 %432
  store i32 %435, ptr %439, align 4, !tbaa !5, !noalias !40
  %440 = add nuw nsw i64 %432, 4
  br label %441

441:                                              ; preds = %438, %431
  %442 = phi i64 [ %440, %438 ], [ %432, %431 ]
  %443 = getelementptr inbounds nuw i8, ptr %3, i64 %433
  %444 = getelementptr inbounds nuw i8, ptr %443, i64 4
  %445 = load i32, ptr %444, align 4, !tbaa !5, !noalias !40
  %446 = srem i32 %445, 3
  %447 = icmp eq i32 %446, 0
  br i1 %447, label %448, label %451

448:                                              ; preds = %441
  %449 = getelementptr inbounds nuw i8, ptr %4, i64 %442
  store i32 %445, ptr %449, align 4, !tbaa !5, !noalias !40
  %450 = add nuw nsw i64 %442, 4
  br label %451

451:                                              ; preds = %448, %441
  %452 = phi i64 [ %450, %448 ], [ %442, %441 ]
  %453 = add nuw nsw i64 %433, 8
  %454 = icmp eq i64 %453, 4000
  br i1 %454, label %455, label %431, !llvm.loop !43

455:                                              ; preds = %451
  %456 = icmp eq i64 %452, 1336
  br i1 %456, label %457, label %470

457:                                              ; preds = %455, %457
  %458 = phi i64 [ %464, %457 ], [ 0, %455 ]
  %459 = getelementptr inbounds nuw i32, ptr %4, i64 %458
  %460 = load <4 x i32>, ptr %459, align 16, !tbaa !5
  %461 = freeze <4 x i32> %460
  %462 = srem <4 x i32> %461, splat (i32 3)
  %463 = icmp ne <4 x i32> %462, zeroinitializer
  %464 = add nuw i64 %458, 4
  %465 = bitcast <4 x i1> %463 to i4
  %466 = icmp ne i4 %465, 0
  %467 = icmp eq i64 %464, 332
  %468 = or i1 %466, %467
  br i1 %468, label %469, label %457, !llvm.loop !44

469:                                              ; preds = %457
  br i1 %466, label %482, label %477

470:                                              ; preds = %455
  tail call void @__assert_fail(ptr noundef nonnull @.str, ptr noundef nonnull @.str.1, i32 noundef 39, ptr noundef nonnull @__PRETTY_FUNCTION__._ZN12TestOutItersIPKiEclI20cpp17_input_iteratorIPiS5_EEEvv) #6
  unreachable

471:                                              ; preds = %477
  %472 = getelementptr inbounds nuw i8, ptr %4, i64 1332
  %473 = load i32, ptr %472, align 4, !tbaa !5
  %474 = srem i32 %473, 3
  %475 = icmp eq i32 %474, 0
  br i1 %475, label %476, label %482

476:                                              ; preds = %471
  call void @llvm.lifetime.end.p0(ptr nonnull %4) #5
  call void @llvm.lifetime.end.p0(ptr nonnull %3) #5
  call void @llvm.lifetime.start.p0(ptr nonnull %1) #5
  call void @llvm.memset.p0.i64(ptr noundef nonnull align 16 dereferenceable(4000) %1, i8 0, i64 4000, i1 false)
  br label %483

477:                                              ; preds = %469
  %478 = getelementptr inbounds nuw i8, ptr %4, i64 1328
  %479 = load i32, ptr %478, align 16, !tbaa !5
  %480 = srem i32 %479, 3
  %481 = icmp eq i32 %480, 0
  br i1 %481, label %471, label %482

482:                                              ; preds = %477, %471, %469
  tail call void @__assert_fail(ptr noundef nonnull @.str.2, ptr noundef nonnull @.str.1, i32 noundef 41, ptr noundef nonnull @__PRETTY_FUNCTION__._ZN12TestOutItersIPKiEclI20cpp17_input_iteratorIPiS5_EEEvv) #6
  unreachable

483:                                              ; preds = %490, %476
  %484 = phi i64 [ 0, %476 ], [ %506, %490 ]
  %485 = phi <4 x i32> [ <i32 0, i32 1, i32 2, i32 3>, %476 ], [ %507, %490 ]
  %486 = add <4 x i32> %485, splat (i32 4)
  %487 = getelementptr inbounds nuw i32, ptr %1, i64 %484
  %488 = getelementptr inbounds nuw i8, ptr %487, i64 16
  store <4 x i32> %485, ptr %487, align 16, !tbaa !5
  store <4 x i32> %486, ptr %488, align 16, !tbaa !5
  %489 = icmp eq i64 %484, 992
  br i1 %489, label %508, label %490, !llvm.loop !45

490:                                              ; preds = %483
  %491 = add <4 x i32> %485, splat (i32 8)
  %492 = add <4 x i32> %485, splat (i32 12)
  %493 = getelementptr inbounds nuw i32, ptr %1, i64 %484
  %494 = getelementptr inbounds nuw i8, ptr %493, i64 32
  %495 = getelementptr inbounds nuw i8, ptr %493, i64 48
  store <4 x i32> %491, ptr %494, align 16, !tbaa !5
  store <4 x i32> %492, ptr %495, align 16, !tbaa !5
  %496 = add <4 x i32> %485, splat (i32 16)
  %497 = add <4 x i32> %485, splat (i32 20)
  %498 = getelementptr inbounds nuw i32, ptr %1, i64 %484
  %499 = getelementptr inbounds nuw i8, ptr %498, i64 64
  %500 = getelementptr inbounds nuw i8, ptr %498, i64 80
  store <4 x i32> %496, ptr %499, align 16, !tbaa !5
  store <4 x i32> %497, ptr %500, align 16, !tbaa !5
  %501 = add <4 x i32> %485, splat (i32 24)
  %502 = add <4 x i32> %485, splat (i32 28)
  %503 = getelementptr inbounds nuw i32, ptr %1, i64 %484
  %504 = getelementptr inbounds nuw i8, ptr %503, i64 96
  %505 = getelementptr inbounds nuw i8, ptr %503, i64 112
  store <4 x i32> %501, ptr %504, align 16, !tbaa !5
  store <4 x i32> %502, ptr %505, align 16, !tbaa !5
  %506 = add nuw nsw i64 %484, 32
  %507 = add <4 x i32> %485, splat (i32 32)
  br label %483

508:                                              ; preds = %483
  call void @llvm.lifetime.start.p0(ptr nonnull %2) #5
  call void @llvm.memset.p0.i64(ptr noundef nonnull align 16 dereferenceable(4000) %2, i8 0, i64 4000, i1 false)
  br label %509

509:                                              ; preds = %529, %508
  %510 = phi i64 [ 0, %508 ], [ %530, %529 ]
  %511 = phi i64 [ 0, %508 ], [ %531, %529 ]
  %512 = getelementptr inbounds nuw i8, ptr %1, i64 %511
  %513 = load i32, ptr %512, align 8, !tbaa !5, !noalias !46
  %514 = srem i32 %513, 3
  %515 = icmp eq i32 %514, 0
  br i1 %515, label %516, label %519

516:                                              ; preds = %509
  %517 = getelementptr inbounds nuw i8, ptr %2, i64 %510
  store i32 %513, ptr %517, align 4, !tbaa !5, !noalias !46
  %518 = add nuw nsw i64 %510, 4
  br label %519

519:                                              ; preds = %516, %509
  %520 = phi i64 [ %518, %516 ], [ %510, %509 ]
  %521 = getelementptr inbounds nuw i8, ptr %1, i64 %511
  %522 = getelementptr inbounds nuw i8, ptr %521, i64 4
  %523 = load i32, ptr %522, align 4, !tbaa !5, !noalias !46
  %524 = srem i32 %523, 3
  %525 = icmp eq i32 %524, 0
  br i1 %525, label %526, label %529

526:                                              ; preds = %519
  %527 = getelementptr inbounds nuw i8, ptr %2, i64 %520
  store i32 %523, ptr %527, align 4, !tbaa !5, !noalias !46
  %528 = add nuw nsw i64 %520, 4
  br label %529

529:                                              ; preds = %526, %519
  %530 = phi i64 [ %528, %526 ], [ %520, %519 ]
  %531 = add nuw nsw i64 %511, 8
  %532 = icmp eq i64 %531, 4000
  br i1 %532, label %533, label %509, !llvm.loop !49

533:                                              ; preds = %529
  %534 = icmp eq i64 %530, 1336
  br i1 %534, label %535, label %548

535:                                              ; preds = %533, %535
  %536 = phi i64 [ %542, %535 ], [ 0, %533 ]
  %537 = getelementptr inbounds nuw i32, ptr %2, i64 %536
  %538 = load <4 x i32>, ptr %537, align 16, !tbaa !5
  %539 = freeze <4 x i32> %538
  %540 = srem <4 x i32> %539, splat (i32 3)
  %541 = icmp ne <4 x i32> %540, zeroinitializer
  %542 = add nuw i64 %536, 4
  %543 = bitcast <4 x i1> %541 to i4
  %544 = icmp ne i4 %543, 0
  %545 = icmp eq i64 %542, 332
  %546 = or i1 %544, %545
  br i1 %546, label %547, label %535, !llvm.loop !50

547:                                              ; preds = %535
  br i1 %544, label %560, label %555

548:                                              ; preds = %533
  tail call void @__assert_fail(ptr noundef nonnull @.str, ptr noundef nonnull @.str.1, i32 noundef 39, ptr noundef nonnull @__PRETTY_FUNCTION__._ZN12TestOutItersIPKiEclI21cpp17_output_iteratorIPiEEEvv) #6
  unreachable

549:                                              ; preds = %555
  %550 = getelementptr inbounds nuw i8, ptr %2, i64 1332
  %551 = load i32, ptr %550, align 4, !tbaa !5
  %552 = srem i32 %551, 3
  %553 = icmp eq i32 %552, 0
  br i1 %553, label %554, label %560

554:                                              ; preds = %549
  call void @llvm.lifetime.end.p0(ptr nonnull %2) #5
  call void @llvm.lifetime.end.p0(ptr nonnull %1) #5
  ret void

555:                                              ; preds = %547
  %556 = getelementptr inbounds nuw i8, ptr %2, i64 1328
  %557 = load i32, ptr %556, align 16, !tbaa !5
  %558 = srem i32 %557, 3
  %559 = icmp eq i32 %558, 0
  br i1 %559, label %549, label %560

560:                                              ; preds = %555, %549, %547
  tail call void @__assert_fail(ptr noundef nonnull @.str.2, ptr noundef nonnull @.str.1, i32 noundef 41, ptr noundef nonnull @__PRETTY_FUNCTION__._ZN12TestOutItersIPKiEclI21cpp17_output_iteratorIPiEEEvv) #6
  unreachable
}

; Function Attrs: mustprogress nocallback nofree nosync nounwind willreturn memory(argmem: readwrite)
declare void @llvm.lifetime.start.p0(ptr captures(none)) #2

; Function Attrs: mustprogress nocallback nofree nounwind willreturn memory(argmem: write)
declare void @llvm.memset.p0.i64(ptr writeonly captures(none), i8, i64, i1 immarg) #3

; Function Attrs: mustprogress nocallback nofree nosync nounwind willreturn memory(argmem: readwrite)
declare void @llvm.lifetime.end.p0(ptr captures(none)) #2

; Function Attrs: noreturn nounwind
declare void @__assert_fail(ptr noundef, ptr noundef, i32 noundef, ptr noundef) local_unnamed_addr #4

; Function Attrs: mustprogress uwtable
define linkonce_odr dso_local void @_ZN5types8for_eachIJPi19contiguous_iteratorIS1_E22random_access_iteratorIS1_E22bidirectional_iteratorIS1_E16forward_iteratorIS1_E20cpp17_input_iteratorIS1_S1_E21cpp17_output_iteratorIS1_EE12TestOutItersIS2_IPKiEEEEvNS_9type_listIJDpT_EEET0_() local_unnamed_addr #1 comdat {
  %1 = alloca [1000 x i32], align 16
  %2 = alloca [1000 x i32], align 16
  %3 = alloca [1000 x i32], align 16
  %4 = alloca [1000 x i32], align 16
  %5 = alloca [1000 x i32], align 16
  %6 = alloca [1000 x i32], align 16
  %7 = alloca [1000 x i32], align 16
  %8 = alloca [1000 x i32], align 16
  %9 = alloca [1000 x i32], align 16
  %10 = alloca [1000 x i32], align 16
  %11 = alloca [1000 x i32], align 16
  %12 = alloca [1000 x i32], align 16
  %13 = alloca [1000 x i32], align 16
  %14 = alloca [1000 x i32], align 16
  call void @llvm.lifetime.start.p0(ptr nonnull %13) #5
  call void @llvm.memset.p0.i64(ptr noundef nonnull align 16 dereferenceable(4000) %13, i8 0, i64 4000, i1 false)
  br label %15

15:                                               ; preds = %22, %0
  %16 = phi i64 [ 0, %0 ], [ %38, %22 ]
  %17 = phi <4 x i32> [ <i32 0, i32 1, i32 2, i32 3>, %0 ], [ %39, %22 ]
  %18 = add <4 x i32> %17, splat (i32 4)
  %19 = getelementptr inbounds nuw i32, ptr %13, i64 %16
  %20 = getelementptr inbounds nuw i8, ptr %19, i64 16
  store <4 x i32> %17, ptr %19, align 16, !tbaa !5
  store <4 x i32> %18, ptr %20, align 16, !tbaa !5
  %21 = icmp eq i64 %16, 992
  br i1 %21, label %40, label %22, !llvm.loop !51

22:                                               ; preds = %15
  %23 = add <4 x i32> %17, splat (i32 8)
  %24 = add <4 x i32> %17, splat (i32 12)
  %25 = getelementptr inbounds nuw i32, ptr %13, i64 %16
  %26 = getelementptr inbounds nuw i8, ptr %25, i64 32
  %27 = getelementptr inbounds nuw i8, ptr %25, i64 48
  store <4 x i32> %23, ptr %26, align 16, !tbaa !5
  store <4 x i32> %24, ptr %27, align 16, !tbaa !5
  %28 = add <4 x i32> %17, splat (i32 16)
  %29 = add <4 x i32> %17, splat (i32 20)
  %30 = getelementptr inbounds nuw i32, ptr %13, i64 %16
  %31 = getelementptr inbounds nuw i8, ptr %30, i64 64
  %32 = getelementptr inbounds nuw i8, ptr %30, i64 80
  store <4 x i32> %28, ptr %31, align 16, !tbaa !5
  store <4 x i32> %29, ptr %32, align 16, !tbaa !5
  %33 = add <4 x i32> %17, splat (i32 24)
  %34 = add <4 x i32> %17, splat (i32 28)
  %35 = getelementptr inbounds nuw i32, ptr %13, i64 %16
  %36 = getelementptr inbounds nuw i8, ptr %35, i64 96
  %37 = getelementptr inbounds nuw i8, ptr %35, i64 112
  store <4 x i32> %33, ptr %36, align 16, !tbaa !5
  store <4 x i32> %34, ptr %37, align 16, !tbaa !5
  %38 = add nuw nsw i64 %16, 32
  %39 = add <4 x i32> %17, splat (i32 32)
  br label %15

40:                                               ; preds = %15
  call void @llvm.lifetime.start.p0(ptr nonnull %14) #5
  call void @llvm.memset.p0.i64(ptr noundef nonnull align 16 dereferenceable(4000) %14, i8 0, i64 4000, i1 false)
  br label %41

41:                                               ; preds = %61, %40
  %42 = phi i64 [ 0, %40 ], [ %63, %61 ]
  %43 = phi i64 [ 0, %40 ], [ %62, %61 ]
  %44 = getelementptr inbounds nuw i8, ptr %13, i64 %42
  %45 = load i32, ptr %44, align 8, !tbaa !5
  %46 = srem i32 %45, 3
  %47 = icmp eq i32 %46, 0
  br i1 %47, label %48, label %51

48:                                               ; preds = %41
  %49 = getelementptr inbounds nuw i8, ptr %14, i64 %43
  store i32 %45, ptr %49, align 4, !tbaa !5
  %50 = add nuw nsw i64 %43, 4
  br label %51

51:                                               ; preds = %48, %41
  %52 = phi i64 [ %50, %48 ], [ %43, %41 ]
  %53 = getelementptr inbounds nuw i8, ptr %13, i64 %42
  %54 = getelementptr inbounds nuw i8, ptr %53, i64 4
  %55 = load i32, ptr %54, align 4, !tbaa !5
  %56 = srem i32 %55, 3
  %57 = icmp eq i32 %56, 0
  br i1 %57, label %58, label %61

58:                                               ; preds = %51
  %59 = getelementptr inbounds nuw i8, ptr %14, i64 %52
  store i32 %55, ptr %59, align 4, !tbaa !5
  %60 = add nuw nsw i64 %52, 4
  br label %61

61:                                               ; preds = %58, %51
  %62 = phi i64 [ %60, %58 ], [ %52, %51 ]
  %63 = add nuw nsw i64 %42, 8
  %64 = icmp eq i64 %63, 4000
  br i1 %64, label %65, label %41, !llvm.loop !52

65:                                               ; preds = %61
  %66 = icmp eq i64 %62, 1336
  br i1 %66, label %67, label %80

67:                                               ; preds = %65, %67
  %68 = phi i64 [ %74, %67 ], [ 0, %65 ]
  %69 = getelementptr inbounds nuw i32, ptr %14, i64 %68
  %70 = load <4 x i32>, ptr %69, align 16, !tbaa !5
  %71 = freeze <4 x i32> %70
  %72 = srem <4 x i32> %71, splat (i32 3)
  %73 = icmp ne <4 x i32> %72, zeroinitializer
  %74 = add nuw i64 %68, 4
  %75 = bitcast <4 x i1> %73 to i4
  %76 = icmp ne i4 %75, 0
  %77 = icmp eq i64 %74, 332
  %78 = or i1 %76, %77
  br i1 %78, label %79, label %67, !llvm.loop !53

79:                                               ; preds = %67
  br i1 %76, label %92, label %87

80:                                               ; preds = %65
  tail call void @__assert_fail(ptr noundef nonnull @.str, ptr noundef nonnull @.str.1, i32 noundef 39, ptr noundef nonnull @__PRETTY_FUNCTION__._ZN12TestOutItersI19contiguous_iteratorIPKiEEclIPiEEvv) #6
  unreachable

81:                                               ; preds = %87
  %82 = getelementptr inbounds nuw i8, ptr %14, i64 1332
  %83 = load i32, ptr %82, align 4, !tbaa !5
  %84 = srem i32 %83, 3
  %85 = icmp eq i32 %84, 0
  br i1 %85, label %86, label %92

86:                                               ; preds = %81
  call void @llvm.lifetime.end.p0(ptr nonnull %14) #5
  call void @llvm.lifetime.end.p0(ptr nonnull %13) #5
  call void @llvm.lifetime.start.p0(ptr nonnull %11) #5
  call void @llvm.memset.p0.i64(ptr noundef nonnull align 16 dereferenceable(4000) %11, i8 0, i64 4000, i1 false)
  br label %93

87:                                               ; preds = %79
  %88 = getelementptr inbounds nuw i8, ptr %14, i64 1328
  %89 = load i32, ptr %88, align 16, !tbaa !5
  %90 = srem i32 %89, 3
  %91 = icmp eq i32 %90, 0
  br i1 %91, label %81, label %92

92:                                               ; preds = %87, %81, %79
  tail call void @__assert_fail(ptr noundef nonnull @.str.2, ptr noundef nonnull @.str.1, i32 noundef 41, ptr noundef nonnull @__PRETTY_FUNCTION__._ZN12TestOutItersI19contiguous_iteratorIPKiEEclIPiEEvv) #6
  unreachable

93:                                               ; preds = %100, %86
  %94 = phi i64 [ 0, %86 ], [ %116, %100 ]
  %95 = phi <4 x i32> [ <i32 0, i32 1, i32 2, i32 3>, %86 ], [ %117, %100 ]
  %96 = add <4 x i32> %95, splat (i32 4)
  %97 = getelementptr inbounds nuw i32, ptr %11, i64 %94
  %98 = getelementptr inbounds nuw i8, ptr %97, i64 16
  store <4 x i32> %95, ptr %97, align 16, !tbaa !5
  store <4 x i32> %96, ptr %98, align 16, !tbaa !5
  %99 = icmp eq i64 %94, 992
  br i1 %99, label %118, label %100, !llvm.loop !54

100:                                              ; preds = %93
  %101 = add <4 x i32> %95, splat (i32 8)
  %102 = add <4 x i32> %95, splat (i32 12)
  %103 = getelementptr inbounds nuw i32, ptr %11, i64 %94
  %104 = getelementptr inbounds nuw i8, ptr %103, i64 32
  %105 = getelementptr inbounds nuw i8, ptr %103, i64 48
  store <4 x i32> %101, ptr %104, align 16, !tbaa !5
  store <4 x i32> %102, ptr %105, align 16, !tbaa !5
  %106 = add <4 x i32> %95, splat (i32 16)
  %107 = add <4 x i32> %95, splat (i32 20)
  %108 = getelementptr inbounds nuw i32, ptr %11, i64 %94
  %109 = getelementptr inbounds nuw i8, ptr %108, i64 64
  %110 = getelementptr inbounds nuw i8, ptr %108, i64 80
  store <4 x i32> %106, ptr %109, align 16, !tbaa !5
  store <4 x i32> %107, ptr %110, align 16, !tbaa !5
  %111 = add <4 x i32> %95, splat (i32 24)
  %112 = add <4 x i32> %95, splat (i32 28)
  %113 = getelementptr inbounds nuw i32, ptr %11, i64 %94
  %114 = getelementptr inbounds nuw i8, ptr %113, i64 96
  %115 = getelementptr inbounds nuw i8, ptr %113, i64 112
  store <4 x i32> %111, ptr %114, align 16, !tbaa !5
  store <4 x i32> %112, ptr %115, align 16, !tbaa !5
  %116 = add nuw nsw i64 %94, 32
  %117 = add <4 x i32> %95, splat (i32 32)
  br label %93

118:                                              ; preds = %93
  call void @llvm.lifetime.start.p0(ptr nonnull %12) #5
  call void @llvm.memset.p0.i64(ptr noundef nonnull align 16 dereferenceable(4000) %12, i8 0, i64 4000, i1 false)
  br label %119

119:                                              ; preds = %139, %118
  %120 = phi i64 [ 0, %118 ], [ %140, %139 ]
  %121 = phi i64 [ 0, %118 ], [ %141, %139 ]
  %122 = getelementptr inbounds nuw i8, ptr %11, i64 %121
  %123 = load i32, ptr %122, align 8, !tbaa !5, !noalias !55
  %124 = srem i32 %123, 3
  %125 = icmp eq i32 %124, 0
  br i1 %125, label %126, label %129

126:                                              ; preds = %119
  %127 = getelementptr inbounds nuw i8, ptr %12, i64 %120
  store i32 %123, ptr %127, align 4, !tbaa !5, !noalias !55
  %128 = add nuw nsw i64 %120, 4
  br label %129

129:                                              ; preds = %126, %119
  %130 = phi i64 [ %128, %126 ], [ %120, %119 ]
  %131 = getelementptr inbounds nuw i8, ptr %11, i64 %121
  %132 = getelementptr inbounds nuw i8, ptr %131, i64 4
  %133 = load i32, ptr %132, align 4, !tbaa !5, !noalias !55
  %134 = srem i32 %133, 3
  %135 = icmp eq i32 %134, 0
  br i1 %135, label %136, label %139

136:                                              ; preds = %129
  %137 = getelementptr inbounds nuw i8, ptr %12, i64 %130
  store i32 %133, ptr %137, align 4, !tbaa !5, !noalias !55
  %138 = add nuw nsw i64 %130, 4
  br label %139

139:                                              ; preds = %136, %129
  %140 = phi i64 [ %138, %136 ], [ %130, %129 ]
  %141 = add nuw nsw i64 %121, 8
  %142 = icmp eq i64 %141, 4000
  br i1 %142, label %143, label %119, !llvm.loop !58

143:                                              ; preds = %139
  %144 = icmp eq i64 %140, 1336
  br i1 %144, label %145, label %158

145:                                              ; preds = %143, %145
  %146 = phi i64 [ %152, %145 ], [ 0, %143 ]
  %147 = getelementptr inbounds nuw i32, ptr %12, i64 %146
  %148 = load <4 x i32>, ptr %147, align 16, !tbaa !5
  %149 = freeze <4 x i32> %148
  %150 = srem <4 x i32> %149, splat (i32 3)
  %151 = icmp ne <4 x i32> %150, zeroinitializer
  %152 = add nuw i64 %146, 4
  %153 = bitcast <4 x i1> %151 to i4
  %154 = icmp ne i4 %153, 0
  %155 = icmp eq i64 %152, 332
  %156 = or i1 %154, %155
  br i1 %156, label %157, label %145, !llvm.loop !59

157:                                              ; preds = %145
  br i1 %154, label %170, label %165

158:                                              ; preds = %143
  tail call void @__assert_fail(ptr noundef nonnull @.str, ptr noundef nonnull @.str.1, i32 noundef 39, ptr noundef nonnull @__PRETTY_FUNCTION__._ZN12TestOutItersI19contiguous_iteratorIPKiEEclIS0_IPiEEEvv) #6
  unreachable

159:                                              ; preds = %165
  %160 = getelementptr inbounds nuw i8, ptr %12, i64 1332
  %161 = load i32, ptr %160, align 4, !tbaa !5
  %162 = srem i32 %161, 3
  %163 = icmp eq i32 %162, 0
  br i1 %163, label %164, label %170

164:                                              ; preds = %159
  call void @llvm.lifetime.end.p0(ptr nonnull %12) #5
  call void @llvm.lifetime.end.p0(ptr nonnull %11) #5
  call void @llvm.lifetime.start.p0(ptr nonnull %9) #5
  call void @llvm.memset.p0.i64(ptr noundef nonnull align 16 dereferenceable(4000) %9, i8 0, i64 4000, i1 false)
  br label %171

165:                                              ; preds = %157
  %166 = getelementptr inbounds nuw i8, ptr %12, i64 1328
  %167 = load i32, ptr %166, align 16, !tbaa !5
  %168 = srem i32 %167, 3
  %169 = icmp eq i32 %168, 0
  br i1 %169, label %159, label %170

170:                                              ; preds = %165, %159, %157
  tail call void @__assert_fail(ptr noundef nonnull @.str.2, ptr noundef nonnull @.str.1, i32 noundef 41, ptr noundef nonnull @__PRETTY_FUNCTION__._ZN12TestOutItersI19contiguous_iteratorIPKiEEclIS0_IPiEEEvv) #6
  unreachable

171:                                              ; preds = %178, %164
  %172 = phi i64 [ 0, %164 ], [ %194, %178 ]
  %173 = phi <4 x i32> [ <i32 0, i32 1, i32 2, i32 3>, %164 ], [ %195, %178 ]
  %174 = add <4 x i32> %173, splat (i32 4)
  %175 = getelementptr inbounds nuw i32, ptr %9, i64 %172
  %176 = getelementptr inbounds nuw i8, ptr %175, i64 16
  store <4 x i32> %173, ptr %175, align 16, !tbaa !5
  store <4 x i32> %174, ptr %176, align 16, !tbaa !5
  %177 = icmp eq i64 %172, 992
  br i1 %177, label %196, label %178, !llvm.loop !60

178:                                              ; preds = %171
  %179 = add <4 x i32> %173, splat (i32 8)
  %180 = add <4 x i32> %173, splat (i32 12)
  %181 = getelementptr inbounds nuw i32, ptr %9, i64 %172
  %182 = getelementptr inbounds nuw i8, ptr %181, i64 32
  %183 = getelementptr inbounds nuw i8, ptr %181, i64 48
  store <4 x i32> %179, ptr %182, align 16, !tbaa !5
  store <4 x i32> %180, ptr %183, align 16, !tbaa !5
  %184 = add <4 x i32> %173, splat (i32 16)
  %185 = add <4 x i32> %173, splat (i32 20)
  %186 = getelementptr inbounds nuw i32, ptr %9, i64 %172
  %187 = getelementptr inbounds nuw i8, ptr %186, i64 64
  %188 = getelementptr inbounds nuw i8, ptr %186, i64 80
  store <4 x i32> %184, ptr %187, align 16, !tbaa !5
  store <4 x i32> %185, ptr %188, align 16, !tbaa !5
  %189 = add <4 x i32> %173, splat (i32 24)
  %190 = add <4 x i32> %173, splat (i32 28)
  %191 = getelementptr inbounds nuw i32, ptr %9, i64 %172
  %192 = getelementptr inbounds nuw i8, ptr %191, i64 96
  %193 = getelementptr inbounds nuw i8, ptr %191, i64 112
  store <4 x i32> %189, ptr %192, align 16, !tbaa !5
  store <4 x i32> %190, ptr %193, align 16, !tbaa !5
  %194 = add nuw nsw i64 %172, 32
  %195 = add <4 x i32> %173, splat (i32 32)
  br label %171

196:                                              ; preds = %171
  call void @llvm.lifetime.start.p0(ptr nonnull %10) #5
  call void @llvm.memset.p0.i64(ptr noundef nonnull align 16 dereferenceable(4000) %10, i8 0, i64 4000, i1 false)
  br label %197

197:                                              ; preds = %217, %196
  %198 = phi i64 [ 0, %196 ], [ %218, %217 ]
  %199 = phi i64 [ 0, %196 ], [ %219, %217 ]
  %200 = getelementptr inbounds nuw i8, ptr %9, i64 %199
  %201 = load i32, ptr %200, align 8, !tbaa !5, !noalias !61
  %202 = srem i32 %201, 3
  %203 = icmp eq i32 %202, 0
  br i1 %203, label %204, label %207

204:                                              ; preds = %197
  %205 = getelementptr inbounds nuw i8, ptr %10, i64 %198
  store i32 %201, ptr %205, align 4, !tbaa !5, !noalias !61
  %206 = add nuw nsw i64 %198, 4
  br label %207

207:                                              ; preds = %204, %197
  %208 = phi i64 [ %206, %204 ], [ %198, %197 ]
  %209 = getelementptr inbounds nuw i8, ptr %9, i64 %199
  %210 = getelementptr inbounds nuw i8, ptr %209, i64 4
  %211 = load i32, ptr %210, align 4, !tbaa !5, !noalias !61
  %212 = srem i32 %211, 3
  %213 = icmp eq i32 %212, 0
  br i1 %213, label %214, label %217

214:                                              ; preds = %207
  %215 = getelementptr inbounds nuw i8, ptr %10, i64 %208
  store i32 %211, ptr %215, align 4, !tbaa !5, !noalias !61
  %216 = add nuw nsw i64 %208, 4
  br label %217

217:                                              ; preds = %214, %207
  %218 = phi i64 [ %216, %214 ], [ %208, %207 ]
  %219 = add nuw nsw i64 %199, 8
  %220 = icmp eq i64 %219, 4000
  br i1 %220, label %221, label %197, !llvm.loop !64

221:                                              ; preds = %217
  %222 = icmp eq i64 %218, 1336
  br i1 %222, label %223, label %236

223:                                              ; preds = %221, %223
  %224 = phi i64 [ %230, %223 ], [ 0, %221 ]
  %225 = getelementptr inbounds nuw i32, ptr %10, i64 %224
  %226 = load <4 x i32>, ptr %225, align 16, !tbaa !5
  %227 = freeze <4 x i32> %226
  %228 = srem <4 x i32> %227, splat (i32 3)
  %229 = icmp ne <4 x i32> %228, zeroinitializer
  %230 = add nuw i64 %224, 4
  %231 = bitcast <4 x i1> %229 to i4
  %232 = icmp ne i4 %231, 0
  %233 = icmp eq i64 %230, 332
  %234 = or i1 %232, %233
  br i1 %234, label %235, label %223, !llvm.loop !65

235:                                              ; preds = %223
  br i1 %232, label %248, label %243

236:                                              ; preds = %221
  tail call void @__assert_fail(ptr noundef nonnull @.str, ptr noundef nonnull @.str.1, i32 noundef 39, ptr noundef nonnull @__PRETTY_FUNCTION__._ZN12TestOutItersI19contiguous_iteratorIPKiEEclI22random_access_iteratorIPiEEEvv) #6
  unreachable

237:                                              ; preds = %243
  %238 = getelementptr inbounds nuw i8, ptr %10, i64 1332
  %239 = load i32, ptr %238, align 4, !tbaa !5
  %240 = srem i32 %239, 3
  %241 = icmp eq i32 %240, 0
  br i1 %241, label %242, label %248

242:                                              ; preds = %237
  call void @llvm.lifetime.end.p0(ptr nonnull %10) #5
  call void @llvm.lifetime.end.p0(ptr nonnull %9) #5
  call void @llvm.lifetime.start.p0(ptr nonnull %7) #5
  call void @llvm.memset.p0.i64(ptr noundef nonnull align 16 dereferenceable(4000) %7, i8 0, i64 4000, i1 false)
  br label %249

243:                                              ; preds = %235
  %244 = getelementptr inbounds nuw i8, ptr %10, i64 1328
  %245 = load i32, ptr %244, align 16, !tbaa !5
  %246 = srem i32 %245, 3
  %247 = icmp eq i32 %246, 0
  br i1 %247, label %237, label %248

248:                                              ; preds = %243, %237, %235
  tail call void @__assert_fail(ptr noundef nonnull @.str.2, ptr noundef nonnull @.str.1, i32 noundef 41, ptr noundef nonnull @__PRETTY_FUNCTION__._ZN12TestOutItersI19contiguous_iteratorIPKiEEclI22random_access_iteratorIPiEEEvv) #6
  unreachable

249:                                              ; preds = %256, %242
  %250 = phi i64 [ 0, %242 ], [ %272, %256 ]
  %251 = phi <4 x i32> [ <i32 0, i32 1, i32 2, i32 3>, %242 ], [ %273, %256 ]
  %252 = add <4 x i32> %251, splat (i32 4)
  %253 = getelementptr inbounds nuw i32, ptr %7, i64 %250
  %254 = getelementptr inbounds nuw i8, ptr %253, i64 16
  store <4 x i32> %251, ptr %253, align 16, !tbaa !5
  store <4 x i32> %252, ptr %254, align 16, !tbaa !5
  %255 = icmp eq i64 %250, 992
  br i1 %255, label %274, label %256, !llvm.loop !66

256:                                              ; preds = %249
  %257 = add <4 x i32> %251, splat (i32 8)
  %258 = add <4 x i32> %251, splat (i32 12)
  %259 = getelementptr inbounds nuw i32, ptr %7, i64 %250
  %260 = getelementptr inbounds nuw i8, ptr %259, i64 32
  %261 = getelementptr inbounds nuw i8, ptr %259, i64 48
  store <4 x i32> %257, ptr %260, align 16, !tbaa !5
  store <4 x i32> %258, ptr %261, align 16, !tbaa !5
  %262 = add <4 x i32> %251, splat (i32 16)
  %263 = add <4 x i32> %251, splat (i32 20)
  %264 = getelementptr inbounds nuw i32, ptr %7, i64 %250
  %265 = getelementptr inbounds nuw i8, ptr %264, i64 64
  %266 = getelementptr inbounds nuw i8, ptr %264, i64 80
  store <4 x i32> %262, ptr %265, align 16, !tbaa !5
  store <4 x i32> %263, ptr %266, align 16, !tbaa !5
  %267 = add <4 x i32> %251, splat (i32 24)
  %268 = add <4 x i32> %251, splat (i32 28)
  %269 = getelementptr inbounds nuw i32, ptr %7, i64 %250
  %270 = getelementptr inbounds nuw i8, ptr %269, i64 96
  %271 = getelementptr inbounds nuw i8, ptr %269, i64 112
  store <4 x i32> %267, ptr %270, align 16, !tbaa !5
  store <4 x i32> %268, ptr %271, align 16, !tbaa !5
  %272 = add nuw nsw i64 %250, 32
  %273 = add <4 x i32> %251, splat (i32 32)
  br label %249

274:                                              ; preds = %249
  call void @llvm.lifetime.start.p0(ptr nonnull %8) #5
  call void @llvm.memset.p0.i64(ptr noundef nonnull align 16 dereferenceable(4000) %8, i8 0, i64 4000, i1 false)
  br label %275

275:                                              ; preds = %295, %274
  %276 = phi i64 [ 0, %274 ], [ %296, %295 ]
  %277 = phi i64 [ 0, %274 ], [ %297, %295 ]
  %278 = getelementptr inbounds nuw i8, ptr %7, i64 %277
  %279 = load i32, ptr %278, align 8, !tbaa !5, !noalias !67
  %280 = srem i32 %279, 3
  %281 = icmp eq i32 %280, 0
  br i1 %281, label %282, label %285

282:                                              ; preds = %275
  %283 = getelementptr inbounds nuw i8, ptr %8, i64 %276
  store i32 %279, ptr %283, align 4, !tbaa !5, !noalias !67
  %284 = add nuw nsw i64 %276, 4
  br label %285

285:                                              ; preds = %282, %275
  %286 = phi i64 [ %284, %282 ], [ %276, %275 ]
  %287 = getelementptr inbounds nuw i8, ptr %7, i64 %277
  %288 = getelementptr inbounds nuw i8, ptr %287, i64 4
  %289 = load i32, ptr %288, align 4, !tbaa !5, !noalias !67
  %290 = srem i32 %289, 3
  %291 = icmp eq i32 %290, 0
  br i1 %291, label %292, label %295

292:                                              ; preds = %285
  %293 = getelementptr inbounds nuw i8, ptr %8, i64 %286
  store i32 %289, ptr %293, align 4, !tbaa !5, !noalias !67
  %294 = add nuw nsw i64 %286, 4
  br label %295

295:                                              ; preds = %292, %285
  %296 = phi i64 [ %294, %292 ], [ %286, %285 ]
  %297 = add nuw nsw i64 %277, 8
  %298 = icmp eq i64 %297, 4000
  br i1 %298, label %299, label %275, !llvm.loop !70

299:                                              ; preds = %295
  %300 = icmp eq i64 %296, 1336
  br i1 %300, label %301, label %314

301:                                              ; preds = %299, %301
  %302 = phi i64 [ %308, %301 ], [ 0, %299 ]
  %303 = getelementptr inbounds nuw i32, ptr %8, i64 %302
  %304 = load <4 x i32>, ptr %303, align 16, !tbaa !5
  %305 = freeze <4 x i32> %304
  %306 = srem <4 x i32> %305, splat (i32 3)
  %307 = icmp ne <4 x i32> %306, zeroinitializer
  %308 = add nuw i64 %302, 4
  %309 = bitcast <4 x i1> %307 to i4
  %310 = icmp ne i4 %309, 0
  %311 = icmp eq i64 %308, 332
  %312 = or i1 %310, %311
  br i1 %312, label %313, label %301, !llvm.loop !71

313:                                              ; preds = %301
  br i1 %310, label %326, label %321

314:                                              ; preds = %299
  tail call void @__assert_fail(ptr noundef nonnull @.str, ptr noundef nonnull @.str.1, i32 noundef 39, ptr noundef nonnull @__PRETTY_FUNCTION__._ZN12TestOutItersI19contiguous_iteratorIPKiEEclI22bidirectional_iteratorIPiEEEvv) #6
  unreachable

315:                                              ; preds = %321
  %316 = getelementptr inbounds nuw i8, ptr %8, i64 1332
  %317 = load i32, ptr %316, align 4, !tbaa !5
  %318 = srem i32 %317, 3
  %319 = icmp eq i32 %318, 0
  br i1 %319, label %320, label %326

320:                                              ; preds = %315
  call void @llvm.lifetime.end.p0(ptr nonnull %8) #5
  call void @llvm.lifetime.end.p0(ptr nonnull %7) #5
  call void @llvm.lifetime.start.p0(ptr nonnull %5) #5
  call void @llvm.memset.p0.i64(ptr noundef nonnull align 16 dereferenceable(4000) %5, i8 0, i64 4000, i1 false)
  br label %327

321:                                              ; preds = %313
  %322 = getelementptr inbounds nuw i8, ptr %8, i64 1328
  %323 = load i32, ptr %322, align 16, !tbaa !5
  %324 = srem i32 %323, 3
  %325 = icmp eq i32 %324, 0
  br i1 %325, label %315, label %326

326:                                              ; preds = %321, %315, %313
  tail call void @__assert_fail(ptr noundef nonnull @.str.2, ptr noundef nonnull @.str.1, i32 noundef 41, ptr noundef nonnull @__PRETTY_FUNCTION__._ZN12TestOutItersI19contiguous_iteratorIPKiEEclI22bidirectional_iteratorIPiEEEvv) #6
  unreachable

327:                                              ; preds = %334, %320
  %328 = phi i64 [ 0, %320 ], [ %350, %334 ]
  %329 = phi <4 x i32> [ <i32 0, i32 1, i32 2, i32 3>, %320 ], [ %351, %334 ]
  %330 = add <4 x i32> %329, splat (i32 4)
  %331 = getelementptr inbounds nuw i32, ptr %5, i64 %328
  %332 = getelementptr inbounds nuw i8, ptr %331, i64 16
  store <4 x i32> %329, ptr %331, align 16, !tbaa !5
  store <4 x i32> %330, ptr %332, align 16, !tbaa !5
  %333 = icmp eq i64 %328, 992
  br i1 %333, label %352, label %334, !llvm.loop !72

334:                                              ; preds = %327
  %335 = add <4 x i32> %329, splat (i32 8)
  %336 = add <4 x i32> %329, splat (i32 12)
  %337 = getelementptr inbounds nuw i32, ptr %5, i64 %328
  %338 = getelementptr inbounds nuw i8, ptr %337, i64 32
  %339 = getelementptr inbounds nuw i8, ptr %337, i64 48
  store <4 x i32> %335, ptr %338, align 16, !tbaa !5
  store <4 x i32> %336, ptr %339, align 16, !tbaa !5
  %340 = add <4 x i32> %329, splat (i32 16)
  %341 = add <4 x i32> %329, splat (i32 20)
  %342 = getelementptr inbounds nuw i32, ptr %5, i64 %328
  %343 = getelementptr inbounds nuw i8, ptr %342, i64 64
  %344 = getelementptr inbounds nuw i8, ptr %342, i64 80
  store <4 x i32> %340, ptr %343, align 16, !tbaa !5
  store <4 x i32> %341, ptr %344, align 16, !tbaa !5
  %345 = add <4 x i32> %329, splat (i32 24)
  %346 = add <4 x i32> %329, splat (i32 28)
  %347 = getelementptr inbounds nuw i32, ptr %5, i64 %328
  %348 = getelementptr inbounds nuw i8, ptr %347, i64 96
  %349 = getelementptr inbounds nuw i8, ptr %347, i64 112
  store <4 x i32> %345, ptr %348, align 16, !tbaa !5
  store <4 x i32> %346, ptr %349, align 16, !tbaa !5
  %350 = add nuw nsw i64 %328, 32
  %351 = add <4 x i32> %329, splat (i32 32)
  br label %327

352:                                              ; preds = %327
  call void @llvm.lifetime.start.p0(ptr nonnull %6) #5
  call void @llvm.memset.p0.i64(ptr noundef nonnull align 16 dereferenceable(4000) %6, i8 0, i64 4000, i1 false)
  br label %353

353:                                              ; preds = %373, %352
  %354 = phi i64 [ 0, %352 ], [ %374, %373 ]
  %355 = phi i64 [ 0, %352 ], [ %375, %373 ]
  %356 = getelementptr inbounds nuw i8, ptr %5, i64 %355
  %357 = load i32, ptr %356, align 8, !tbaa !5, !noalias !73
  %358 = srem i32 %357, 3
  %359 = icmp eq i32 %358, 0
  br i1 %359, label %360, label %363

360:                                              ; preds = %353
  %361 = getelementptr inbounds nuw i8, ptr %6, i64 %354
  store i32 %357, ptr %361, align 4, !tbaa !5, !noalias !73
  %362 = add nuw nsw i64 %354, 4
  br label %363

363:                                              ; preds = %360, %353
  %364 = phi i64 [ %362, %360 ], [ %354, %353 ]
  %365 = getelementptr inbounds nuw i8, ptr %5, i64 %355
  %366 = getelementptr inbounds nuw i8, ptr %365, i64 4
  %367 = load i32, ptr %366, align 4, !tbaa !5, !noalias !73
  %368 = srem i32 %367, 3
  %369 = icmp eq i32 %368, 0
  br i1 %369, label %370, label %373

370:                                              ; preds = %363
  %371 = getelementptr inbounds nuw i8, ptr %6, i64 %364
  store i32 %367, ptr %371, align 4, !tbaa !5, !noalias !73
  %372 = add nuw nsw i64 %364, 4
  br label %373

373:                                              ; preds = %370, %363
  %374 = phi i64 [ %372, %370 ], [ %364, %363 ]
  %375 = add nuw nsw i64 %355, 8
  %376 = icmp eq i64 %375, 4000
  br i1 %376, label %377, label %353, !llvm.loop !76

377:                                              ; preds = %373
  %378 = icmp eq i64 %374, 1336
  br i1 %378, label %379, label %392

379:                                              ; preds = %377, %379
  %380 = phi i64 [ %386, %379 ], [ 0, %377 ]
  %381 = getelementptr inbounds nuw i32, ptr %6, i64 %380
  %382 = load <4 x i32>, ptr %381, align 16, !tbaa !5
  %383 = freeze <4 x i32> %382
  %384 = srem <4 x i32> %383, splat (i32 3)
  %385 = icmp ne <4 x i32> %384, zeroinitializer
  %386 = add nuw i64 %380, 4
  %387 = bitcast <4 x i1> %385 to i4
  %388 = icmp ne i4 %387, 0
  %389 = icmp eq i64 %386, 332
  %390 = or i1 %388, %389
  br i1 %390, label %391, label %379, !llvm.loop !77

391:                                              ; preds = %379
  br i1 %388, label %404, label %399

392:                                              ; preds = %377
  tail call void @__assert_fail(ptr noundef nonnull @.str, ptr noundef nonnull @.str.1, i32 noundef 39, ptr noundef nonnull @__PRETTY_FUNCTION__._ZN12TestOutItersI19contiguous_iteratorIPKiEEclI16forward_iteratorIPiEEEvv) #6
  unreachable

393:                                              ; preds = %399
  %394 = getelementptr inbounds nuw i8, ptr %6, i64 1332
  %395 = load i32, ptr %394, align 4, !tbaa !5
  %396 = srem i32 %395, 3
  %397 = icmp eq i32 %396, 0
  br i1 %397, label %398, label %404

398:                                              ; preds = %393
  call void @llvm.lifetime.end.p0(ptr nonnull %6) #5
  call void @llvm.lifetime.end.p0(ptr nonnull %5) #5
  call void @llvm.lifetime.start.p0(ptr nonnull %3) #5
  call void @llvm.memset.p0.i64(ptr noundef nonnull align 16 dereferenceable(4000) %3, i8 0, i64 4000, i1 false)
  br label %405

399:                                              ; preds = %391
  %400 = getelementptr inbounds nuw i8, ptr %6, i64 1328
  %401 = load i32, ptr %400, align 16, !tbaa !5
  %402 = srem i32 %401, 3
  %403 = icmp eq i32 %402, 0
  br i1 %403, label %393, label %404

404:                                              ; preds = %399, %393, %391
  tail call void @__assert_fail(ptr noundef nonnull @.str.2, ptr noundef nonnull @.str.1, i32 noundef 41, ptr noundef nonnull @__PRETTY_FUNCTION__._ZN12TestOutItersI19contiguous_iteratorIPKiEEclI16forward_iteratorIPiEEEvv) #6
  unreachable

405:                                              ; preds = %412, %398
  %406 = phi i64 [ 0, %398 ], [ %428, %412 ]
  %407 = phi <4 x i32> [ <i32 0, i32 1, i32 2, i32 3>, %398 ], [ %429, %412 ]
  %408 = add <4 x i32> %407, splat (i32 4)
  %409 = getelementptr inbounds nuw i32, ptr %3, i64 %406
  %410 = getelementptr inbounds nuw i8, ptr %409, i64 16
  store <4 x i32> %407, ptr %409, align 16, !tbaa !5
  store <4 x i32> %408, ptr %410, align 16, !tbaa !5
  %411 = icmp eq i64 %406, 992
  br i1 %411, label %430, label %412, !llvm.loop !78

412:                                              ; preds = %405
  %413 = add <4 x i32> %407, splat (i32 8)
  %414 = add <4 x i32> %407, splat (i32 12)
  %415 = getelementptr inbounds nuw i32, ptr %3, i64 %406
  %416 = getelementptr inbounds nuw i8, ptr %415, i64 32
  %417 = getelementptr inbounds nuw i8, ptr %415, i64 48
  store <4 x i32> %413, ptr %416, align 16, !tbaa !5
  store <4 x i32> %414, ptr %417, align 16, !tbaa !5
  %418 = add <4 x i32> %407, splat (i32 16)
  %419 = add <4 x i32> %407, splat (i32 20)
  %420 = getelementptr inbounds nuw i32, ptr %3, i64 %406
  %421 = getelementptr inbounds nuw i8, ptr %420, i64 64
  %422 = getelementptr inbounds nuw i8, ptr %420, i64 80
  store <4 x i32> %418, ptr %421, align 16, !tbaa !5
  store <4 x i32> %419, ptr %422, align 16, !tbaa !5
  %423 = add <4 x i32> %407, splat (i32 24)
  %424 = add <4 x i32> %407, splat (i32 28)
  %425 = getelementptr inbounds nuw i32, ptr %3, i64 %406
  %426 = getelementptr inbounds nuw i8, ptr %425, i64 96
  %427 = getelementptr inbounds nuw i8, ptr %425, i64 112
  store <4 x i32> %423, ptr %426, align 16, !tbaa !5
  store <4 x i32> %424, ptr %427, align 16, !tbaa !5
  %428 = add nuw nsw i64 %406, 32
  %429 = add <4 x i32> %407, splat (i32 32)
  br label %405

430:                                              ; preds = %405
  call void @llvm.lifetime.start.p0(ptr nonnull %4) #5
  call void @llvm.memset.p0.i64(ptr noundef nonnull align 16 dereferenceable(4000) %4, i8 0, i64 4000, i1 false)
  br label %431

431:                                              ; preds = %451, %430
  %432 = phi i64 [ 0, %430 ], [ %452, %451 ]
  %433 = phi i64 [ 0, %430 ], [ %453, %451 ]
  %434 = getelementptr inbounds nuw i8, ptr %3, i64 %433
  %435 = load i32, ptr %434, align 8, !tbaa !5, !noalias !79
  %436 = srem i32 %435, 3
  %437 = icmp eq i32 %436, 0
  br i1 %437, label %438, label %441

438:                                              ; preds = %431
  %439 = getelementptr inbounds nuw i8, ptr %4, i64 %432
  store i32 %435, ptr %439, align 4, !tbaa !5, !noalias !79
  %440 = add nuw nsw i64 %432, 4
  br label %441

441:                                              ; preds = %438, %431
  %442 = phi i64 [ %440, %438 ], [ %432, %431 ]
  %443 = getelementptr inbounds nuw i8, ptr %3, i64 %433
  %444 = getelementptr inbounds nuw i8, ptr %443, i64 4
  %445 = load i32, ptr %444, align 4, !tbaa !5, !noalias !79
  %446 = srem i32 %445, 3
  %447 = icmp eq i32 %446, 0
  br i1 %447, label %448, label %451

448:                                              ; preds = %441
  %449 = getelementptr inbounds nuw i8, ptr %4, i64 %442
  store i32 %445, ptr %449, align 4, !tbaa !5, !noalias !79
  %450 = add nuw nsw i64 %442, 4
  br label %451

451:                                              ; preds = %448, %441
  %452 = phi i64 [ %450, %448 ], [ %442, %441 ]
  %453 = add nuw nsw i64 %433, 8
  %454 = icmp eq i64 %453, 4000
  br i1 %454, label %455, label %431, !llvm.loop !82

455:                                              ; preds = %451
  %456 = icmp eq i64 %452, 1336
  br i1 %456, label %457, label %470

457:                                              ; preds = %455, %457
  %458 = phi i64 [ %464, %457 ], [ 0, %455 ]
  %459 = getelementptr inbounds nuw i32, ptr %4, i64 %458
  %460 = load <4 x i32>, ptr %459, align 16, !tbaa !5
  %461 = freeze <4 x i32> %460
  %462 = srem <4 x i32> %461, splat (i32 3)
  %463 = icmp ne <4 x i32> %462, zeroinitializer
  %464 = add nuw i64 %458, 4
  %465 = bitcast <4 x i1> %463 to i4
  %466 = icmp ne i4 %465, 0
  %467 = icmp eq i64 %464, 332
  %468 = or i1 %466, %467
  br i1 %468, label %469, label %457, !llvm.loop !83

469:                                              ; preds = %457
  br i1 %466, label %482, label %477

470:                                              ; preds = %455
  tail call void @__assert_fail(ptr noundef nonnull @.str, ptr noundef nonnull @.str.1, i32 noundef 39, ptr noundef nonnull @__PRETTY_FUNCTION__._ZN12TestOutItersI19contiguous_iteratorIPKiEEclI20cpp17_input_iteratorIPiS7_EEEvv) #6
  unreachable

471:                                              ; preds = %477
  %472 = getelementptr inbounds nuw i8, ptr %4, i64 1332
  %473 = load i32, ptr %472, align 4, !tbaa !5
  %474 = srem i32 %473, 3
  %475 = icmp eq i32 %474, 0
  br i1 %475, label %476, label %482

476:                                              ; preds = %471
  call void @llvm.lifetime.end.p0(ptr nonnull %4) #5
  call void @llvm.lifetime.end.p0(ptr nonnull %3) #5
  call void @llvm.lifetime.start.p0(ptr nonnull %1) #5
  call void @llvm.memset.p0.i64(ptr noundef nonnull align 16 dereferenceable(4000) %1, i8 0, i64 4000, i1 false)
  br label %483

477:                                              ; preds = %469
  %478 = getelementptr inbounds nuw i8, ptr %4, i64 1328
  %479 = load i32, ptr %478, align 16, !tbaa !5
  %480 = srem i32 %479, 3
  %481 = icmp eq i32 %480, 0
  br i1 %481, label %471, label %482

482:                                              ; preds = %477, %471, %469
  tail call void @__assert_fail(ptr noundef nonnull @.str.2, ptr noundef nonnull @.str.1, i32 noundef 41, ptr noundef nonnull @__PRETTY_FUNCTION__._ZN12TestOutItersI19contiguous_iteratorIPKiEEclI20cpp17_input_iteratorIPiS7_EEEvv) #6
  unreachable

483:                                              ; preds = %490, %476
  %484 = phi i64 [ 0, %476 ], [ %506, %490 ]
  %485 = phi <4 x i32> [ <i32 0, i32 1, i32 2, i32 3>, %476 ], [ %507, %490 ]
  %486 = add <4 x i32> %485, splat (i32 4)
  %487 = getelementptr inbounds nuw i32, ptr %1, i64 %484
  %488 = getelementptr inbounds nuw i8, ptr %487, i64 16
  store <4 x i32> %485, ptr %487, align 16, !tbaa !5
  store <4 x i32> %486, ptr %488, align 16, !tbaa !5
  %489 = icmp eq i64 %484, 992
  br i1 %489, label %508, label %490, !llvm.loop !84

490:                                              ; preds = %483
  %491 = add <4 x i32> %485, splat (i32 8)
  %492 = add <4 x i32> %485, splat (i32 12)
  %493 = getelementptr inbounds nuw i32, ptr %1, i64 %484
  %494 = getelementptr inbounds nuw i8, ptr %493, i64 32
  %495 = getelementptr inbounds nuw i8, ptr %493, i64 48
  store <4 x i32> %491, ptr %494, align 16, !tbaa !5
  store <4 x i32> %492, ptr %495, align 16, !tbaa !5
  %496 = add <4 x i32> %485, splat (i32 16)
  %497 = add <4 x i32> %485, splat (i32 20)
  %498 = getelementptr inbounds nuw i32, ptr %1, i64 %484
  %499 = getelementptr inbounds nuw i8, ptr %498, i64 64
  %500 = getelementptr inbounds nuw i8, ptr %498, i64 80
  store <4 x i32> %496, ptr %499, align 16, !tbaa !5
  store <4 x i32> %497, ptr %500, align 16, !tbaa !5
  %501 = add <4 x i32> %485, splat (i32 24)
  %502 = add <4 x i32> %485, splat (i32 28)
  %503 = getelementptr inbounds nuw i32, ptr %1, i64 %484
  %504 = getelementptr inbounds nuw i8, ptr %503, i64 96
  %505 = getelementptr inbounds nuw i8, ptr %503, i64 112
  store <4 x i32> %501, ptr %504, align 16, !tbaa !5
  store <4 x i32> %502, ptr %505, align 16, !tbaa !5
  %506 = add nuw nsw i64 %484, 32
  %507 = add <4 x i32> %485, splat (i32 32)
  br label %483

508:                                              ; preds = %483
  call void @llvm.lifetime.start.p0(ptr nonnull %2) #5
  call void @llvm.memset.p0.i64(ptr noundef nonnull align 16 dereferenceable(4000) %2, i8 0, i64 4000, i1 false)
  br label %509

509:                                              ; preds = %529, %508
  %510 = phi i64 [ 0, %508 ], [ %530, %529 ]
  %511 = phi i64 [ 0, %508 ], [ %531, %529 ]
  %512 = getelementptr inbounds nuw i8, ptr %1, i64 %511
  %513 = load i32, ptr %512, align 8, !tbaa !5, !noalias !85
  %514 = srem i32 %513, 3
  %515 = icmp eq i32 %514, 0
  br i1 %515, label %516, label %519

516:                                              ; preds = %509
  %517 = getelementptr inbounds nuw i8, ptr %2, i64 %510
  store i32 %513, ptr %517, align 4, !tbaa !5, !noalias !85
  %518 = add nuw nsw i64 %510, 4
  br label %519

519:                                              ; preds = %516, %509
  %520 = phi i64 [ %518, %516 ], [ %510, %509 ]
  %521 = getelementptr inbounds nuw i8, ptr %1, i64 %511
  %522 = getelementptr inbounds nuw i8, ptr %521, i64 4
  %523 = load i32, ptr %522, align 4, !tbaa !5, !noalias !85
  %524 = srem i32 %523, 3
  %525 = icmp eq i32 %524, 0
  br i1 %525, label %526, label %529

526:                                              ; preds = %519
  %527 = getelementptr inbounds nuw i8, ptr %2, i64 %520
  store i32 %523, ptr %527, align 4, !tbaa !5, !noalias !85
  %528 = add nuw nsw i64 %520, 4
  br label %529

529:                                              ; preds = %526, %519
  %530 = phi i64 [ %528, %526 ], [ %520, %519 ]
  %531 = add nuw nsw i64 %511, 8
  %532 = icmp eq i64 %531, 4000
  br i1 %532, label %533, label %509, !llvm.loop !88

533:                                              ; preds = %529
  %534 = icmp eq i64 %530, 1336
  br i1 %534, label %535, label %548

535:                                              ; preds = %533, %535
  %536 = phi i64 [ %542, %535 ], [ 0, %533 ]
  %537 = getelementptr inbounds nuw i32, ptr %2, i64 %536
  %538 = load <4 x i32>, ptr %537, align 16, !tbaa !5
  %539 = freeze <4 x i32> %538
  %540 = srem <4 x i32> %539, splat (i32 3)
  %541 = icmp ne <4 x i32> %540, zeroinitializer
  %542 = add nuw i64 %536, 4
  %543 = bitcast <4 x i1> %541 to i4
  %544 = icmp ne i4 %543, 0
  %545 = icmp eq i64 %542, 332
  %546 = or i1 %544, %545
  br i1 %546, label %547, label %535, !llvm.loop !89

547:                                              ; preds = %535
  br i1 %544, label %560, label %555

548:                                              ; preds = %533
  tail call void @__assert_fail(ptr noundef nonnull @.str, ptr noundef nonnull @.str.1, i32 noundef 39, ptr noundef nonnull @__PRETTY_FUNCTION__._ZN12TestOutItersI19contiguous_iteratorIPKiEEclI21cpp17_output_iteratorIPiEEEvv) #6
  unreachable

549:                                              ; preds = %555
  %550 = getelementptr inbounds nuw i8, ptr %2, i64 1332
  %551 = load i32, ptr %550, align 4, !tbaa !5
  %552 = srem i32 %551, 3
  %553 = icmp eq i32 %552, 0
  br i1 %553, label %554, label %560

554:                                              ; preds = %549
  call void @llvm.lifetime.end.p0(ptr nonnull %2) #5
  call void @llvm.lifetime.end.p0(ptr nonnull %1) #5
  ret void

555:                                              ; preds = %547
  %556 = getelementptr inbounds nuw i8, ptr %2, i64 1328
  %557 = load i32, ptr %556, align 16, !tbaa !5
  %558 = srem i32 %557, 3
  %559 = icmp eq i32 %558, 0
  br i1 %559, label %549, label %560

560:                                              ; preds = %555, %549, %547
  tail call void @__assert_fail(ptr noundef nonnull @.str.2, ptr noundef nonnull @.str.1, i32 noundef 41, ptr noundef nonnull @__PRETTY_FUNCTION__._ZN12TestOutItersI19contiguous_iteratorIPKiEEclI21cpp17_output_iteratorIPiEEEvv) #6
  unreachable
}

; Function Attrs: mustprogress uwtable
define linkonce_odr dso_local void @_ZN5types8for_eachIJPi19contiguous_iteratorIS1_E22random_access_iteratorIS1_E22bidirectional_iteratorIS1_E16forward_iteratorIS1_E20cpp17_input_iteratorIS1_S1_E21cpp17_output_iteratorIS1_EE12TestOutItersIS4_IPKiEEEEvNS_9type_listIJDpT_EEET0_() local_unnamed_addr #1 comdat {
  %1 = alloca [1000 x i32], align 16
  %2 = alloca [1000 x i32], align 16
  %3 = alloca [1000 x i32], align 16
  %4 = alloca [1000 x i32], align 16
  %5 = alloca [1000 x i32], align 16
  %6 = alloca [1000 x i32], align 16
  %7 = alloca [1000 x i32], align 16
  %8 = alloca [1000 x i32], align 16
  %9 = alloca [1000 x i32], align 16
  %10 = alloca [1000 x i32], align 16
  %11 = alloca [1000 x i32], align 16
  %12 = alloca [1000 x i32], align 16
  %13 = alloca [1000 x i32], align 16
  %14 = alloca [1000 x i32], align 16
  call void @llvm.lifetime.start.p0(ptr nonnull %13) #5
  call void @llvm.memset.p0.i64(ptr noundef nonnull align 16 dereferenceable(4000) %13, i8 0, i64 4000, i1 false)
  br label %15

15:                                               ; preds = %22, %0
  %16 = phi i64 [ 0, %0 ], [ %38, %22 ]
  %17 = phi <4 x i32> [ <i32 0, i32 1, i32 2, i32 3>, %0 ], [ %39, %22 ]
  %18 = add <4 x i32> %17, splat (i32 4)
  %19 = getelementptr inbounds nuw i32, ptr %13, i64 %16
  %20 = getelementptr inbounds nuw i8, ptr %19, i64 16
  store <4 x i32> %17, ptr %19, align 16, !tbaa !5
  store <4 x i32> %18, ptr %20, align 16, !tbaa !5
  %21 = icmp eq i64 %16, 992
  br i1 %21, label %40, label %22, !llvm.loop !90

22:                                               ; preds = %15
  %23 = add <4 x i32> %17, splat (i32 8)
  %24 = add <4 x i32> %17, splat (i32 12)
  %25 = getelementptr inbounds nuw i32, ptr %13, i64 %16
  %26 = getelementptr inbounds nuw i8, ptr %25, i64 32
  %27 = getelementptr inbounds nuw i8, ptr %25, i64 48
  store <4 x i32> %23, ptr %26, align 16, !tbaa !5
  store <4 x i32> %24, ptr %27, align 16, !tbaa !5
  %28 = add <4 x i32> %17, splat (i32 16)
  %29 = add <4 x i32> %17, splat (i32 20)
  %30 = getelementptr inbounds nuw i32, ptr %13, i64 %16
  %31 = getelementptr inbounds nuw i8, ptr %30, i64 64
  %32 = getelementptr inbounds nuw i8, ptr %30, i64 80
  store <4 x i32> %28, ptr %31, align 16, !tbaa !5
  store <4 x i32> %29, ptr %32, align 16, !tbaa !5
  %33 = add <4 x i32> %17, splat (i32 24)
  %34 = add <4 x i32> %17, splat (i32 28)
  %35 = getelementptr inbounds nuw i32, ptr %13, i64 %16
  %36 = getelementptr inbounds nuw i8, ptr %35, i64 96
  %37 = getelementptr inbounds nuw i8, ptr %35, i64 112
  store <4 x i32> %33, ptr %36, align 16, !tbaa !5
  store <4 x i32> %34, ptr %37, align 16, !tbaa !5
  %38 = add nuw nsw i64 %16, 32
  %39 = add <4 x i32> %17, splat (i32 32)
  br label %15

40:                                               ; preds = %15
  call void @llvm.lifetime.start.p0(ptr nonnull %14) #5
  call void @llvm.memset.p0.i64(ptr noundef nonnull align 16 dereferenceable(4000) %14, i8 0, i64 4000, i1 false)
  br label %41

41:                                               ; preds = %61, %40
  %42 = phi i64 [ 0, %40 ], [ %63, %61 ]
  %43 = phi i64 [ 0, %40 ], [ %62, %61 ]
  %44 = getelementptr inbounds nuw i8, ptr %13, i64 %42
  %45 = load i32, ptr %44, align 8, !tbaa !5
  %46 = srem i32 %45, 3
  %47 = icmp eq i32 %46, 0
  br i1 %47, label %48, label %51

48:                                               ; preds = %41
  %49 = getelementptr inbounds nuw i8, ptr %14, i64 %43
  store i32 %45, ptr %49, align 4, !tbaa !5
  %50 = add nuw nsw i64 %43, 4
  br label %51

51:                                               ; preds = %48, %41
  %52 = phi i64 [ %50, %48 ], [ %43, %41 ]
  %53 = getelementptr inbounds nuw i8, ptr %13, i64 %42
  %54 = getelementptr inbounds nuw i8, ptr %53, i64 4
  %55 = load i32, ptr %54, align 4, !tbaa !5
  %56 = srem i32 %55, 3
  %57 = icmp eq i32 %56, 0
  br i1 %57, label %58, label %61

58:                                               ; preds = %51
  %59 = getelementptr inbounds nuw i8, ptr %14, i64 %52
  store i32 %55, ptr %59, align 4, !tbaa !5
  %60 = add nuw nsw i64 %52, 4
  br label %61

61:                                               ; preds = %58, %51
  %62 = phi i64 [ %60, %58 ], [ %52, %51 ]
  %63 = add nuw nsw i64 %42, 8
  %64 = icmp eq i64 %63, 4000
  br i1 %64, label %65, label %41, !llvm.loop !91

65:                                               ; preds = %61
  %66 = icmp eq i64 %62, 1336
  br i1 %66, label %67, label %80

67:                                               ; preds = %65, %67
  %68 = phi i64 [ %74, %67 ], [ 0, %65 ]
  %69 = getelementptr inbounds nuw i32, ptr %14, i64 %68
  %70 = load <4 x i32>, ptr %69, align 16, !tbaa !5
  %71 = freeze <4 x i32> %70
  %72 = srem <4 x i32> %71, splat (i32 3)
  %73 = icmp ne <4 x i32> %72, zeroinitializer
  %74 = add nuw i64 %68, 4
  %75 = bitcast <4 x i1> %73 to i4
  %76 = icmp ne i4 %75, 0
  %77 = icmp eq i64 %74, 332
  %78 = or i1 %76, %77
  br i1 %78, label %79, label %67, !llvm.loop !92

79:                                               ; preds = %67
  br i1 %76, label %92, label %87

80:                                               ; preds = %65
  tail call void @__assert_fail(ptr noundef nonnull @.str, ptr noundef nonnull @.str.1, i32 noundef 39, ptr noundef nonnull @__PRETTY_FUNCTION__._ZN12TestOutItersI22random_access_iteratorIPKiEEclIPiEEvv) #6
  unreachable

81:                                               ; preds = %87
  %82 = getelementptr inbounds nuw i8, ptr %14, i64 1332
  %83 = load i32, ptr %82, align 4, !tbaa !5
  %84 = srem i32 %83, 3
  %85 = icmp eq i32 %84, 0
  br i1 %85, label %86, label %92

86:                                               ; preds = %81
  call void @llvm.lifetime.end.p0(ptr nonnull %14) #5
  call void @llvm.lifetime.end.p0(ptr nonnull %13) #5
  call void @llvm.lifetime.start.p0(ptr nonnull %11) #5
  call void @llvm.memset.p0.i64(ptr noundef nonnull align 16 dereferenceable(4000) %11, i8 0, i64 4000, i1 false)
  br label %93

87:                                               ; preds = %79
  %88 = getelementptr inbounds nuw i8, ptr %14, i64 1328
  %89 = load i32, ptr %88, align 16, !tbaa !5
  %90 = srem i32 %89, 3
  %91 = icmp eq i32 %90, 0
  br i1 %91, label %81, label %92

92:                                               ; preds = %87, %81, %79
  tail call void @__assert_fail(ptr noundef nonnull @.str.2, ptr noundef nonnull @.str.1, i32 noundef 41, ptr noundef nonnull @__PRETTY_FUNCTION__._ZN12TestOutItersI22random_access_iteratorIPKiEEclIPiEEvv) #6
  unreachable

93:                                               ; preds = %100, %86
  %94 = phi i64 [ 0, %86 ], [ %116, %100 ]
  %95 = phi <4 x i32> [ <i32 0, i32 1, i32 2, i32 3>, %86 ], [ %117, %100 ]
  %96 = add <4 x i32> %95, splat (i32 4)
  %97 = getelementptr inbounds nuw i32, ptr %11, i64 %94
  %98 = getelementptr inbounds nuw i8, ptr %97, i64 16
  store <4 x i32> %95, ptr %97, align 16, !tbaa !5
  store <4 x i32> %96, ptr %98, align 16, !tbaa !5
  %99 = icmp eq i64 %94, 992
  br i1 %99, label %118, label %100, !llvm.loop !93

100:                                              ; preds = %93
  %101 = add <4 x i32> %95, splat (i32 8)
  %102 = add <4 x i32> %95, splat (i32 12)
  %103 = getelementptr inbounds nuw i32, ptr %11, i64 %94
  %104 = getelementptr inbounds nuw i8, ptr %103, i64 32
  %105 = getelementptr inbounds nuw i8, ptr %103, i64 48
  store <4 x i32> %101, ptr %104, align 16, !tbaa !5
  store <4 x i32> %102, ptr %105, align 16, !tbaa !5
  %106 = add <4 x i32> %95, splat (i32 16)
  %107 = add <4 x i32> %95, splat (i32 20)
  %108 = getelementptr inbounds nuw i32, ptr %11, i64 %94
  %109 = getelementptr inbounds nuw i8, ptr %108, i64 64
  %110 = getelementptr inbounds nuw i8, ptr %108, i64 80
  store <4 x i32> %106, ptr %109, align 16, !tbaa !5
  store <4 x i32> %107, ptr %110, align 16, !tbaa !5
  %111 = add <4 x i32> %95, splat (i32 24)
  %112 = add <4 x i32> %95, splat (i32 28)
  %113 = getelementptr inbounds nuw i32, ptr %11, i64 %94
  %114 = getelementptr inbounds nuw i8, ptr %113, i64 96
  %115 = getelementptr inbounds nuw i8, ptr %113, i64 112
  store <4 x i32> %111, ptr %114, align 16, !tbaa !5
  store <4 x i32> %112, ptr %115, align 16, !tbaa !5
  %116 = add nuw nsw i64 %94, 32
  %117 = add <4 x i32> %95, splat (i32 32)
  br label %93

118:                                              ; preds = %93
  call void @llvm.lifetime.start.p0(ptr nonnull %12) #5
  call void @llvm.memset.p0.i64(ptr noundef nonnull align 16 dereferenceable(4000) %12, i8 0, i64 4000, i1 false)
  br label %119

119:                                              ; preds = %139, %118
  %120 = phi i64 [ 0, %118 ], [ %140, %139 ]
  %121 = phi i64 [ 0, %118 ], [ %141, %139 ]
  %122 = getelementptr inbounds nuw i8, ptr %11, i64 %121
  %123 = load i32, ptr %122, align 8, !tbaa !5, !noalias !94
  %124 = srem i32 %123, 3
  %125 = icmp eq i32 %124, 0
  br i1 %125, label %126, label %129

126:                                              ; preds = %119
  %127 = getelementptr inbounds nuw i8, ptr %12, i64 %120
  store i32 %123, ptr %127, align 4, !tbaa !5, !noalias !94
  %128 = add nuw nsw i64 %120, 4
  br label %129

129:                                              ; preds = %126, %119
  %130 = phi i64 [ %128, %126 ], [ %120, %119 ]
  %131 = getelementptr inbounds nuw i8, ptr %11, i64 %121
  %132 = getelementptr inbounds nuw i8, ptr %131, i64 4
  %133 = load i32, ptr %132, align 4, !tbaa !5, !noalias !94
  %134 = srem i32 %133, 3
  %135 = icmp eq i32 %134, 0
  br i1 %135, label %136, label %139

136:                                              ; preds = %129
  %137 = getelementptr inbounds nuw i8, ptr %12, i64 %130
  store i32 %133, ptr %137, align 4, !tbaa !5, !noalias !94
  %138 = add nuw nsw i64 %130, 4
  br label %139

139:                                              ; preds = %136, %129
  %140 = phi i64 [ %138, %136 ], [ %130, %129 ]
  %141 = add nuw nsw i64 %121, 8
  %142 = icmp eq i64 %141, 4000
  br i1 %142, label %143, label %119, !llvm.loop !97

143:                                              ; preds = %139
  %144 = icmp eq i64 %140, 1336
  br i1 %144, label %145, label %158

145:                                              ; preds = %143, %145
  %146 = phi i64 [ %152, %145 ], [ 0, %143 ]
  %147 = getelementptr inbounds nuw i32, ptr %12, i64 %146
  %148 = load <4 x i32>, ptr %147, align 16, !tbaa !5
  %149 = freeze <4 x i32> %148
  %150 = srem <4 x i32> %149, splat (i32 3)
  %151 = icmp ne <4 x i32> %150, zeroinitializer
  %152 = add nuw i64 %146, 4
  %153 = bitcast <4 x i1> %151 to i4
  %154 = icmp ne i4 %153, 0
  %155 = icmp eq i64 %152, 332
  %156 = or i1 %154, %155
  br i1 %156, label %157, label %145, !llvm.loop !98

157:                                              ; preds = %145
  br i1 %154, label %170, label %165

158:                                              ; preds = %143
  tail call void @__assert_fail(ptr noundef nonnull @.str, ptr noundef nonnull @.str.1, i32 noundef 39, ptr noundef nonnull @__PRETTY_FUNCTION__._ZN12TestOutItersI22random_access_iteratorIPKiEEclI19contiguous_iteratorIPiEEEvv) #6
  unreachable

159:                                              ; preds = %165
  %160 = getelementptr inbounds nuw i8, ptr %12, i64 1332
  %161 = load i32, ptr %160, align 4, !tbaa !5
  %162 = srem i32 %161, 3
  %163 = icmp eq i32 %162, 0
  br i1 %163, label %164, label %170

164:                                              ; preds = %159
  call void @llvm.lifetime.end.p0(ptr nonnull %12) #5
  call void @llvm.lifetime.end.p0(ptr nonnull %11) #5
  call void @llvm.lifetime.start.p0(ptr nonnull %9) #5
  call void @llvm.memset.p0.i64(ptr noundef nonnull align 16 dereferenceable(4000) %9, i8 0, i64 4000, i1 false)
  br label %171

165:                                              ; preds = %157
  %166 = getelementptr inbounds nuw i8, ptr %12, i64 1328
  %167 = load i32, ptr %166, align 16, !tbaa !5
  %168 = srem i32 %167, 3
  %169 = icmp eq i32 %168, 0
  br i1 %169, label %159, label %170

170:                                              ; preds = %165, %159, %157
  tail call void @__assert_fail(ptr noundef nonnull @.str.2, ptr noundef nonnull @.str.1, i32 noundef 41, ptr noundef nonnull @__PRETTY_FUNCTION__._ZN12TestOutItersI22random_access_iteratorIPKiEEclI19contiguous_iteratorIPiEEEvv) #6
  unreachable

171:                                              ; preds = %178, %164
  %172 = phi i64 [ 0, %164 ], [ %194, %178 ]
  %173 = phi <4 x i32> [ <i32 0, i32 1, i32 2, i32 3>, %164 ], [ %195, %178 ]
  %174 = add <4 x i32> %173, splat (i32 4)
  %175 = getelementptr inbounds nuw i32, ptr %9, i64 %172
  %176 = getelementptr inbounds nuw i8, ptr %175, i64 16
  store <4 x i32> %173, ptr %175, align 16, !tbaa !5
  store <4 x i32> %174, ptr %176, align 16, !tbaa !5
  %177 = icmp eq i64 %172, 992
  br i1 %177, label %196, label %178, !llvm.loop !99

178:                                              ; preds = %171
  %179 = add <4 x i32> %173, splat (i32 8)
  %180 = add <4 x i32> %173, splat (i32 12)
  %181 = getelementptr inbounds nuw i32, ptr %9, i64 %172
  %182 = getelementptr inbounds nuw i8, ptr %181, i64 32
  %183 = getelementptr inbounds nuw i8, ptr %181, i64 48
  store <4 x i32> %179, ptr %182, align 16, !tbaa !5
  store <4 x i32> %180, ptr %183, align 16, !tbaa !5
  %184 = add <4 x i32> %173, splat (i32 16)
  %185 = add <4 x i32> %173, splat (i32 20)
  %186 = getelementptr inbounds nuw i32, ptr %9, i64 %172
  %187 = getelementptr inbounds nuw i8, ptr %186, i64 64
  %188 = getelementptr inbounds nuw i8, ptr %186, i64 80
  store <4 x i32> %184, ptr %187, align 16, !tbaa !5
  store <4 x i32> %185, ptr %188, align 16, !tbaa !5
  %189 = add <4 x i32> %173, splat (i32 24)
  %190 = add <4 x i32> %173, splat (i32 28)
  %191 = getelementptr inbounds nuw i32, ptr %9, i64 %172
  %192 = getelementptr inbounds nuw i8, ptr %191, i64 96
  %193 = getelementptr inbounds nuw i8, ptr %191, i64 112
  store <4 x i32> %189, ptr %192, align 16, !tbaa !5
  store <4 x i32> %190, ptr %193, align 16, !tbaa !5
  %194 = add nuw nsw i64 %172, 32
  %195 = add <4 x i32> %173, splat (i32 32)
  br label %171

196:                                              ; preds = %171
  call void @llvm.lifetime.start.p0(ptr nonnull %10) #5
  call void @llvm.memset.p0.i64(ptr noundef nonnull align 16 dereferenceable(4000) %10, i8 0, i64 4000, i1 false)
  br label %197

197:                                              ; preds = %217, %196
  %198 = phi i64 [ 0, %196 ], [ %218, %217 ]
  %199 = phi i64 [ 0, %196 ], [ %219, %217 ]
  %200 = getelementptr inbounds nuw i8, ptr %9, i64 %199
  %201 = load i32, ptr %200, align 8, !tbaa !5, !noalias !100
  %202 = srem i32 %201, 3
  %203 = icmp eq i32 %202, 0
  br i1 %203, label %204, label %207

204:                                              ; preds = %197
  %205 = getelementptr inbounds nuw i8, ptr %10, i64 %198
  store i32 %201, ptr %205, align 4, !tbaa !5, !noalias !100
  %206 = add nuw nsw i64 %198, 4
  br label %207

207:                                              ; preds = %204, %197
  %208 = phi i64 [ %206, %204 ], [ %198, %197 ]
  %209 = getelementptr inbounds nuw i8, ptr %9, i64 %199
  %210 = getelementptr inbounds nuw i8, ptr %209, i64 4
  %211 = load i32, ptr %210, align 4, !tbaa !5, !noalias !100
  %212 = srem i32 %211, 3
  %213 = icmp eq i32 %212, 0
  br i1 %213, label %214, label %217

214:                                              ; preds = %207
  %215 = getelementptr inbounds nuw i8, ptr %10, i64 %208
  store i32 %211, ptr %215, align 4, !tbaa !5, !noalias !100
  %216 = add nuw nsw i64 %208, 4
  br label %217

217:                                              ; preds = %214, %207
  %218 = phi i64 [ %216, %214 ], [ %208, %207 ]
  %219 = add nuw nsw i64 %199, 8
  %220 = icmp eq i64 %219, 4000
  br i1 %220, label %221, label %197, !llvm.loop !103

221:                                              ; preds = %217
  %222 = icmp eq i64 %218, 1336
  br i1 %222, label %223, label %236

223:                                              ; preds = %221, %223
  %224 = phi i64 [ %230, %223 ], [ 0, %221 ]
  %225 = getelementptr inbounds nuw i32, ptr %10, i64 %224
  %226 = load <4 x i32>, ptr %225, align 16, !tbaa !5
  %227 = freeze <4 x i32> %226
  %228 = srem <4 x i32> %227, splat (i32 3)
  %229 = icmp ne <4 x i32> %228, zeroinitializer
  %230 = add nuw i64 %224, 4
  %231 = bitcast <4 x i1> %229 to i4
  %232 = icmp ne i4 %231, 0
  %233 = icmp eq i64 %230, 332
  %234 = or i1 %232, %233
  br i1 %234, label %235, label %223, !llvm.loop !104

235:                                              ; preds = %223
  br i1 %232, label %248, label %243

236:                                              ; preds = %221
  tail call void @__assert_fail(ptr noundef nonnull @.str, ptr noundef nonnull @.str.1, i32 noundef 39, ptr noundef nonnull @__PRETTY_FUNCTION__._ZN12TestOutItersI22random_access_iteratorIPKiEEclIS0_IPiEEEvv) #6
  unreachable

237:                                              ; preds = %243
  %238 = getelementptr inbounds nuw i8, ptr %10, i64 1332
  %239 = load i32, ptr %238, align 4, !tbaa !5
  %240 = srem i32 %239, 3
  %241 = icmp eq i32 %240, 0
  br i1 %241, label %242, label %248

242:                                              ; preds = %237
  call void @llvm.lifetime.end.p0(ptr nonnull %10) #5
  call void @llvm.lifetime.end.p0(ptr nonnull %9) #5
  call void @llvm.lifetime.start.p0(ptr nonnull %7) #5
  call void @llvm.memset.p0.i64(ptr noundef nonnull align 16 dereferenceable(4000) %7, i8 0, i64 4000, i1 false)
  br label %249

243:                                              ; preds = %235
  %244 = getelementptr inbounds nuw i8, ptr %10, i64 1328
  %245 = load i32, ptr %244, align 16, !tbaa !5
  %246 = srem i32 %245, 3
  %247 = icmp eq i32 %246, 0
  br i1 %247, label %237, label %248

248:                                              ; preds = %243, %237, %235
  tail call void @__assert_fail(ptr noundef nonnull @.str.2, ptr noundef nonnull @.str.1, i32 noundef 41, ptr noundef nonnull @__PRETTY_FUNCTION__._ZN12TestOutItersI22random_access_iteratorIPKiEEclIS0_IPiEEEvv) #6
  unreachable

249:                                              ; preds = %256, %242
  %250 = phi i64 [ 0, %242 ], [ %272, %256 ]
  %251 = phi <4 x i32> [ <i32 0, i32 1, i32 2, i32 3>, %242 ], [ %273, %256 ]
  %252 = add <4 x i32> %251, splat (i32 4)
  %253 = getelementptr inbounds nuw i32, ptr %7, i64 %250
  %254 = getelementptr inbounds nuw i8, ptr %253, i64 16
  store <4 x i32> %251, ptr %253, align 16, !tbaa !5
  store <4 x i32> %252, ptr %254, align 16, !tbaa !5
  %255 = icmp eq i64 %250, 992
  br i1 %255, label %274, label %256, !llvm.loop !105

256:                                              ; preds = %249
  %257 = add <4 x i32> %251, splat (i32 8)
  %258 = add <4 x i32> %251, splat (i32 12)
  %259 = getelementptr inbounds nuw i32, ptr %7, i64 %250
  %260 = getelementptr inbounds nuw i8, ptr %259, i64 32
  %261 = getelementptr inbounds nuw i8, ptr %259, i64 48
  store <4 x i32> %257, ptr %260, align 16, !tbaa !5
  store <4 x i32> %258, ptr %261, align 16, !tbaa !5
  %262 = add <4 x i32> %251, splat (i32 16)
  %263 = add <4 x i32> %251, splat (i32 20)
  %264 = getelementptr inbounds nuw i32, ptr %7, i64 %250
  %265 = getelementptr inbounds nuw i8, ptr %264, i64 64
  %266 = getelementptr inbounds nuw i8, ptr %264, i64 80
  store <4 x i32> %262, ptr %265, align 16, !tbaa !5
  store <4 x i32> %263, ptr %266, align 16, !tbaa !5
  %267 = add <4 x i32> %251, splat (i32 24)
  %268 = add <4 x i32> %251, splat (i32 28)
  %269 = getelementptr inbounds nuw i32, ptr %7, i64 %250
  %270 = getelementptr inbounds nuw i8, ptr %269, i64 96
  %271 = getelementptr inbounds nuw i8, ptr %269, i64 112
  store <4 x i32> %267, ptr %270, align 16, !tbaa !5
  store <4 x i32> %268, ptr %271, align 16, !tbaa !5
  %272 = add nuw nsw i64 %250, 32
  %273 = add <4 x i32> %251, splat (i32 32)
  br label %249

274:                                              ; preds = %249
  call void @llvm.lifetime.start.p0(ptr nonnull %8) #5
  call void @llvm.memset.p0.i64(ptr noundef nonnull align 16 dereferenceable(4000) %8, i8 0, i64 4000, i1 false)
  br label %275

275:                                              ; preds = %295, %274
  %276 = phi i64 [ 0, %274 ], [ %296, %295 ]
  %277 = phi i64 [ 0, %274 ], [ %297, %295 ]
  %278 = getelementptr inbounds nuw i8, ptr %7, i64 %277
  %279 = load i32, ptr %278, align 8, !tbaa !5, !noalias !106
  %280 = srem i32 %279, 3
  %281 = icmp eq i32 %280, 0
  br i1 %281, label %282, label %285

282:                                              ; preds = %275
  %283 = getelementptr inbounds nuw i8, ptr %8, i64 %276
  store i32 %279, ptr %283, align 4, !tbaa !5, !noalias !106
  %284 = add nuw nsw i64 %276, 4
  br label %285

285:                                              ; preds = %282, %275
  %286 = phi i64 [ %284, %282 ], [ %276, %275 ]
  %287 = getelementptr inbounds nuw i8, ptr %7, i64 %277
  %288 = getelementptr inbounds nuw i8, ptr %287, i64 4
  %289 = load i32, ptr %288, align 4, !tbaa !5, !noalias !106
  %290 = srem i32 %289, 3
  %291 = icmp eq i32 %290, 0
  br i1 %291, label %292, label %295

292:                                              ; preds = %285
  %293 = getelementptr inbounds nuw i8, ptr %8, i64 %286
  store i32 %289, ptr %293, align 4, !tbaa !5, !noalias !106
  %294 = add nuw nsw i64 %286, 4
  br label %295

295:                                              ; preds = %292, %285
  %296 = phi i64 [ %294, %292 ], [ %286, %285 ]
  %297 = add nuw nsw i64 %277, 8
  %298 = icmp eq i64 %297, 4000
  br i1 %298, label %299, label %275, !llvm.loop !109

299:                                              ; preds = %295
  %300 = icmp eq i64 %296, 1336
  br i1 %300, label %301, label %314

301:                                              ; preds = %299, %301
  %302 = phi i64 [ %308, %301 ], [ 0, %299 ]
  %303 = getelementptr inbounds nuw i32, ptr %8, i64 %302
  %304 = load <4 x i32>, ptr %303, align 16, !tbaa !5
  %305 = freeze <4 x i32> %304
  %306 = srem <4 x i32> %305, splat (i32 3)
  %307 = icmp ne <4 x i32> %306, zeroinitializer
  %308 = add nuw i64 %302, 4
  %309 = bitcast <4 x i1> %307 to i4
  %310 = icmp ne i4 %309, 0
  %311 = icmp eq i64 %308, 332
  %312 = or i1 %310, %311
  br i1 %312, label %313, label %301, !llvm.loop !110

313:                                              ; preds = %301
  br i1 %310, label %326, label %321

314:                                              ; preds = %299
  tail call void @__assert_fail(ptr noundef nonnull @.str, ptr noundef nonnull @.str.1, i32 noundef 39, ptr noundef nonnull @__PRETTY_FUNCTION__._ZN12TestOutItersI22random_access_iteratorIPKiEEclI22bidirectional_iteratorIPiEEEvv) #6
  unreachable

315:                                              ; preds = %321
  %316 = getelementptr inbounds nuw i8, ptr %8, i64 1332
  %317 = load i32, ptr %316, align 4, !tbaa !5
  %318 = srem i32 %317, 3
  %319 = icmp eq i32 %318, 0
  br i1 %319, label %320, label %326

320:                                              ; preds = %315
  call void @llvm.lifetime.end.p0(ptr nonnull %8) #5
  call void @llvm.lifetime.end.p0(ptr nonnull %7) #5
  call void @llvm.lifetime.start.p0(ptr nonnull %5) #5
  call void @llvm.memset.p0.i64(ptr noundef nonnull align 16 dereferenceable(4000) %5, i8 0, i64 4000, i1 false)
  br label %327

321:                                              ; preds = %313
  %322 = getelementptr inbounds nuw i8, ptr %8, i64 1328
  %323 = load i32, ptr %322, align 16, !tbaa !5
  %324 = srem i32 %323, 3
  %325 = icmp eq i32 %324, 0
  br i1 %325, label %315, label %326

326:                                              ; preds = %321, %315, %313
  tail call void @__assert_fail(ptr noundef nonnull @.str.2, ptr noundef nonnull @.str.1, i32 noundef 41, ptr noundef nonnull @__PRETTY_FUNCTION__._ZN12TestOutItersI22random_access_iteratorIPKiEEclI22bidirectional_iteratorIPiEEEvv) #6
  unreachable

327:                                              ; preds = %334, %320
  %328 = phi i64 [ 0, %320 ], [ %350, %334 ]
  %329 = phi <4 x i32> [ <i32 0, i32 1, i32 2, i32 3>, %320 ], [ %351, %334 ]
  %330 = add <4 x i32> %329, splat (i32 4)
  %331 = getelementptr inbounds nuw i32, ptr %5, i64 %328
  %332 = getelementptr inbounds nuw i8, ptr %331, i64 16
  store <4 x i32> %329, ptr %331, align 16, !tbaa !5
  store <4 x i32> %330, ptr %332, align 16, !tbaa !5
  %333 = icmp eq i64 %328, 992
  br i1 %333, label %352, label %334, !llvm.loop !111

334:                                              ; preds = %327
  %335 = add <4 x i32> %329, splat (i32 8)
  %336 = add <4 x i32> %329, splat (i32 12)
  %337 = getelementptr inbounds nuw i32, ptr %5, i64 %328
  %338 = getelementptr inbounds nuw i8, ptr %337, i64 32
  %339 = getelementptr inbounds nuw i8, ptr %337, i64 48
  store <4 x i32> %335, ptr %338, align 16, !tbaa !5
  store <4 x i32> %336, ptr %339, align 16, !tbaa !5
  %340 = add <4 x i32> %329, splat (i32 16)
  %341 = add <4 x i32> %329, splat (i32 20)
  %342 = getelementptr inbounds nuw i32, ptr %5, i64 %328
  %343 = getelementptr inbounds nuw i8, ptr %342, i64 64
  %344 = getelementptr inbounds nuw i8, ptr %342, i64 80
  store <4 x i32> %340, ptr %343, align 16, !tbaa !5
  store <4 x i32> %341, ptr %344, align 16, !tbaa !5
  %345 = add <4 x i32> %329, splat (i32 24)
  %346 = add <4 x i32> %329, splat (i32 28)
  %347 = getelementptr inbounds nuw i32, ptr %5, i64 %328
  %348 = getelementptr inbounds nuw i8, ptr %347, i64 96
  %349 = getelementptr inbounds nuw i8, ptr %347, i64 112
  store <4 x i32> %345, ptr %348, align 16, !tbaa !5
  store <4 x i32> %346, ptr %349, align 16, !tbaa !5
  %350 = add nuw nsw i64 %328, 32
  %351 = add <4 x i32> %329, splat (i32 32)
  br label %327

352:                                              ; preds = %327
  call void @llvm.lifetime.start.p0(ptr nonnull %6) #5
  call void @llvm.memset.p0.i64(ptr noundef nonnull align 16 dereferenceable(4000) %6, i8 0, i64 4000, i1 false)
  br label %353

353:                                              ; preds = %373, %352
  %354 = phi i64 [ 0, %352 ], [ %374, %373 ]
  %355 = phi i64 [ 0, %352 ], [ %375, %373 ]
  %356 = getelementptr inbounds nuw i8, ptr %5, i64 %355
  %357 = load i32, ptr %356, align 8, !tbaa !5, !noalias !112
  %358 = srem i32 %357, 3
  %359 = icmp eq i32 %358, 0
  br i1 %359, label %360, label %363

360:                                              ; preds = %353
  %361 = getelementptr inbounds nuw i8, ptr %6, i64 %354
  store i32 %357, ptr %361, align 4, !tbaa !5, !noalias !112
  %362 = add nuw nsw i64 %354, 4
  br label %363

363:                                              ; preds = %360, %353
  %364 = phi i64 [ %362, %360 ], [ %354, %353 ]
  %365 = getelementptr inbounds nuw i8, ptr %5, i64 %355
  %366 = getelementptr inbounds nuw i8, ptr %365, i64 4
  %367 = load i32, ptr %366, align 4, !tbaa !5, !noalias !112
  %368 = srem i32 %367, 3
  %369 = icmp eq i32 %368, 0
  br i1 %369, label %370, label %373

370:                                              ; preds = %363
  %371 = getelementptr inbounds nuw i8, ptr %6, i64 %364
  store i32 %367, ptr %371, align 4, !tbaa !5, !noalias !112
  %372 = add nuw nsw i64 %364, 4
  br label %373

373:                                              ; preds = %370, %363
  %374 = phi i64 [ %372, %370 ], [ %364, %363 ]
  %375 = add nuw nsw i64 %355, 8
  %376 = icmp eq i64 %375, 4000
  br i1 %376, label %377, label %353, !llvm.loop !115

377:                                              ; preds = %373
  %378 = icmp eq i64 %374, 1336
  br i1 %378, label %379, label %392

379:                                              ; preds = %377, %379
  %380 = phi i64 [ %386, %379 ], [ 0, %377 ]
  %381 = getelementptr inbounds nuw i32, ptr %6, i64 %380
  %382 = load <4 x i32>, ptr %381, align 16, !tbaa !5
  %383 = freeze <4 x i32> %382
  %384 = srem <4 x i32> %383, splat (i32 3)
  %385 = icmp ne <4 x i32> %384, zeroinitializer
  %386 = add nuw i64 %380, 4
  %387 = bitcast <4 x i1> %385 to i4
  %388 = icmp ne i4 %387, 0
  %389 = icmp eq i64 %386, 332
  %390 = or i1 %388, %389
  br i1 %390, label %391, label %379, !llvm.loop !116

391:                                              ; preds = %379
  br i1 %388, label %404, label %399

392:                                              ; preds = %377
  tail call void @__assert_fail(ptr noundef nonnull @.str, ptr noundef nonnull @.str.1, i32 noundef 39, ptr noundef nonnull @__PRETTY_FUNCTION__._ZN12TestOutItersI22random_access_iteratorIPKiEEclI16forward_iteratorIPiEEEvv) #6
  unreachable

393:                                              ; preds = %399
  %394 = getelementptr inbounds nuw i8, ptr %6, i64 1332
  %395 = load i32, ptr %394, align 4, !tbaa !5
  %396 = srem i32 %395, 3
  %397 = icmp eq i32 %396, 0
  br i1 %397, label %398, label %404

398:                                              ; preds = %393
  call void @llvm.lifetime.end.p0(ptr nonnull %6) #5
  call void @llvm.lifetime.end.p0(ptr nonnull %5) #5
  call void @llvm.lifetime.start.p0(ptr nonnull %3) #5
  call void @llvm.memset.p0.i64(ptr noundef nonnull align 16 dereferenceable(4000) %3, i8 0, i64 4000, i1 false)
  br label %405

399:                                              ; preds = %391
  %400 = getelementptr inbounds nuw i8, ptr %6, i64 1328
  %401 = load i32, ptr %400, align 16, !tbaa !5
  %402 = srem i32 %401, 3
  %403 = icmp eq i32 %402, 0
  br i1 %403, label %393, label %404

404:                                              ; preds = %399, %393, %391
  tail call void @__assert_fail(ptr noundef nonnull @.str.2, ptr noundef nonnull @.str.1, i32 noundef 41, ptr noundef nonnull @__PRETTY_FUNCTION__._ZN12TestOutItersI22random_access_iteratorIPKiEEclI16forward_iteratorIPiEEEvv) #6
  unreachable

405:                                              ; preds = %412, %398
  %406 = phi i64 [ 0, %398 ], [ %428, %412 ]
  %407 = phi <4 x i32> [ <i32 0, i32 1, i32 2, i32 3>, %398 ], [ %429, %412 ]
  %408 = add <4 x i32> %407, splat (i32 4)
  %409 = getelementptr inbounds nuw i32, ptr %3, i64 %406
  %410 = getelementptr inbounds nuw i8, ptr %409, i64 16
  store <4 x i32> %407, ptr %409, align 16, !tbaa !5
  store <4 x i32> %408, ptr %410, align 16, !tbaa !5
  %411 = icmp eq i64 %406, 992
  br i1 %411, label %430, label %412, !llvm.loop !117

412:                                              ; preds = %405
  %413 = add <4 x i32> %407, splat (i32 8)
  %414 = add <4 x i32> %407, splat (i32 12)
  %415 = getelementptr inbounds nuw i32, ptr %3, i64 %406
  %416 = getelementptr inbounds nuw i8, ptr %415, i64 32
  %417 = getelementptr inbounds nuw i8, ptr %415, i64 48
  store <4 x i32> %413, ptr %416, align 16, !tbaa !5
  store <4 x i32> %414, ptr %417, align 16, !tbaa !5
  %418 = add <4 x i32> %407, splat (i32 16)
  %419 = add <4 x i32> %407, splat (i32 20)
  %420 = getelementptr inbounds nuw i32, ptr %3, i64 %406
  %421 = getelementptr inbounds nuw i8, ptr %420, i64 64
  %422 = getelementptr inbounds nuw i8, ptr %420, i64 80
  store <4 x i32> %418, ptr %421, align 16, !tbaa !5
  store <4 x i32> %419, ptr %422, align 16, !tbaa !5
  %423 = add <4 x i32> %407, splat (i32 24)
  %424 = add <4 x i32> %407, splat (i32 28)
  %425 = getelementptr inbounds nuw i32, ptr %3, i64 %406
  %426 = getelementptr inbounds nuw i8, ptr %425, i64 96
  %427 = getelementptr inbounds nuw i8, ptr %425, i64 112
  store <4 x i32> %423, ptr %426, align 16, !tbaa !5
  store <4 x i32> %424, ptr %427, align 16, !tbaa !5
  %428 = add nuw nsw i64 %406, 32
  %429 = add <4 x i32> %407, splat (i32 32)
  br label %405

430:                                              ; preds = %405
  call void @llvm.lifetime.start.p0(ptr nonnull %4) #5
  call void @llvm.memset.p0.i64(ptr noundef nonnull align 16 dereferenceable(4000) %4, i8 0, i64 4000, i1 false)
  br label %431

431:                                              ; preds = %451, %430
  %432 = phi i64 [ 0, %430 ], [ %452, %451 ]
  %433 = phi i64 [ 0, %430 ], [ %453, %451 ]
  %434 = getelementptr inbounds nuw i8, ptr %3, i64 %433
  %435 = load i32, ptr %434, align 8, !tbaa !5, !noalias !118
  %436 = srem i32 %435, 3
  %437 = icmp eq i32 %436, 0
  br i1 %437, label %438, label %441

438:                                              ; preds = %431
  %439 = getelementptr inbounds nuw i8, ptr %4, i64 %432
  store i32 %435, ptr %439, align 4, !tbaa !5, !noalias !118
  %440 = add nuw nsw i64 %432, 4
  br label %441

441:                                              ; preds = %438, %431
  %442 = phi i64 [ %440, %438 ], [ %432, %431 ]
  %443 = getelementptr inbounds nuw i8, ptr %3, i64 %433
  %444 = getelementptr inbounds nuw i8, ptr %443, i64 4
  %445 = load i32, ptr %444, align 4, !tbaa !5, !noalias !118
  %446 = srem i32 %445, 3
  %447 = icmp eq i32 %446, 0
  br i1 %447, label %448, label %451

448:                                              ; preds = %441
  %449 = getelementptr inbounds nuw i8, ptr %4, i64 %442
  store i32 %445, ptr %449, align 4, !tbaa !5, !noalias !118
  %450 = add nuw nsw i64 %442, 4
  br label %451

451:                                              ; preds = %448, %441
  %452 = phi i64 [ %450, %448 ], [ %442, %441 ]
  %453 = add nuw nsw i64 %433, 8
  %454 = icmp eq i64 %453, 4000
  br i1 %454, label %455, label %431, !llvm.loop !121

455:                                              ; preds = %451
  %456 = icmp eq i64 %452, 1336
  br i1 %456, label %457, label %470

457:                                              ; preds = %455, %457
  %458 = phi i64 [ %464, %457 ], [ 0, %455 ]
  %459 = getelementptr inbounds nuw i32, ptr %4, i64 %458
  %460 = load <4 x i32>, ptr %459, align 16, !tbaa !5
  %461 = freeze <4 x i32> %460
  %462 = srem <4 x i32> %461, splat (i32 3)
  %463 = icmp ne <4 x i32> %462, zeroinitializer
  %464 = add nuw i64 %458, 4
  %465 = bitcast <4 x i1> %463 to i4
  %466 = icmp ne i4 %465, 0
  %467 = icmp eq i64 %464, 332
  %468 = or i1 %466, %467
  br i1 %468, label %469, label %457, !llvm.loop !122

469:                                              ; preds = %457
  br i1 %466, label %482, label %477

470:                                              ; preds = %455
  tail call void @__assert_fail(ptr noundef nonnull @.str, ptr noundef nonnull @.str.1, i32 noundef 39, ptr noundef nonnull @__PRETTY_FUNCTION__._ZN12TestOutItersI22random_access_iteratorIPKiEEclI20cpp17_input_iteratorIPiS7_EEEvv) #6
  unreachable

471:                                              ; preds = %477
  %472 = getelementptr inbounds nuw i8, ptr %4, i64 1332
  %473 = load i32, ptr %472, align 4, !tbaa !5
  %474 = srem i32 %473, 3
  %475 = icmp eq i32 %474, 0
  br i1 %475, label %476, label %482

476:                                              ; preds = %471
  call void @llvm.lifetime.end.p0(ptr nonnull %4) #5
  call void @llvm.lifetime.end.p0(ptr nonnull %3) #5
  call void @llvm.lifetime.start.p0(ptr nonnull %1) #5
  call void @llvm.memset.p0.i64(ptr noundef nonnull align 16 dereferenceable(4000) %1, i8 0, i64 4000, i1 false)
  br label %483

477:                                              ; preds = %469
  %478 = getelementptr inbounds nuw i8, ptr %4, i64 1328
  %479 = load i32, ptr %478, align 16, !tbaa !5
  %480 = srem i32 %479, 3
  %481 = icmp eq i32 %480, 0
  br i1 %481, label %471, label %482

482:                                              ; preds = %477, %471, %469
  tail call void @__assert_fail(ptr noundef nonnull @.str.2, ptr noundef nonnull @.str.1, i32 noundef 41, ptr noundef nonnull @__PRETTY_FUNCTION__._ZN12TestOutItersI22random_access_iteratorIPKiEEclI20cpp17_input_iteratorIPiS7_EEEvv) #6
  unreachable

483:                                              ; preds = %490, %476
  %484 = phi i64 [ 0, %476 ], [ %506, %490 ]
  %485 = phi <4 x i32> [ <i32 0, i32 1, i32 2, i32 3>, %476 ], [ %507, %490 ]
  %486 = add <4 x i32> %485, splat (i32 4)
  %487 = getelementptr inbounds nuw i32, ptr %1, i64 %484
  %488 = getelementptr inbounds nuw i8, ptr %487, i64 16
  store <4 x i32> %485, ptr %487, align 16, !tbaa !5
  store <4 x i32> %486, ptr %488, align 16, !tbaa !5
  %489 = icmp eq i64 %484, 992
  br i1 %489, label %508, label %490, !llvm.loop !123

490:                                              ; preds = %483
  %491 = add <4 x i32> %485, splat (i32 8)
  %492 = add <4 x i32> %485, splat (i32 12)
  %493 = getelementptr inbounds nuw i32, ptr %1, i64 %484
  %494 = getelementptr inbounds nuw i8, ptr %493, i64 32
  %495 = getelementptr inbounds nuw i8, ptr %493, i64 48
  store <4 x i32> %491, ptr %494, align 16, !tbaa !5
  store <4 x i32> %492, ptr %495, align 16, !tbaa !5
  %496 = add <4 x i32> %485, splat (i32 16)
  %497 = add <4 x i32> %485, splat (i32 20)
  %498 = getelementptr inbounds nuw i32, ptr %1, i64 %484
  %499 = getelementptr inbounds nuw i8, ptr %498, i64 64
  %500 = getelementptr inbounds nuw i8, ptr %498, i64 80
  store <4 x i32> %496, ptr %499, align 16, !tbaa !5
  store <4 x i32> %497, ptr %500, align 16, !tbaa !5
  %501 = add <4 x i32> %485, splat (i32 24)
  %502 = add <4 x i32> %485, splat (i32 28)
  %503 = getelementptr inbounds nuw i32, ptr %1, i64 %484
  %504 = getelementptr inbounds nuw i8, ptr %503, i64 96
  %505 = getelementptr inbounds nuw i8, ptr %503, i64 112
  store <4 x i32> %501, ptr %504, align 16, !tbaa !5
  store <4 x i32> %502, ptr %505, align 16, !tbaa !5
  %506 = add nuw nsw i64 %484, 32
  %507 = add <4 x i32> %485, splat (i32 32)
  br label %483

508:                                              ; preds = %483
  call void @llvm.lifetime.start.p0(ptr nonnull %2) #5
  call void @llvm.memset.p0.i64(ptr noundef nonnull align 16 dereferenceable(4000) %2, i8 0, i64 4000, i1 false)
  br label %509

509:                                              ; preds = %529, %508
  %510 = phi i64 [ 0, %508 ], [ %530, %529 ]
  %511 = phi i64 [ 0, %508 ], [ %531, %529 ]
  %512 = getelementptr inbounds nuw i8, ptr %1, i64 %511
  %513 = load i32, ptr %512, align 8, !tbaa !5, !noalias !124
  %514 = srem i32 %513, 3
  %515 = icmp eq i32 %514, 0
  br i1 %515, label %516, label %519

516:                                              ; preds = %509
  %517 = getelementptr inbounds nuw i8, ptr %2, i64 %510
  store i32 %513, ptr %517, align 4, !tbaa !5, !noalias !124
  %518 = add nuw nsw i64 %510, 4
  br label %519

519:                                              ; preds = %516, %509
  %520 = phi i64 [ %518, %516 ], [ %510, %509 ]
  %521 = getelementptr inbounds nuw i8, ptr %1, i64 %511
  %522 = getelementptr inbounds nuw i8, ptr %521, i64 4
  %523 = load i32, ptr %522, align 4, !tbaa !5, !noalias !124
  %524 = srem i32 %523, 3
  %525 = icmp eq i32 %524, 0
  br i1 %525, label %526, label %529

526:                                              ; preds = %519
  %527 = getelementptr inbounds nuw i8, ptr %2, i64 %520
  store i32 %523, ptr %527, align 4, !tbaa !5, !noalias !124
  %528 = add nuw nsw i64 %520, 4
  br label %529

529:                                              ; preds = %526, %519
  %530 = phi i64 [ %528, %526 ], [ %520, %519 ]
  %531 = add nuw nsw i64 %511, 8
  %532 = icmp eq i64 %531, 4000
  br i1 %532, label %533, label %509, !llvm.loop !127

533:                                              ; preds = %529
  %534 = icmp eq i64 %530, 1336
  br i1 %534, label %535, label %548

535:                                              ; preds = %533, %535
  %536 = phi i64 [ %542, %535 ], [ 0, %533 ]
  %537 = getelementptr inbounds nuw i32, ptr %2, i64 %536
  %538 = load <4 x i32>, ptr %537, align 16, !tbaa !5
  %539 = freeze <4 x i32> %538
  %540 = srem <4 x i32> %539, splat (i32 3)
  %541 = icmp ne <4 x i32> %540, zeroinitializer
  %542 = add nuw i64 %536, 4
  %543 = bitcast <4 x i1> %541 to i4
  %544 = icmp ne i4 %543, 0
  %545 = icmp eq i64 %542, 332
  %546 = or i1 %544, %545
  br i1 %546, label %547, label %535, !llvm.loop !128

547:                                              ; preds = %535
  br i1 %544, label %560, label %555

548:                                              ; preds = %533
  tail call void @__assert_fail(ptr noundef nonnull @.str, ptr noundef nonnull @.str.1, i32 noundef 39, ptr noundef nonnull @__PRETTY_FUNCTION__._ZN12TestOutItersI22random_access_iteratorIPKiEEclI21cpp17_output_iteratorIPiEEEvv) #6
  unreachable

549:                                              ; preds = %555
  %550 = getelementptr inbounds nuw i8, ptr %2, i64 1332
  %551 = load i32, ptr %550, align 4, !tbaa !5
  %552 = srem i32 %551, 3
  %553 = icmp eq i32 %552, 0
  br i1 %553, label %554, label %560

554:                                              ; preds = %549
  call void @llvm.lifetime.end.p0(ptr nonnull %2) #5
  call void @llvm.lifetime.end.p0(ptr nonnull %1) #5
  ret void

555:                                              ; preds = %547
  %556 = getelementptr inbounds nuw i8, ptr %2, i64 1328
  %557 = load i32, ptr %556, align 16, !tbaa !5
  %558 = srem i32 %557, 3
  %559 = icmp eq i32 %558, 0
  br i1 %559, label %549, label %560

560:                                              ; preds = %555, %549, %547
  tail call void @__assert_fail(ptr noundef nonnull @.str.2, ptr noundef nonnull @.str.1, i32 noundef 41, ptr noundef nonnull @__PRETTY_FUNCTION__._ZN12TestOutItersI22random_access_iteratorIPKiEEclI21cpp17_output_iteratorIPiEEEvv) #6
  unreachable
}

; Function Attrs: mustprogress uwtable
define linkonce_odr dso_local void @_ZN5types8for_eachIJPi19contiguous_iteratorIS1_E22random_access_iteratorIS1_E22bidirectional_iteratorIS1_E16forward_iteratorIS1_E20cpp17_input_iteratorIS1_S1_E21cpp17_output_iteratorIS1_EE12TestOutItersIS6_IPKiEEEEvNS_9type_listIJDpT_EEET0_() local_unnamed_addr #1 comdat {
  %1 = alloca [1000 x i32], align 16
  %2 = alloca [1000 x i32], align 16
  %3 = alloca [1000 x i32], align 16
  %4 = alloca [1000 x i32], align 16
  %5 = alloca [1000 x i32], align 16
  %6 = alloca [1000 x i32], align 16
  %7 = alloca [1000 x i32], align 16
  %8 = alloca [1000 x i32], align 16
  %9 = alloca [1000 x i32], align 16
  %10 = alloca [1000 x i32], align 16
  %11 = alloca [1000 x i32], align 16
  %12 = alloca [1000 x i32], align 16
  %13 = alloca [1000 x i32], align 16
  %14 = alloca [1000 x i32], align 16
  call void @llvm.lifetime.start.p0(ptr nonnull %13) #5
  call void @llvm.memset.p0.i64(ptr noundef nonnull align 16 dereferenceable(4000) %13, i8 0, i64 4000, i1 false)
  br label %15

15:                                               ; preds = %22, %0
  %16 = phi i64 [ 0, %0 ], [ %38, %22 ]
  %17 = phi <4 x i32> [ <i32 0, i32 1, i32 2, i32 3>, %0 ], [ %39, %22 ]
  %18 = add <4 x i32> %17, splat (i32 4)
  %19 = getelementptr inbounds nuw i32, ptr %13, i64 %16
  %20 = getelementptr inbounds nuw i8, ptr %19, i64 16
  store <4 x i32> %17, ptr %19, align 16, !tbaa !5
  store <4 x i32> %18, ptr %20, align 16, !tbaa !5
  %21 = icmp eq i64 %16, 992
  br i1 %21, label %40, label %22, !llvm.loop !129

22:                                               ; preds = %15
  %23 = add <4 x i32> %17, splat (i32 8)
  %24 = add <4 x i32> %17, splat (i32 12)
  %25 = getelementptr inbounds nuw i32, ptr %13, i64 %16
  %26 = getelementptr inbounds nuw i8, ptr %25, i64 32
  %27 = getelementptr inbounds nuw i8, ptr %25, i64 48
  store <4 x i32> %23, ptr %26, align 16, !tbaa !5
  store <4 x i32> %24, ptr %27, align 16, !tbaa !5
  %28 = add <4 x i32> %17, splat (i32 16)
  %29 = add <4 x i32> %17, splat (i32 20)
  %30 = getelementptr inbounds nuw i32, ptr %13, i64 %16
  %31 = getelementptr inbounds nuw i8, ptr %30, i64 64
  %32 = getelementptr inbounds nuw i8, ptr %30, i64 80
  store <4 x i32> %28, ptr %31, align 16, !tbaa !5
  store <4 x i32> %29, ptr %32, align 16, !tbaa !5
  %33 = add <4 x i32> %17, splat (i32 24)
  %34 = add <4 x i32> %17, splat (i32 28)
  %35 = getelementptr inbounds nuw i32, ptr %13, i64 %16
  %36 = getelementptr inbounds nuw i8, ptr %35, i64 96
  %37 = getelementptr inbounds nuw i8, ptr %35, i64 112
  store <4 x i32> %33, ptr %36, align 16, !tbaa !5
  store <4 x i32> %34, ptr %37, align 16, !tbaa !5
  %38 = add nuw nsw i64 %16, 32
  %39 = add <4 x i32> %17, splat (i32 32)
  br label %15

40:                                               ; preds = %15
  call void @llvm.lifetime.start.p0(ptr nonnull %14) #5
  call void @llvm.memset.p0.i64(ptr noundef nonnull align 16 dereferenceable(4000) %14, i8 0, i64 4000, i1 false)
  br label %41

41:                                               ; preds = %61, %40
  %42 = phi i64 [ 0, %40 ], [ %63, %61 ]
  %43 = phi i64 [ 0, %40 ], [ %62, %61 ]
  %44 = getelementptr inbounds nuw i8, ptr %13, i64 %42
  %45 = load i32, ptr %44, align 8, !tbaa !5
  %46 = srem i32 %45, 3
  %47 = icmp eq i32 %46, 0
  br i1 %47, label %48, label %51

48:                                               ; preds = %41
  %49 = getelementptr inbounds nuw i8, ptr %14, i64 %43
  store i32 %45, ptr %49, align 4, !tbaa !5
  %50 = add nuw nsw i64 %43, 4
  br label %51

51:                                               ; preds = %48, %41
  %52 = phi i64 [ %50, %48 ], [ %43, %41 ]
  %53 = getelementptr inbounds nuw i8, ptr %13, i64 %42
  %54 = getelementptr inbounds nuw i8, ptr %53, i64 4
  %55 = load i32, ptr %54, align 4, !tbaa !5
  %56 = srem i32 %55, 3
  %57 = icmp eq i32 %56, 0
  br i1 %57, label %58, label %61

58:                                               ; preds = %51
  %59 = getelementptr inbounds nuw i8, ptr %14, i64 %52
  store i32 %55, ptr %59, align 4, !tbaa !5
  %60 = add nuw nsw i64 %52, 4
  br label %61

61:                                               ; preds = %58, %51
  %62 = phi i64 [ %60, %58 ], [ %52, %51 ]
  %63 = add nuw nsw i64 %42, 8
  %64 = icmp eq i64 %63, 4000
  br i1 %64, label %65, label %41, !llvm.loop !130

65:                                               ; preds = %61
  %66 = icmp eq i64 %62, 1336
  br i1 %66, label %67, label %80

67:                                               ; preds = %65, %67
  %68 = phi i64 [ %74, %67 ], [ 0, %65 ]
  %69 = getelementptr inbounds nuw i32, ptr %14, i64 %68
  %70 = load <4 x i32>, ptr %69, align 16, !tbaa !5
  %71 = freeze <4 x i32> %70
  %72 = srem <4 x i32> %71, splat (i32 3)
  %73 = icmp ne <4 x i32> %72, zeroinitializer
  %74 = add nuw i64 %68, 4
  %75 = bitcast <4 x i1> %73 to i4
  %76 = icmp ne i4 %75, 0
  %77 = icmp eq i64 %74, 332
  %78 = or i1 %76, %77
  br i1 %78, label %79, label %67, !llvm.loop !131

79:                                               ; preds = %67
  br i1 %76, label %92, label %87

80:                                               ; preds = %65
  tail call void @__assert_fail(ptr noundef nonnull @.str, ptr noundef nonnull @.str.1, i32 noundef 39, ptr noundef nonnull @__PRETTY_FUNCTION__._ZN12TestOutItersI22bidirectional_iteratorIPKiEEclIPiEEvv) #6
  unreachable

81:                                               ; preds = %87
  %82 = getelementptr inbounds nuw i8, ptr %14, i64 1332
  %83 = load i32, ptr %82, align 4, !tbaa !5
  %84 = srem i32 %83, 3
  %85 = icmp eq i32 %84, 0
  br i1 %85, label %86, label %92

86:                                               ; preds = %81
  call void @llvm.lifetime.end.p0(ptr nonnull %14) #5
  call void @llvm.lifetime.end.p0(ptr nonnull %13) #5
  call void @llvm.lifetime.start.p0(ptr nonnull %11) #5
  call void @llvm.memset.p0.i64(ptr noundef nonnull align 16 dereferenceable(4000) %11, i8 0, i64 4000, i1 false)
  br label %93

87:                                               ; preds = %79
  %88 = getelementptr inbounds nuw i8, ptr %14, i64 1328
  %89 = load i32, ptr %88, align 16, !tbaa !5
  %90 = srem i32 %89, 3
  %91 = icmp eq i32 %90, 0
  br i1 %91, label %81, label %92

92:                                               ; preds = %87, %81, %79
  tail call void @__assert_fail(ptr noundef nonnull @.str.2, ptr noundef nonnull @.str.1, i32 noundef 41, ptr noundef nonnull @__PRETTY_FUNCTION__._ZN12TestOutItersI22bidirectional_iteratorIPKiEEclIPiEEvv) #6
  unreachable

93:                                               ; preds = %100, %86
  %94 = phi i64 [ 0, %86 ], [ %116, %100 ]
  %95 = phi <4 x i32> [ <i32 0, i32 1, i32 2, i32 3>, %86 ], [ %117, %100 ]
  %96 = add <4 x i32> %95, splat (i32 4)
  %97 = getelementptr inbounds nuw i32, ptr %11, i64 %94
  %98 = getelementptr inbounds nuw i8, ptr %97, i64 16
  store <4 x i32> %95, ptr %97, align 16, !tbaa !5
  store <4 x i32> %96, ptr %98, align 16, !tbaa !5
  %99 = icmp eq i64 %94, 992
  br i1 %99, label %118, label %100, !llvm.loop !132

100:                                              ; preds = %93
  %101 = add <4 x i32> %95, splat (i32 8)
  %102 = add <4 x i32> %95, splat (i32 12)
  %103 = getelementptr inbounds nuw i32, ptr %11, i64 %94
  %104 = getelementptr inbounds nuw i8, ptr %103, i64 32
  %105 = getelementptr inbounds nuw i8, ptr %103, i64 48
  store <4 x i32> %101, ptr %104, align 16, !tbaa !5
  store <4 x i32> %102, ptr %105, align 16, !tbaa !5
  %106 = add <4 x i32> %95, splat (i32 16)
  %107 = add <4 x i32> %95, splat (i32 20)
  %108 = getelementptr inbounds nuw i32, ptr %11, i64 %94
  %109 = getelementptr inbounds nuw i8, ptr %108, i64 64
  %110 = getelementptr inbounds nuw i8, ptr %108, i64 80
  store <4 x i32> %106, ptr %109, align 16, !tbaa !5
  store <4 x i32> %107, ptr %110, align 16, !tbaa !5
  %111 = add <4 x i32> %95, splat (i32 24)
  %112 = add <4 x i32> %95, splat (i32 28)
  %113 = getelementptr inbounds nuw i32, ptr %11, i64 %94
  %114 = getelementptr inbounds nuw i8, ptr %113, i64 96
  %115 = getelementptr inbounds nuw i8, ptr %113, i64 112
  store <4 x i32> %111, ptr %114, align 16, !tbaa !5
  store <4 x i32> %112, ptr %115, align 16, !tbaa !5
  %116 = add nuw nsw i64 %94, 32
  %117 = add <4 x i32> %95, splat (i32 32)
  br label %93

118:                                              ; preds = %93
  call void @llvm.lifetime.start.p0(ptr nonnull %12) #5
  call void @llvm.memset.p0.i64(ptr noundef nonnull align 16 dereferenceable(4000) %12, i8 0, i64 4000, i1 false)
  br label %119

119:                                              ; preds = %139, %118
  %120 = phi i64 [ 0, %118 ], [ %140, %139 ]
  %121 = phi i64 [ 0, %118 ], [ %141, %139 ]
  %122 = getelementptr inbounds nuw i8, ptr %11, i64 %121
  %123 = load i32, ptr %122, align 8, !tbaa !5, !noalias !133
  %124 = srem i32 %123, 3
  %125 = icmp eq i32 %124, 0
  br i1 %125, label %126, label %129

126:                                              ; preds = %119
  %127 = getelementptr inbounds nuw i8, ptr %12, i64 %120
  store i32 %123, ptr %127, align 4, !tbaa !5, !noalias !133
  %128 = add nuw nsw i64 %120, 4
  br label %129

129:                                              ; preds = %126, %119
  %130 = phi i64 [ %128, %126 ], [ %120, %119 ]
  %131 = getelementptr inbounds nuw i8, ptr %11, i64 %121
  %132 = getelementptr inbounds nuw i8, ptr %131, i64 4
  %133 = load i32, ptr %132, align 4, !tbaa !5, !noalias !133
  %134 = srem i32 %133, 3
  %135 = icmp eq i32 %134, 0
  br i1 %135, label %136, label %139

136:                                              ; preds = %129
  %137 = getelementptr inbounds nuw i8, ptr %12, i64 %130
  store i32 %133, ptr %137, align 4, !tbaa !5, !noalias !133
  %138 = add nuw nsw i64 %130, 4
  br label %139

139:                                              ; preds = %136, %129
  %140 = phi i64 [ %138, %136 ], [ %130, %129 ]
  %141 = add nuw nsw i64 %121, 8
  %142 = icmp eq i64 %141, 4000
  br i1 %142, label %143, label %119, !llvm.loop !136

143:                                              ; preds = %139
  %144 = icmp eq i64 %140, 1336
  br i1 %144, label %145, label %158

145:                                              ; preds = %143, %145
  %146 = phi i64 [ %152, %145 ], [ 0, %143 ]
  %147 = getelementptr inbounds nuw i32, ptr %12, i64 %146
  %148 = load <4 x i32>, ptr %147, align 16, !tbaa !5
  %149 = freeze <4 x i32> %148
  %150 = srem <4 x i32> %149, splat (i32 3)
  %151 = icmp ne <4 x i32> %150, zeroinitializer
  %152 = add nuw i64 %146, 4
  %153 = bitcast <4 x i1> %151 to i4
  %154 = icmp ne i4 %153, 0
  %155 = icmp eq i64 %152, 332
  %156 = or i1 %154, %155
  br i1 %156, label %157, label %145, !llvm.loop !137

157:                                              ; preds = %145
  br i1 %154, label %170, label %165

158:                                              ; preds = %143
  tail call void @__assert_fail(ptr noundef nonnull @.str, ptr noundef nonnull @.str.1, i32 noundef 39, ptr noundef nonnull @__PRETTY_FUNCTION__._ZN12TestOutItersI22bidirectional_iteratorIPKiEEclI19contiguous_iteratorIPiEEEvv) #6
  unreachable

159:                                              ; preds = %165
  %160 = getelementptr inbounds nuw i8, ptr %12, i64 1332
  %161 = load i32, ptr %160, align 4, !tbaa !5
  %162 = srem i32 %161, 3
  %163 = icmp eq i32 %162, 0
  br i1 %163, label %164, label %170

164:                                              ; preds = %159
  call void @llvm.lifetime.end.p0(ptr nonnull %12) #5
  call void @llvm.lifetime.end.p0(ptr nonnull %11) #5
  call void @llvm.lifetime.start.p0(ptr nonnull %9) #5
  call void @llvm.memset.p0.i64(ptr noundef nonnull align 16 dereferenceable(4000) %9, i8 0, i64 4000, i1 false)
  br label %171

165:                                              ; preds = %157
  %166 = getelementptr inbounds nuw i8, ptr %12, i64 1328
  %167 = load i32, ptr %166, align 16, !tbaa !5
  %168 = srem i32 %167, 3
  %169 = icmp eq i32 %168, 0
  br i1 %169, label %159, label %170

170:                                              ; preds = %165, %159, %157
  tail call void @__assert_fail(ptr noundef nonnull @.str.2, ptr noundef nonnull @.str.1, i32 noundef 41, ptr noundef nonnull @__PRETTY_FUNCTION__._ZN12TestOutItersI22bidirectional_iteratorIPKiEEclI19contiguous_iteratorIPiEEEvv) #6
  unreachable

171:                                              ; preds = %178, %164
  %172 = phi i64 [ 0, %164 ], [ %194, %178 ]
  %173 = phi <4 x i32> [ <i32 0, i32 1, i32 2, i32 3>, %164 ], [ %195, %178 ]
  %174 = add <4 x i32> %173, splat (i32 4)
  %175 = getelementptr inbounds nuw i32, ptr %9, i64 %172
  %176 = getelementptr inbounds nuw i8, ptr %175, i64 16
  store <4 x i32> %173, ptr %175, align 16, !tbaa !5
  store <4 x i32> %174, ptr %176, align 16, !tbaa !5
  %177 = icmp eq i64 %172, 992
  br i1 %177, label %196, label %178, !llvm.loop !138

178:                                              ; preds = %171
  %179 = add <4 x i32> %173, splat (i32 8)
  %180 = add <4 x i32> %173, splat (i32 12)
  %181 = getelementptr inbounds nuw i32, ptr %9, i64 %172
  %182 = getelementptr inbounds nuw i8, ptr %181, i64 32
  %183 = getelementptr inbounds nuw i8, ptr %181, i64 48
  store <4 x i32> %179, ptr %182, align 16, !tbaa !5
  store <4 x i32> %180, ptr %183, align 16, !tbaa !5
  %184 = add <4 x i32> %173, splat (i32 16)
  %185 = add <4 x i32> %173, splat (i32 20)
  %186 = getelementptr inbounds nuw i32, ptr %9, i64 %172
  %187 = getelementptr inbounds nuw i8, ptr %186, i64 64
  %188 = getelementptr inbounds nuw i8, ptr %186, i64 80
  store <4 x i32> %184, ptr %187, align 16, !tbaa !5
  store <4 x i32> %185, ptr %188, align 16, !tbaa !5
  %189 = add <4 x i32> %173, splat (i32 24)
  %190 = add <4 x i32> %173, splat (i32 28)
  %191 = getelementptr inbounds nuw i32, ptr %9, i64 %172
  %192 = getelementptr inbounds nuw i8, ptr %191, i64 96
  %193 = getelementptr inbounds nuw i8, ptr %191, i64 112
  store <4 x i32> %189, ptr %192, align 16, !tbaa !5
  store <4 x i32> %190, ptr %193, align 16, !tbaa !5
  %194 = add nuw nsw i64 %172, 32
  %195 = add <4 x i32> %173, splat (i32 32)
  br label %171

196:                                              ; preds = %171
  call void @llvm.lifetime.start.p0(ptr nonnull %10) #5
  call void @llvm.memset.p0.i64(ptr noundef nonnull align 16 dereferenceable(4000) %10, i8 0, i64 4000, i1 false)
  br label %197

197:                                              ; preds = %217, %196
  %198 = phi i64 [ 0, %196 ], [ %218, %217 ]
  %199 = phi i64 [ 0, %196 ], [ %219, %217 ]
  %200 = getelementptr inbounds nuw i8, ptr %9, i64 %199
  %201 = load i32, ptr %200, align 8, !tbaa !5, !noalias !139
  %202 = srem i32 %201, 3
  %203 = icmp eq i32 %202, 0
  br i1 %203, label %204, label %207

204:                                              ; preds = %197
  %205 = getelementptr inbounds nuw i8, ptr %10, i64 %198
  store i32 %201, ptr %205, align 4, !tbaa !5, !noalias !139
  %206 = add nuw nsw i64 %198, 4
  br label %207

207:                                              ; preds = %204, %197
  %208 = phi i64 [ %206, %204 ], [ %198, %197 ]
  %209 = getelementptr inbounds nuw i8, ptr %9, i64 %199
  %210 = getelementptr inbounds nuw i8, ptr %209, i64 4
  %211 = load i32, ptr %210, align 4, !tbaa !5, !noalias !139
  %212 = srem i32 %211, 3
  %213 = icmp eq i32 %212, 0
  br i1 %213, label %214, label %217

214:                                              ; preds = %207
  %215 = getelementptr inbounds nuw i8, ptr %10, i64 %208
  store i32 %211, ptr %215, align 4, !tbaa !5, !noalias !139
  %216 = add nuw nsw i64 %208, 4
  br label %217

217:                                              ; preds = %214, %207
  %218 = phi i64 [ %216, %214 ], [ %208, %207 ]
  %219 = add nuw nsw i64 %199, 8
  %220 = icmp eq i64 %219, 4000
  br i1 %220, label %221, label %197, !llvm.loop !142

221:                                              ; preds = %217
  %222 = icmp eq i64 %218, 1336
  br i1 %222, label %223, label %236

223:                                              ; preds = %221, %223
  %224 = phi i64 [ %230, %223 ], [ 0, %221 ]
  %225 = getelementptr inbounds nuw i32, ptr %10, i64 %224
  %226 = load <4 x i32>, ptr %225, align 16, !tbaa !5
  %227 = freeze <4 x i32> %226
  %228 = srem <4 x i32> %227, splat (i32 3)
  %229 = icmp ne <4 x i32> %228, zeroinitializer
  %230 = add nuw i64 %224, 4
  %231 = bitcast <4 x i1> %229 to i4
  %232 = icmp ne i4 %231, 0
  %233 = icmp eq i64 %230, 332
  %234 = or i1 %232, %233
  br i1 %234, label %235, label %223, !llvm.loop !143

235:                                              ; preds = %223
  br i1 %232, label %248, label %243

236:                                              ; preds = %221
  tail call void @__assert_fail(ptr noundef nonnull @.str, ptr noundef nonnull @.str.1, i32 noundef 39, ptr noundef nonnull @__PRETTY_FUNCTION__._ZN12TestOutItersI22bidirectional_iteratorIPKiEEclI22random_access_iteratorIPiEEEvv) #6
  unreachable

237:                                              ; preds = %243
  %238 = getelementptr inbounds nuw i8, ptr %10, i64 1332
  %239 = load i32, ptr %238, align 4, !tbaa !5
  %240 = srem i32 %239, 3
  %241 = icmp eq i32 %240, 0
  br i1 %241, label %242, label %248

242:                                              ; preds = %237
  call void @llvm.lifetime.end.p0(ptr nonnull %10) #5
  call void @llvm.lifetime.end.p0(ptr nonnull %9) #5
  call void @llvm.lifetime.start.p0(ptr nonnull %7) #5
  call void @llvm.memset.p0.i64(ptr noundef nonnull align 16 dereferenceable(4000) %7, i8 0, i64 4000, i1 false)
  br label %249

243:                                              ; preds = %235
  %244 = getelementptr inbounds nuw i8, ptr %10, i64 1328
  %245 = load i32, ptr %244, align 16, !tbaa !5
  %246 = srem i32 %245, 3
  %247 = icmp eq i32 %246, 0
  br i1 %247, label %237, label %248

248:                                              ; preds = %243, %237, %235
  tail call void @__assert_fail(ptr noundef nonnull @.str.2, ptr noundef nonnull @.str.1, i32 noundef 41, ptr noundef nonnull @__PRETTY_FUNCTION__._ZN12TestOutItersI22bidirectional_iteratorIPKiEEclI22random_access_iteratorIPiEEEvv) #6
  unreachable

249:                                              ; preds = %256, %242
  %250 = phi i64 [ 0, %242 ], [ %272, %256 ]
  %251 = phi <4 x i32> [ <i32 0, i32 1, i32 2, i32 3>, %242 ], [ %273, %256 ]
  %252 = add <4 x i32> %251, splat (i32 4)
  %253 = getelementptr inbounds nuw i32, ptr %7, i64 %250
  %254 = getelementptr inbounds nuw i8, ptr %253, i64 16
  store <4 x i32> %251, ptr %253, align 16, !tbaa !5
  store <4 x i32> %252, ptr %254, align 16, !tbaa !5
  %255 = icmp eq i64 %250, 992
  br i1 %255, label %274, label %256, !llvm.loop !144

256:                                              ; preds = %249
  %257 = add <4 x i32> %251, splat (i32 8)
  %258 = add <4 x i32> %251, splat (i32 12)
  %259 = getelementptr inbounds nuw i32, ptr %7, i64 %250
  %260 = getelementptr inbounds nuw i8, ptr %259, i64 32
  %261 = getelementptr inbounds nuw i8, ptr %259, i64 48
  store <4 x i32> %257, ptr %260, align 16, !tbaa !5
  store <4 x i32> %258, ptr %261, align 16, !tbaa !5
  %262 = add <4 x i32> %251, splat (i32 16)
  %263 = add <4 x i32> %251, splat (i32 20)
  %264 = getelementptr inbounds nuw i32, ptr %7, i64 %250
  %265 = getelementptr inbounds nuw i8, ptr %264, i64 64
  %266 = getelementptr inbounds nuw i8, ptr %264, i64 80
  store <4 x i32> %262, ptr %265, align 16, !tbaa !5
  store <4 x i32> %263, ptr %266, align 16, !tbaa !5
  %267 = add <4 x i32> %251, splat (i32 24)
  %268 = add <4 x i32> %251, splat (i32 28)
  %269 = getelementptr inbounds nuw i32, ptr %7, i64 %250
  %270 = getelementptr inbounds nuw i8, ptr %269, i64 96
  %271 = getelementptr inbounds nuw i8, ptr %269, i64 112
  store <4 x i32> %267, ptr %270, align 16, !tbaa !5
  store <4 x i32> %268, ptr %271, align 16, !tbaa !5
  %272 = add nuw nsw i64 %250, 32
  %273 = add <4 x i32> %251, splat (i32 32)
  br label %249

274:                                              ; preds = %249
  call void @llvm.lifetime.start.p0(ptr nonnull %8) #5
  call void @llvm.memset.p0.i64(ptr noundef nonnull align 16 dereferenceable(4000) %8, i8 0, i64 4000, i1 false)
  br label %275

275:                                              ; preds = %295, %274
  %276 = phi i64 [ 0, %274 ], [ %296, %295 ]
  %277 = phi i64 [ 0, %274 ], [ %297, %295 ]
  %278 = getelementptr inbounds nuw i8, ptr %7, i64 %277
  %279 = load i32, ptr %278, align 8, !tbaa !5, !noalias !145
  %280 = srem i32 %279, 3
  %281 = icmp eq i32 %280, 0
  br i1 %281, label %282, label %285

282:                                              ; preds = %275
  %283 = getelementptr inbounds nuw i8, ptr %8, i64 %276
  store i32 %279, ptr %283, align 4, !tbaa !5, !noalias !145
  %284 = add nuw nsw i64 %276, 4
  br label %285

285:                                              ; preds = %282, %275
  %286 = phi i64 [ %284, %282 ], [ %276, %275 ]
  %287 = getelementptr inbounds nuw i8, ptr %7, i64 %277
  %288 = getelementptr inbounds nuw i8, ptr %287, i64 4
  %289 = load i32, ptr %288, align 4, !tbaa !5, !noalias !145
  %290 = srem i32 %289, 3
  %291 = icmp eq i32 %290, 0
  br i1 %291, label %292, label %295

292:                                              ; preds = %285
  %293 = getelementptr inbounds nuw i8, ptr %8, i64 %286
  store i32 %289, ptr %293, align 4, !tbaa !5, !noalias !145
  %294 = add nuw nsw i64 %286, 4
  br label %295

295:                                              ; preds = %292, %285
  %296 = phi i64 [ %294, %292 ], [ %286, %285 ]
  %297 = add nuw nsw i64 %277, 8
  %298 = icmp eq i64 %297, 4000
  br i1 %298, label %299, label %275, !llvm.loop !148

299:                                              ; preds = %295
  %300 = icmp eq i64 %296, 1336
  br i1 %300, label %301, label %314

301:                                              ; preds = %299, %301
  %302 = phi i64 [ %308, %301 ], [ 0, %299 ]
  %303 = getelementptr inbounds nuw i32, ptr %8, i64 %302
  %304 = load <4 x i32>, ptr %303, align 16, !tbaa !5
  %305 = freeze <4 x i32> %304
  %306 = srem <4 x i32> %305, splat (i32 3)
  %307 = icmp ne <4 x i32> %306, zeroinitializer
  %308 = add nuw i64 %302, 4
  %309 = bitcast <4 x i1> %307 to i4
  %310 = icmp ne i4 %309, 0
  %311 = icmp eq i64 %308, 332
  %312 = or i1 %310, %311
  br i1 %312, label %313, label %301, !llvm.loop !149

313:                                              ; preds = %301
  br i1 %310, label %326, label %321

314:                                              ; preds = %299
  tail call void @__assert_fail(ptr noundef nonnull @.str, ptr noundef nonnull @.str.1, i32 noundef 39, ptr noundef nonnull @__PRETTY_FUNCTION__._ZN12TestOutItersI22bidirectional_iteratorIPKiEEclIS0_IPiEEEvv) #6
  unreachable

315:                                              ; preds = %321
  %316 = getelementptr inbounds nuw i8, ptr %8, i64 1332
  %317 = load i32, ptr %316, align 4, !tbaa !5
  %318 = srem i32 %317, 3
  %319 = icmp eq i32 %318, 0
  br i1 %319, label %320, label %326

320:                                              ; preds = %315
  call void @llvm.lifetime.end.p0(ptr nonnull %8) #5
  call void @llvm.lifetime.end.p0(ptr nonnull %7) #5
  call void @llvm.lifetime.start.p0(ptr nonnull %5) #5
  call void @llvm.memset.p0.i64(ptr noundef nonnull align 16 dereferenceable(4000) %5, i8 0, i64 4000, i1 false)
  br label %327

321:                                              ; preds = %313
  %322 = getelementptr inbounds nuw i8, ptr %8, i64 1328
  %323 = load i32, ptr %322, align 16, !tbaa !5
  %324 = srem i32 %323, 3
  %325 = icmp eq i32 %324, 0
  br i1 %325, label %315, label %326

326:                                              ; preds = %321, %315, %313
  tail call void @__assert_fail(ptr noundef nonnull @.str.2, ptr noundef nonnull @.str.1, i32 noundef 41, ptr noundef nonnull @__PRETTY_FUNCTION__._ZN12TestOutItersI22bidirectional_iteratorIPKiEEclIS0_IPiEEEvv) #6
  unreachable

327:                                              ; preds = %334, %320
  %328 = phi i64 [ 0, %320 ], [ %350, %334 ]
  %329 = phi <4 x i32> [ <i32 0, i32 1, i32 2, i32 3>, %320 ], [ %351, %334 ]
  %330 = add <4 x i32> %329, splat (i32 4)
  %331 = getelementptr inbounds nuw i32, ptr %5, i64 %328
  %332 = getelementptr inbounds nuw i8, ptr %331, i64 16
  store <4 x i32> %329, ptr %331, align 16, !tbaa !5
  store <4 x i32> %330, ptr %332, align 16, !tbaa !5
  %333 = icmp eq i64 %328, 992
  br i1 %333, label %352, label %334, !llvm.loop !150

334:                                              ; preds = %327
  %335 = add <4 x i32> %329, splat (i32 8)
  %336 = add <4 x i32> %329, splat (i32 12)
  %337 = getelementptr inbounds nuw i32, ptr %5, i64 %328
  %338 = getelementptr inbounds nuw i8, ptr %337, i64 32
  %339 = getelementptr inbounds nuw i8, ptr %337, i64 48
  store <4 x i32> %335, ptr %338, align 16, !tbaa !5
  store <4 x i32> %336, ptr %339, align 16, !tbaa !5
  %340 = add <4 x i32> %329, splat (i32 16)
  %341 = add <4 x i32> %329, splat (i32 20)
  %342 = getelementptr inbounds nuw i32, ptr %5, i64 %328
  %343 = getelementptr inbounds nuw i8, ptr %342, i64 64
  %344 = getelementptr inbounds nuw i8, ptr %342, i64 80
  store <4 x i32> %340, ptr %343, align 16, !tbaa !5
  store <4 x i32> %341, ptr %344, align 16, !tbaa !5
  %345 = add <4 x i32> %329, splat (i32 24)
  %346 = add <4 x i32> %329, splat (i32 28)
  %347 = getelementptr inbounds nuw i32, ptr %5, i64 %328
  %348 = getelementptr inbounds nuw i8, ptr %347, i64 96
  %349 = getelementptr inbounds nuw i8, ptr %347, i64 112
  store <4 x i32> %345, ptr %348, align 16, !tbaa !5
  store <4 x i32> %346, ptr %349, align 16, !tbaa !5
  %350 = add nuw nsw i64 %328, 32
  %351 = add <4 x i32> %329, splat (i32 32)
  br label %327

352:                                              ; preds = %327
  call void @llvm.lifetime.start.p0(ptr nonnull %6) #5
  call void @llvm.memset.p0.i64(ptr noundef nonnull align 16 dereferenceable(4000) %6, i8 0, i64 4000, i1 false)
  br label %353

353:                                              ; preds = %373, %352
  %354 = phi i64 [ 0, %352 ], [ %374, %373 ]
  %355 = phi i64 [ 0, %352 ], [ %375, %373 ]
  %356 = getelementptr inbounds nuw i8, ptr %5, i64 %355
  %357 = load i32, ptr %356, align 8, !tbaa !5, !noalias !151
  %358 = srem i32 %357, 3
  %359 = icmp eq i32 %358, 0
  br i1 %359, label %360, label %363

360:                                              ; preds = %353
  %361 = getelementptr inbounds nuw i8, ptr %6, i64 %354
  store i32 %357, ptr %361, align 4, !tbaa !5, !noalias !151
  %362 = add nuw nsw i64 %354, 4
  br label %363

363:                                              ; preds = %360, %353
  %364 = phi i64 [ %362, %360 ], [ %354, %353 ]
  %365 = getelementptr inbounds nuw i8, ptr %5, i64 %355
  %366 = getelementptr inbounds nuw i8, ptr %365, i64 4
  %367 = load i32, ptr %366, align 4, !tbaa !5, !noalias !151
  %368 = srem i32 %367, 3
  %369 = icmp eq i32 %368, 0
  br i1 %369, label %370, label %373

370:                                              ; preds = %363
  %371 = getelementptr inbounds nuw i8, ptr %6, i64 %364
  store i32 %367, ptr %371, align 4, !tbaa !5, !noalias !151
  %372 = add nuw nsw i64 %364, 4
  br label %373

373:                                              ; preds = %370, %363
  %374 = phi i64 [ %372, %370 ], [ %364, %363 ]
  %375 = add nuw nsw i64 %355, 8
  %376 = icmp eq i64 %375, 4000
  br i1 %376, label %377, label %353, !llvm.loop !154

377:                                              ; preds = %373
  %378 = icmp eq i64 %374, 1336
  br i1 %378, label %379, label %392

379:                                              ; preds = %377, %379
  %380 = phi i64 [ %386, %379 ], [ 0, %377 ]
  %381 = getelementptr inbounds nuw i32, ptr %6, i64 %380
  %382 = load <4 x i32>, ptr %381, align 16, !tbaa !5
  %383 = freeze <4 x i32> %382
  %384 = srem <4 x i32> %383, splat (i32 3)
  %385 = icmp ne <4 x i32> %384, zeroinitializer
  %386 = add nuw i64 %380, 4
  %387 = bitcast <4 x i1> %385 to i4
  %388 = icmp ne i4 %387, 0
  %389 = icmp eq i64 %386, 332
  %390 = or i1 %388, %389
  br i1 %390, label %391, label %379, !llvm.loop !155

391:                                              ; preds = %379
  br i1 %388, label %404, label %399

392:                                              ; preds = %377
  tail call void @__assert_fail(ptr noundef nonnull @.str, ptr noundef nonnull @.str.1, i32 noundef 39, ptr noundef nonnull @__PRETTY_FUNCTION__._ZN12TestOutItersI22bidirectional_iteratorIPKiEEclI16forward_iteratorIPiEEEvv) #6
  unreachable

393:                                              ; preds = %399
  %394 = getelementptr inbounds nuw i8, ptr %6, i64 1332
  %395 = load i32, ptr %394, align 4, !tbaa !5
  %396 = srem i32 %395, 3
  %397 = icmp eq i32 %396, 0
  br i1 %397, label %398, label %404

398:                                              ; preds = %393
  call void @llvm.lifetime.end.p0(ptr nonnull %6) #5
  call void @llvm.lifetime.end.p0(ptr nonnull %5) #5
  call void @llvm.lifetime.start.p0(ptr nonnull %3) #5
  call void @llvm.memset.p0.i64(ptr noundef nonnull align 16 dereferenceable(4000) %3, i8 0, i64 4000, i1 false)
  br label %405

399:                                              ; preds = %391
  %400 = getelementptr inbounds nuw i8, ptr %6, i64 1328
  %401 = load i32, ptr %400, align 16, !tbaa !5
  %402 = srem i32 %401, 3
  %403 = icmp eq i32 %402, 0
  br i1 %403, label %393, label %404

404:                                              ; preds = %399, %393, %391
  tail call void @__assert_fail(ptr noundef nonnull @.str.2, ptr noundef nonnull @.str.1, i32 noundef 41, ptr noundef nonnull @__PRETTY_FUNCTION__._ZN12TestOutItersI22bidirectional_iteratorIPKiEEclI16forward_iteratorIPiEEEvv) #6
  unreachable

405:                                              ; preds = %412, %398
  %406 = phi i64 [ 0, %398 ], [ %428, %412 ]
  %407 = phi <4 x i32> [ <i32 0, i32 1, i32 2, i32 3>, %398 ], [ %429, %412 ]
  %408 = add <4 x i32> %407, splat (i32 4)
  %409 = getelementptr inbounds nuw i32, ptr %3, i64 %406
  %410 = getelementptr inbounds nuw i8, ptr %409, i64 16
  store <4 x i32> %407, ptr %409, align 16, !tbaa !5
  store <4 x i32> %408, ptr %410, align 16, !tbaa !5
  %411 = icmp eq i64 %406, 992
  br i1 %411, label %430, label %412, !llvm.loop !156

412:                                              ; preds = %405
  %413 = add <4 x i32> %407, splat (i32 8)
  %414 = add <4 x i32> %407, splat (i32 12)
  %415 = getelementptr inbounds nuw i32, ptr %3, i64 %406
  %416 = getelementptr inbounds nuw i8, ptr %415, i64 32
  %417 = getelementptr inbounds nuw i8, ptr %415, i64 48
  store <4 x i32> %413, ptr %416, align 16, !tbaa !5
  store <4 x i32> %414, ptr %417, align 16, !tbaa !5
  %418 = add <4 x i32> %407, splat (i32 16)
  %419 = add <4 x i32> %407, splat (i32 20)
  %420 = getelementptr inbounds nuw i32, ptr %3, i64 %406
  %421 = getelementptr inbounds nuw i8, ptr %420, i64 64
  %422 = getelementptr inbounds nuw i8, ptr %420, i64 80
  store <4 x i32> %418, ptr %421, align 16, !tbaa !5
  store <4 x i32> %419, ptr %422, align 16, !tbaa !5
  %423 = add <4 x i32> %407, splat (i32 24)
  %424 = add <4 x i32> %407, splat (i32 28)
  %425 = getelementptr inbounds nuw i32, ptr %3, i64 %406
  %426 = getelementptr inbounds nuw i8, ptr %425, i64 96
  %427 = getelementptr inbounds nuw i8, ptr %425, i64 112
  store <4 x i32> %423, ptr %426, align 16, !tbaa !5
  store <4 x i32> %424, ptr %427, align 16, !tbaa !5
  %428 = add nuw nsw i64 %406, 32
  %429 = add <4 x i32> %407, splat (i32 32)
  br label %405

430:                                              ; preds = %405
  call void @llvm.lifetime.start.p0(ptr nonnull %4) #5
  call void @llvm.memset.p0.i64(ptr noundef nonnull align 16 dereferenceable(4000) %4, i8 0, i64 4000, i1 false)
  br label %431

431:                                              ; preds = %451, %430
  %432 = phi i64 [ 0, %430 ], [ %452, %451 ]
  %433 = phi i64 [ 0, %430 ], [ %453, %451 ]
  %434 = getelementptr inbounds nuw i8, ptr %3, i64 %433
  %435 = load i32, ptr %434, align 8, !tbaa !5, !noalias !157
  %436 = srem i32 %435, 3
  %437 = icmp eq i32 %436, 0
  br i1 %437, label %438, label %441

438:                                              ; preds = %431
  %439 = getelementptr inbounds nuw i8, ptr %4, i64 %432
  store i32 %435, ptr %439, align 4, !tbaa !5, !noalias !157
  %440 = add nuw nsw i64 %432, 4
  br label %441

441:                                              ; preds = %438, %431
  %442 = phi i64 [ %440, %438 ], [ %432, %431 ]
  %443 = getelementptr inbounds nuw i8, ptr %3, i64 %433
  %444 = getelementptr inbounds nuw i8, ptr %443, i64 4
  %445 = load i32, ptr %444, align 4, !tbaa !5, !noalias !157
  %446 = srem i32 %445, 3
  %447 = icmp eq i32 %446, 0
  br i1 %447, label %448, label %451

448:                                              ; preds = %441
  %449 = getelementptr inbounds nuw i8, ptr %4, i64 %442
  store i32 %445, ptr %449, align 4, !tbaa !5, !noalias !157
  %450 = add nuw nsw i64 %442, 4
  br label %451

451:                                              ; preds = %448, %441
  %452 = phi i64 [ %450, %448 ], [ %442, %441 ]
  %453 = add nuw nsw i64 %433, 8
  %454 = icmp eq i64 %453, 4000
  br i1 %454, label %455, label %431, !llvm.loop !160

455:                                              ; preds = %451
  %456 = icmp eq i64 %452, 1336
  br i1 %456, label %457, label %470

457:                                              ; preds = %455, %457
  %458 = phi i64 [ %464, %457 ], [ 0, %455 ]
  %459 = getelementptr inbounds nuw i32, ptr %4, i64 %458
  %460 = load <4 x i32>, ptr %459, align 16, !tbaa !5
  %461 = freeze <4 x i32> %460
  %462 = srem <4 x i32> %461, splat (i32 3)
  %463 = icmp ne <4 x i32> %462, zeroinitializer
  %464 = add nuw i64 %458, 4
  %465 = bitcast <4 x i1> %463 to i4
  %466 = icmp ne i4 %465, 0
  %467 = icmp eq i64 %464, 332
  %468 = or i1 %466, %467
  br i1 %468, label %469, label %457, !llvm.loop !161

469:                                              ; preds = %457
  br i1 %466, label %482, label %477

470:                                              ; preds = %455
  tail call void @__assert_fail(ptr noundef nonnull @.str, ptr noundef nonnull @.str.1, i32 noundef 39, ptr noundef nonnull @__PRETTY_FUNCTION__._ZN12TestOutItersI22bidirectional_iteratorIPKiEEclI20cpp17_input_iteratorIPiS7_EEEvv) #6
  unreachable

471:                                              ; preds = %477
  %472 = getelementptr inbounds nuw i8, ptr %4, i64 1332
  %473 = load i32, ptr %472, align 4, !tbaa !5
  %474 = srem i32 %473, 3
  %475 = icmp eq i32 %474, 0
  br i1 %475, label %476, label %482

476:                                              ; preds = %471
  call void @llvm.lifetime.end.p0(ptr nonnull %4) #5
  call void @llvm.lifetime.end.p0(ptr nonnull %3) #5
  call void @llvm.lifetime.start.p0(ptr nonnull %1) #5
  call void @llvm.memset.p0.i64(ptr noundef nonnull align 16 dereferenceable(4000) %1, i8 0, i64 4000, i1 false)
  br label %483

477:                                              ; preds = %469
  %478 = getelementptr inbounds nuw i8, ptr %4, i64 1328
  %479 = load i32, ptr %478, align 16, !tbaa !5
  %480 = srem i32 %479, 3
  %481 = icmp eq i32 %480, 0
  br i1 %481, label %471, label %482

482:                                              ; preds = %477, %471, %469
  tail call void @__assert_fail(ptr noundef nonnull @.str.2, ptr noundef nonnull @.str.1, i32 noundef 41, ptr noundef nonnull @__PRETTY_FUNCTION__._ZN12TestOutItersI22bidirectional_iteratorIPKiEEclI20cpp17_input_iteratorIPiS7_EEEvv) #6
  unreachable

483:                                              ; preds = %490, %476
  %484 = phi i64 [ 0, %476 ], [ %506, %490 ]
  %485 = phi <4 x i32> [ <i32 0, i32 1, i32 2, i32 3>, %476 ], [ %507, %490 ]
  %486 = add <4 x i32> %485, splat (i32 4)
  %487 = getelementptr inbounds nuw i32, ptr %1, i64 %484
  %488 = getelementptr inbounds nuw i8, ptr %487, i64 16
  store <4 x i32> %485, ptr %487, align 16, !tbaa !5
  store <4 x i32> %486, ptr %488, align 16, !tbaa !5
  %489 = icmp eq i64 %484, 992
  br i1 %489, label %508, label %490, !llvm.loop !162

490:                                              ; preds = %483
  %491 = add <4 x i32> %485, splat (i32 8)
  %492 = add <4 x i32> %485, splat (i32 12)
  %493 = getelementptr inbounds nuw i32, ptr %1, i64 %484
  %494 = getelementptr inbounds nuw i8, ptr %493, i64 32
  %495 = getelementptr inbounds nuw i8, ptr %493, i64 48
  store <4 x i32> %491, ptr %494, align 16, !tbaa !5
  store <4 x i32> %492, ptr %495, align 16, !tbaa !5
  %496 = add <4 x i32> %485, splat (i32 16)
  %497 = add <4 x i32> %485, splat (i32 20)
  %498 = getelementptr inbounds nuw i32, ptr %1, i64 %484
  %499 = getelementptr inbounds nuw i8, ptr %498, i64 64
  %500 = getelementptr inbounds nuw i8, ptr %498, i64 80
  store <4 x i32> %496, ptr %499, align 16, !tbaa !5
  store <4 x i32> %497, ptr %500, align 16, !tbaa !5
  %501 = add <4 x i32> %485, splat (i32 24)
  %502 = add <4 x i32> %485, splat (i32 28)
  %503 = getelementptr inbounds nuw i32, ptr %1, i64 %484
  %504 = getelementptr inbounds nuw i8, ptr %503, i64 96
  %505 = getelementptr inbounds nuw i8, ptr %503, i64 112
  store <4 x i32> %501, ptr %504, align 16, !tbaa !5
  store <4 x i32> %502, ptr %505, align 16, !tbaa !5
  %506 = add nuw nsw i64 %484, 32
  %507 = add <4 x i32> %485, splat (i32 32)
  br label %483

508:                                              ; preds = %483
  call void @llvm.lifetime.start.p0(ptr nonnull %2) #5
  call void @llvm.memset.p0.i64(ptr noundef nonnull align 16 dereferenceable(4000) %2, i8 0, i64 4000, i1 false)
  br label %509

509:                                              ; preds = %529, %508
  %510 = phi i64 [ 0, %508 ], [ %530, %529 ]
  %511 = phi i64 [ 0, %508 ], [ %531, %529 ]
  %512 = getelementptr inbounds nuw i8, ptr %1, i64 %511
  %513 = load i32, ptr %512, align 8, !tbaa !5, !noalias !163
  %514 = srem i32 %513, 3
  %515 = icmp eq i32 %514, 0
  br i1 %515, label %516, label %519

516:                                              ; preds = %509
  %517 = getelementptr inbounds nuw i8, ptr %2, i64 %510
  store i32 %513, ptr %517, align 4, !tbaa !5, !noalias !163
  %518 = add nuw nsw i64 %510, 4
  br label %519

519:                                              ; preds = %516, %509
  %520 = phi i64 [ %518, %516 ], [ %510, %509 ]
  %521 = getelementptr inbounds nuw i8, ptr %1, i64 %511
  %522 = getelementptr inbounds nuw i8, ptr %521, i64 4
  %523 = load i32, ptr %522, align 4, !tbaa !5, !noalias !163
  %524 = srem i32 %523, 3
  %525 = icmp eq i32 %524, 0
  br i1 %525, label %526, label %529

526:                                              ; preds = %519
  %527 = getelementptr inbounds nuw i8, ptr %2, i64 %520
  store i32 %523, ptr %527, align 4, !tbaa !5, !noalias !163
  %528 = add nuw nsw i64 %520, 4
  br label %529

529:                                              ; preds = %526, %519
  %530 = phi i64 [ %528, %526 ], [ %520, %519 ]
  %531 = add nuw nsw i64 %511, 8
  %532 = icmp eq i64 %531, 4000
  br i1 %532, label %533, label %509, !llvm.loop !166

533:                                              ; preds = %529
  %534 = icmp eq i64 %530, 1336
  br i1 %534, label %535, label %548

535:                                              ; preds = %533, %535
  %536 = phi i64 [ %542, %535 ], [ 0, %533 ]
  %537 = getelementptr inbounds nuw i32, ptr %2, i64 %536
  %538 = load <4 x i32>, ptr %537, align 16, !tbaa !5
  %539 = freeze <4 x i32> %538
  %540 = srem <4 x i32> %539, splat (i32 3)
  %541 = icmp ne <4 x i32> %540, zeroinitializer
  %542 = add nuw i64 %536, 4
  %543 = bitcast <4 x i1> %541 to i4
  %544 = icmp ne i4 %543, 0
  %545 = icmp eq i64 %542, 332
  %546 = or i1 %544, %545
  br i1 %546, label %547, label %535, !llvm.loop !167

547:                                              ; preds = %535
  br i1 %544, label %560, label %555

548:                                              ; preds = %533
  tail call void @__assert_fail(ptr noundef nonnull @.str, ptr noundef nonnull @.str.1, i32 noundef 39, ptr noundef nonnull @__PRETTY_FUNCTION__._ZN12TestOutItersI22bidirectional_iteratorIPKiEEclI21cpp17_output_iteratorIPiEEEvv) #6
  unreachable

549:                                              ; preds = %555
  %550 = getelementptr inbounds nuw i8, ptr %2, i64 1332
  %551 = load i32, ptr %550, align 4, !tbaa !5
  %552 = srem i32 %551, 3
  %553 = icmp eq i32 %552, 0
  br i1 %553, label %554, label %560

554:                                              ; preds = %549
  call void @llvm.lifetime.end.p0(ptr nonnull %2) #5
  call void @llvm.lifetime.end.p0(ptr nonnull %1) #5
  ret void

555:                                              ; preds = %547
  %556 = getelementptr inbounds nuw i8, ptr %2, i64 1328
  %557 = load i32, ptr %556, align 16, !tbaa !5
  %558 = srem i32 %557, 3
  %559 = icmp eq i32 %558, 0
  br i1 %559, label %549, label %560

560:                                              ; preds = %555, %549, %547
  tail call void @__assert_fail(ptr noundef nonnull @.str.2, ptr noundef nonnull @.str.1, i32 noundef 41, ptr noundef nonnull @__PRETTY_FUNCTION__._ZN12TestOutItersI22bidirectional_iteratorIPKiEEclI21cpp17_output_iteratorIPiEEEvv) #6
  unreachable
}

; Function Attrs: mustprogress uwtable
define linkonce_odr dso_local void @_ZN5types8for_eachIJPi19contiguous_iteratorIS1_E22random_access_iteratorIS1_E22bidirectional_iteratorIS1_E16forward_iteratorIS1_E20cpp17_input_iteratorIS1_S1_E21cpp17_output_iteratorIS1_EE12TestOutItersIS8_IPKiEEEEvNS_9type_listIJDpT_EEET0_() local_unnamed_addr #1 comdat {
  %1 = alloca [1000 x i32], align 16
  %2 = alloca [1000 x i32], align 16
  %3 = alloca [1000 x i32], align 16
  %4 = alloca [1000 x i32], align 16
  %5 = alloca [1000 x i32], align 16
  %6 = alloca [1000 x i32], align 16
  %7 = alloca [1000 x i32], align 16
  %8 = alloca [1000 x i32], align 16
  %9 = alloca [1000 x i32], align 16
  %10 = alloca [1000 x i32], align 16
  %11 = alloca [1000 x i32], align 16
  %12 = alloca [1000 x i32], align 16
  %13 = alloca [1000 x i32], align 16
  %14 = alloca [1000 x i32], align 16
  call void @llvm.lifetime.start.p0(ptr nonnull %13) #5
  call void @llvm.memset.p0.i64(ptr noundef nonnull align 16 dereferenceable(4000) %13, i8 0, i64 4000, i1 false)
  br label %15

15:                                               ; preds = %22, %0
  %16 = phi i64 [ 0, %0 ], [ %38, %22 ]
  %17 = phi <4 x i32> [ <i32 0, i32 1, i32 2, i32 3>, %0 ], [ %39, %22 ]
  %18 = add <4 x i32> %17, splat (i32 4)
  %19 = getelementptr inbounds nuw i32, ptr %13, i64 %16
  %20 = getelementptr inbounds nuw i8, ptr %19, i64 16
  store <4 x i32> %17, ptr %19, align 16, !tbaa !5
  store <4 x i32> %18, ptr %20, align 16, !tbaa !5
  %21 = icmp eq i64 %16, 992
  br i1 %21, label %40, label %22, !llvm.loop !168

22:                                               ; preds = %15
  %23 = add <4 x i32> %17, splat (i32 8)
  %24 = add <4 x i32> %17, splat (i32 12)
  %25 = getelementptr inbounds nuw i32, ptr %13, i64 %16
  %26 = getelementptr inbounds nuw i8, ptr %25, i64 32
  %27 = getelementptr inbounds nuw i8, ptr %25, i64 48
  store <4 x i32> %23, ptr %26, align 16, !tbaa !5
  store <4 x i32> %24, ptr %27, align 16, !tbaa !5
  %28 = add <4 x i32> %17, splat (i32 16)
  %29 = add <4 x i32> %17, splat (i32 20)
  %30 = getelementptr inbounds nuw i32, ptr %13, i64 %16
  %31 = getelementptr inbounds nuw i8, ptr %30, i64 64
  %32 = getelementptr inbounds nuw i8, ptr %30, i64 80
  store <4 x i32> %28, ptr %31, align 16, !tbaa !5
  store <4 x i32> %29, ptr %32, align 16, !tbaa !5
  %33 = add <4 x i32> %17, splat (i32 24)
  %34 = add <4 x i32> %17, splat (i32 28)
  %35 = getelementptr inbounds nuw i32, ptr %13, i64 %16
  %36 = getelementptr inbounds nuw i8, ptr %35, i64 96
  %37 = getelementptr inbounds nuw i8, ptr %35, i64 112
  store <4 x i32> %33, ptr %36, align 16, !tbaa !5
  store <4 x i32> %34, ptr %37, align 16, !tbaa !5
  %38 = add nuw nsw i64 %16, 32
  %39 = add <4 x i32> %17, splat (i32 32)
  br label %15

40:                                               ; preds = %15
  call void @llvm.lifetime.start.p0(ptr nonnull %14) #5
  call void @llvm.memset.p0.i64(ptr noundef nonnull align 16 dereferenceable(4000) %14, i8 0, i64 4000, i1 false)
  br label %41

41:                                               ; preds = %61, %40
  %42 = phi i64 [ 0, %40 ], [ %63, %61 ]
  %43 = phi i64 [ 0, %40 ], [ %62, %61 ]
  %44 = getelementptr inbounds nuw i8, ptr %13, i64 %42
  %45 = load i32, ptr %44, align 8, !tbaa !5
  %46 = srem i32 %45, 3
  %47 = icmp eq i32 %46, 0
  br i1 %47, label %48, label %51

48:                                               ; preds = %41
  %49 = getelementptr inbounds nuw i8, ptr %14, i64 %43
  store i32 %45, ptr %49, align 4, !tbaa !5
  %50 = add nuw nsw i64 %43, 4
  br label %51

51:                                               ; preds = %48, %41
  %52 = phi i64 [ %50, %48 ], [ %43, %41 ]
  %53 = getelementptr inbounds nuw i8, ptr %13, i64 %42
  %54 = getelementptr inbounds nuw i8, ptr %53, i64 4
  %55 = load i32, ptr %54, align 4, !tbaa !5
  %56 = srem i32 %55, 3
  %57 = icmp eq i32 %56, 0
  br i1 %57, label %58, label %61

58:                                               ; preds = %51
  %59 = getelementptr inbounds nuw i8, ptr %14, i64 %52
  store i32 %55, ptr %59, align 4, !tbaa !5
  %60 = add nuw nsw i64 %52, 4
  br label %61

61:                                               ; preds = %58, %51
  %62 = phi i64 [ %60, %58 ], [ %52, %51 ]
  %63 = add nuw nsw i64 %42, 8
  %64 = icmp eq i64 %63, 4000
  br i1 %64, label %65, label %41, !llvm.loop !169

65:                                               ; preds = %61
  %66 = icmp eq i64 %62, 1336
  br i1 %66, label %67, label %80

67:                                               ; preds = %65, %67
  %68 = phi i64 [ %74, %67 ], [ 0, %65 ]
  %69 = getelementptr inbounds nuw i32, ptr %14, i64 %68
  %70 = load <4 x i32>, ptr %69, align 16, !tbaa !5
  %71 = freeze <4 x i32> %70
  %72 = srem <4 x i32> %71, splat (i32 3)
  %73 = icmp ne <4 x i32> %72, zeroinitializer
  %74 = add nuw i64 %68, 4
  %75 = bitcast <4 x i1> %73 to i4
  %76 = icmp ne i4 %75, 0
  %77 = icmp eq i64 %74, 332
  %78 = or i1 %76, %77
  br i1 %78, label %79, label %67, !llvm.loop !170

79:                                               ; preds = %67
  br i1 %76, label %92, label %87

80:                                               ; preds = %65
  tail call void @__assert_fail(ptr noundef nonnull @.str, ptr noundef nonnull @.str.1, i32 noundef 39, ptr noundef nonnull @__PRETTY_FUNCTION__._ZN12TestOutItersI16forward_iteratorIPKiEEclIPiEEvv) #6
  unreachable

81:                                               ; preds = %87
  %82 = getelementptr inbounds nuw i8, ptr %14, i64 1332
  %83 = load i32, ptr %82, align 4, !tbaa !5
  %84 = srem i32 %83, 3
  %85 = icmp eq i32 %84, 0
  br i1 %85, label %86, label %92

86:                                               ; preds = %81
  call void @llvm.lifetime.end.p0(ptr nonnull %14) #5
  call void @llvm.lifetime.end.p0(ptr nonnull %13) #5
  call void @llvm.lifetime.start.p0(ptr nonnull %11) #5
  call void @llvm.memset.p0.i64(ptr noundef nonnull align 16 dereferenceable(4000) %11, i8 0, i64 4000, i1 false)
  br label %93

87:                                               ; preds = %79
  %88 = getelementptr inbounds nuw i8, ptr %14, i64 1328
  %89 = load i32, ptr %88, align 16, !tbaa !5
  %90 = srem i32 %89, 3
  %91 = icmp eq i32 %90, 0
  br i1 %91, label %81, label %92

92:                                               ; preds = %87, %81, %79
  tail call void @__assert_fail(ptr noundef nonnull @.str.2, ptr noundef nonnull @.str.1, i32 noundef 41, ptr noundef nonnull @__PRETTY_FUNCTION__._ZN12TestOutItersI16forward_iteratorIPKiEEclIPiEEvv) #6
  unreachable

93:                                               ; preds = %100, %86
  %94 = phi i64 [ 0, %86 ], [ %116, %100 ]
  %95 = phi <4 x i32> [ <i32 0, i32 1, i32 2, i32 3>, %86 ], [ %117, %100 ]
  %96 = add <4 x i32> %95, splat (i32 4)
  %97 = getelementptr inbounds nuw i32, ptr %11, i64 %94
  %98 = getelementptr inbounds nuw i8, ptr %97, i64 16
  store <4 x i32> %95, ptr %97, align 16, !tbaa !5
  store <4 x i32> %96, ptr %98, align 16, !tbaa !5
  %99 = icmp eq i64 %94, 992
  br i1 %99, label %118, label %100, !llvm.loop !171

100:                                              ; preds = %93
  %101 = add <4 x i32> %95, splat (i32 8)
  %102 = add <4 x i32> %95, splat (i32 12)
  %103 = getelementptr inbounds nuw i32, ptr %11, i64 %94
  %104 = getelementptr inbounds nuw i8, ptr %103, i64 32
  %105 = getelementptr inbounds nuw i8, ptr %103, i64 48
  store <4 x i32> %101, ptr %104, align 16, !tbaa !5
  store <4 x i32> %102, ptr %105, align 16, !tbaa !5
  %106 = add <4 x i32> %95, splat (i32 16)
  %107 = add <4 x i32> %95, splat (i32 20)
  %108 = getelementptr inbounds nuw i32, ptr %11, i64 %94
  %109 = getelementptr inbounds nuw i8, ptr %108, i64 64
  %110 = getelementptr inbounds nuw i8, ptr %108, i64 80
  store <4 x i32> %106, ptr %109, align 16, !tbaa !5
  store <4 x i32> %107, ptr %110, align 16, !tbaa !5
  %111 = add <4 x i32> %95, splat (i32 24)
  %112 = add <4 x i32> %95, splat (i32 28)
  %113 = getelementptr inbounds nuw i32, ptr %11, i64 %94
  %114 = getelementptr inbounds nuw i8, ptr %113, i64 96
  %115 = getelementptr inbounds nuw i8, ptr %113, i64 112
  store <4 x i32> %111, ptr %114, align 16, !tbaa !5
  store <4 x i32> %112, ptr %115, align 16, !tbaa !5
  %116 = add nuw nsw i64 %94, 32
  %117 = add <4 x i32> %95, splat (i32 32)
  br label %93

118:                                              ; preds = %93
  call void @llvm.lifetime.start.p0(ptr nonnull %12) #5
  call void @llvm.memset.p0.i64(ptr noundef nonnull align 16 dereferenceable(4000) %12, i8 0, i64 4000, i1 false)
  br label %119

119:                                              ; preds = %139, %118
  %120 = phi i64 [ 0, %118 ], [ %140, %139 ]
  %121 = phi i64 [ 0, %118 ], [ %141, %139 ]
  %122 = getelementptr inbounds nuw i8, ptr %11, i64 %121
  %123 = load i32, ptr %122, align 8, !tbaa !5, !noalias !172
  %124 = srem i32 %123, 3
  %125 = icmp eq i32 %124, 0
  br i1 %125, label %126, label %129

126:                                              ; preds = %119
  %127 = getelementptr inbounds nuw i8, ptr %12, i64 %120
  store i32 %123, ptr %127, align 4, !tbaa !5, !noalias !172
  %128 = add nuw nsw i64 %120, 4
  br label %129

129:                                              ; preds = %126, %119
  %130 = phi i64 [ %128, %126 ], [ %120, %119 ]
  %131 = getelementptr inbounds nuw i8, ptr %11, i64 %121
  %132 = getelementptr inbounds nuw i8, ptr %131, i64 4
  %133 = load i32, ptr %132, align 4, !tbaa !5, !noalias !172
  %134 = srem i32 %133, 3
  %135 = icmp eq i32 %134, 0
  br i1 %135, label %136, label %139

136:                                              ; preds = %129
  %137 = getelementptr inbounds nuw i8, ptr %12, i64 %130
  store i32 %133, ptr %137, align 4, !tbaa !5, !noalias !172
  %138 = add nuw nsw i64 %130, 4
  br label %139

139:                                              ; preds = %136, %129
  %140 = phi i64 [ %138, %136 ], [ %130, %129 ]
  %141 = add nuw nsw i64 %121, 8
  %142 = icmp eq i64 %141, 4000
  br i1 %142, label %143, label %119, !llvm.loop !175

143:                                              ; preds = %139
  %144 = icmp eq i64 %140, 1336
  br i1 %144, label %145, label %158

145:                                              ; preds = %143, %145
  %146 = phi i64 [ %152, %145 ], [ 0, %143 ]
  %147 = getelementptr inbounds nuw i32, ptr %12, i64 %146
  %148 = load <4 x i32>, ptr %147, align 16, !tbaa !5
  %149 = freeze <4 x i32> %148
  %150 = srem <4 x i32> %149, splat (i32 3)
  %151 = icmp ne <4 x i32> %150, zeroinitializer
  %152 = add nuw i64 %146, 4
  %153 = bitcast <4 x i1> %151 to i4
  %154 = icmp ne i4 %153, 0
  %155 = icmp eq i64 %152, 332
  %156 = or i1 %154, %155
  br i1 %156, label %157, label %145, !llvm.loop !176

157:                                              ; preds = %145
  br i1 %154, label %170, label %165

158:                                              ; preds = %143
  tail call void @__assert_fail(ptr noundef nonnull @.str, ptr noundef nonnull @.str.1, i32 noundef 39, ptr noundef nonnull @__PRETTY_FUNCTION__._ZN12TestOutItersI16forward_iteratorIPKiEEclI19contiguous_iteratorIPiEEEvv) #6
  unreachable

159:                                              ; preds = %165
  %160 = getelementptr inbounds nuw i8, ptr %12, i64 1332
  %161 = load i32, ptr %160, align 4, !tbaa !5
  %162 = srem i32 %161, 3
  %163 = icmp eq i32 %162, 0
  br i1 %163, label %164, label %170

164:                                              ; preds = %159
  call void @llvm.lifetime.end.p0(ptr nonnull %12) #5
  call void @llvm.lifetime.end.p0(ptr nonnull %11) #5
  call void @llvm.lifetime.start.p0(ptr nonnull %9) #5
  call void @llvm.memset.p0.i64(ptr noundef nonnull align 16 dereferenceable(4000) %9, i8 0, i64 4000, i1 false)
  br label %171

165:                                              ; preds = %157
  %166 = getelementptr inbounds nuw i8, ptr %12, i64 1328
  %167 = load i32, ptr %166, align 16, !tbaa !5
  %168 = srem i32 %167, 3
  %169 = icmp eq i32 %168, 0
  br i1 %169, label %159, label %170

170:                                              ; preds = %165, %159, %157
  tail call void @__assert_fail(ptr noundef nonnull @.str.2, ptr noundef nonnull @.str.1, i32 noundef 41, ptr noundef nonnull @__PRETTY_FUNCTION__._ZN12TestOutItersI16forward_iteratorIPKiEEclI19contiguous_iteratorIPiEEEvv) #6
  unreachable

171:                                              ; preds = %178, %164
  %172 = phi i64 [ 0, %164 ], [ %194, %178 ]
  %173 = phi <4 x i32> [ <i32 0, i32 1, i32 2, i32 3>, %164 ], [ %195, %178 ]
  %174 = add <4 x i32> %173, splat (i32 4)
  %175 = getelementptr inbounds nuw i32, ptr %9, i64 %172
  %176 = getelementptr inbounds nuw i8, ptr %175, i64 16
  store <4 x i32> %173, ptr %175, align 16, !tbaa !5
  store <4 x i32> %174, ptr %176, align 16, !tbaa !5
  %177 = icmp eq i64 %172, 992
  br i1 %177, label %196, label %178, !llvm.loop !177

178:                                              ; preds = %171
  %179 = add <4 x i32> %173, splat (i32 8)
  %180 = add <4 x i32> %173, splat (i32 12)
  %181 = getelementptr inbounds nuw i32, ptr %9, i64 %172
  %182 = getelementptr inbounds nuw i8, ptr %181, i64 32
  %183 = getelementptr inbounds nuw i8, ptr %181, i64 48
  store <4 x i32> %179, ptr %182, align 16, !tbaa !5
  store <4 x i32> %180, ptr %183, align 16, !tbaa !5
  %184 = add <4 x i32> %173, splat (i32 16)
  %185 = add <4 x i32> %173, splat (i32 20)
  %186 = getelementptr inbounds nuw i32, ptr %9, i64 %172
  %187 = getelementptr inbounds nuw i8, ptr %186, i64 64
  %188 = getelementptr inbounds nuw i8, ptr %186, i64 80
  store <4 x i32> %184, ptr %187, align 16, !tbaa !5
  store <4 x i32> %185, ptr %188, align 16, !tbaa !5
  %189 = add <4 x i32> %173, splat (i32 24)
  %190 = add <4 x i32> %173, splat (i32 28)
  %191 = getelementptr inbounds nuw i32, ptr %9, i64 %172
  %192 = getelementptr inbounds nuw i8, ptr %191, i64 96
  %193 = getelementptr inbounds nuw i8, ptr %191, i64 112
  store <4 x i32> %189, ptr %192, align 16, !tbaa !5
  store <4 x i32> %190, ptr %193, align 16, !tbaa !5
  %194 = add nuw nsw i64 %172, 32
  %195 = add <4 x i32> %173, splat (i32 32)
  br label %171

196:                                              ; preds = %171
  call void @llvm.lifetime.start.p0(ptr nonnull %10) #5
  call void @llvm.memset.p0.i64(ptr noundef nonnull align 16 dereferenceable(4000) %10, i8 0, i64 4000, i1 false)
  br label %197

197:                                              ; preds = %217, %196
  %198 = phi i64 [ 0, %196 ], [ %218, %217 ]
  %199 = phi i64 [ 0, %196 ], [ %219, %217 ]
  %200 = getelementptr inbounds nuw i8, ptr %9, i64 %199
  %201 = load i32, ptr %200, align 8, !tbaa !5, !noalias !178
  %202 = srem i32 %201, 3
  %203 = icmp eq i32 %202, 0
  br i1 %203, label %204, label %207

204:                                              ; preds = %197
  %205 = getelementptr inbounds nuw i8, ptr %10, i64 %198
  store i32 %201, ptr %205, align 4, !tbaa !5, !noalias !178
  %206 = add nuw nsw i64 %198, 4
  br label %207

207:                                              ; preds = %204, %197
  %208 = phi i64 [ %206, %204 ], [ %198, %197 ]
  %209 = getelementptr inbounds nuw i8, ptr %9, i64 %199
  %210 = getelementptr inbounds nuw i8, ptr %209, i64 4
  %211 = load i32, ptr %210, align 4, !tbaa !5, !noalias !178
  %212 = srem i32 %211, 3
  %213 = icmp eq i32 %212, 0
  br i1 %213, label %214, label %217

214:                                              ; preds = %207
  %215 = getelementptr inbounds nuw i8, ptr %10, i64 %208
  store i32 %211, ptr %215, align 4, !tbaa !5, !noalias !178
  %216 = add nuw nsw i64 %208, 4
  br label %217

217:                                              ; preds = %214, %207
  %218 = phi i64 [ %216, %214 ], [ %208, %207 ]
  %219 = add nuw nsw i64 %199, 8
  %220 = icmp eq i64 %219, 4000
  br i1 %220, label %221, label %197, !llvm.loop !181

221:                                              ; preds = %217
  %222 = icmp eq i64 %218, 1336
  br i1 %222, label %223, label %236

223:                                              ; preds = %221, %223
  %224 = phi i64 [ %230, %223 ], [ 0, %221 ]
  %225 = getelementptr inbounds nuw i32, ptr %10, i64 %224
  %226 = load <4 x i32>, ptr %225, align 16, !tbaa !5
  %227 = freeze <4 x i32> %226
  %228 = srem <4 x i32> %227, splat (i32 3)
  %229 = icmp ne <4 x i32> %228, zeroinitializer
  %230 = add nuw i64 %224, 4
  %231 = bitcast <4 x i1> %229 to i4
  %232 = icmp ne i4 %231, 0
  %233 = icmp eq i64 %230, 332
  %234 = or i1 %232, %233
  br i1 %234, label %235, label %223, !llvm.loop !182

235:                                              ; preds = %223
  br i1 %232, label %248, label %243

236:                                              ; preds = %221
  tail call void @__assert_fail(ptr noundef nonnull @.str, ptr noundef nonnull @.str.1, i32 noundef 39, ptr noundef nonnull @__PRETTY_FUNCTION__._ZN12TestOutItersI16forward_iteratorIPKiEEclI22random_access_iteratorIPiEEEvv) #6
  unreachable

237:                                              ; preds = %243
  %238 = getelementptr inbounds nuw i8, ptr %10, i64 1332
  %239 = load i32, ptr %238, align 4, !tbaa !5
  %240 = srem i32 %239, 3
  %241 = icmp eq i32 %240, 0
  br i1 %241, label %242, label %248

242:                                              ; preds = %237
  call void @llvm.lifetime.end.p0(ptr nonnull %10) #5
  call void @llvm.lifetime.end.p0(ptr nonnull %9) #5
  call void @llvm.lifetime.start.p0(ptr nonnull %7) #5
  call void @llvm.memset.p0.i64(ptr noundef nonnull align 16 dereferenceable(4000) %7, i8 0, i64 4000, i1 false)
  br label %249

243:                                              ; preds = %235
  %244 = getelementptr inbounds nuw i8, ptr %10, i64 1328
  %245 = load i32, ptr %244, align 16, !tbaa !5
  %246 = srem i32 %245, 3
  %247 = icmp eq i32 %246, 0
  br i1 %247, label %237, label %248

248:                                              ; preds = %243, %237, %235
  tail call void @__assert_fail(ptr noundef nonnull @.str.2, ptr noundef nonnull @.str.1, i32 noundef 41, ptr noundef nonnull @__PRETTY_FUNCTION__._ZN12TestOutItersI16forward_iteratorIPKiEEclI22random_access_iteratorIPiEEEvv) #6
  unreachable

249:                                              ; preds = %256, %242
  %250 = phi i64 [ 0, %242 ], [ %272, %256 ]
  %251 = phi <4 x i32> [ <i32 0, i32 1, i32 2, i32 3>, %242 ], [ %273, %256 ]
  %252 = add <4 x i32> %251, splat (i32 4)
  %253 = getelementptr inbounds nuw i32, ptr %7, i64 %250
  %254 = getelementptr inbounds nuw i8, ptr %253, i64 16
  store <4 x i32> %251, ptr %253, align 16, !tbaa !5
  store <4 x i32> %252, ptr %254, align 16, !tbaa !5
  %255 = icmp eq i64 %250, 992
  br i1 %255, label %274, label %256, !llvm.loop !183

256:                                              ; preds = %249
  %257 = add <4 x i32> %251, splat (i32 8)
  %258 = add <4 x i32> %251, splat (i32 12)
  %259 = getelementptr inbounds nuw i32, ptr %7, i64 %250
  %260 = getelementptr inbounds nuw i8, ptr %259, i64 32
  %261 = getelementptr inbounds nuw i8, ptr %259, i64 48
  store <4 x i32> %257, ptr %260, align 16, !tbaa !5
  store <4 x i32> %258, ptr %261, align 16, !tbaa !5
  %262 = add <4 x i32> %251, splat (i32 16)
  %263 = add <4 x i32> %251, splat (i32 20)
  %264 = getelementptr inbounds nuw i32, ptr %7, i64 %250
  %265 = getelementptr inbounds nuw i8, ptr %264, i64 64
  %266 = getelementptr inbounds nuw i8, ptr %264, i64 80
  store <4 x i32> %262, ptr %265, align 16, !tbaa !5
  store <4 x i32> %263, ptr %266, align 16, !tbaa !5
  %267 = add <4 x i32> %251, splat (i32 24)
  %268 = add <4 x i32> %251, splat (i32 28)
  %269 = getelementptr inbounds nuw i32, ptr %7, i64 %250
  %270 = getelementptr inbounds nuw i8, ptr %269, i64 96
  %271 = getelementptr inbounds nuw i8, ptr %269, i64 112
  store <4 x i32> %267, ptr %270, align 16, !tbaa !5
  store <4 x i32> %268, ptr %271, align 16, !tbaa !5
  %272 = add nuw nsw i64 %250, 32
  %273 = add <4 x i32> %251, splat (i32 32)
  br label %249

274:                                              ; preds = %249
  call void @llvm.lifetime.start.p0(ptr nonnull %8) #5
  call void @llvm.memset.p0.i64(ptr noundef nonnull align 16 dereferenceable(4000) %8, i8 0, i64 4000, i1 false)
  br label %275

275:                                              ; preds = %295, %274
  %276 = phi i64 [ 0, %274 ], [ %296, %295 ]
  %277 = phi i64 [ 0, %274 ], [ %297, %295 ]
  %278 = getelementptr inbounds nuw i8, ptr %7, i64 %277
  %279 = load i32, ptr %278, align 8, !tbaa !5, !noalias !184
  %280 = srem i32 %279, 3
  %281 = icmp eq i32 %280, 0
  br i1 %281, label %282, label %285

282:                                              ; preds = %275
  %283 = getelementptr inbounds nuw i8, ptr %8, i64 %276
  store i32 %279, ptr %283, align 4, !tbaa !5, !noalias !184
  %284 = add nuw nsw i64 %276, 4
  br label %285

285:                                              ; preds = %282, %275
  %286 = phi i64 [ %284, %282 ], [ %276, %275 ]
  %287 = getelementptr inbounds nuw i8, ptr %7, i64 %277
  %288 = getelementptr inbounds nuw i8, ptr %287, i64 4
  %289 = load i32, ptr %288, align 4, !tbaa !5, !noalias !184
  %290 = srem i32 %289, 3
  %291 = icmp eq i32 %290, 0
  br i1 %291, label %292, label %295

292:                                              ; preds = %285
  %293 = getelementptr inbounds nuw i8, ptr %8, i64 %286
  store i32 %289, ptr %293, align 4, !tbaa !5, !noalias !184
  %294 = add nuw nsw i64 %286, 4
  br label %295

295:                                              ; preds = %292, %285
  %296 = phi i64 [ %294, %292 ], [ %286, %285 ]
  %297 = add nuw nsw i64 %277, 8
  %298 = icmp eq i64 %297, 4000
  br i1 %298, label %299, label %275, !llvm.loop !187

299:                                              ; preds = %295
  %300 = icmp eq i64 %296, 1336
  br i1 %300, label %301, label %314

301:                                              ; preds = %299, %301
  %302 = phi i64 [ %308, %301 ], [ 0, %299 ]
  %303 = getelementptr inbounds nuw i32, ptr %8, i64 %302
  %304 = load <4 x i32>, ptr %303, align 16, !tbaa !5
  %305 = freeze <4 x i32> %304
  %306 = srem <4 x i32> %305, splat (i32 3)
  %307 = icmp ne <4 x i32> %306, zeroinitializer
  %308 = add nuw i64 %302, 4
  %309 = bitcast <4 x i1> %307 to i4
  %310 = icmp ne i4 %309, 0
  %311 = icmp eq i64 %308, 332
  %312 = or i1 %310, %311
  br i1 %312, label %313, label %301, !llvm.loop !188

313:                                              ; preds = %301
  br i1 %310, label %326, label %321

314:                                              ; preds = %299
  tail call void @__assert_fail(ptr noundef nonnull @.str, ptr noundef nonnull @.str.1, i32 noundef 39, ptr noundef nonnull @__PRETTY_FUNCTION__._ZN12TestOutItersI16forward_iteratorIPKiEEclI22bidirectional_iteratorIPiEEEvv) #6
  unreachable

315:                                              ; preds = %321
  %316 = getelementptr inbounds nuw i8, ptr %8, i64 1332
  %317 = load i32, ptr %316, align 4, !tbaa !5
  %318 = srem i32 %317, 3
  %319 = icmp eq i32 %318, 0
  br i1 %319, label %320, label %326

320:                                              ; preds = %315
  call void @llvm.lifetime.end.p0(ptr nonnull %8) #5
  call void @llvm.lifetime.end.p0(ptr nonnull %7) #5
  call void @llvm.lifetime.start.p0(ptr nonnull %5) #5
  call void @llvm.memset.p0.i64(ptr noundef nonnull align 16 dereferenceable(4000) %5, i8 0, i64 4000, i1 false)
  br label %327

321:                                              ; preds = %313
  %322 = getelementptr inbounds nuw i8, ptr %8, i64 1328
  %323 = load i32, ptr %322, align 16, !tbaa !5
  %324 = srem i32 %323, 3
  %325 = icmp eq i32 %324, 0
  br i1 %325, label %315, label %326

326:                                              ; preds = %321, %315, %313
  tail call void @__assert_fail(ptr noundef nonnull @.str.2, ptr noundef nonnull @.str.1, i32 noundef 41, ptr noundef nonnull @__PRETTY_FUNCTION__._ZN12TestOutItersI16forward_iteratorIPKiEEclI22bidirectional_iteratorIPiEEEvv) #6
  unreachable

327:                                              ; preds = %334, %320
  %328 = phi i64 [ 0, %320 ], [ %350, %334 ]
  %329 = phi <4 x i32> [ <i32 0, i32 1, i32 2, i32 3>, %320 ], [ %351, %334 ]
  %330 = add <4 x i32> %329, splat (i32 4)
  %331 = getelementptr inbounds nuw i32, ptr %5, i64 %328
  %332 = getelementptr inbounds nuw i8, ptr %331, i64 16
  store <4 x i32> %329, ptr %331, align 16, !tbaa !5
  store <4 x i32> %330, ptr %332, align 16, !tbaa !5
  %333 = icmp eq i64 %328, 992
  br i1 %333, label %352, label %334, !llvm.loop !189

334:                                              ; preds = %327
  %335 = add <4 x i32> %329, splat (i32 8)
  %336 = add <4 x i32> %329, splat (i32 12)
  %337 = getelementptr inbounds nuw i32, ptr %5, i64 %328
  %338 = getelementptr inbounds nuw i8, ptr %337, i64 32
  %339 = getelementptr inbounds nuw i8, ptr %337, i64 48
  store <4 x i32> %335, ptr %338, align 16, !tbaa !5
  store <4 x i32> %336, ptr %339, align 16, !tbaa !5
  %340 = add <4 x i32> %329, splat (i32 16)
  %341 = add <4 x i32> %329, splat (i32 20)
  %342 = getelementptr inbounds nuw i32, ptr %5, i64 %328
  %343 = getelementptr inbounds nuw i8, ptr %342, i64 64
  %344 = getelementptr inbounds nuw i8, ptr %342, i64 80
  store <4 x i32> %340, ptr %343, align 16, !tbaa !5
  store <4 x i32> %341, ptr %344, align 16, !tbaa !5
  %345 = add <4 x i32> %329, splat (i32 24)
  %346 = add <4 x i32> %329, splat (i32 28)
  %347 = getelementptr inbounds nuw i32, ptr %5, i64 %328
  %348 = getelementptr inbounds nuw i8, ptr %347, i64 96
  %349 = getelementptr inbounds nuw i8, ptr %347, i64 112
  store <4 x i32> %345, ptr %348, align 16, !tbaa !5
  store <4 x i32> %346, ptr %349, align 16, !tbaa !5
  %350 = add nuw nsw i64 %328, 32
  %351 = add <4 x i32> %329, splat (i32 32)
  br label %327

352:                                              ; preds = %327
  call void @llvm.lifetime.start.p0(ptr nonnull %6) #5
  call void @llvm.memset.p0.i64(ptr noundef nonnull align 16 dereferenceable(4000) %6, i8 0, i64 4000, i1 false)
  br label %353

353:                                              ; preds = %373, %352
  %354 = phi i64 [ 0, %352 ], [ %374, %373 ]
  %355 = phi i64 [ 0, %352 ], [ %375, %373 ]
  %356 = getelementptr inbounds nuw i8, ptr %5, i64 %355
  %357 = load i32, ptr %356, align 8, !tbaa !5, !noalias !190
  %358 = srem i32 %357, 3
  %359 = icmp eq i32 %358, 0
  br i1 %359, label %360, label %363

360:                                              ; preds = %353
  %361 = getelementptr inbounds nuw i8, ptr %6, i64 %354
  store i32 %357, ptr %361, align 4, !tbaa !5, !noalias !190
  %362 = add nuw nsw i64 %354, 4
  br label %363

363:                                              ; preds = %360, %353
  %364 = phi i64 [ %362, %360 ], [ %354, %353 ]
  %365 = getelementptr inbounds nuw i8, ptr %5, i64 %355
  %366 = getelementptr inbounds nuw i8, ptr %365, i64 4
  %367 = load i32, ptr %366, align 4, !tbaa !5, !noalias !190
  %368 = srem i32 %367, 3
  %369 = icmp eq i32 %368, 0
  br i1 %369, label %370, label %373

370:                                              ; preds = %363
  %371 = getelementptr inbounds nuw i8, ptr %6, i64 %364
  store i32 %367, ptr %371, align 4, !tbaa !5, !noalias !190
  %372 = add nuw nsw i64 %364, 4
  br label %373

373:                                              ; preds = %370, %363
  %374 = phi i64 [ %372, %370 ], [ %364, %363 ]
  %375 = add nuw nsw i64 %355, 8
  %376 = icmp eq i64 %375, 4000
  br i1 %376, label %377, label %353, !llvm.loop !193

377:                                              ; preds = %373
  %378 = icmp eq i64 %374, 1336
  br i1 %378, label %379, label %392

379:                                              ; preds = %377, %379
  %380 = phi i64 [ %386, %379 ], [ 0, %377 ]
  %381 = getelementptr inbounds nuw i32, ptr %6, i64 %380
  %382 = load <4 x i32>, ptr %381, align 16, !tbaa !5
  %383 = freeze <4 x i32> %382
  %384 = srem <4 x i32> %383, splat (i32 3)
  %385 = icmp ne <4 x i32> %384, zeroinitializer
  %386 = add nuw i64 %380, 4
  %387 = bitcast <4 x i1> %385 to i4
  %388 = icmp ne i4 %387, 0
  %389 = icmp eq i64 %386, 332
  %390 = or i1 %388, %389
  br i1 %390, label %391, label %379, !llvm.loop !194

391:                                              ; preds = %379
  br i1 %388, label %404, label %399

392:                                              ; preds = %377
  tail call void @__assert_fail(ptr noundef nonnull @.str, ptr noundef nonnull @.str.1, i32 noundef 39, ptr noundef nonnull @__PRETTY_FUNCTION__._ZN12TestOutItersI16forward_iteratorIPKiEEclIS0_IPiEEEvv) #6
  unreachable

393:                                              ; preds = %399
  %394 = getelementptr inbounds nuw i8, ptr %6, i64 1332
  %395 = load i32, ptr %394, align 4, !tbaa !5
  %396 = srem i32 %395, 3
  %397 = icmp eq i32 %396, 0
  br i1 %397, label %398, label %404

398:                                              ; preds = %393
  call void @llvm.lifetime.end.p0(ptr nonnull %6) #5
  call void @llvm.lifetime.end.p0(ptr nonnull %5) #5
  call void @llvm.lifetime.start.p0(ptr nonnull %3) #5
  call void @llvm.memset.p0.i64(ptr noundef nonnull align 16 dereferenceable(4000) %3, i8 0, i64 4000, i1 false)
  br label %405

399:                                              ; preds = %391
  %400 = getelementptr inbounds nuw i8, ptr %6, i64 1328
  %401 = load i32, ptr %400, align 16, !tbaa !5
  %402 = srem i32 %401, 3
  %403 = icmp eq i32 %402, 0
  br i1 %403, label %393, label %404

404:                                              ; preds = %399, %393, %391
  tail call void @__assert_fail(ptr noundef nonnull @.str.2, ptr noundef nonnull @.str.1, i32 noundef 41, ptr noundef nonnull @__PRETTY_FUNCTION__._ZN12TestOutItersI16forward_iteratorIPKiEEclIS0_IPiEEEvv) #6
  unreachable

405:                                              ; preds = %412, %398
  %406 = phi i64 [ 0, %398 ], [ %428, %412 ]
  %407 = phi <4 x i32> [ <i32 0, i32 1, i32 2, i32 3>, %398 ], [ %429, %412 ]
  %408 = add <4 x i32> %407, splat (i32 4)
  %409 = getelementptr inbounds nuw i32, ptr %3, i64 %406
  %410 = getelementptr inbounds nuw i8, ptr %409, i64 16
  store <4 x i32> %407, ptr %409, align 16, !tbaa !5
  store <4 x i32> %408, ptr %410, align 16, !tbaa !5
  %411 = icmp eq i64 %406, 992
  br i1 %411, label %430, label %412, !llvm.loop !195

412:                                              ; preds = %405
  %413 = add <4 x i32> %407, splat (i32 8)
  %414 = add <4 x i32> %407, splat (i32 12)
  %415 = getelementptr inbounds nuw i32, ptr %3, i64 %406
  %416 = getelementptr inbounds nuw i8, ptr %415, i64 32
  %417 = getelementptr inbounds nuw i8, ptr %415, i64 48
  store <4 x i32> %413, ptr %416, align 16, !tbaa !5
  store <4 x i32> %414, ptr %417, align 16, !tbaa !5
  %418 = add <4 x i32> %407, splat (i32 16)
  %419 = add <4 x i32> %407, splat (i32 20)
  %420 = getelementptr inbounds nuw i32, ptr %3, i64 %406
  %421 = getelementptr inbounds nuw i8, ptr %420, i64 64
  %422 = getelementptr inbounds nuw i8, ptr %420, i64 80
  store <4 x i32> %418, ptr %421, align 16, !tbaa !5
  store <4 x i32> %419, ptr %422, align 16, !tbaa !5
  %423 = add <4 x i32> %407, splat (i32 24)
  %424 = add <4 x i32> %407, splat (i32 28)
  %425 = getelementptr inbounds nuw i32, ptr %3, i64 %406
  %426 = getelementptr inbounds nuw i8, ptr %425, i64 96
  %427 = getelementptr inbounds nuw i8, ptr %425, i64 112
  store <4 x i32> %423, ptr %426, align 16, !tbaa !5
  store <4 x i32> %424, ptr %427, align 16, !tbaa !5
  %428 = add nuw nsw i64 %406, 32
  %429 = add <4 x i32> %407, splat (i32 32)
  br label %405

430:                                              ; preds = %405
  call void @llvm.lifetime.start.p0(ptr nonnull %4) #5
  call void @llvm.memset.p0.i64(ptr noundef nonnull align 16 dereferenceable(4000) %4, i8 0, i64 4000, i1 false)
  br label %431

431:                                              ; preds = %451, %430
  %432 = phi i64 [ 0, %430 ], [ %452, %451 ]
  %433 = phi i64 [ 0, %430 ], [ %453, %451 ]
  %434 = getelementptr inbounds nuw i8, ptr %3, i64 %433
  %435 = load i32, ptr %434, align 8, !tbaa !5, !noalias !196
  %436 = srem i32 %435, 3
  %437 = icmp eq i32 %436, 0
  br i1 %437, label %438, label %441

438:                                              ; preds = %431
  %439 = getelementptr inbounds nuw i8, ptr %4, i64 %432
  store i32 %435, ptr %439, align 4, !tbaa !5, !noalias !196
  %440 = add nuw nsw i64 %432, 4
  br label %441

441:                                              ; preds = %438, %431
  %442 = phi i64 [ %440, %438 ], [ %432, %431 ]
  %443 = getelementptr inbounds nuw i8, ptr %3, i64 %433
  %444 = getelementptr inbounds nuw i8, ptr %443, i64 4
  %445 = load i32, ptr %444, align 4, !tbaa !5, !noalias !196
  %446 = srem i32 %445, 3
  %447 = icmp eq i32 %446, 0
  br i1 %447, label %448, label %451

448:                                              ; preds = %441
  %449 = getelementptr inbounds nuw i8, ptr %4, i64 %442
  store i32 %445, ptr %449, align 4, !tbaa !5, !noalias !196
  %450 = add nuw nsw i64 %442, 4
  br label %451

451:                                              ; preds = %448, %441
  %452 = phi i64 [ %450, %448 ], [ %442, %441 ]
  %453 = add nuw nsw i64 %433, 8
  %454 = icmp eq i64 %453, 4000
  br i1 %454, label %455, label %431, !llvm.loop !199

455:                                              ; preds = %451
  %456 = icmp eq i64 %452, 1336
  br i1 %456, label %457, label %470

457:                                              ; preds = %455, %457
  %458 = phi i64 [ %464, %457 ], [ 0, %455 ]
  %459 = getelementptr inbounds nuw i32, ptr %4, i64 %458
  %460 = load <4 x i32>, ptr %459, align 16, !tbaa !5
  %461 = freeze <4 x i32> %460
  %462 = srem <4 x i32> %461, splat (i32 3)
  %463 = icmp ne <4 x i32> %462, zeroinitializer
  %464 = add nuw i64 %458, 4
  %465 = bitcast <4 x i1> %463 to i4
  %466 = icmp ne i4 %465, 0
  %467 = icmp eq i64 %464, 332
  %468 = or i1 %466, %467
  br i1 %468, label %469, label %457, !llvm.loop !200

469:                                              ; preds = %457
  br i1 %466, label %482, label %477

470:                                              ; preds = %455
  tail call void @__assert_fail(ptr noundef nonnull @.str, ptr noundef nonnull @.str.1, i32 noundef 39, ptr noundef nonnull @__PRETTY_FUNCTION__._ZN12TestOutItersI16forward_iteratorIPKiEEclI20cpp17_input_iteratorIPiS7_EEEvv) #6
  unreachable

471:                                              ; preds = %477
  %472 = getelementptr inbounds nuw i8, ptr %4, i64 1332
  %473 = load i32, ptr %472, align 4, !tbaa !5
  %474 = srem i32 %473, 3
  %475 = icmp eq i32 %474, 0
  br i1 %475, label %476, label %482

476:                                              ; preds = %471
  call void @llvm.lifetime.end.p0(ptr nonnull %4) #5
  call void @llvm.lifetime.end.p0(ptr nonnull %3) #5
  call void @llvm.lifetime.start.p0(ptr nonnull %1) #5
  call void @llvm.memset.p0.i64(ptr noundef nonnull align 16 dereferenceable(4000) %1, i8 0, i64 4000, i1 false)
  br label %483

477:                                              ; preds = %469
  %478 = getelementptr inbounds nuw i8, ptr %4, i64 1328
  %479 = load i32, ptr %478, align 16, !tbaa !5
  %480 = srem i32 %479, 3
  %481 = icmp eq i32 %480, 0
  br i1 %481, label %471, label %482

482:                                              ; preds = %477, %471, %469
  tail call void @__assert_fail(ptr noundef nonnull @.str.2, ptr noundef nonnull @.str.1, i32 noundef 41, ptr noundef nonnull @__PRETTY_FUNCTION__._ZN12TestOutItersI16forward_iteratorIPKiEEclI20cpp17_input_iteratorIPiS7_EEEvv) #6
  unreachable

483:                                              ; preds = %490, %476
  %484 = phi i64 [ 0, %476 ], [ %506, %490 ]
  %485 = phi <4 x i32> [ <i32 0, i32 1, i32 2, i32 3>, %476 ], [ %507, %490 ]
  %486 = add <4 x i32> %485, splat (i32 4)
  %487 = getelementptr inbounds nuw i32, ptr %1, i64 %484
  %488 = getelementptr inbounds nuw i8, ptr %487, i64 16
  store <4 x i32> %485, ptr %487, align 16, !tbaa !5
  store <4 x i32> %486, ptr %488, align 16, !tbaa !5
  %489 = icmp eq i64 %484, 992
  br i1 %489, label %508, label %490, !llvm.loop !201

490:                                              ; preds = %483
  %491 = add <4 x i32> %485, splat (i32 8)
  %492 = add <4 x i32> %485, splat (i32 12)
  %493 = getelementptr inbounds nuw i32, ptr %1, i64 %484
  %494 = getelementptr inbounds nuw i8, ptr %493, i64 32
  %495 = getelementptr inbounds nuw i8, ptr %493, i64 48
  store <4 x i32> %491, ptr %494, align 16, !tbaa !5
  store <4 x i32> %492, ptr %495, align 16, !tbaa !5
  %496 = add <4 x i32> %485, splat (i32 16)
  %497 = add <4 x i32> %485, splat (i32 20)
  %498 = getelementptr inbounds nuw i32, ptr %1, i64 %484
  %499 = getelementptr inbounds nuw i8, ptr %498, i64 64
  %500 = getelementptr inbounds nuw i8, ptr %498, i64 80
  store <4 x i32> %496, ptr %499, align 16, !tbaa !5
  store <4 x i32> %497, ptr %500, align 16, !tbaa !5
  %501 = add <4 x i32> %485, splat (i32 24)
  %502 = add <4 x i32> %485, splat (i32 28)
  %503 = getelementptr inbounds nuw i32, ptr %1, i64 %484
  %504 = getelementptr inbounds nuw i8, ptr %503, i64 96
  %505 = getelementptr inbounds nuw i8, ptr %503, i64 112
  store <4 x i32> %501, ptr %504, align 16, !tbaa !5
  store <4 x i32> %502, ptr %505, align 16, !tbaa !5
  %506 = add nuw nsw i64 %484, 32
  %507 = add <4 x i32> %485, splat (i32 32)
  br label %483

508:                                              ; preds = %483
  call void @llvm.lifetime.start.p0(ptr nonnull %2) #5
  call void @llvm.memset.p0.i64(ptr noundef nonnull align 16 dereferenceable(4000) %2, i8 0, i64 4000, i1 false)
  br label %509

509:                                              ; preds = %529, %508
  %510 = phi i64 [ 0, %508 ], [ %530, %529 ]
  %511 = phi i64 [ 0, %508 ], [ %531, %529 ]
  %512 = getelementptr inbounds nuw i8, ptr %1, i64 %511
  %513 = load i32, ptr %512, align 8, !tbaa !5, !noalias !202
  %514 = srem i32 %513, 3
  %515 = icmp eq i32 %514, 0
  br i1 %515, label %516, label %519

516:                                              ; preds = %509
  %517 = getelementptr inbounds nuw i8, ptr %2, i64 %510
  store i32 %513, ptr %517, align 4, !tbaa !5, !noalias !202
  %518 = add nuw nsw i64 %510, 4
  br label %519

519:                                              ; preds = %516, %509
  %520 = phi i64 [ %518, %516 ], [ %510, %509 ]
  %521 = getelementptr inbounds nuw i8, ptr %1, i64 %511
  %522 = getelementptr inbounds nuw i8, ptr %521, i64 4
  %523 = load i32, ptr %522, align 4, !tbaa !5, !noalias !202
  %524 = srem i32 %523, 3
  %525 = icmp eq i32 %524, 0
  br i1 %525, label %526, label %529

526:                                              ; preds = %519
  %527 = getelementptr inbounds nuw i8, ptr %2, i64 %520
  store i32 %523, ptr %527, align 4, !tbaa !5, !noalias !202
  %528 = add nuw nsw i64 %520, 4
  br label %529

529:                                              ; preds = %526, %519
  %530 = phi i64 [ %528, %526 ], [ %520, %519 ]
  %531 = add nuw nsw i64 %511, 8
  %532 = icmp eq i64 %531, 4000
  br i1 %532, label %533, label %509, !llvm.loop !205

533:                                              ; preds = %529
  %534 = icmp eq i64 %530, 1336
  br i1 %534, label %535, label %548

535:                                              ; preds = %533, %535
  %536 = phi i64 [ %542, %535 ], [ 0, %533 ]
  %537 = getelementptr inbounds nuw i32, ptr %2, i64 %536
  %538 = load <4 x i32>, ptr %537, align 16, !tbaa !5
  %539 = freeze <4 x i32> %538
  %540 = srem <4 x i32> %539, splat (i32 3)
  %541 = icmp ne <4 x i32> %540, zeroinitializer
  %542 = add nuw i64 %536, 4
  %543 = bitcast <4 x i1> %541 to i4
  %544 = icmp ne i4 %543, 0
  %545 = icmp eq i64 %542, 332
  %546 = or i1 %544, %545
  br i1 %546, label %547, label %535, !llvm.loop !206

547:                                              ; preds = %535
  br i1 %544, label %560, label %555

548:                                              ; preds = %533
  tail call void @__assert_fail(ptr noundef nonnull @.str, ptr noundef nonnull @.str.1, i32 noundef 39, ptr noundef nonnull @__PRETTY_FUNCTION__._ZN12TestOutItersI16forward_iteratorIPKiEEclI21cpp17_output_iteratorIPiEEEvv) #6
  unreachable

549:                                              ; preds = %555
  %550 = getelementptr inbounds nuw i8, ptr %2, i64 1332
  %551 = load i32, ptr %550, align 4, !tbaa !5
  %552 = srem i32 %551, 3
  %553 = icmp eq i32 %552, 0
  br i1 %553, label %554, label %560

554:                                              ; preds = %549
  call void @llvm.lifetime.end.p0(ptr nonnull %2) #5
  call void @llvm.lifetime.end.p0(ptr nonnull %1) #5
  ret void

555:                                              ; preds = %547
  %556 = getelementptr inbounds nuw i8, ptr %2, i64 1328
  %557 = load i32, ptr %556, align 16, !tbaa !5
  %558 = srem i32 %557, 3
  %559 = icmp eq i32 %558, 0
  br i1 %559, label %549, label %560

560:                                              ; preds = %555, %549, %547
  tail call void @__assert_fail(ptr noundef nonnull @.str.2, ptr noundef nonnull @.str.1, i32 noundef 41, ptr noundef nonnull @__PRETTY_FUNCTION__._ZN12TestOutItersI16forward_iteratorIPKiEEclI21cpp17_output_iteratorIPiEEEvv) #6
  unreachable
}

; Function Attrs: mustprogress uwtable
define linkonce_odr dso_local void @_ZN5types8for_eachIJPi19contiguous_iteratorIS1_E22random_access_iteratorIS1_E22bidirectional_iteratorIS1_E16forward_iteratorIS1_E20cpp17_input_iteratorIS1_S1_E21cpp17_output_iteratorIS1_EE12TestOutItersISA_IPKiSG_EEEEvNS_9type_listIJDpT_EEET0_() local_unnamed_addr #1 comdat {
  %1 = alloca [1000 x i32], align 16
  %2 = alloca [1000 x i32], align 16
  %3 = alloca [1000 x i32], align 16
  %4 = alloca [1000 x i32], align 16
  %5 = alloca [1000 x i32], align 16
  %6 = alloca [1000 x i32], align 16
  %7 = alloca [1000 x i32], align 16
  %8 = alloca [1000 x i32], align 16
  %9 = alloca [1000 x i32], align 16
  %10 = alloca [1000 x i32], align 16
  %11 = alloca [1000 x i32], align 16
  %12 = alloca [1000 x i32], align 16
  %13 = alloca [1000 x i32], align 16
  %14 = alloca [1000 x i32], align 16
  call void @llvm.lifetime.start.p0(ptr nonnull %13) #5
  call void @llvm.memset.p0.i64(ptr noundef nonnull align 16 dereferenceable(4000) %13, i8 0, i64 4000, i1 false)
  br label %15

15:                                               ; preds = %22, %0
  %16 = phi i64 [ 0, %0 ], [ %38, %22 ]
  %17 = phi <4 x i32> [ <i32 0, i32 1, i32 2, i32 3>, %0 ], [ %39, %22 ]
  %18 = add <4 x i32> %17, splat (i32 4)
  %19 = getelementptr inbounds nuw i32, ptr %13, i64 %16
  %20 = getelementptr inbounds nuw i8, ptr %19, i64 16
  store <4 x i32> %17, ptr %19, align 16, !tbaa !5
  store <4 x i32> %18, ptr %20, align 16, !tbaa !5
  %21 = icmp eq i64 %16, 992
  br i1 %21, label %40, label %22, !llvm.loop !207

22:                                               ; preds = %15
  %23 = add <4 x i32> %17, splat (i32 8)
  %24 = add <4 x i32> %17, splat (i32 12)
  %25 = getelementptr inbounds nuw i32, ptr %13, i64 %16
  %26 = getelementptr inbounds nuw i8, ptr %25, i64 32
  %27 = getelementptr inbounds nuw i8, ptr %25, i64 48
  store <4 x i32> %23, ptr %26, align 16, !tbaa !5
  store <4 x i32> %24, ptr %27, align 16, !tbaa !5
  %28 = add <4 x i32> %17, splat (i32 16)
  %29 = add <4 x i32> %17, splat (i32 20)
  %30 = getelementptr inbounds nuw i32, ptr %13, i64 %16
  %31 = getelementptr inbounds nuw i8, ptr %30, i64 64
  %32 = getelementptr inbounds nuw i8, ptr %30, i64 80
  store <4 x i32> %28, ptr %31, align 16, !tbaa !5
  store <4 x i32> %29, ptr %32, align 16, !tbaa !5
  %33 = add <4 x i32> %17, splat (i32 24)
  %34 = add <4 x i32> %17, splat (i32 28)
  %35 = getelementptr inbounds nuw i32, ptr %13, i64 %16
  %36 = getelementptr inbounds nuw i8, ptr %35, i64 96
  %37 = getelementptr inbounds nuw i8, ptr %35, i64 112
  store <4 x i32> %33, ptr %36, align 16, !tbaa !5
  store <4 x i32> %34, ptr %37, align 16, !tbaa !5
  %38 = add nuw nsw i64 %16, 32
  %39 = add <4 x i32> %17, splat (i32 32)
  br label %15

40:                                               ; preds = %15
  call void @llvm.lifetime.start.p0(ptr nonnull %14) #5
  call void @llvm.memset.p0.i64(ptr noundef nonnull align 16 dereferenceable(4000) %14, i8 0, i64 4000, i1 false)
  br label %41

41:                                               ; preds = %61, %40
  %42 = phi i64 [ 0, %40 ], [ %63, %61 ]
  %43 = phi i64 [ 0, %40 ], [ %62, %61 ]
  %44 = getelementptr inbounds nuw i8, ptr %13, i64 %42
  %45 = load i32, ptr %44, align 8, !tbaa !5
  %46 = srem i32 %45, 3
  %47 = icmp eq i32 %46, 0
  br i1 %47, label %48, label %51

48:                                               ; preds = %41
  %49 = getelementptr inbounds nuw i8, ptr %14, i64 %43
  store i32 %45, ptr %49, align 4, !tbaa !5
  %50 = add nuw nsw i64 %43, 4
  br label %51

51:                                               ; preds = %48, %41
  %52 = phi i64 [ %50, %48 ], [ %43, %41 ]
  %53 = getelementptr inbounds nuw i8, ptr %13, i64 %42
  %54 = getelementptr inbounds nuw i8, ptr %53, i64 4
  %55 = load i32, ptr %54, align 4, !tbaa !5
  %56 = srem i32 %55, 3
  %57 = icmp eq i32 %56, 0
  br i1 %57, label %58, label %61

58:                                               ; preds = %51
  %59 = getelementptr inbounds nuw i8, ptr %14, i64 %52
  store i32 %55, ptr %59, align 4, !tbaa !5
  %60 = add nuw nsw i64 %52, 4
  br label %61

61:                                               ; preds = %58, %51
  %62 = phi i64 [ %60, %58 ], [ %52, %51 ]
  %63 = add nuw nsw i64 %42, 8
  %64 = icmp eq i64 %63, 4000
  br i1 %64, label %65, label %41, !llvm.loop !208

65:                                               ; preds = %61
  %66 = icmp eq i64 %62, 1336
  br i1 %66, label %67, label %80

67:                                               ; preds = %65, %67
  %68 = phi i64 [ %74, %67 ], [ 0, %65 ]
  %69 = getelementptr inbounds nuw i32, ptr %14, i64 %68
  %70 = load <4 x i32>, ptr %69, align 16, !tbaa !5
  %71 = freeze <4 x i32> %70
  %72 = srem <4 x i32> %71, splat (i32 3)
  %73 = icmp ne <4 x i32> %72, zeroinitializer
  %74 = add nuw i64 %68, 4
  %75 = bitcast <4 x i1> %73 to i4
  %76 = icmp ne i4 %75, 0
  %77 = icmp eq i64 %74, 332
  %78 = or i1 %76, %77
  br i1 %78, label %79, label %67, !llvm.loop !209

79:                                               ; preds = %67
  br i1 %76, label %92, label %87

80:                                               ; preds = %65
  tail call void @__assert_fail(ptr noundef nonnull @.str, ptr noundef nonnull @.str.1, i32 noundef 39, ptr noundef nonnull @__PRETTY_FUNCTION__._ZN12TestOutItersI20cpp17_input_iteratorIPKiS2_EEclIPiEEvv) #6
  unreachable

81:                                               ; preds = %87
  %82 = getelementptr inbounds nuw i8, ptr %14, i64 1332
  %83 = load i32, ptr %82, align 4, !tbaa !5
  %84 = srem i32 %83, 3
  %85 = icmp eq i32 %84, 0
  br i1 %85, label %86, label %92

86:                                               ; preds = %81
  call void @llvm.lifetime.end.p0(ptr nonnull %14) #5
  call void @llvm.lifetime.end.p0(ptr nonnull %13) #5
  call void @llvm.lifetime.start.p0(ptr nonnull %11) #5
  call void @llvm.memset.p0.i64(ptr noundef nonnull align 16 dereferenceable(4000) %11, i8 0, i64 4000, i1 false)
  br label %93

87:                                               ; preds = %79
  %88 = getelementptr inbounds nuw i8, ptr %14, i64 1328
  %89 = load i32, ptr %88, align 16, !tbaa !5
  %90 = srem i32 %89, 3
  %91 = icmp eq i32 %90, 0
  br i1 %91, label %81, label %92

92:                                               ; preds = %87, %81, %79
  tail call void @__assert_fail(ptr noundef nonnull @.str.2, ptr noundef nonnull @.str.1, i32 noundef 41, ptr noundef nonnull @__PRETTY_FUNCTION__._ZN12TestOutItersI20cpp17_input_iteratorIPKiS2_EEclIPiEEvv) #6
  unreachable

93:                                               ; preds = %100, %86
  %94 = phi i64 [ 0, %86 ], [ %116, %100 ]
  %95 = phi <4 x i32> [ <i32 0, i32 1, i32 2, i32 3>, %86 ], [ %117, %100 ]
  %96 = add <4 x i32> %95, splat (i32 4)
  %97 = getelementptr inbounds nuw i32, ptr %11, i64 %94
  %98 = getelementptr inbounds nuw i8, ptr %97, i64 16
  store <4 x i32> %95, ptr %97, align 16, !tbaa !5
  store <4 x i32> %96, ptr %98, align 16, !tbaa !5
  %99 = icmp eq i64 %94, 992
  br i1 %99, label %118, label %100, !llvm.loop !210

100:                                              ; preds = %93
  %101 = add <4 x i32> %95, splat (i32 8)
  %102 = add <4 x i32> %95, splat (i32 12)
  %103 = getelementptr inbounds nuw i32, ptr %11, i64 %94
  %104 = getelementptr inbounds nuw i8, ptr %103, i64 32
  %105 = getelementptr inbounds nuw i8, ptr %103, i64 48
  store <4 x i32> %101, ptr %104, align 16, !tbaa !5
  store <4 x i32> %102, ptr %105, align 16, !tbaa !5
  %106 = add <4 x i32> %95, splat (i32 16)
  %107 = add <4 x i32> %95, splat (i32 20)
  %108 = getelementptr inbounds nuw i32, ptr %11, i64 %94
  %109 = getelementptr inbounds nuw i8, ptr %108, i64 64
  %110 = getelementptr inbounds nuw i8, ptr %108, i64 80
  store <4 x i32> %106, ptr %109, align 16, !tbaa !5
  store <4 x i32> %107, ptr %110, align 16, !tbaa !5
  %111 = add <4 x i32> %95, splat (i32 24)
  %112 = add <4 x i32> %95, splat (i32 28)
  %113 = getelementptr inbounds nuw i32, ptr %11, i64 %94
  %114 = getelementptr inbounds nuw i8, ptr %113, i64 96
  %115 = getelementptr inbounds nuw i8, ptr %113, i64 112
  store <4 x i32> %111, ptr %114, align 16, !tbaa !5
  store <4 x i32> %112, ptr %115, align 16, !tbaa !5
  %116 = add nuw nsw i64 %94, 32
  %117 = add <4 x i32> %95, splat (i32 32)
  br label %93

118:                                              ; preds = %93
  call void @llvm.lifetime.start.p0(ptr nonnull %12) #5
  call void @llvm.memset.p0.i64(ptr noundef nonnull align 16 dereferenceable(4000) %12, i8 0, i64 4000, i1 false)
  br label %119

119:                                              ; preds = %139, %118
  %120 = phi i64 [ 0, %118 ], [ %140, %139 ]
  %121 = phi i64 [ 0, %118 ], [ %141, %139 ]
  %122 = getelementptr inbounds nuw i8, ptr %11, i64 %121
  %123 = load i32, ptr %122, align 8, !tbaa !5, !noalias !211
  %124 = srem i32 %123, 3
  %125 = icmp eq i32 %124, 0
  br i1 %125, label %126, label %129

126:                                              ; preds = %119
  %127 = getelementptr inbounds nuw i8, ptr %12, i64 %120
  store i32 %123, ptr %127, align 4, !tbaa !5, !noalias !211
  %128 = add nuw nsw i64 %120, 4
  br label %129

129:                                              ; preds = %126, %119
  %130 = phi i64 [ %128, %126 ], [ %120, %119 ]
  %131 = getelementptr inbounds nuw i8, ptr %11, i64 %121
  %132 = getelementptr inbounds nuw i8, ptr %131, i64 4
  %133 = load i32, ptr %132, align 4, !tbaa !5, !noalias !211
  %134 = srem i32 %133, 3
  %135 = icmp eq i32 %134, 0
  br i1 %135, label %136, label %139

136:                                              ; preds = %129
  %137 = getelementptr inbounds nuw i8, ptr %12, i64 %130
  store i32 %133, ptr %137, align 4, !tbaa !5, !noalias !211
  %138 = add nuw nsw i64 %130, 4
  br label %139

139:                                              ; preds = %136, %129
  %140 = phi i64 [ %138, %136 ], [ %130, %129 ]
  %141 = add nuw nsw i64 %121, 8
  %142 = icmp eq i64 %141, 4000
  br i1 %142, label %143, label %119, !llvm.loop !214

143:                                              ; preds = %139
  %144 = icmp eq i64 %140, 1336
  br i1 %144, label %145, label %158

145:                                              ; preds = %143, %145
  %146 = phi i64 [ %152, %145 ], [ 0, %143 ]
  %147 = getelementptr inbounds nuw i32, ptr %12, i64 %146
  %148 = load <4 x i32>, ptr %147, align 16, !tbaa !5
  %149 = freeze <4 x i32> %148
  %150 = srem <4 x i32> %149, splat (i32 3)
  %151 = icmp ne <4 x i32> %150, zeroinitializer
  %152 = add nuw i64 %146, 4
  %153 = bitcast <4 x i1> %151 to i4
  %154 = icmp ne i4 %153, 0
  %155 = icmp eq i64 %152, 332
  %156 = or i1 %154, %155
  br i1 %156, label %157, label %145, !llvm.loop !215

157:                                              ; preds = %145
  br i1 %154, label %170, label %165

158:                                              ; preds = %143
  tail call void @__assert_fail(ptr noundef nonnull @.str, ptr noundef nonnull @.str.1, i32 noundef 39, ptr noundef nonnull @__PRETTY_FUNCTION__._ZN12TestOutItersI20cpp17_input_iteratorIPKiS2_EEclI19contiguous_iteratorIPiEEEvv) #6
  unreachable

159:                                              ; preds = %165
  %160 = getelementptr inbounds nuw i8, ptr %12, i64 1332
  %161 = load i32, ptr %160, align 4, !tbaa !5
  %162 = srem i32 %161, 3
  %163 = icmp eq i32 %162, 0
  br i1 %163, label %164, label %170

164:                                              ; preds = %159
  call void @llvm.lifetime.end.p0(ptr nonnull %12) #5
  call void @llvm.lifetime.end.p0(ptr nonnull %11) #5
  call void @llvm.lifetime.start.p0(ptr nonnull %9) #5
  call void @llvm.memset.p0.i64(ptr noundef nonnull align 16 dereferenceable(4000) %9, i8 0, i64 4000, i1 false)
  br label %171

165:                                              ; preds = %157
  %166 = getelementptr inbounds nuw i8, ptr %12, i64 1328
  %167 = load i32, ptr %166, align 16, !tbaa !5
  %168 = srem i32 %167, 3
  %169 = icmp eq i32 %168, 0
  br i1 %169, label %159, label %170

170:                                              ; preds = %165, %159, %157
  tail call void @__assert_fail(ptr noundef nonnull @.str.2, ptr noundef nonnull @.str.1, i32 noundef 41, ptr noundef nonnull @__PRETTY_FUNCTION__._ZN12TestOutItersI20cpp17_input_iteratorIPKiS2_EEclI19contiguous_iteratorIPiEEEvv) #6
  unreachable

171:                                              ; preds = %178, %164
  %172 = phi i64 [ 0, %164 ], [ %194, %178 ]
  %173 = phi <4 x i32> [ <i32 0, i32 1, i32 2, i32 3>, %164 ], [ %195, %178 ]
  %174 = add <4 x i32> %173, splat (i32 4)
  %175 = getelementptr inbounds nuw i32, ptr %9, i64 %172
  %176 = getelementptr inbounds nuw i8, ptr %175, i64 16
  store <4 x i32> %173, ptr %175, align 16, !tbaa !5
  store <4 x i32> %174, ptr %176, align 16, !tbaa !5
  %177 = icmp eq i64 %172, 992
  br i1 %177, label %196, label %178, !llvm.loop !216

178:                                              ; preds = %171
  %179 = add <4 x i32> %173, splat (i32 8)
  %180 = add <4 x i32> %173, splat (i32 12)
  %181 = getelementptr inbounds nuw i32, ptr %9, i64 %172
  %182 = getelementptr inbounds nuw i8, ptr %181, i64 32
  %183 = getelementptr inbounds nuw i8, ptr %181, i64 48
  store <4 x i32> %179, ptr %182, align 16, !tbaa !5
  store <4 x i32> %180, ptr %183, align 16, !tbaa !5
  %184 = add <4 x i32> %173, splat (i32 16)
  %185 = add <4 x i32> %173, splat (i32 20)
  %186 = getelementptr inbounds nuw i32, ptr %9, i64 %172
  %187 = getelementptr inbounds nuw i8, ptr %186, i64 64
  %188 = getelementptr inbounds nuw i8, ptr %186, i64 80
  store <4 x i32> %184, ptr %187, align 16, !tbaa !5
  store <4 x i32> %185, ptr %188, align 16, !tbaa !5
  %189 = add <4 x i32> %173, splat (i32 24)
  %190 = add <4 x i32> %173, splat (i32 28)
  %191 = getelementptr inbounds nuw i32, ptr %9, i64 %172
  %192 = getelementptr inbounds nuw i8, ptr %191, i64 96
  %193 = getelementptr inbounds nuw i8, ptr %191, i64 112
  store <4 x i32> %189, ptr %192, align 16, !tbaa !5
  store <4 x i32> %190, ptr %193, align 16, !tbaa !5
  %194 = add nuw nsw i64 %172, 32
  %195 = add <4 x i32> %173, splat (i32 32)
  br label %171

196:                                              ; preds = %171
  call void @llvm.lifetime.start.p0(ptr nonnull %10) #5
  call void @llvm.memset.p0.i64(ptr noundef nonnull align 16 dereferenceable(4000) %10, i8 0, i64 4000, i1 false)
  br label %197

197:                                              ; preds = %217, %196
  %198 = phi i64 [ 0, %196 ], [ %218, %217 ]
  %199 = phi i64 [ 0, %196 ], [ %219, %217 ]
  %200 = getelementptr inbounds nuw i8, ptr %9, i64 %199
  %201 = load i32, ptr %200, align 8, !tbaa !5, !noalias !217
  %202 = srem i32 %201, 3
  %203 = icmp eq i32 %202, 0
  br i1 %203, label %204, label %207

204:                                              ; preds = %197
  %205 = getelementptr inbounds nuw i8, ptr %10, i64 %198
  store i32 %201, ptr %205, align 4, !tbaa !5, !noalias !217
  %206 = add nuw nsw i64 %198, 4
  br label %207

207:                                              ; preds = %204, %197
  %208 = phi i64 [ %206, %204 ], [ %198, %197 ]
  %209 = getelementptr inbounds nuw i8, ptr %9, i64 %199
  %210 = getelementptr inbounds nuw i8, ptr %209, i64 4
  %211 = load i32, ptr %210, align 4, !tbaa !5, !noalias !217
  %212 = srem i32 %211, 3
  %213 = icmp eq i32 %212, 0
  br i1 %213, label %214, label %217

214:                                              ; preds = %207
  %215 = getelementptr inbounds nuw i8, ptr %10, i64 %208
  store i32 %211, ptr %215, align 4, !tbaa !5, !noalias !217
  %216 = add nuw nsw i64 %208, 4
  br label %217

217:                                              ; preds = %214, %207
  %218 = phi i64 [ %216, %214 ], [ %208, %207 ]
  %219 = add nuw nsw i64 %199, 8
  %220 = icmp eq i64 %219, 4000
  br i1 %220, label %221, label %197, !llvm.loop !220

221:                                              ; preds = %217
  %222 = icmp eq i64 %218, 1336
  br i1 %222, label %223, label %236

223:                                              ; preds = %221, %223
  %224 = phi i64 [ %230, %223 ], [ 0, %221 ]
  %225 = getelementptr inbounds nuw i32, ptr %10, i64 %224
  %226 = load <4 x i32>, ptr %225, align 16, !tbaa !5
  %227 = freeze <4 x i32> %226
  %228 = srem <4 x i32> %227, splat (i32 3)
  %229 = icmp ne <4 x i32> %228, zeroinitializer
  %230 = add nuw i64 %224, 4
  %231 = bitcast <4 x i1> %229 to i4
  %232 = icmp ne i4 %231, 0
  %233 = icmp eq i64 %230, 332
  %234 = or i1 %232, %233
  br i1 %234, label %235, label %223, !llvm.loop !221

235:                                              ; preds = %223
  br i1 %232, label %248, label %243

236:                                              ; preds = %221
  tail call void @__assert_fail(ptr noundef nonnull @.str, ptr noundef nonnull @.str.1, i32 noundef 39, ptr noundef nonnull @__PRETTY_FUNCTION__._ZN12TestOutItersI20cpp17_input_iteratorIPKiS2_EEclI22random_access_iteratorIPiEEEvv) #6
  unreachable

237:                                              ; preds = %243
  %238 = getelementptr inbounds nuw i8, ptr %10, i64 1332
  %239 = load i32, ptr %238, align 4, !tbaa !5
  %240 = srem i32 %239, 3
  %241 = icmp eq i32 %240, 0
  br i1 %241, label %242, label %248

242:                                              ; preds = %237
  call void @llvm.lifetime.end.p0(ptr nonnull %10) #5
  call void @llvm.lifetime.end.p0(ptr nonnull %9) #5
  call void @llvm.lifetime.start.p0(ptr nonnull %7) #5
  call void @llvm.memset.p0.i64(ptr noundef nonnull align 16 dereferenceable(4000) %7, i8 0, i64 4000, i1 false)
  br label %249

243:                                              ; preds = %235
  %244 = getelementptr inbounds nuw i8, ptr %10, i64 1328
  %245 = load i32, ptr %244, align 16, !tbaa !5
  %246 = srem i32 %245, 3
  %247 = icmp eq i32 %246, 0
  br i1 %247, label %237, label %248

248:                                              ; preds = %243, %237, %235
  tail call void @__assert_fail(ptr noundef nonnull @.str.2, ptr noundef nonnull @.str.1, i32 noundef 41, ptr noundef nonnull @__PRETTY_FUNCTION__._ZN12TestOutItersI20cpp17_input_iteratorIPKiS2_EEclI22random_access_iteratorIPiEEEvv) #6
  unreachable

249:                                              ; preds = %256, %242
  %250 = phi i64 [ 0, %242 ], [ %272, %256 ]
  %251 = phi <4 x i32> [ <i32 0, i32 1, i32 2, i32 3>, %242 ], [ %273, %256 ]
  %252 = add <4 x i32> %251, splat (i32 4)
  %253 = getelementptr inbounds nuw i32, ptr %7, i64 %250
  %254 = getelementptr inbounds nuw i8, ptr %253, i64 16
  store <4 x i32> %251, ptr %253, align 16, !tbaa !5
  store <4 x i32> %252, ptr %254, align 16, !tbaa !5
  %255 = icmp eq i64 %250, 992
  br i1 %255, label %274, label %256, !llvm.loop !222

256:                                              ; preds = %249
  %257 = add <4 x i32> %251, splat (i32 8)
  %258 = add <4 x i32> %251, splat (i32 12)
  %259 = getelementptr inbounds nuw i32, ptr %7, i64 %250
  %260 = getelementptr inbounds nuw i8, ptr %259, i64 32
  %261 = getelementptr inbounds nuw i8, ptr %259, i64 48
  store <4 x i32> %257, ptr %260, align 16, !tbaa !5
  store <4 x i32> %258, ptr %261, align 16, !tbaa !5
  %262 = add <4 x i32> %251, splat (i32 16)
  %263 = add <4 x i32> %251, splat (i32 20)
  %264 = getelementptr inbounds nuw i32, ptr %7, i64 %250
  %265 = getelementptr inbounds nuw i8, ptr %264, i64 64
  %266 = getelementptr inbounds nuw i8, ptr %264, i64 80
  store <4 x i32> %262, ptr %265, align 16, !tbaa !5
  store <4 x i32> %263, ptr %266, align 16, !tbaa !5
  %267 = add <4 x i32> %251, splat (i32 24)
  %268 = add <4 x i32> %251, splat (i32 28)
  %269 = getelementptr inbounds nuw i32, ptr %7, i64 %250
  %270 = getelementptr inbounds nuw i8, ptr %269, i64 96
  %271 = getelementptr inbounds nuw i8, ptr %269, i64 112
  store <4 x i32> %267, ptr %270, align 16, !tbaa !5
  store <4 x i32> %268, ptr %271, align 16, !tbaa !5
  %272 = add nuw nsw i64 %250, 32
  %273 = add <4 x i32> %251, splat (i32 32)
  br label %249

274:                                              ; preds = %249
  call void @llvm.lifetime.start.p0(ptr nonnull %8) #5
  call void @llvm.memset.p0.i64(ptr noundef nonnull align 16 dereferenceable(4000) %8, i8 0, i64 4000, i1 false)
  br label %275

275:                                              ; preds = %295, %274
  %276 = phi i64 [ 0, %274 ], [ %296, %295 ]
  %277 = phi i64 [ 0, %274 ], [ %297, %295 ]
  %278 = getelementptr inbounds nuw i8, ptr %7, i64 %277
  %279 = load i32, ptr %278, align 8, !tbaa !5, !noalias !223
  %280 = srem i32 %279, 3
  %281 = icmp eq i32 %280, 0
  br i1 %281, label %282, label %285

282:                                              ; preds = %275
  %283 = getelementptr inbounds nuw i8, ptr %8, i64 %276
  store i32 %279, ptr %283, align 4, !tbaa !5, !noalias !223
  %284 = add nuw nsw i64 %276, 4
  br label %285

285:                                              ; preds = %282, %275
  %286 = phi i64 [ %284, %282 ], [ %276, %275 ]
  %287 = getelementptr inbounds nuw i8, ptr %7, i64 %277
  %288 = getelementptr inbounds nuw i8, ptr %287, i64 4
  %289 = load i32, ptr %288, align 4, !tbaa !5, !noalias !223
  %290 = srem i32 %289, 3
  %291 = icmp eq i32 %290, 0
  br i1 %291, label %292, label %295

292:                                              ; preds = %285
  %293 = getelementptr inbounds nuw i8, ptr %8, i64 %286
  store i32 %289, ptr %293, align 4, !tbaa !5, !noalias !223
  %294 = add nuw nsw i64 %286, 4
  br label %295

295:                                              ; preds = %292, %285
  %296 = phi i64 [ %294, %292 ], [ %286, %285 ]
  %297 = add nuw nsw i64 %277, 8
  %298 = icmp eq i64 %297, 4000
  br i1 %298, label %299, label %275, !llvm.loop !226

299:                                              ; preds = %295
  %300 = icmp eq i64 %296, 1336
  br i1 %300, label %301, label %314

301:                                              ; preds = %299, %301
  %302 = phi i64 [ %308, %301 ], [ 0, %299 ]
  %303 = getelementptr inbounds nuw i32, ptr %8, i64 %302
  %304 = load <4 x i32>, ptr %303, align 16, !tbaa !5
  %305 = freeze <4 x i32> %304
  %306 = srem <4 x i32> %305, splat (i32 3)
  %307 = icmp ne <4 x i32> %306, zeroinitializer
  %308 = add nuw i64 %302, 4
  %309 = bitcast <4 x i1> %307 to i4
  %310 = icmp ne i4 %309, 0
  %311 = icmp eq i64 %308, 332
  %312 = or i1 %310, %311
  br i1 %312, label %313, label %301, !llvm.loop !227

313:                                              ; preds = %301
  br i1 %310, label %326, label %321

314:                                              ; preds = %299
  tail call void @__assert_fail(ptr noundef nonnull @.str, ptr noundef nonnull @.str.1, i32 noundef 39, ptr noundef nonnull @__PRETTY_FUNCTION__._ZN12TestOutItersI20cpp17_input_iteratorIPKiS2_EEclI22bidirectional_iteratorIPiEEEvv) #6
  unreachable

315:                                              ; preds = %321
  %316 = getelementptr inbounds nuw i8, ptr %8, i64 1332
  %317 = load i32, ptr %316, align 4, !tbaa !5
  %318 = srem i32 %317, 3
  %319 = icmp eq i32 %318, 0
  br i1 %319, label %320, label %326

320:                                              ; preds = %315
  call void @llvm.lifetime.end.p0(ptr nonnull %8) #5
  call void @llvm.lifetime.end.p0(ptr nonnull %7) #5
  call void @llvm.lifetime.start.p0(ptr nonnull %5) #5
  call void @llvm.memset.p0.i64(ptr noundef nonnull align 16 dereferenceable(4000) %5, i8 0, i64 4000, i1 false)
  br label %327

321:                                              ; preds = %313
  %322 = getelementptr inbounds nuw i8, ptr %8, i64 1328
  %323 = load i32, ptr %322, align 16, !tbaa !5
  %324 = srem i32 %323, 3
  %325 = icmp eq i32 %324, 0
  br i1 %325, label %315, label %326

326:                                              ; preds = %321, %315, %313
  tail call void @__assert_fail(ptr noundef nonnull @.str.2, ptr noundef nonnull @.str.1, i32 noundef 41, ptr noundef nonnull @__PRETTY_FUNCTION__._ZN12TestOutItersI20cpp17_input_iteratorIPKiS2_EEclI22bidirectional_iteratorIPiEEEvv) #6
  unreachable

327:                                              ; preds = %334, %320
  %328 = phi i64 [ 0, %320 ], [ %350, %334 ]
  %329 = phi <4 x i32> [ <i32 0, i32 1, i32 2, i32 3>, %320 ], [ %351, %334 ]
  %330 = add <4 x i32> %329, splat (i32 4)
  %331 = getelementptr inbounds nuw i32, ptr %5, i64 %328
  %332 = getelementptr inbounds nuw i8, ptr %331, i64 16
  store <4 x i32> %329, ptr %331, align 16, !tbaa !5
  store <4 x i32> %330, ptr %332, align 16, !tbaa !5
  %333 = icmp eq i64 %328, 992
  br i1 %333, label %352, label %334, !llvm.loop !228

334:                                              ; preds = %327
  %335 = add <4 x i32> %329, splat (i32 8)
  %336 = add <4 x i32> %329, splat (i32 12)
  %337 = getelementptr inbounds nuw i32, ptr %5, i64 %328
  %338 = getelementptr inbounds nuw i8, ptr %337, i64 32
  %339 = getelementptr inbounds nuw i8, ptr %337, i64 48
  store <4 x i32> %335, ptr %338, align 16, !tbaa !5
  store <4 x i32> %336, ptr %339, align 16, !tbaa !5
  %340 = add <4 x i32> %329, splat (i32 16)
  %341 = add <4 x i32> %329, splat (i32 20)
  %342 = getelementptr inbounds nuw i32, ptr %5, i64 %328
  %343 = getelementptr inbounds nuw i8, ptr %342, i64 64
  %344 = getelementptr inbounds nuw i8, ptr %342, i64 80
  store <4 x i32> %340, ptr %343, align 16, !tbaa !5
  store <4 x i32> %341, ptr %344, align 16, !tbaa !5
  %345 = add <4 x i32> %329, splat (i32 24)
  %346 = add <4 x i32> %329, splat (i32 28)
  %347 = getelementptr inbounds nuw i32, ptr %5, i64 %328
  %348 = getelementptr inbounds nuw i8, ptr %347, i64 96
  %349 = getelementptr inbounds nuw i8, ptr %347, i64 112
  store <4 x i32> %345, ptr %348, align 16, !tbaa !5
  store <4 x i32> %346, ptr %349, align 16, !tbaa !5
  %350 = add nuw nsw i64 %328, 32
  %351 = add <4 x i32> %329, splat (i32 32)
  br label %327

352:                                              ; preds = %327
  call void @llvm.lifetime.start.p0(ptr nonnull %6) #5
  call void @llvm.memset.p0.i64(ptr noundef nonnull align 16 dereferenceable(4000) %6, i8 0, i64 4000, i1 false)
  br label %353

353:                                              ; preds = %373, %352
  %354 = phi i64 [ 0, %352 ], [ %374, %373 ]
  %355 = phi i64 [ 0, %352 ], [ %375, %373 ]
  %356 = getelementptr inbounds nuw i8, ptr %5, i64 %355
  %357 = load i32, ptr %356, align 8, !tbaa !5, !noalias !229
  %358 = srem i32 %357, 3
  %359 = icmp eq i32 %358, 0
  br i1 %359, label %360, label %363

360:                                              ; preds = %353
  %361 = getelementptr inbounds nuw i8, ptr %6, i64 %354
  store i32 %357, ptr %361, align 4, !tbaa !5, !noalias !229
  %362 = add nuw nsw i64 %354, 4
  br label %363

363:                                              ; preds = %360, %353
  %364 = phi i64 [ %362, %360 ], [ %354, %353 ]
