; ModuleID = '/root/project/RuyiTuner/third_party/train/llvm-project/libcxx/test/std/algorithms/alg.modifying.operations/alg.partitions/ranges_stable_partition.pass.cpp'
source_filename = "/root/project/RuyiTuner/third_party/train/llvm-project/libcxx/test/std/algorithms/alg.modifying.operations/alg.partitions/ranges_stable_partition.pass.cpp"
target datalayout = "e-m:e-p270:32:32-p271:32:32-p272:64:64-i64:64-i128:128-f80:128-n8:16:32:64-S128"
target triple = "x86_64-unknown-linux-gnu"

%"struct.std::array" = type { [20 x %struct.OrderedValue] }
%struct.OrderedValue = type { i32, double }
%"struct.std::ranges::__stable_partition_fn" = type { i8 }
%"struct.std::nothrow_t" = type { i8 }
%"struct.std::array.0" = type { [2 x i32] }
%"struct.std::array.12" = type { [8 x i32] }
%"struct.std::array.13" = type { [6 x i32] }
%"struct.std::array.16" = type { [5 x i32] }
%class.bidirectional_iterator = type <{ ptr, %"struct.support::double_move_tracker", [7 x i8] }>
%"struct.support::double_move_tracker" = type { i8 }
%"class.std::ranges::subrange.18" = type { %class.bidirectional_iterator, %class.bidirectional_iterator.base, [7 x i8] }
%class.bidirectional_iterator.base = type <{ ptr, %"struct.support::double_move_tracker" }>
%"struct.std::array.10" = type { [1 x i32] }
%"struct.std::array.11" = type { [3 x i32] }
%class.anon.7 = type { i8 }
%"struct.std::identity" = type { i8 }
%class.anon.14 = type { i8 }
%class.anon.30 = type { i8 }
%class.anon.32 = type { i8 }
%class.random_access_iterator = type <{ ptr, %"struct.support::double_move_tracker", [7 x i8] }>
%"class.std::ranges::subrange.54" = type { %class.random_access_iterator, %class.random_access_iterator.base, [7 x i8] }
%class.random_access_iterator.base = type <{ ptr, %"struct.support::double_move_tracker" }>
%class.anon.49 = type { i8 }
%class.anon.51 = type { i8 }
%class.anon.70 = type { i8 }
%class.anon.72 = type { i8 }
%class.contiguous_iterator = type <{ ptr, %"struct.support::double_move_tracker", [7 x i8] }>
%"class.std::ranges::subrange.95" = type { %class.contiguous_iterator, %class.contiguous_iterator.base, [7 x i8] }
%class.contiguous_iterator.base = type <{ ptr, %"struct.support::double_move_tracker" }>
%class.anon.90 = type { i8 }
%class.anon.92 = type { i8 }
%class.anon.111 = type { i8 }
%class.anon.113 = type { i8 }
%class.anon.131 = type { i8 }
%class.anon.133 = type { i8 }
%class.anon.149 = type { i8 }
%class.anon.151 = type { i8 }

$_Z16test_iterators_2I22bidirectional_iteratorIPiES2_Evv = comdat any

$_Z16test_iterators_2I22bidirectional_iteratorIPiE16sentinel_wrapperIS2_EEvv = comdat any

$_Z8test_oneI22bidirectional_iteratorIPiES2_Lm0EZ16test_iterators_2IS2_S2_EvvEUliE_EvSt5arrayIiXT1_EET2_mS6_ = comdat any

$_Z8test_oneI22bidirectional_iteratorIPiES2_Lm1EZ16test_iterators_2IS2_S2_EvvEUliE_EvSt5arrayIiXT1_EET2_mS6_ = comdat any

$_Z8test_oneI22bidirectional_iteratorIPiES2_Lm2EZ16test_iterators_2IS2_S2_EvvEUliE_EvSt5arrayIiXT1_EET2_mS6_ = comdat any

$_Z8test_oneI22bidirectional_iteratorIPiES2_Lm3EZ16test_iterators_2IS2_S2_EvvEUliE_EvSt5arrayIiXT1_EET2_mS6_ = comdat any

$_Z8test_oneI22bidirectional_iteratorIPiES2_Lm8EZ16test_iterators_2IS2_S2_EvvEUliE_EvSt5arrayIiXT1_EET2_mS6_ = comdat any

$_Z8test_oneI22bidirectional_iteratorIPiES2_Lm6EZ16test_iterators_2IS2_S2_EvvEUliE_EvSt5arrayIiXT1_EET2_mS6_ = comdat any

$_Z8test_oneI22bidirectional_iteratorIPiES2_Lm5EZ16test_iterators_2IS2_S2_EvvEUliE0_EvSt5arrayIiXT1_EET2_mS6_ = comdat any

$_ZNKSt6ranges21__stable_partition_fnclITkSt22bidirectional_iterator22bidirectional_iteratorIPiETkSt12sentinel_forIT_ES4_St8identityTkSt24indirect_unary_predicateINSt8__detail11__projectedIS6_T1_E6__typeEEZ16test_iterators_2IS4_S4_EvvEUliE_Q10permutableIS6_EEENS_8subrangeIS6_S6_Xqu18sized_sentinel_forIS6_S6_ELNS_13subrange_kindE1ELSH_0EEEES6_T0_T2_SB_ = comdat any

$_ZSt18__stable_partitionI22bidirectional_iteratorIPiEN9__gnu_cxx5__ops10_Iter_predIZNSt6ranges8__detail16__make_pred_projIZ16test_iterators_2IS2_S2_EvvEUliE_St8identityEEDaRT_RT0_EUlTyOSC_E_EEESC_SC_SC_SE_ = comdat any

$_ZSt27__stable_partition_adaptiveI22bidirectional_iteratorIPiES1_N9__gnu_cxx5__ops10_Iter_predIZNSt6ranges8__detail16__make_pred_projIZ16test_iterators_2IS2_S2_EvvEUliE_St8identityEEDaRT_RT0_EUlTyOSC_E_EElESC_SC_SC_T1_T2_SE_SK_ = comdat any

$_ZNSt3_V28__rotateI22bidirectional_iteratorIPiEEET_S4_S4_S4_St26bidirectional_iterator_tag = comdat any

$_ZNKSt6ranges21__stable_partition_fnclITkSt22bidirectional_iterator22bidirectional_iteratorIPiETkSt12sentinel_forIT_ES4_St8identityTkSt24indirect_unary_predicateINSt8__detail11__projectedIS6_T1_E6__typeEEZ16test_iterators_2IS4_S4_EvvEUliE0_Q10permutableIS6_EEENS_8subrangeIS6_S6_Xqu18sized_sentinel_forIS6_S6_ELNS_13subrange_kindE1ELSH_0EEEES6_T0_T2_SB_ = comdat any

$_ZSt18__stable_partitionI22bidirectional_iteratorIPiEN9__gnu_cxx5__ops10_Iter_predIZNSt6ranges8__detail16__make_pred_projIZ16test_iterators_2IS2_S2_EvvEUliE0_St8identityEEDaRT_RT0_EUlTyOSC_E_EEESC_SC_SC_SE_ = comdat any

$_ZSt27__stable_partition_adaptiveI22bidirectional_iteratorIPiES1_N9__gnu_cxx5__ops10_Iter_predIZNSt6ranges8__detail16__make_pred_projIZ16test_iterators_2IS2_S2_EvvEUliE0_St8identityEEDaRT_RT0_EUlTyOSC_E_EElESC_SC_SC_T1_T2_SE_SK_ = comdat any

$_Z8test_oneI22bidirectional_iteratorIPiE16sentinel_wrapperIS2_ELm0EZ16test_iterators_2IS2_S4_EvvEUliE_EvSt5arrayIiXT1_EET2_mS8_ = comdat any

$_Z8test_oneI22bidirectional_iteratorIPiE16sentinel_wrapperIS2_ELm1EZ16test_iterators_2IS2_S4_EvvEUliE_EvSt5arrayIiXT1_EET2_mS8_ = comdat any

$_Z8test_oneI22bidirectional_iteratorIPiE16sentinel_wrapperIS2_ELm2EZ16test_iterators_2IS2_S4_EvvEUliE_EvSt5arrayIiXT1_EET2_mS8_ = comdat any

$_Z8test_oneI22bidirectional_iteratorIPiE16sentinel_wrapperIS2_ELm3EZ16test_iterators_2IS2_S4_EvvEUliE_EvSt5arrayIiXT1_EET2_mS8_ = comdat any

$_Z8test_oneI22bidirectional_iteratorIPiE16sentinel_wrapperIS2_ELm8EZ16test_iterators_2IS2_S4_EvvEUliE_EvSt5arrayIiXT1_EET2_mS8_ = comdat any

$_Z8test_oneI22bidirectional_iteratorIPiE16sentinel_wrapperIS2_ELm6EZ16test_iterators_2IS2_S4_EvvEUliE_EvSt5arrayIiXT1_EET2_mS8_ = comdat any

$_Z8test_oneI22bidirectional_iteratorIPiE16sentinel_wrapperIS2_ELm5EZ16test_iterators_2IS2_S4_EvvEUliE0_EvSt5arrayIiXT1_EET2_mS8_ = comdat any

$_ZSt18__stable_partitionI22bidirectional_iteratorIPiEN9__gnu_cxx5__ops10_Iter_predIZNSt6ranges8__detail16__make_pred_projIZ16test_iterators_2IS2_16sentinel_wrapperIS2_EEvvEUliE_St8identityEEDaRT_RT0_EUlTyOSE_E_EEESE_SE_SE_SG_ = comdat any

$_ZSt27__stable_partition_adaptiveI22bidirectional_iteratorIPiES1_N9__gnu_cxx5__ops10_Iter_predIZNSt6ranges8__detail16__make_pred_projIZ16test_iterators_2IS2_16sentinel_wrapperIS2_EEvvEUliE_St8identityEEDaRT_RT0_EUlTyOSE_E_EElESE_SE_SE_T1_T2_SG_SM_ = comdat any

$_ZSt18__stable_partitionI22bidirectional_iteratorIPiEN9__gnu_cxx5__ops10_Iter_predIZNSt6ranges8__detail16__make_pred_projIZ16test_iterators_2IS2_16sentinel_wrapperIS2_EEvvEUliE0_St8identityEEDaRT_RT0_EUlTyOSE_E_EEESE_SE_SE_SG_ = comdat any

$_ZSt27__stable_partition_adaptiveI22bidirectional_iteratorIPiES1_N9__gnu_cxx5__ops10_Iter_predIZNSt6ranges8__detail16__make_pred_projIZ16test_iterators_2IS2_16sentinel_wrapperIS2_EEvvEUliE0_St8identityEEDaRT_RT0_EUlTyOSE_E_EElESE_SE_SE_T1_T2_SG_SM_ = comdat any

$_Z16test_iterators_2I22random_access_iteratorIPiES2_Evv = comdat any

$_Z16test_iterators_2I22random_access_iteratorIPiE16sentinel_wrapperIS2_EEvv = comdat any

$_Z8test_oneI22random_access_iteratorIPiES2_Lm0EZ16test_iterators_2IS2_S2_EvvEUliE_EvSt5arrayIiXT1_EET2_mS6_ = comdat any

$_Z8test_oneI22random_access_iteratorIPiES2_Lm1EZ16test_iterators_2IS2_S2_EvvEUliE_EvSt5arrayIiXT1_EET2_mS6_ = comdat any

$_Z8test_oneI22random_access_iteratorIPiES2_Lm2EZ16test_iterators_2IS2_S2_EvvEUliE_EvSt5arrayIiXT1_EET2_mS6_ = comdat any

$_Z8test_oneI22random_access_iteratorIPiES2_Lm3EZ16test_iterators_2IS2_S2_EvvEUliE_EvSt5arrayIiXT1_EET2_mS6_ = comdat any

$_Z8test_oneI22random_access_iteratorIPiES2_Lm8EZ16test_iterators_2IS2_S2_EvvEUliE_EvSt5arrayIiXT1_EET2_mS6_ = comdat any

$_Z8test_oneI22random_access_iteratorIPiES2_Lm6EZ16test_iterators_2IS2_S2_EvvEUliE_EvSt5arrayIiXT1_EET2_mS6_ = comdat any

$_Z8test_oneI22random_access_iteratorIPiES2_Lm5EZ16test_iterators_2IS2_S2_EvvEUliE0_EvSt5arrayIiXT1_EET2_mS6_ = comdat any

$_ZNKSt6ranges21__stable_partition_fnclITkSt22bidirectional_iterator22random_access_iteratorIPiETkSt12sentinel_forIT_ES4_St8identityTkSt24indirect_unary_predicateINSt8__detail11__projectedIS6_T1_E6__typeEEZ16test_iterators_2IS4_S4_EvvEUliE_Q10permutableIS6_EEENS_8subrangeIS6_S6_Xqu18sized_sentinel_forIS6_S6_ELNS_13subrange_kindE1ELSH_0EEEES6_T0_T2_SB_ = comdat any

$_ZSt18__stable_partitionI22random_access_iteratorIPiEN9__gnu_cxx5__ops10_Iter_predIZNSt6ranges8__detail16__make_pred_projIZ16test_iterators_2IS2_S2_EvvEUliE_St8identityEEDaRT_RT0_EUlTyOSC_E_EEESC_SC_SC_SE_ = comdat any

$_ZSt27__stable_partition_adaptiveI22random_access_iteratorIPiES1_N9__gnu_cxx5__ops10_Iter_predIZNSt6ranges8__detail16__make_pred_projIZ16test_iterators_2IS2_S2_EvvEUliE_St8identityEEDaRT_RT0_EUlTyOSC_E_EElESC_SC_SC_T1_T2_SE_SK_ = comdat any

$_ZSt9__find_ifI22random_access_iteratorIPiEN9__gnu_cxx5__ops12_Iter_negateIZNSt6ranges8__detail16__make_pred_projIZ16test_iterators_2IS2_S2_EvvEUliE_St8identityEEDaRT_RT0_EUlTyOSC_E_EEESC_SC_SC_SE_St26random_access_iterator_tag = comdat any

$_ZNSt3_V28__rotateI22random_access_iteratorIPiEEET_S4_S4_S4_St26random_access_iterator_tag = comdat any

$_ZNKSt6ranges21__stable_partition_fnclITkSt22bidirectional_iterator22random_access_iteratorIPiETkSt12sentinel_forIT_ES4_St8identityTkSt24indirect_unary_predicateINSt8__detail11__projectedIS6_T1_E6__typeEEZ16test_iterators_2IS4_S4_EvvEUliE0_Q10permutableIS6_EEENS_8subrangeIS6_S6_Xqu18sized_sentinel_forIS6_S6_ELNS_13subrange_kindE1ELSH_0EEEES6_T0_T2_SB_ = comdat any

$_ZSt18__stable_partitionI22random_access_iteratorIPiEN9__gnu_cxx5__ops10_Iter_predIZNSt6ranges8__detail16__make_pred_projIZ16test_iterators_2IS2_S2_EvvEUliE0_St8identityEEDaRT_RT0_EUlTyOSC_E_EEESC_SC_SC_SE_ = comdat any

$_ZSt27__stable_partition_adaptiveI22random_access_iteratorIPiES1_N9__gnu_cxx5__ops10_Iter_predIZNSt6ranges8__detail16__make_pred_projIZ16test_iterators_2IS2_S2_EvvEUliE0_St8identityEEDaRT_RT0_EUlTyOSC_E_EElESC_SC_SC_T1_T2_SE_SK_ = comdat any

$_ZSt9__find_ifI22random_access_iteratorIPiEN9__gnu_cxx5__ops12_Iter_negateIZNSt6ranges8__detail16__make_pred_projIZ16test_iterators_2IS2_S2_EvvEUliE0_St8identityEEDaRT_RT0_EUlTyOSC_E_EEESC_SC_SC_SE_St26random_access_iterator_tag = comdat any

$_Z8test_oneI22random_access_iteratorIPiE16sentinel_wrapperIS2_ELm0EZ16test_iterators_2IS2_S4_EvvEUliE_EvSt5arrayIiXT1_EET2_mS8_ = comdat any

$_Z8test_oneI22random_access_iteratorIPiE16sentinel_wrapperIS2_ELm1EZ16test_iterators_2IS2_S4_EvvEUliE_EvSt5arrayIiXT1_EET2_mS8_ = comdat any

$_Z8test_oneI22random_access_iteratorIPiE16sentinel_wrapperIS2_ELm2EZ16test_iterators_2IS2_S4_EvvEUliE_EvSt5arrayIiXT1_EET2_mS8_ = comdat any

$_Z8test_oneI22random_access_iteratorIPiE16sentinel_wrapperIS2_ELm3EZ16test_iterators_2IS2_S4_EvvEUliE_EvSt5arrayIiXT1_EET2_mS8_ = comdat any

$_Z8test_oneI22random_access_iteratorIPiE16sentinel_wrapperIS2_ELm8EZ16test_iterators_2IS2_S4_EvvEUliE_EvSt5arrayIiXT1_EET2_mS8_ = comdat any

$_Z8test_oneI22random_access_iteratorIPiE16sentinel_wrapperIS2_ELm6EZ16test_iterators_2IS2_S4_EvvEUliE_EvSt5arrayIiXT1_EET2_mS8_ = comdat any

$_Z8test_oneI22random_access_iteratorIPiE16sentinel_wrapperIS2_ELm5EZ16test_iterators_2IS2_S4_EvvEUliE0_EvSt5arrayIiXT1_EET2_mS8_ = comdat any

$_ZSt18__stable_partitionI22random_access_iteratorIPiEN9__gnu_cxx5__ops10_Iter_predIZNSt6ranges8__detail16__make_pred_projIZ16test_iterators_2IS2_16sentinel_wrapperIS2_EEvvEUliE_St8identityEEDaRT_RT0_EUlTyOSE_E_EEESE_SE_SE_SG_ = comdat any

$_ZSt27__stable_partition_adaptiveI22random_access_iteratorIPiES1_N9__gnu_cxx5__ops10_Iter_predIZNSt6ranges8__detail16__make_pred_projIZ16test_iterators_2IS2_16sentinel_wrapperIS2_EEvvEUliE_St8identityEEDaRT_RT0_EUlTyOSE_E_EElESE_SE_SE_T1_T2_SG_SM_ = comdat any

$_ZSt9__find_ifI22random_access_iteratorIPiEN9__gnu_cxx5__ops12_Iter_negateIZNSt6ranges8__detail16__make_pred_projIZ16test_iterators_2IS2_16sentinel_wrapperIS2_EEvvEUliE_St8identityEEDaRT_RT0_EUlTyOSE_E_EEESE_SE_SE_SG_St26random_access_iterator_tag = comdat any

$_ZSt18__stable_partitionI22random_access_iteratorIPiEN9__gnu_cxx5__ops10_Iter_predIZNSt6ranges8__detail16__make_pred_projIZ16test_iterators_2IS2_16sentinel_wrapperIS2_EEvvEUliE0_St8identityEEDaRT_RT0_EUlTyOSE_E_EEESE_SE_SE_SG_ = comdat any

$_ZSt27__stable_partition_adaptiveI22random_access_iteratorIPiES1_N9__gnu_cxx5__ops10_Iter_predIZNSt6ranges8__detail16__make_pred_projIZ16test_iterators_2IS2_16sentinel_wrapperIS2_EEvvEUliE0_St8identityEEDaRT_RT0_EUlTyOSE_E_EElESE_SE_SE_T1_T2_SG_SM_ = comdat any

$_ZSt9__find_ifI22random_access_iteratorIPiEN9__gnu_cxx5__ops12_Iter_negateIZNSt6ranges8__detail16__make_pred_projIZ16test_iterators_2IS2_16sentinel_wrapperIS2_EEvvEUliE0_St8identityEEDaRT_RT0_EUlTyOSE_E_EEESE_SE_SE_SG_St26random_access_iterator_tag = comdat any

$_Z16test_iterators_2I19contiguous_iteratorIPiES2_Evv = comdat any

$_Z16test_iterators_2I19contiguous_iteratorIPiE16sentinel_wrapperIS2_EEvv = comdat any

$_Z8test_oneI19contiguous_iteratorIPiES2_Lm0EZ16test_iterators_2IS2_S2_EvvEUliE_EvSt5arrayIiXT1_EET2_mS6_ = comdat any

$_Z8test_oneI19contiguous_iteratorIPiES2_Lm1EZ16test_iterators_2IS2_S2_EvvEUliE_EvSt5arrayIiXT1_EET2_mS6_ = comdat any

$_Z8test_oneI19contiguous_iteratorIPiES2_Lm2EZ16test_iterators_2IS2_S2_EvvEUliE_EvSt5arrayIiXT1_EET2_mS6_ = comdat any

$_Z8test_oneI19contiguous_iteratorIPiES2_Lm3EZ16test_iterators_2IS2_S2_EvvEUliE_EvSt5arrayIiXT1_EET2_mS6_ = comdat any

$_Z8test_oneI19contiguous_iteratorIPiES2_Lm8EZ16test_iterators_2IS2_S2_EvvEUliE_EvSt5arrayIiXT1_EET2_mS6_ = comdat any

$_Z8test_oneI19contiguous_iteratorIPiES2_Lm6EZ16test_iterators_2IS2_S2_EvvEUliE_EvSt5arrayIiXT1_EET2_mS6_ = comdat any

$_Z8test_oneI19contiguous_iteratorIPiES2_Lm5EZ16test_iterators_2IS2_S2_EvvEUliE0_EvSt5arrayIiXT1_EET2_mS6_ = comdat any

$_ZNKSt6ranges21__stable_partition_fnclITkSt22bidirectional_iterator19contiguous_iteratorIPiETkSt12sentinel_forIT_ES4_St8identityTkSt24indirect_unary_predicateINSt8__detail11__projectedIS6_T1_E6__typeEEZ16test_iterators_2IS4_S4_EvvEUliE_Q10permutableIS6_EEENS_8subrangeIS6_S6_Xqu18sized_sentinel_forIS6_S6_ELNS_13subrange_kindE1ELSH_0EEEES6_T0_T2_SB_ = comdat any

$_ZSt18__stable_partitionI19contiguous_iteratorIPiEN9__gnu_cxx5__ops10_Iter_predIZNSt6ranges8__detail16__make_pred_projIZ16test_iterators_2IS2_S2_EvvEUliE_St8identityEEDaRT_RT0_EUlTyOSC_E_EEESC_SC_SC_SE_ = comdat any

$_ZSt27__stable_partition_adaptiveI19contiguous_iteratorIPiES1_N9__gnu_cxx5__ops10_Iter_predIZNSt6ranges8__detail16__make_pred_projIZ16test_iterators_2IS2_S2_EvvEUliE_St8identityEEDaRT_RT0_EUlTyOSC_E_EElESC_SC_SC_T1_T2_SE_SK_ = comdat any

$_ZSt9__find_ifI19contiguous_iteratorIPiEN9__gnu_cxx5__ops12_Iter_negateIZNSt6ranges8__detail16__make_pred_projIZ16test_iterators_2IS2_S2_EvvEUliE_St8identityEEDaRT_RT0_EUlTyOSC_E_EEESC_SC_SC_SE_St26random_access_iterator_tag = comdat any

$_ZNSt3_V28__rotateI19contiguous_iteratorIPiEEET_S4_S4_S4_St26random_access_iterator_tag = comdat any

$_ZNKSt6ranges21__stable_partition_fnclITkSt22bidirectional_iterator19contiguous_iteratorIPiETkSt12sentinel_forIT_ES4_St8identityTkSt24indirect_unary_predicateINSt8__detail11__projectedIS6_T1_E6__typeEEZ16test_iterators_2IS4_S4_EvvEUliE0_Q10permutableIS6_EEENS_8subrangeIS6_S6_Xqu18sized_sentinel_forIS6_S6_ELNS_13subrange_kindE1ELSH_0EEEES6_T0_T2_SB_ = comdat any

$_ZSt18__stable_partitionI19contiguous_iteratorIPiEN9__gnu_cxx5__ops10_Iter_predIZNSt6ranges8__detail16__make_pred_projIZ16test_iterators_2IS2_S2_EvvEUliE0_St8identityEEDaRT_RT0_EUlTyOSC_E_EEESC_SC_SC_SE_ = comdat any

$_ZSt27__stable_partition_adaptiveI19contiguous_iteratorIPiES1_N9__gnu_cxx5__ops10_Iter_predIZNSt6ranges8__detail16__make_pred_projIZ16test_iterators_2IS2_S2_EvvEUliE0_St8identityEEDaRT_RT0_EUlTyOSC_E_EElESC_SC_SC_T1_T2_SE_SK_ = comdat any

$_ZSt9__find_ifI19contiguous_iteratorIPiEN9__gnu_cxx5__ops12_Iter_negateIZNSt6ranges8__detail16__make_pred_projIZ16test_iterators_2IS2_S2_EvvEUliE0_St8identityEEDaRT_RT0_EUlTyOSC_E_EEESC_SC_SC_SE_St26random_access_iterator_tag = comdat any

$_Z8test_oneI19contiguous_iteratorIPiE16sentinel_wrapperIS2_ELm0EZ16test_iterators_2IS2_S4_EvvEUliE_EvSt5arrayIiXT1_EET2_mS8_ = comdat any

$_Z8test_oneI19contiguous_iteratorIPiE16sentinel_wrapperIS2_ELm1EZ16test_iterators_2IS2_S4_EvvEUliE_EvSt5arrayIiXT1_EET2_mS8_ = comdat any

$_Z8test_oneI19contiguous_iteratorIPiE16sentinel_wrapperIS2_ELm2EZ16test_iterators_2IS2_S4_EvvEUliE_EvSt5arrayIiXT1_EET2_mS8_ = comdat any

$_Z8test_oneI19contiguous_iteratorIPiE16sentinel_wrapperIS2_ELm3EZ16test_iterators_2IS2_S4_EvvEUliE_EvSt5arrayIiXT1_EET2_mS8_ = comdat any

$_Z8test_oneI19contiguous_iteratorIPiE16sentinel_wrapperIS2_ELm8EZ16test_iterators_2IS2_S4_EvvEUliE_EvSt5arrayIiXT1_EET2_mS8_ = comdat any

$_Z8test_oneI19contiguous_iteratorIPiE16sentinel_wrapperIS2_ELm6EZ16test_iterators_2IS2_S4_EvvEUliE_EvSt5arrayIiXT1_EET2_mS8_ = comdat any

$_Z8test_oneI19contiguous_iteratorIPiE16sentinel_wrapperIS2_ELm5EZ16test_iterators_2IS2_S4_EvvEUliE0_EvSt5arrayIiXT1_EET2_mS8_ = comdat any

$_ZSt18__stable_partitionI19contiguous_iteratorIPiEN9__gnu_cxx5__ops10_Iter_predIZNSt6ranges8__detail16__make_pred_projIZ16test_iterators_2IS2_16sentinel_wrapperIS2_EEvvEUliE_St8identityEEDaRT_RT0_EUlTyOSE_E_EEESE_SE_SE_SG_ = comdat any

$_ZSt27__stable_partition_adaptiveI19contiguous_iteratorIPiES1_N9__gnu_cxx5__ops10_Iter_predIZNSt6ranges8__detail16__make_pred_projIZ16test_iterators_2IS2_16sentinel_wrapperIS2_EEvvEUliE_St8identityEEDaRT_RT0_EUlTyOSE_E_EElESE_SE_SE_T1_T2_SG_SM_ = comdat any

$_ZSt9__find_ifI19contiguous_iteratorIPiEN9__gnu_cxx5__ops12_Iter_negateIZNSt6ranges8__detail16__make_pred_projIZ16test_iterators_2IS2_16sentinel_wrapperIS2_EEvvEUliE_St8identityEEDaRT_RT0_EUlTyOSE_E_EEESE_SE_SE_SG_St26random_access_iterator_tag = comdat any

$_ZSt18__stable_partitionI19contiguous_iteratorIPiEN9__gnu_cxx5__ops10_Iter_predIZNSt6ranges8__detail16__make_pred_projIZ16test_iterators_2IS2_16sentinel_wrapperIS2_EEvvEUliE0_St8identityEEDaRT_RT0_EUlTyOSE_E_EEESE_SE_SE_SG_ = comdat any

$_ZSt27__stable_partition_adaptiveI19contiguous_iteratorIPiES1_N9__gnu_cxx5__ops10_Iter_predIZNSt6ranges8__detail16__make_pred_projIZ16test_iterators_2IS2_16sentinel_wrapperIS2_EEvvEUliE0_St8identityEEDaRT_RT0_EUlTyOSE_E_EElESE_SE_SE_T1_T2_SG_SM_ = comdat any

$_ZSt9__find_ifI19contiguous_iteratorIPiEN9__gnu_cxx5__ops12_Iter_negateIZNSt6ranges8__detail16__make_pred_projIZ16test_iterators_2IS2_16sentinel_wrapperIS2_EEvvEUliE0_St8identityEEDaRT_RT0_EUlTyOSE_E_EEESE_SE_SE_SG_St26random_access_iterator_tag = comdat any

$_Z16test_iterators_2IPiS0_Evv = comdat any

$_Z16test_iterators_2IPi16sentinel_wrapperIS0_EEvv = comdat any

$_Z8test_oneIPiS0_Lm0EZ16test_iterators_2IS0_S0_EvvEUliE_EvSt5arrayIiXT1_EET2_mS4_ = comdat any

$_Z8test_oneIPiS0_Lm1EZ16test_iterators_2IS0_S0_EvvEUliE_EvSt5arrayIiXT1_EET2_mS4_ = comdat any

$_Z8test_oneIPiS0_Lm2EZ16test_iterators_2IS0_S0_EvvEUliE_EvSt5arrayIiXT1_EET2_mS4_ = comdat any

$_Z8test_oneIPiS0_Lm3EZ16test_iterators_2IS0_S0_EvvEUliE_EvSt5arrayIiXT1_EET2_mS4_ = comdat any

$_Z8test_oneIPiS0_Lm8EZ16test_iterators_2IS0_S0_EvvEUliE_EvSt5arrayIiXT1_EET2_mS4_ = comdat any

$_Z8test_oneIPiS0_Lm6EZ16test_iterators_2IS0_S0_EvvEUliE_EvSt5arrayIiXT1_EET2_mS4_ = comdat any

$_Z8test_oneIPiS0_Lm5EZ16test_iterators_2IS0_S0_EvvEUliE0_EvSt5arrayIiXT1_EET2_mS4_ = comdat any

$_ZSt18__stable_partitionIPiN9__gnu_cxx5__ops10_Iter_predIZNSt6ranges8__detail16__make_pred_projIZ16test_iterators_2IS0_S0_EvvEUliE_St8identityEEDaRT_RT0_EUlTyOSA_E_EEESA_SA_SA_SC_ = comdat any

$_ZSt27__stable_partition_adaptiveIPiS0_N9__gnu_cxx5__ops10_Iter_predIZNSt6ranges8__detail16__make_pred_projIZ16test_iterators_2IS0_S0_EvvEUliE_St8identityEEDaRT_RT0_EUlTyOSA_E_EElESA_SA_SA_T1_T2_SC_SI_ = comdat any

$_ZNSt3_V28__rotateIPiEET_S2_S2_S2_St26random_access_iterator_tag = comdat any

$_ZSt18__stable_partitionIPiN9__gnu_cxx5__ops10_Iter_predIZNSt6ranges8__detail16__make_pred_projIZ16test_iterators_2IS0_S0_EvvEUliE0_St8identityEEDaRT_RT0_EUlTyOSA_E_EEESA_SA_SA_SC_ = comdat any

$_ZSt27__stable_partition_adaptiveIPiS0_N9__gnu_cxx5__ops10_Iter_predIZNSt6ranges8__detail16__make_pred_projIZ16test_iterators_2IS0_S0_EvvEUliE0_St8identityEEDaRT_RT0_EUlTyOSA_E_EElESA_SA_SA_T1_T2_SC_SI_ = comdat any

$_Z8test_oneIPi16sentinel_wrapperIS0_ELm0EZ16test_iterators_2IS0_S2_EvvEUliE_EvSt5arrayIiXT1_EET2_mS6_ = comdat any

$_Z8test_oneIPi16sentinel_wrapperIS0_ELm1EZ16test_iterators_2IS0_S2_EvvEUliE_EvSt5arrayIiXT1_EET2_mS6_ = comdat any

$_Z8test_oneIPi16sentinel_wrapperIS0_ELm2EZ16test_iterators_2IS0_S2_EvvEUliE_EvSt5arrayIiXT1_EET2_mS6_ = comdat any

$_Z8test_oneIPi16sentinel_wrapperIS0_ELm3EZ16test_iterators_2IS0_S2_EvvEUliE_EvSt5arrayIiXT1_EET2_mS6_ = comdat any

$_Z8test_oneIPi16sentinel_wrapperIS0_ELm8EZ16test_iterators_2IS0_S2_EvvEUliE_EvSt5arrayIiXT1_EET2_mS6_ = comdat any

$_Z8test_oneIPi16sentinel_wrapperIS0_ELm6EZ16test_iterators_2IS0_S2_EvvEUliE_EvSt5arrayIiXT1_EET2_mS6_ = comdat any

$_Z8test_oneIPi16sentinel_wrapperIS0_ELm5EZ16test_iterators_2IS0_S2_EvvEUliE0_EvSt5arrayIiXT1_EET2_mS6_ = comdat any

$_ZSt18__stable_partitionIPiN9__gnu_cxx5__ops10_Iter_predIZNSt6ranges8__detail16__make_pred_projIZ16test_iterators_2IS0_16sentinel_wrapperIS0_EEvvEUliE_St8identityEEDaRT_RT0_EUlTyOSC_E_EEESC_SC_SC_SE_ = comdat any

$_ZSt27__stable_partition_adaptiveIPiS0_N9__gnu_cxx5__ops10_Iter_predIZNSt6ranges8__detail16__make_pred_projIZ16test_iterators_2IS0_16sentinel_wrapperIS0_EEvvEUliE_St8identityEEDaRT_RT0_EUlTyOSC_E_EElESC_SC_SC_T1_T2_SE_SK_ = comdat any

$_ZSt18__stable_partitionIPiN9__gnu_cxx5__ops10_Iter_predIZNSt6ranges8__detail16__make_pred_projIZ16test_iterators_2IS0_16sentinel_wrapperIS0_EEvvEUliE0_St8identityEEDaRT_RT0_EUlTyOSC_E_EEESC_SC_SC_SE_ = comdat any

$_ZSt27__stable_partition_adaptiveIPiS0_N9__gnu_cxx5__ops10_Iter_predIZNSt6ranges8__detail16__make_pred_projIZ16test_iterators_2IS0_16sentinel_wrapperIS0_EEvvEUliE0_St8identityEEDaRT_RT0_EUlTyOSC_E_EElESC_SC_SC_T1_T2_SE_SK_ = comdat any

$_ZNSt6ranges16stable_partitionE = comdat any

@__const._Z4testv.orig_in = private unnamed_addr constant %"struct.std::array" { [20 x %struct.OrderedValue] [%struct.OrderedValue { i32 10, double 2.100000e+00 }, %struct.OrderedValue { i32 12, double 2.200000e+00 }, %struct.OrderedValue { i32 3, double 1.100000e+00 }, %struct.OrderedValue { i32 5, double 1.200000e+00 }, %struct.OrderedValue { i32 3, double 1.300000e+00 }, %struct.OrderedValue { i32 3, double 1.400000e+00 }, %struct.OrderedValue { i32 11, double 1.500000e+00 }, %struct.OrderedValue { i32 12, double 2.300000e+00 }, %struct.OrderedValue { i32 4, double 2.400000e+00 }, %struct.OrderedValue { i32 4, double 2.500000e+00 }, %struct.OrderedValue { i32 4, double 2.600000e+00 }, %struct.OrderedValue { i32 1, double 1.600000e+00 }, %struct.OrderedValue { i32 6, double 2.700000e+00 }, %struct.OrderedValue { i32 3, double 1.700000e+00 }, %struct.OrderedValue { i32 10, double 2.800000e+00 }, %struct.OrderedValue { i32 8, double 2.900000e+00 }, %struct.OrderedValue { i32 12, double 2.100000e+00 }, %struct.OrderedValue { i32 1, double 1.800000e+00 }, %struct.OrderedValue { i32 1, double 1.900000e+00 }, %struct.OrderedValue { i32 5, double 1.100000e+00 }] }, align 8
@__const._Z4testv.expected = private unnamed_addr constant %"struct.std::array" { [20 x %struct.OrderedValue] [%struct.OrderedValue { i32 3, double 1.100000e+00 }, %struct.OrderedValue { i32 5, double 1.200000e+00 }, %struct.OrderedValue { i32 3, double 1.300000e+00 }, %struct.OrderedValue { i32 3, double 1.400000e+00 }, %struct.OrderedValue { i32 11, double 1.500000e+00 }, %struct.OrderedValue { i32 1, double 1.600000e+00 }, %struct.OrderedValue { i32 3, double 1.700000e+00 }, %struct.OrderedValue { i32 1, double 1.800000e+00 }, %struct.OrderedValue { i32 1, double 1.900000e+00 }, %struct.OrderedValue { i32 5, double 1.100000e+00 }, %struct.OrderedValue { i32 10, double 2.100000e+00 }, %struct.OrderedValue { i32 12, double 2.200000e+00 }, %struct.OrderedValue { i32 12, double 2.300000e+00 }, %struct.OrderedValue { i32 4, double 2.400000e+00 }, %struct.OrderedValue { i32 4, double 2.500000e+00 }, %struct.OrderedValue { i32 4, double 2.600000e+00 }, %struct.OrderedValue { i32 6, double 2.700000e+00 }, %struct.OrderedValue { i32 10, double 2.800000e+00 }, %struct.OrderedValue { i32 8, double 2.900000e+00 }, %struct.OrderedValue { i32 12, double 2.100000e+00 }] }, align 8
@_ZNSt6ranges16stable_partitionE = linkonce_odr dso_local constant %"struct.std::ranges::__stable_partition_fn" undef, comdat, align 1
@.str = private unnamed_addr constant [15 x i8] c"in == expected\00", align 1
@.str.1 = private unnamed_addr constant [155 x i8] c"/root/project/RuyiTuner/third_party/train/llvm-project/libcxx/test/std/algorithms/alg.modifying.operations/alg.partitions/ranges_stable_partition.pass.cpp\00", align 1
@__PRETTY_FUNCTION__._Z4testv = private unnamed_addr constant [12 x i8] c"bool test()\00", align 1
@.str.2 = private unnamed_addr constant [23 x i8] c"in == expected_no_proj\00", align 1
@.str.4 = private unnamed_addr constant [25 x i8] c"in == expected_with_proj\00", align 1
@.str.18 = private unnamed_addr constant [61 x i8] c"base(result.begin()) == partitioned.data() + partition_point\00", align 1
@__PRETTY_FUNCTION__._Z8test_oneI22bidirectional_iteratorIPiES2_Lm0EZ16test_iterators_2IS2_S2_EvvEUliE_EvSt5arrayIiXT1_EET2_mS6_ = private unnamed_addr constant [341 x i8] c"void test_one(std::array<int, N>, Pred, std::size_t, std::array<int, N>) [Iter = bidirectional_iterator<int *>, Sent = bidirectional_iterator<int *>, N = 0UL, Pred = (lambda at /root/project/RuyiTuner/third_party/train/llvm-project/libcxx/test/std/algorithms/alg.modifying.operations/alg.partitions/ranges_stable_partition.pass.cpp:130:17)]\00", align 1
@.str.19 = private unnamed_addr constant [62 x i8] c"base(result.end()) == partitioned.data() + partitioned.size()\00", align 1
@.str.20 = private unnamed_addr constant [45 x i8] c"std::ranges::all_of(b, result.begin(), pred)\00", align 1
@.str.21 = private unnamed_addr constant [49 x i8] c"std::ranges::all_of(result.begin(), e, neg_pred)\00", align 1
@.str.22 = private unnamed_addr constant [19 x i8] c"!other.moved_from_\00", align 1
@.str.23 = private unnamed_addr constant [97 x i8] c"/root/project/RuyiTuner/third_party/train/llvm-project/libcxx/test/support/double_move_tracker.h\00", align 1
@__PRETTY_FUNCTION__._ZN7support19double_move_trackeraSEOS0_ = private unnamed_addr constant [85 x i8] c"double_move_tracker &support::double_move_tracker::operator=(double_move_tracker &&)\00", align 1
@_ZSt7nothrow = external global %"struct.std::nothrow_t", align 1
@__PRETTY_FUNCTION__._ZN7support19double_move_trackerC2EOS0_ = private unnamed_addr constant [74 x i8] c"support::double_move_tracker::double_move_tracker(double_move_tracker &&)\00", align 1
@.str.24 = private unnamed_addr constant [24 x i8] c"partitioned == expected\00", align 1
@__PRETTY_FUNCTION__._Z8test_oneI22bidirectional_iteratorIPiES2_Lm1EZ16test_iterators_2IS2_S2_EvvEUliE_EvSt5arrayIiXT1_EET2_mS6_ = private unnamed_addr constant [341 x i8] c"void test_one(std::array<int, N>, Pred, std::size_t, std::array<int, N>) [Iter = bidirectional_iterator<int *>, Sent = bidirectional_iterator<int *>, N = 1UL, Pred = (lambda at /root/project/RuyiTuner/third_party/train/llvm-project/libcxx/test/std/algorithms/alg.modifying.operations/alg.partitions/ranges_stable_partition.pass.cpp:130:17)]\00", align 1
@__PRETTY_FUNCTION__._Z8test_oneI22bidirectional_iteratorIPiES2_Lm2EZ16test_iterators_2IS2_S2_EvvEUliE_EvSt5arrayIiXT1_EET2_mS6_ = private unnamed_addr constant [341 x i8] c"void test_one(std::array<int, N>, Pred, std::size_t, std::array<int, N>) [Iter = bidirectional_iterator<int *>, Sent = bidirectional_iterator<int *>, N = 2UL, Pred = (lambda at /root/project/RuyiTuner/third_party/train/llvm-project/libcxx/test/std/algorithms/alg.modifying.operations/alg.partitions/ranges_stable_partition.pass.cpp:130:17)]\00", align 1
@__PRETTY_FUNCTION__._Z8test_oneI22bidirectional_iteratorIPiES2_Lm3EZ16test_iterators_2IS2_S2_EvvEUliE_EvSt5arrayIiXT1_EET2_mS6_ = private unnamed_addr constant [341 x i8] c"void test_one(std::array<int, N>, Pred, std::size_t, std::array<int, N>) [Iter = bidirectional_iterator<int *>, Sent = bidirectional_iterator<int *>, N = 3UL, Pred = (lambda at /root/project/RuyiTuner/third_party/train/llvm-project/libcxx/test/std/algorithms/alg.modifying.operations/alg.partitions/ranges_stable_partition.pass.cpp:130:17)]\00", align 1
@__PRETTY_FUNCTION__._Z8test_oneI22bidirectional_iteratorIPiES2_Lm8EZ16test_iterators_2IS2_S2_EvvEUliE_EvSt5arrayIiXT1_EET2_mS6_ = private unnamed_addr constant [341 x i8] c"void test_one(std::array<int, N>, Pred, std::size_t, std::array<int, N>) [Iter = bidirectional_iterator<int *>, Sent = bidirectional_iterator<int *>, N = 8UL, Pred = (lambda at /root/project/RuyiTuner/third_party/train/llvm-project/libcxx/test/std/algorithms/alg.modifying.operations/alg.partitions/ranges_stable_partition.pass.cpp:130:17)]\00", align 1
@__PRETTY_FUNCTION__._Z8test_oneI22bidirectional_iteratorIPiES2_Lm6EZ16test_iterators_2IS2_S2_EvvEUliE_EvSt5arrayIiXT1_EET2_mS6_ = private unnamed_addr constant [341 x i8] c"void test_one(std::array<int, N>, Pred, std::size_t, std::array<int, N>) [Iter = bidirectional_iterator<int *>, Sent = bidirectional_iterator<int *>, N = 6UL, Pred = (lambda at /root/project/RuyiTuner/third_party/train/llvm-project/libcxx/test/std/algorithms/alg.modifying.operations/alg.partitions/ranges_stable_partition.pass.cpp:130:17)]\00", align 1
@__PRETTY_FUNCTION__._Z8test_oneI22bidirectional_iteratorIPiES2_Lm5EZ16test_iterators_2IS2_S2_EvvEUliE0_EvSt5arrayIiXT1_EET2_mS6_ = private unnamed_addr constant [341 x i8] c"void test_one(std::array<int, N>, Pred, std::size_t, std::array<int, N>) [Iter = bidirectional_iterator<int *>, Sent = bidirectional_iterator<int *>, N = 5UL, Pred = (lambda at /root/project/RuyiTuner/third_party/train/llvm-project/libcxx/test/std/algorithms/alg.modifying.operations/alg.partitions/ranges_stable_partition.pass.cpp:159:22)]\00", align 1
@__PRETTY_FUNCTION__._Z8test_oneI22bidirectional_iteratorIPiE16sentinel_wrapperIS2_ELm0EZ16test_iterators_2IS2_S4_EvvEUliE_EvSt5arrayIiXT1_EET2_mS8_ = private unnamed_addr constant [359 x i8] c"void test_one(std::array<int, N>, Pred, std::size_t, std::array<int, N>) [Iter = bidirectional_iterator<int *>, Sent = sentinel_wrapper<bidirectional_iterator<int *>>, N = 0UL, Pred = (lambda at /root/project/RuyiTuner/third_party/train/llvm-project/libcxx/test/std/algorithms/alg.modifying.operations/alg.partitions/ranges_stable_partition.pass.cpp:130:17)]\00", align 1
@__PRETTY_FUNCTION__._Z8test_oneI22bidirectional_iteratorIPiE16sentinel_wrapperIS2_ELm1EZ16test_iterators_2IS2_S4_EvvEUliE_EvSt5arrayIiXT1_EET2_mS8_ = private unnamed_addr constant [359 x i8] c"void test_one(std::array<int, N>, Pred, std::size_t, std::array<int, N>) [Iter = bidirectional_iterator<int *>, Sent = sentinel_wrapper<bidirectional_iterator<int *>>, N = 1UL, Pred = (lambda at /root/project/RuyiTuner/third_party/train/llvm-project/libcxx/test/std/algorithms/alg.modifying.operations/alg.partitions/ranges_stable_partition.pass.cpp:130:17)]\00", align 1
@__PRETTY_FUNCTION__._Z8test_oneI22bidirectional_iteratorIPiE16sentinel_wrapperIS2_ELm2EZ16test_iterators_2IS2_S4_EvvEUliE_EvSt5arrayIiXT1_EET2_mS8_ = private unnamed_addr constant [359 x i8] c"void test_one(std::array<int, N>, Pred, std::size_t, std::array<int, N>) [Iter = bidirectional_iterator<int *>, Sent = sentinel_wrapper<bidirectional_iterator<int *>>, N = 2UL, Pred = (lambda at /root/project/RuyiTuner/third_party/train/llvm-project/libcxx/test/std/algorithms/alg.modifying.operations/alg.partitions/ranges_stable_partition.pass.cpp:130:17)]\00", align 1
@__PRETTY_FUNCTION__._Z8test_oneI22bidirectional_iteratorIPiE16sentinel_wrapperIS2_ELm3EZ16test_iterators_2IS2_S4_EvvEUliE_EvSt5arrayIiXT1_EET2_mS8_ = private unnamed_addr constant [359 x i8] c"void test_one(std::array<int, N>, Pred, std::size_t, std::array<int, N>) [Iter = bidirectional_iterator<int *>, Sent = sentinel_wrapper<bidirectional_iterator<int *>>, N = 3UL, Pred = (lambda at /root/project/RuyiTuner/third_party/train/llvm-project/libcxx/test/std/algorithms/alg.modifying.operations/alg.partitions/ranges_stable_partition.pass.cpp:130:17)]\00", align 1
@__PRETTY_FUNCTION__._Z8test_oneI22bidirectional_iteratorIPiE16sentinel_wrapperIS2_ELm8EZ16test_iterators_2IS2_S4_EvvEUliE_EvSt5arrayIiXT1_EET2_mS8_ = private unnamed_addr constant [359 x i8] c"void test_one(std::array<int, N>, Pred, std::size_t, std::array<int, N>) [Iter = bidirectional_iterator<int *>, Sent = sentinel_wrapper<bidirectional_iterator<int *>>, N = 8UL, Pred = (lambda at /root/project/RuyiTuner/third_party/train/llvm-project/libcxx/test/std/algorithms/alg.modifying.operations/alg.partitions/ranges_stable_partition.pass.cpp:130:17)]\00", align 1
@__PRETTY_FUNCTION__._Z8test_oneI22bidirectional_iteratorIPiE16sentinel_wrapperIS2_ELm6EZ16test_iterators_2IS2_S4_EvvEUliE_EvSt5arrayIiXT1_EET2_mS8_ = private unnamed_addr constant [359 x i8] c"void test_one(std::array<int, N>, Pred, std::size_t, std::array<int, N>) [Iter = bidirectional_iterator<int *>, Sent = sentinel_wrapper<bidirectional_iterator<int *>>, N = 6UL, Pred = (lambda at /root/project/RuyiTuner/third_party/train/llvm-project/libcxx/test/std/algorithms/alg.modifying.operations/alg.partitions/ranges_stable_partition.pass.cpp:130:17)]\00", align 1
@__PRETTY_FUNCTION__._Z8test_oneI22bidirectional_iteratorIPiE16sentinel_wrapperIS2_ELm5EZ16test_iterators_2IS2_S4_EvvEUliE0_EvSt5arrayIiXT1_EET2_mS8_ = private unnamed_addr constant [359 x i8] c"void test_one(std::array<int, N>, Pred, std::size_t, std::array<int, N>) [Iter = bidirectional_iterator<int *>, Sent = sentinel_wrapper<bidirectional_iterator<int *>>, N = 5UL, Pred = (lambda at /root/project/RuyiTuner/third_party/train/llvm-project/libcxx/test/std/algorithms/alg.modifying.operations/alg.partitions/ranges_stable_partition.pass.cpp:159:22)]\00", align 1
@__PRETTY_FUNCTION__._Z8test_oneI22random_access_iteratorIPiES2_Lm0EZ16test_iterators_2IS2_S2_EvvEUliE_EvSt5arrayIiXT1_EET2_mS6_ = private unnamed_addr constant [341 x i8] c"void test_one(std::array<int, N>, Pred, std::size_t, std::array<int, N>) [Iter = random_access_iterator<int *>, Sent = random_access_iterator<int *>, N = 0UL, Pred = (lambda at /root/project/RuyiTuner/third_party/train/llvm-project/libcxx/test/std/algorithms/alg.modifying.operations/alg.partitions/ranges_stable_partition.pass.cpp:130:17)]\00", align 1
@__PRETTY_FUNCTION__._Z8test_oneI22random_access_iteratorIPiES2_Lm1EZ16test_iterators_2IS2_S2_EvvEUliE_EvSt5arrayIiXT1_EET2_mS6_ = private unnamed_addr constant [341 x i8] c"void test_one(std::array<int, N>, Pred, std::size_t, std::array<int, N>) [Iter = random_access_iterator<int *>, Sent = random_access_iterator<int *>, N = 1UL, Pred = (lambda at /root/project/RuyiTuner/third_party/train/llvm-project/libcxx/test/std/algorithms/alg.modifying.operations/alg.partitions/ranges_stable_partition.pass.cpp:130:17)]\00", align 1
@__PRETTY_FUNCTION__._Z8test_oneI22random_access_iteratorIPiES2_Lm2EZ16test_iterators_2IS2_S2_EvvEUliE_EvSt5arrayIiXT1_EET2_mS6_ = private unnamed_addr constant [341 x i8] c"void test_one(std::array<int, N>, Pred, std::size_t, std::array<int, N>) [Iter = random_access_iterator<int *>, Sent = random_access_iterator<int *>, N = 2UL, Pred = (lambda at /root/project/RuyiTuner/third_party/train/llvm-project/libcxx/test/std/algorithms/alg.modifying.operations/alg.partitions/ranges_stable_partition.pass.cpp:130:17)]\00", align 1
@__PRETTY_FUNCTION__._Z8test_oneI22random_access_iteratorIPiES2_Lm3EZ16test_iterators_2IS2_S2_EvvEUliE_EvSt5arrayIiXT1_EET2_mS6_ = private unnamed_addr constant [341 x i8] c"void test_one(std::array<int, N>, Pred, std::size_t, std::array<int, N>) [Iter = random_access_iterator<int *>, Sent = random_access_iterator<int *>, N = 3UL, Pred = (lambda at /root/project/RuyiTuner/third_party/train/llvm-project/libcxx/test/std/algorithms/alg.modifying.operations/alg.partitions/ranges_stable_partition.pass.cpp:130:17)]\00", align 1
@__PRETTY_FUNCTION__._Z8test_oneI22random_access_iteratorIPiES2_Lm8EZ16test_iterators_2IS2_S2_EvvEUliE_EvSt5arrayIiXT1_EET2_mS6_ = private unnamed_addr constant [341 x i8] c"void test_one(std::array<int, N>, Pred, std::size_t, std::array<int, N>) [Iter = random_access_iterator<int *>, Sent = random_access_iterator<int *>, N = 8UL, Pred = (lambda at /root/project/RuyiTuner/third_party/train/llvm-project/libcxx/test/std/algorithms/alg.modifying.operations/alg.partitions/ranges_stable_partition.pass.cpp:130:17)]\00", align 1
@__PRETTY_FUNCTION__._Z8test_oneI22random_access_iteratorIPiES2_Lm6EZ16test_iterators_2IS2_S2_EvvEUliE_EvSt5arrayIiXT1_EET2_mS6_ = private unnamed_addr constant [341 x i8] c"void test_one(std::array<int, N>, Pred, std::size_t, std::array<int, N>) [Iter = random_access_iterator<int *>, Sent = random_access_iterator<int *>, N = 6UL, Pred = (lambda at /root/project/RuyiTuner/third_party/train/llvm-project/libcxx/test/std/algorithms/alg.modifying.operations/alg.partitions/ranges_stable_partition.pass.cpp:130:17)]\00", align 1
@__PRETTY_FUNCTION__._Z8test_oneI22random_access_iteratorIPiES2_Lm5EZ16test_iterators_2IS2_S2_EvvEUliE0_EvSt5arrayIiXT1_EET2_mS6_ = private unnamed_addr constant [341 x i8] c"void test_one(std::array<int, N>, Pred, std::size_t, std::array<int, N>) [Iter = random_access_iterator<int *>, Sent = random_access_iterator<int *>, N = 5UL, Pred = (lambda at /root/project/RuyiTuner/third_party/train/llvm-project/libcxx/test/std/algorithms/alg.modifying.operations/alg.partitions/ranges_stable_partition.pass.cpp:159:22)]\00", align 1
@__PRETTY_FUNCTION__._Z8test_oneI22random_access_iteratorIPiE16sentinel_wrapperIS2_ELm0EZ16test_iterators_2IS2_S4_EvvEUliE_EvSt5arrayIiXT1_EET2_mS8_ = private unnamed_addr constant [359 x i8] c"void test_one(std::array<int, N>, Pred, std::size_t, std::array<int, N>) [Iter = random_access_iterator<int *>, Sent = sentinel_wrapper<random_access_iterator<int *>>, N = 0UL, Pred = (lambda at /root/project/RuyiTuner/third_party/train/llvm-project/libcxx/test/std/algorithms/alg.modifying.operations/alg.partitions/ranges_stable_partition.pass.cpp:130:17)]\00", align 1
@__PRETTY_FUNCTION__._Z8test_oneI22random_access_iteratorIPiE16sentinel_wrapperIS2_ELm1EZ16test_iterators_2IS2_S4_EvvEUliE_EvSt5arrayIiXT1_EET2_mS8_ = private unnamed_addr constant [359 x i8] c"void test_one(std::array<int, N>, Pred, std::size_t, std::array<int, N>) [Iter = random_access_iterator<int *>, Sent = sentinel_wrapper<random_access_iterator<int *>>, N = 1UL, Pred = (lambda at /root/project/RuyiTuner/third_party/train/llvm-project/libcxx/test/std/algorithms/alg.modifying.operations/alg.partitions/ranges_stable_partition.pass.cpp:130:17)]\00", align 1
@__PRETTY_FUNCTION__._Z8test_oneI22random_access_iteratorIPiE16sentinel_wrapperIS2_ELm2EZ16test_iterators_2IS2_S4_EvvEUliE_EvSt5arrayIiXT1_EET2_mS8_ = private unnamed_addr constant [359 x i8] c"void test_one(std::array<int, N>, Pred, std::size_t, std::array<int, N>) [Iter = random_access_iterator<int *>, Sent = sentinel_wrapper<random_access_iterator<int *>>, N = 2UL, Pred = (lambda at /root/project/RuyiTuner/third_party/train/llvm-project/libcxx/test/std/algorithms/alg.modifying.operations/alg.partitions/ranges_stable_partition.pass.cpp:130:17)]\00", align 1
@__PRETTY_FUNCTION__._Z8test_oneI22random_access_iteratorIPiE16sentinel_wrapperIS2_ELm3EZ16test_iterators_2IS2_S4_EvvEUliE_EvSt5arrayIiXT1_EET2_mS8_ = private unnamed_addr constant [359 x i8] c"void test_one(std::array<int, N>, Pred, std::size_t, std::array<int, N>) [Iter = random_access_iterator<int *>, Sent = sentinel_wrapper<random_access_iterator<int *>>, N = 3UL, Pred = (lambda at /root/project/RuyiTuner/third_party/train/llvm-project/libcxx/test/std/algorithms/alg.modifying.operations/alg.partitions/ranges_stable_partition.pass.cpp:130:17)]\00", align 1
@__PRETTY_FUNCTION__._Z8test_oneI22random_access_iteratorIPiE16sentinel_wrapperIS2_ELm8EZ16test_iterators_2IS2_S4_EvvEUliE_EvSt5arrayIiXT1_EET2_mS8_ = private unnamed_addr constant [359 x i8] c"void test_one(std::array<int, N>, Pred, std::size_t, std::array<int, N>) [Iter = random_access_iterator<int *>, Sent = sentinel_wrapper<random_access_iterator<int *>>, N = 8UL, Pred = (lambda at /root/project/RuyiTuner/third_party/train/llvm-project/libcxx/test/std/algorithms/alg.modifying.operations/alg.partitions/ranges_stable_partition.pass.cpp:130:17)]\00", align 1
@__PRETTY_FUNCTION__._Z8test_oneI22random_access_iteratorIPiE16sentinel_wrapperIS2_ELm6EZ16test_iterators_2IS2_S4_EvvEUliE_EvSt5arrayIiXT1_EET2_mS8_ = private unnamed_addr constant [359 x i8] c"void test_one(std::array<int, N>, Pred, std::size_t, std::array<int, N>) [Iter = random_access_iterator<int *>, Sent = sentinel_wrapper<random_access_iterator<int *>>, N = 6UL, Pred = (lambda at /root/project/RuyiTuner/third_party/train/llvm-project/libcxx/test/std/algorithms/alg.modifying.operations/alg.partitions/ranges_stable_partition.pass.cpp:130:17)]\00", align 1
@__PRETTY_FUNCTION__._Z8test_oneI22random_access_iteratorIPiE16sentinel_wrapperIS2_ELm5EZ16test_iterators_2IS2_S4_EvvEUliE0_EvSt5arrayIiXT1_EET2_mS8_ = private unnamed_addr constant [359 x i8] c"void test_one(std::array<int, N>, Pred, std::size_t, std::array<int, N>) [Iter = random_access_iterator<int *>, Sent = sentinel_wrapper<random_access_iterator<int *>>, N = 5UL, Pred = (lambda at /root/project/RuyiTuner/third_party/train/llvm-project/libcxx/test/std/algorithms/alg.modifying.operations/alg.partitions/ranges_stable_partition.pass.cpp:159:22)]\00", align 1
@__PRETTY_FUNCTION__._Z8test_oneI19contiguous_iteratorIPiES2_Lm0EZ16test_iterators_2IS2_S2_EvvEUliE_EvSt5arrayIiXT1_EET2_mS6_ = private unnamed_addr constant [335 x i8] c"void test_one(std::array<int, N>, Pred, std::size_t, std::array<int, N>) [Iter = contiguous_iterator<int *>, Sent = contiguous_iterator<int *>, N = 0UL, Pred = (lambda at /root/project/RuyiTuner/third_party/train/llvm-project/libcxx/test/std/algorithms/alg.modifying.operations/alg.partitions/ranges_stable_partition.pass.cpp:130:17)]\00", align 1
@__PRETTY_FUNCTION__._Z8test_oneI19contiguous_iteratorIPiES2_Lm1EZ16test_iterators_2IS2_S2_EvvEUliE_EvSt5arrayIiXT1_EET2_mS6_ = private unnamed_addr constant [335 x i8] c"void test_one(std::array<int, N>, Pred, std::size_t, std::array<int, N>) [Iter = contiguous_iterator<int *>, Sent = contiguous_iterator<int *>, N = 1UL, Pred = (lambda at /root/project/RuyiTuner/third_party/train/llvm-project/libcxx/test/std/algorithms/alg.modifying.operations/alg.partitions/ranges_stable_partition.pass.cpp:130:17)]\00", align 1
@__PRETTY_FUNCTION__._Z8test_oneI19contiguous_iteratorIPiES2_Lm2EZ16test_iterators_2IS2_S2_EvvEUliE_EvSt5arrayIiXT1_EET2_mS6_ = private unnamed_addr constant [335 x i8] c"void test_one(std::array<int, N>, Pred, std::size_t, std::array<int, N>) [Iter = contiguous_iterator<int *>, Sent = contiguous_iterator<int *>, N = 2UL, Pred = (lambda at /root/project/RuyiTuner/third_party/train/llvm-project/libcxx/test/std/algorithms/alg.modifying.operations/alg.partitions/ranges_stable_partition.pass.cpp:130:17)]\00", align 1
@__PRETTY_FUNCTION__._Z8test_oneI19contiguous_iteratorIPiES2_Lm3EZ16test_iterators_2IS2_S2_EvvEUliE_EvSt5arrayIiXT1_EET2_mS6_ = private unnamed_addr constant [335 x i8] c"void test_one(std::array<int, N>, Pred, std::size_t, std::array<int, N>) [Iter = contiguous_iterator<int *>, Sent = contiguous_iterator<int *>, N = 3UL, Pred = (lambda at /root/project/RuyiTuner/third_party/train/llvm-project/libcxx/test/std/algorithms/alg.modifying.operations/alg.partitions/ranges_stable_partition.pass.cpp:130:17)]\00", align 1
@__PRETTY_FUNCTION__._Z8test_oneI19contiguous_iteratorIPiES2_Lm8EZ16test_iterators_2IS2_S2_EvvEUliE_EvSt5arrayIiXT1_EET2_mS6_ = private unnamed_addr constant [335 x i8] c"void test_one(std::array<int, N>, Pred, std::size_t, std::array<int, N>) [Iter = contiguous_iterator<int *>, Sent = contiguous_iterator<int *>, N = 8UL, Pred = (lambda at /root/project/RuyiTuner/third_party/train/llvm-project/libcxx/test/std/algorithms/alg.modifying.operations/alg.partitions/ranges_stable_partition.pass.cpp:130:17)]\00", align 1
@__PRETTY_FUNCTION__._Z8test_oneI19contiguous_iteratorIPiES2_Lm6EZ16test_iterators_2IS2_S2_EvvEUliE_EvSt5arrayIiXT1_EET2_mS6_ = private unnamed_addr constant [335 x i8] c"void test_one(std::array<int, N>, Pred, std::size_t, std::array<int, N>) [Iter = contiguous_iterator<int *>, Sent = contiguous_iterator<int *>, N = 6UL, Pred = (lambda at /root/project/RuyiTuner/third_party/train/llvm-project/libcxx/test/std/algorithms/alg.modifying.operations/alg.partitions/ranges_stable_partition.pass.cpp:130:17)]\00", align 1
@__PRETTY_FUNCTION__._Z8test_oneI19contiguous_iteratorIPiES2_Lm5EZ16test_iterators_2IS2_S2_EvvEUliE0_EvSt5arrayIiXT1_EET2_mS6_ = private unnamed_addr constant [335 x i8] c"void test_one(std::array<int, N>, Pred, std::size_t, std::array<int, N>) [Iter = contiguous_iterator<int *>, Sent = contiguous_iterator<int *>, N = 5UL, Pred = (lambda at /root/project/RuyiTuner/third_party/train/llvm-project/libcxx/test/std/algorithms/alg.modifying.operations/alg.partitions/ranges_stable_partition.pass.cpp:159:22)]\00", align 1
@__PRETTY_FUNCTION__._Z8test_oneI19contiguous_iteratorIPiE16sentinel_wrapperIS2_ELm0EZ16test_iterators_2IS2_S4_EvvEUliE_EvSt5arrayIiXT1_EET2_mS8_ = private unnamed_addr constant [353 x i8] c"void test_one(std::array<int, N>, Pred, std::size_t, std::array<int, N>) [Iter = contiguous_iterator<int *>, Sent = sentinel_wrapper<contiguous_iterator<int *>>, N = 0UL, Pred = (lambda at /root/project/RuyiTuner/third_party/train/llvm-project/libcxx/test/std/algorithms/alg.modifying.operations/alg.partitions/ranges_stable_partition.pass.cpp:130:17)]\00", align 1
@__PRETTY_FUNCTION__._Z8test_oneI19contiguous_iteratorIPiE16sentinel_wrapperIS2_ELm1EZ16test_iterators_2IS2_S4_EvvEUliE_EvSt5arrayIiXT1_EET2_mS8_ = private unnamed_addr constant [353 x i8] c"void test_one(std::array<int, N>, Pred, std::size_t, std::array<int, N>) [Iter = contiguous_iterator<int *>, Sent = sentinel_wrapper<contiguous_iterator<int *>>, N = 1UL, Pred = (lambda at /root/project/RuyiTuner/third_party/train/llvm-project/libcxx/test/std/algorithms/alg.modifying.operations/alg.partitions/ranges_stable_partition.pass.cpp:130:17)]\00", align 1
@__PRETTY_FUNCTION__._Z8test_oneI19contiguous_iteratorIPiE16sentinel_wrapperIS2_ELm2EZ16test_iterators_2IS2_S4_EvvEUliE_EvSt5arrayIiXT1_EET2_mS8_ = private unnamed_addr constant [353 x i8] c"void test_one(std::array<int, N>, Pred, std::size_t, std::array<int, N>) [Iter = contiguous_iterator<int *>, Sent = sentinel_wrapper<contiguous_iterator<int *>>, N = 2UL, Pred = (lambda at /root/project/RuyiTuner/third_party/train/llvm-project/libcxx/test/std/algorithms/alg.modifying.operations/alg.partitions/ranges_stable_partition.pass.cpp:130:17)]\00", align 1
@__PRETTY_FUNCTION__._Z8test_oneI19contiguous_iteratorIPiE16sentinel_wrapperIS2_ELm3EZ16test_iterators_2IS2_S4_EvvEUliE_EvSt5arrayIiXT1_EET2_mS8_ = private unnamed_addr constant [353 x i8] c"void test_one(std::array<int, N>, Pred, std::size_t, std::array<int, N>) [Iter = contiguous_iterator<int *>, Sent = sentinel_wrapper<contiguous_iterator<int *>>, N = 3UL, Pred = (lambda at /root/project/RuyiTuner/third_party/train/llvm-project/libcxx/test/std/algorithms/alg.modifying.operations/alg.partitions/ranges_stable_partition.pass.cpp:130:17)]\00", align 1
@__PRETTY_FUNCTION__._Z8test_oneI19contiguous_iteratorIPiE16sentinel_wrapperIS2_ELm8EZ16test_iterators_2IS2_S4_EvvEUliE_EvSt5arrayIiXT1_EET2_mS8_ = private unnamed_addr constant [353 x i8] c"void test_one(std::array<int, N>, Pred, std::size_t, std::array<int, N>) [Iter = contiguous_iterator<int *>, Sent = sentinel_wrapper<contiguous_iterator<int *>>, N = 8UL, Pred = (lambda at /root/project/RuyiTuner/third_party/train/llvm-project/libcxx/test/std/algorithms/alg.modifying.operations/alg.partitions/ranges_stable_partition.pass.cpp:130:17)]\00", align 1
@__PRETTY_FUNCTION__._Z8test_oneI19contiguous_iteratorIPiE16sentinel_wrapperIS2_ELm6EZ16test_iterators_2IS2_S4_EvvEUliE_EvSt5arrayIiXT1_EET2_mS8_ = private unnamed_addr constant [353 x i8] c"void test_one(std::array<int, N>, Pred, std::size_t, std::array<int, N>) [Iter = contiguous_iterator<int *>, Sent = sentinel_wrapper<contiguous_iterator<int *>>, N = 6UL, Pred = (lambda at /root/project/RuyiTuner/third_party/train/llvm-project/libcxx/test/std/algorithms/alg.modifying.operations/alg.partitions/ranges_stable_partition.pass.cpp:130:17)]\00", align 1
@__PRETTY_FUNCTION__._Z8test_oneI19contiguous_iteratorIPiE16sentinel_wrapperIS2_ELm5EZ16test_iterators_2IS2_S4_EvvEUliE0_EvSt5arrayIiXT1_EET2_mS8_ = private unnamed_addr constant [353 x i8] c"void test_one(std::array<int, N>, Pred, std::size_t, std::array<int, N>) [Iter = contiguous_iterator<int *>, Sent = sentinel_wrapper<contiguous_iterator<int *>>, N = 5UL, Pred = (lambda at /root/project/RuyiTuner/third_party/train/llvm-project/libcxx/test/std/algorithms/alg.modifying.operations/alg.partitions/ranges_stable_partition.pass.cpp:159:22)]\00", align 1
@__PRETTY_FUNCTION__._Z8test_oneIPiS0_Lm0EZ16test_iterators_2IS0_S0_EvvEUliE_EvSt5arrayIiXT1_EET2_mS4_ = private unnamed_addr constant [293 x i8] c"void test_one(std::array<int, N>, Pred, std::size_t, std::array<int, N>) [Iter = int *, Sent = int *, N = 0UL, Pred = (lambda at /root/project/RuyiTuner/third_party/train/llvm-project/libcxx/test/std/algorithms/alg.modifying.operations/alg.partitions/ranges_stable_partition.pass.cpp:130:17)]\00", align 1
@__PRETTY_FUNCTION__._Z8test_oneIPiS0_Lm1EZ16test_iterators_2IS0_S0_EvvEUliE_EvSt5arrayIiXT1_EET2_mS4_ = private unnamed_addr constant [293 x i8] c"void test_one(std::array<int, N>, Pred, std::size_t, std::array<int, N>) [Iter = int *, Sent = int *, N = 1UL, Pred = (lambda at /root/project/RuyiTuner/third_party/train/llvm-project/libcxx/test/std/algorithms/alg.modifying.operations/alg.partitions/ranges_stable_partition.pass.cpp:130:17)]\00", align 1
@__PRETTY_FUNCTION__._Z8test_oneIPiS0_Lm2EZ16test_iterators_2IS0_S0_EvvEUliE_EvSt5arrayIiXT1_EET2_mS4_ = private unnamed_addr constant [293 x i8] c"void test_one(std::array<int, N>, Pred, std::size_t, std::array<int, N>) [Iter = int *, Sent = int *, N = 2UL, Pred = (lambda at /root/project/RuyiTuner/third_party/train/llvm-project/libcxx/test/std/algorithms/alg.modifying.operations/alg.partitions/ranges_stable_partition.pass.cpp:130:17)]\00", align 1
@__PRETTY_FUNCTION__._Z8test_oneIPiS0_Lm3EZ16test_iterators_2IS0_S0_EvvEUliE_EvSt5arrayIiXT1_EET2_mS4_ = private unnamed_addr constant [293 x i8] c"void test_one(std::array<int, N>, Pred, std::size_t, std::array<int, N>) [Iter = int *, Sent = int *, N = 3UL, Pred = (lambda at /root/project/RuyiTuner/third_party/train/llvm-project/libcxx/test/std/algorithms/alg.modifying.operations/alg.partitions/ranges_stable_partition.pass.cpp:130:17)]\00", align 1
@__PRETTY_FUNCTION__._Z8test_oneIPiS0_Lm8EZ16test_iterators_2IS0_S0_EvvEUliE_EvSt5arrayIiXT1_EET2_mS4_ = private unnamed_addr constant [293 x i8] c"void test_one(std::array<int, N>, Pred, std::size_t, std::array<int, N>) [Iter = int *, Sent = int *, N = 8UL, Pred = (lambda at /root/project/RuyiTuner/third_party/train/llvm-project/libcxx/test/std/algorithms/alg.modifying.operations/alg.partitions/ranges_stable_partition.pass.cpp:130:17)]\00", align 1
@__PRETTY_FUNCTION__._Z8test_oneIPiS0_Lm6EZ16test_iterators_2IS0_S0_EvvEUliE_EvSt5arrayIiXT1_EET2_mS4_ = private unnamed_addr constant [293 x i8] c"void test_one(std::array<int, N>, Pred, std::size_t, std::array<int, N>) [Iter = int *, Sent = int *, N = 6UL, Pred = (lambda at /root/project/RuyiTuner/third_party/train/llvm-project/libcxx/test/std/algorithms/alg.modifying.operations/alg.partitions/ranges_stable_partition.pass.cpp:130:17)]\00", align 1
@__PRETTY_FUNCTION__._Z8test_oneIPiS0_Lm5EZ16test_iterators_2IS0_S0_EvvEUliE0_EvSt5arrayIiXT1_EET2_mS4_ = private unnamed_addr constant [293 x i8] c"void test_one(std::array<int, N>, Pred, std::size_t, std::array<int, N>) [Iter = int *, Sent = int *, N = 5UL, Pred = (lambda at /root/project/RuyiTuner/third_party/train/llvm-project/libcxx/test/std/algorithms/alg.modifying.operations/alg.partitions/ranges_stable_partition.pass.cpp:159:22)]\00", align 1
@constinit.97 = private unnamed_addr constant [8 x i32] [i32 2, i32 1, i32 3, i32 6, i32 8, i32 4, i32 11, i32 5], align 8
@constinit.98 = private unnamed_addr constant [8 x i32] [i32 1, i32 3, i32 11, i32 5, i32 2, i32 6, i32 8, i32 4], align 8
@constinit.99 = private unnamed_addr constant [8 x i32] [i32 2, i32 1, i32 3, i32 6, i32 2, i32 8, i32 1, i32 6], align 8
@constinit.100 = private unnamed_addr constant [8 x i32] [i32 1, i32 3, i32 1, i32 2, i32 6, i32 2, i32 8, i32 6], align 8
@constinit.103 = private unnamed_addr constant [6 x i32] [i32 4, i32 6, i32 8, i32 1, i32 3, i32 5], align 8
@constinit.104 = private unnamed_addr constant [6 x i32] [i32 1, i32 3, i32 5, i32 4, i32 6, i32 8], align 8
@constinit.105 = private unnamed_addr constant [6 x i32] [i32 1, i32 2, i32 1, i32 2, i32 1, i32 2], align 8
@constinit.106 = private unnamed_addr constant [6 x i32] [i32 1, i32 1, i32 1, i32 2, i32 2, i32 2], align 8
@constinit.107 = private unnamed_addr constant [5 x i32] [i32 -3, i32 5, i32 7, i32 -6, i32 2], align 8
@constinit.108 = private unnamed_addr constant [5 x i32] [i32 -3, i32 -6, i32 5, i32 7, i32 2], align 8
@__PRETTY_FUNCTION__._Z8test_oneIPi16sentinel_wrapperIS0_ELm0EZ16test_iterators_2IS0_S2_EvvEUliE_EvSt5arrayIiXT1_EET2_mS6_ = private unnamed_addr constant [311 x i8] c"void test_one(std::array<int, N>, Pred, std::size_t, std::array<int, N>) [Iter = int *, Sent = sentinel_wrapper<int *>, N = 0UL, Pred = (lambda at /root/project/RuyiTuner/third_party/train/llvm-project/libcxx/test/std/algorithms/alg.modifying.operations/alg.partitions/ranges_stable_partition.pass.cpp:130:17)]\00", align 1
@__PRETTY_FUNCTION__._Z8test_oneIPi16sentinel_wrapperIS0_ELm1EZ16test_iterators_2IS0_S2_EvvEUliE_EvSt5arrayIiXT1_EET2_mS6_ = private unnamed_addr constant [311 x i8] c"void test_one(std::array<int, N>, Pred, std::size_t, std::array<int, N>) [Iter = int *, Sent = sentinel_wrapper<int *>, N = 1UL, Pred = (lambda at /root/project/RuyiTuner/third_party/train/llvm-project/libcxx/test/std/algorithms/alg.modifying.operations/alg.partitions/ranges_stable_partition.pass.cpp:130:17)]\00", align 1
@__PRETTY_FUNCTION__._Z8test_oneIPi16sentinel_wrapperIS0_ELm2EZ16test_iterators_2IS0_S2_EvvEUliE_EvSt5arrayIiXT1_EET2_mS6_ = private unnamed_addr constant [311 x i8] c"void test_one(std::array<int, N>, Pred, std::size_t, std::array<int, N>) [Iter = int *, Sent = sentinel_wrapper<int *>, N = 2UL, Pred = (lambda at /root/project/RuyiTuner/third_party/train/llvm-project/libcxx/test/std/algorithms/alg.modifying.operations/alg.partitions/ranges_stable_partition.pass.cpp:130:17)]\00", align 1
@__PRETTY_FUNCTION__._Z8test_oneIPi16sentinel_wrapperIS0_ELm3EZ16test_iterators_2IS0_S2_EvvEUliE_EvSt5arrayIiXT1_EET2_mS6_ = private unnamed_addr constant [311 x i8] c"void test_one(std::array<int, N>, Pred, std::size_t, std::array<int, N>) [Iter = int *, Sent = sentinel_wrapper<int *>, N = 3UL, Pred = (lambda at /root/project/RuyiTuner/third_party/train/llvm-project/libcxx/test/std/algorithms/alg.modifying.operations/alg.partitions/ranges_stable_partition.pass.cpp:130:17)]\00", align 1
@__PRETTY_FUNCTION__._Z8test_oneIPi16sentinel_wrapperIS0_ELm8EZ16test_iterators_2IS0_S2_EvvEUliE_EvSt5arrayIiXT1_EET2_mS6_ = private unnamed_addr constant [311 x i8] c"void test_one(std::array<int, N>, Pred, std::size_t, std::array<int, N>) [Iter = int *, Sent = sentinel_wrapper<int *>, N = 8UL, Pred = (lambda at /root/project/RuyiTuner/third_party/train/llvm-project/libcxx/test/std/algorithms/alg.modifying.operations/alg.partitions/ranges_stable_partition.pass.cpp:130:17)]\00", align 1
@__PRETTY_FUNCTION__._Z8test_oneIPi16sentinel_wrapperIS0_ELm6EZ16test_iterators_2IS0_S2_EvvEUliE_EvSt5arrayIiXT1_EET2_mS6_ = private unnamed_addr constant [311 x i8] c"void test_one(std::array<int, N>, Pred, std::size_t, std::array<int, N>) [Iter = int *, Sent = sentinel_wrapper<int *>, N = 6UL, Pred = (lambda at /root/project/RuyiTuner/third_party/train/llvm-project/libcxx/test/std/algorithms/alg.modifying.operations/alg.partitions/ranges_stable_partition.pass.cpp:130:17)]\00", align 1
@__PRETTY_FUNCTION__._Z8test_oneIPi16sentinel_wrapperIS0_ELm5EZ16test_iterators_2IS0_S2_EvvEUliE0_EvSt5arrayIiXT1_EET2_mS6_ = private unnamed_addr constant [311 x i8] c"void test_one(std::array<int, N>, Pred, std::size_t, std::array<int, N>) [Iter = int *, Sent = sentinel_wrapper<int *>, N = 5UL, Pred = (lambda at /root/project/RuyiTuner/third_party/train/llvm-project/libcxx/test/std/algorithms/alg.modifying.operations/alg.partitions/ranges_stable_partition.pass.cpp:159:22)]\00", align 1

; Function Attrs: mustprogress uwtable
define dso_local void @_Z14test_iteratorsv() local_unnamed_addr #0 {
  tail call void @_Z16test_iterators_2I22bidirectional_iteratorIPiES2_Evv()
  tail call void @_Z16test_iterators_2I22bidirectional_iteratorIPiE16sentinel_wrapperIS2_EEvv()
  tail call void @_Z16test_iterators_2I22random_access_iteratorIPiES2_Evv()
  tail call void @_Z16test_iterators_2I22random_access_iteratorIPiE16sentinel_wrapperIS2_EEvv()
  tail call void @_Z16test_iterators_2I19contiguous_iteratorIPiES2_Evv()
  tail call void @_Z16test_iterators_2I19contiguous_iteratorIPiE16sentinel_wrapperIS2_EEvv()
  tail call void @_Z16test_iterators_2IPiS0_Evv()
  tail call void @_Z16test_iterators_2IPi16sentinel_wrapperIS0_EEvv()
  ret void
}

; Function Attrs: mustprogress uwtable
define dso_local noundef zeroext i1 @_Z4testv() local_unnamed_addr #0 personality ptr @__gxx_personality_v0 {
  %1 = alloca %"struct.std::array", align 8
  %2 = alloca %"struct.std::array", align 8
  %3 = alloca %"struct.std::array.0", align 8
  %4 = alloca %"struct.std::array.0", align 8
  %5 = alloca %"struct.std::array.0", align 8
  %6 = alloca %"struct.std::array.0", align 8
  tail call void @_Z16test_iterators_2I22bidirectional_iteratorIPiES2_Evv()
  tail call void @_Z16test_iterators_2I22bidirectional_iteratorIPiE16sentinel_wrapperIS2_EEvv()
  tail call void @_Z16test_iterators_2I22random_access_iteratorIPiES2_Evv()
  tail call void @_Z16test_iterators_2I22random_access_iteratorIPiE16sentinel_wrapperIS2_EEvv()
  tail call void @_Z16test_iterators_2I19contiguous_iteratorIPiES2_Evv()
  tail call void @_Z16test_iterators_2I19contiguous_iteratorIPiE16sentinel_wrapperIS2_EEvv()
  tail call void @_Z16test_iterators_2IPiS0_Evv()
  tail call void @_Z16test_iterators_2IPi16sentinel_wrapperIS0_EEvv()
  call void @llvm.lifetime.start.p0(ptr nonnull %1) #12
  call void @llvm.memcpy.p0.p0.i64(ptr noundef nonnull align 8 dereferenceable(320) %1, ptr noundef nonnull align 8 dereferenceable(320) @__const._Z4testv.orig_in, i64 320, i1 false), !tbaa.struct !5
  %7 = getelementptr inbounds nuw i8, ptr %1, i64 320
  call fastcc void @"_ZNKSt6ranges21__stable_partition_fnclITkSt22bidirectional_iteratorPZ4testvE12OrderedValueTkSt12sentinel_forIT_ES3_St8identityTkSt24indirect_unary_predicateINSt8__detail11__projectedIS5_T1_E6__typeEEZ4testvE3$_0Q10permutableIS5_EEENS_8subrangeIS5_S5_Xqu18sized_sentinel_forIS5_S5_ELNS_13subrange_kindE1ELSF_0EEEES5_T0_T2_SA_"(ptr noundef %1, ptr noundef %7)
  br label %8

8:                                                ; preds = %8, %0
  %9 = phi ptr [ @__const._Z4testv.expected, %0 ], [ %22, %8 ]
  %10 = phi i64 [ 0, %0 ], [ %21, %8 ]
  %11 = getelementptr inbounds nuw i8, ptr %1, i64 %10
  %12 = load i32, ptr %11, align 8, !tbaa !9
  %13 = load i32, ptr %9, align 8, !tbaa !9
  %14 = icmp eq i32 %12, %13
  %15 = getelementptr inbounds nuw i8, ptr %11, i64 8
  %16 = load double, ptr %15, align 8
  %17 = getelementptr inbounds nuw i8, ptr %9, i64 8
  %18 = load double, ptr %17, align 8
  %19 = fcmp oeq double %16, %18
  %20 = select i1 %14, i1 %19, i1 false
  %21 = add nuw nsw i64 %10, 16
  %22 = getelementptr inbounds nuw i8, ptr %9, i64 16
  %23 = icmp ne i64 %21, 320
  %24 = select i1 %20, i1 %23, i1 false
  br i1 %24, label %8, label %25, !llvm.loop !13

25:                                               ; preds = %8
  br i1 %20, label %27, label %26

26:                                               ; preds = %25
  call void @__assert_fail(ptr noundef nonnull @.str, ptr noundef nonnull @.str.1, i32 noundef 203, ptr noundef nonnull @__PRETTY_FUNCTION__._Z4testv) #13
  unreachable

27:                                               ; preds = %25
  call void @llvm.lifetime.end.p0(ptr nonnull %1) #12
  call void @llvm.lifetime.start.p0(ptr nonnull %2) #12
  call void @llvm.memcpy.p0.p0.i64(ptr noundef nonnull align 8 dereferenceable(320) %2, ptr noundef nonnull align 8 dereferenceable(320) @__const._Z4testv.orig_in, i64 320, i1 false), !tbaa.struct !5
  %28 = getelementptr inbounds nuw i8, ptr %2, i64 320
  call fastcc void @"_ZNKSt6ranges21__stable_partition_fnclITkSt22bidirectional_iteratorPZ4testvE12OrderedValueTkSt12sentinel_forIT_ES3_St8identityTkSt24indirect_unary_predicateINSt8__detail11__projectedIS5_T1_E6__typeEEZ4testvE3$_0Q10permutableIS5_EEENS_8subrangeIS5_S5_Xqu18sized_sentinel_forIS5_S5_ELNS_13subrange_kindE1ELSF_0EEEES5_T0_T2_SA_"(ptr noundef nonnull align 8 dereferenceable(320) %2, ptr noundef %28)
  br label %29

29:                                               ; preds = %29, %27
  %30 = phi ptr [ @__const._Z4testv.expected, %27 ], [ %43, %29 ]
  %31 = phi i64 [ 0, %27 ], [ %42, %29 ]
  %32 = getelementptr inbounds nuw i8, ptr %2, i64 %31
  %33 = load i32, ptr %32, align 8, !tbaa !9
  %34 = load i32, ptr %30, align 8, !tbaa !9
  %35 = icmp eq i32 %33, %34
  %36 = getelementptr inbounds nuw i8, ptr %32, i64 8
  %37 = load double, ptr %36, align 8
  %38 = getelementptr inbounds nuw i8, ptr %30, i64 8
  %39 = load double, ptr %38, align 8
  %40 = fcmp oeq double %37, %39
  %41 = select i1 %35, i1 %40, i1 false
  %42 = add nuw nsw i64 %31, 16
  %43 = getelementptr inbounds nuw i8, ptr %30, i64 16
  %44 = icmp ne i64 %42, 320
  %45 = select i1 %41, i1 %44, i1 false
  br i1 %45, label %29, label %46, !llvm.loop !13

46:                                               ; preds = %29
  br i1 %41, label %48, label %47

47:                                               ; preds = %46
  call void @__assert_fail(ptr noundef nonnull @.str, ptr noundef nonnull @.str.1, i32 noundef 209, ptr noundef nonnull @__PRETTY_FUNCTION__._Z4testv) #13
  unreachable

48:                                               ; preds = %46
  call void @llvm.lifetime.end.p0(ptr nonnull %2) #12
  call void @llvm.lifetime.start.p0(ptr nonnull %3) #12
  store i64 -4294967295, ptr %3, align 8
  %49 = getelementptr inbounds nuw i8, ptr %3, i64 8
  br label %50

50:                                               ; preds = %48, %67
  %51 = phi ptr [ %62, %67 ], [ %49, %48 ]
  %52 = phi ptr [ %68, %67 ], [ %3, %48 ]
  br label %53

53:                                               ; preds = %57, %50
  %54 = phi ptr [ %52, %50 ], [ %58, %57 ]
  %55 = load i32, ptr %54, align 4, !tbaa !15
  %56 = icmp slt i32 %55, 0
  br i1 %56, label %57, label %60

57:                                               ; preds = %53
  %58 = getelementptr inbounds nuw i8, ptr %54, i64 4
  %59 = icmp eq ptr %58, %51
  br i1 %59, label %70, label %53, !llvm.loop !16

60:                                               ; preds = %53, %64
  %61 = phi ptr [ %62, %64 ], [ %51, %53 ]
  %62 = getelementptr inbounds i8, ptr %61, i64 -4
  %63 = icmp eq ptr %54, %62
  br i1 %63, label %70, label %64

64:                                               ; preds = %60
  %65 = load i32, ptr %62, align 4, !tbaa !15
  %66 = icmp slt i32 %65, 0
  br i1 %66, label %67, label %60, !llvm.loop !17

67:                                               ; preds = %64
  store i32 %65, ptr %54, align 4, !tbaa !15
  store i32 %55, ptr %62, align 4, !tbaa !15
  %68 = getelementptr inbounds nuw i8, ptr %54, i64 4
  %69 = icmp eq ptr %68, %62
  br i1 %69, label %70, label %50, !llvm.loop !18

70:                                               ; preds = %67, %57, %60
  %71 = load i64, ptr %3, align 8
  %72 = icmp eq i64 %71, 8589934591
  br i1 %72, label %74, label %73

73:                                               ; preds = %70
  call void @__assert_fail(ptr noundef nonnull @.str.2, ptr noundef nonnull @.str.1, i32 noundef 224, ptr noundef nonnull @__PRETTY_FUNCTION__._Z4testv) #13
  unreachable

74:                                               ; preds = %70
  call void @llvm.lifetime.end.p0(ptr nonnull %3) #12
  call void @llvm.lifetime.start.p0(ptr nonnull %4) #12
  store i64 -4294967295, ptr %4, align 8
  %75 = getelementptr inbounds nuw i8, ptr %4, i64 8
  br label %76

76:                                               ; preds = %74, %93
  %77 = phi ptr [ %88, %93 ], [ %75, %74 ]
  %78 = phi ptr [ %94, %93 ], [ %4, %74 ]
  br label %79

79:                                               ; preds = %83, %76
  %80 = phi ptr [ %78, %76 ], [ %84, %83 ]
  %81 = load i32, ptr %80, align 4, !tbaa !15
  %82 = icmp sgt i32 %81, 0
  br i1 %82, label %83, label %86

83:                                               ; preds = %79
  %84 = getelementptr inbounds nuw i8, ptr %80, i64 4
  %85 = icmp eq ptr %84, %77
  br i1 %85, label %96, label %79, !llvm.loop !19

86:                                               ; preds = %79, %90
  %87 = phi ptr [ %88, %90 ], [ %77, %79 ]
  %88 = getelementptr inbounds i8, ptr %87, i64 -4
  %89 = icmp eq ptr %80, %88
  br i1 %89, label %96, label %90

90:                                               ; preds = %86
  %91 = load i32, ptr %88, align 4, !tbaa !15
  %92 = icmp sgt i32 %91, 0
  br i1 %92, label %93, label %86, !llvm.loop !20

93:                                               ; preds = %90
  store i32 %91, ptr %80, align 4, !tbaa !15
  store i32 %81, ptr %88, align 4, !tbaa !15
  %94 = getelementptr inbounds nuw i8, ptr %80, i64 4
  %95 = icmp eq ptr %94, %88
  br i1 %95, label %96, label %76, !llvm.loop !21

96:                                               ; preds = %93, %83, %86
  %97 = load i64, ptr %4, align 8
  %98 = icmp eq i64 %97, -4294967295
  br i1 %98, label %100, label %99

99:                                               ; preds = %96
  call void @__assert_fail(ptr noundef nonnull @.str.4, ptr noundef nonnull @.str.1, i32 noundef 229, ptr noundef nonnull @__PRETTY_FUNCTION__._Z4testv) #13
  unreachable

100:                                              ; preds = %96
  call void @llvm.lifetime.end.p0(ptr nonnull %4) #12
  call void @llvm.lifetime.start.p0(ptr nonnull %5) #12
  store i64 -4294967295, ptr %5, align 8
  %101 = getelementptr inbounds nuw i8, ptr %5, i64 8
  br label %102

102:                                              ; preds = %119, %100
  %103 = phi ptr [ %114, %119 ], [ %101, %100 ]
  %104 = phi ptr [ %120, %119 ], [ %5, %100 ]
  br label %105

105:                                              ; preds = %109, %102
  %106 = phi ptr [ %104, %102 ], [ %110, %109 ]
  %107 = load i32, ptr %106, align 4, !tbaa !15
  %108 = icmp slt i32 %107, 0
  br i1 %108, label %109, label %112

109:                                              ; preds = %105
  %110 = getelementptr inbounds nuw i8, ptr %106, i64 4
  %111 = icmp eq ptr %110, %103
  br i1 %111, label %122, label %105, !llvm.loop !16

112:                                              ; preds = %105, %116
  %113 = phi ptr [ %114, %116 ], [ %103, %105 ]
  %114 = getelementptr inbounds i8, ptr %113, i64 -4
  %115 = icmp eq ptr %106, %114
  br i1 %115, label %122, label %116

116:                                              ; preds = %112
  %117 = load i32, ptr %114, align 4, !tbaa !15
  %118 = icmp slt i32 %117, 0
  br i1 %118, label %119, label %112, !llvm.loop !17

119:                                              ; preds = %116
  store i32 %117, ptr %106, align 4, !tbaa !15
  store i32 %107, ptr %114, align 4, !tbaa !15
  %120 = getelementptr inbounds nuw i8, ptr %106, i64 4
  %121 = icmp eq ptr %120, %114
  br i1 %121, label %122, label %102, !llvm.loop !18

122:                                              ; preds = %119, %109, %112
  %123 = load i64, ptr %5, align 8
  %124 = icmp eq i64 %123, 8589934591
  br i1 %124, label %126, label %125

125:                                              ; preds = %122
  call void @__assert_fail(ptr noundef nonnull @.str.2, ptr noundef nonnull @.str.1, i32 noundef 237, ptr noundef nonnull @__PRETTY_FUNCTION__._Z4testv) #13
  unreachable

126:                                              ; preds = %122
  call void @llvm.lifetime.end.p0(ptr nonnull %5) #12
  call void @llvm.lifetime.start.p0(ptr nonnull %6) #12
  store i64 -4294967295, ptr %6, align 8
  %127 = getelementptr inbounds nuw i8, ptr %6, i64 8
  br label %128

128:                                              ; preds = %145, %126
  %129 = phi ptr [ %140, %145 ], [ %127, %126 ]
  %130 = phi ptr [ %146, %145 ], [ %6, %126 ]
  br label %131

131:                                              ; preds = %135, %128
  %132 = phi ptr [ %130, %128 ], [ %136, %135 ]
  %133 = load i32, ptr %132, align 4, !tbaa !15
  %134 = icmp sgt i32 %133, 0
  br i1 %134, label %135, label %138

135:                                              ; preds = %131
  %136 = getelementptr inbounds nuw i8, ptr %132, i64 4
  %137 = icmp eq ptr %136, %129
  br i1 %137, label %148, label %131, !llvm.loop !19

138:                                              ; preds = %131, %142
  %139 = phi ptr [ %140, %142 ], [ %129, %131 ]
  %140 = getelementptr inbounds i8, ptr %139, i64 -4
  %141 = icmp eq ptr %132, %140
  br i1 %141, label %148, label %142

142:                                              ; preds = %138
  %143 = load i32, ptr %140, align 4, !tbaa !15
  %144 = icmp sgt i32 %143, 0
  br i1 %144, label %145, label %138, !llvm.loop !20

145:                                              ; preds = %142
  store i32 %143, ptr %132, align 4, !tbaa !15
  store i32 %133, ptr %140, align 4, !tbaa !15
  %146 = getelementptr inbounds nuw i8, ptr %132, i64 4
  %147 = icmp eq ptr %146, %140
  br i1 %147, label %148, label %128, !llvm.loop !21

148:                                              ; preds = %145, %135, %138
  %149 = load i64, ptr %6, align 8
  %150 = icmp eq i64 %149, -4294967295
  br i1 %150, label %152, label %151

151:                                              ; preds = %148
  call void @__assert_fail(ptr noundef nonnull @.str.4, ptr noundef nonnull @.str.1, i32 noundef 242, ptr noundef nonnull @__PRETTY_FUNCTION__._Z4testv) #13
  unreachable

152:                                              ; preds = %148
  call void @llvm.lifetime.end.p0(ptr nonnull %6) #12
  ret i1 true
}

; Function Attrs: mustprogress nocallback nofree nosync nounwind willreturn memory(argmem: readwrite)
declare void @llvm.lifetime.start.p0(ptr captures(none)) #1

; Function Attrs: mustprogress nocallback nofree nounwind willreturn memory(argmem: readwrite)
declare void @llvm.memcpy.p0.p0.i64(ptr noalias writeonly captures(none), ptr noalias readonly captures(none), i64, i1 immarg) #2

; Function Attrs: mustprogress nounwind uwtable
define internal fastcc void @"_ZNKSt6ranges21__stable_partition_fnclITkSt22bidirectional_iteratorPZ4testvE12OrderedValueTkSt12sentinel_forIT_ES3_St8identityTkSt24indirect_unary_predicateINSt8__detail11__projectedIS5_T1_E6__typeEEZ4testvE3$_0Q10permutableIS5_EEENS_8subrangeIS5_S5_Xqu18sized_sentinel_forIS5_S5_ELNS_13subrange_kindE1ELSF_0EEEES5_T0_T2_SA_"(ptr noundef nonnull %0, ptr noundef nonnull %1) unnamed_addr #3 align 2 personality ptr @__gxx_personality_v0 {
  %3 = ptrtoint ptr %1 to i64
  %4 = ptrtoint ptr %0 to i64
  %5 = sub i64 %3, %4
  %6 = ashr i64 %5, 6
  %7 = icmp sgt i64 %6, 0
  br i1 %7, label %8, label %39

8:                                                ; preds = %2
  %9 = and i64 %5, -64
  %10 = getelementptr i8, ptr %0, i64 %9
  br label %11

11:                                               ; preds = %32, %8
  %12 = phi i64 [ %34, %32 ], [ %6, %8 ]
  %13 = phi ptr [ %33, %32 ], [ %0, %8 ]
  %14 = load i32, ptr %13, align 8, !tbaa !15
  %15 = and i32 %14, 1
  %16 = icmp eq i32 %15, 0
  br i1 %16, label %67, label %17

17:                                               ; preds = %11
  %18 = getelementptr inbounds nuw i8, ptr %13, i64 16
  %19 = load i32, ptr %18, align 8, !tbaa !15
  %20 = and i32 %19, 1
  %21 = icmp eq i32 %20, 0
  br i1 %21, label %61, label %22

22:                                               ; preds = %17
  %23 = getelementptr inbounds nuw i8, ptr %13, i64 32
  %24 = load i32, ptr %23, align 8, !tbaa !15
  %25 = and i32 %24, 1
  %26 = icmp eq i32 %25, 0
  br i1 %26, label %63, label %27

27:                                               ; preds = %22
  %28 = getelementptr inbounds nuw i8, ptr %13, i64 48
  %29 = load i32, ptr %28, align 8, !tbaa !15
  %30 = and i32 %29, 1
  %31 = icmp eq i32 %30, 0
  br i1 %31, label %65, label %32

32:                                               ; preds = %27
  %33 = getelementptr inbounds nuw i8, ptr %13, i64 64
  %34 = add nsw i64 %12, -1
  %35 = icmp sgt i64 %12, 1
  br i1 %35, label %11, label %36, !llvm.loop !22

36:                                               ; preds = %32
  %37 = ptrtoint ptr %10 to i64
  %38 = sub i64 %3, %37
  br label %39

39:                                               ; preds = %36, %2
  %40 = phi i64 [ %38, %36 ], [ %5, %2 ]
  %41 = phi ptr [ %10, %36 ], [ %0, %2 ]
  %42 = ashr exact i64 %40, 4
  switch i64 %42, label %89 [
    i64 3, label %43
    i64 2, label %49
    i64 1, label %56
  ]

43:                                               ; preds = %39
  %44 = load i32, ptr %41, align 8, !tbaa !15
  %45 = and i32 %44, 1
  %46 = icmp eq i32 %45, 0
  br i1 %46, label %67, label %47

47:                                               ; preds = %43
  %48 = getelementptr inbounds nuw i8, ptr %41, i64 16
  br label %49

49:                                               ; preds = %47, %39
  %50 = phi ptr [ %48, %47 ], [ %41, %39 ]
  %51 = load i32, ptr %50, align 8, !tbaa !15
  %52 = and i32 %51, 1
  %53 = icmp eq i32 %52, 0
  br i1 %53, label %67, label %54

54:                                               ; preds = %49
  %55 = getelementptr inbounds nuw i8, ptr %50, i64 16
  br label %56

56:                                               ; preds = %54, %39
  %57 = phi ptr [ %55, %54 ], [ %41, %39 ]
  %58 = load i32, ptr %57, align 8, !tbaa !15
  %59 = and i32 %58, 1
  %60 = icmp eq i32 %59, 0
  br i1 %60, label %67, label %89

61:                                               ; preds = %17
  %62 = getelementptr inbounds nuw i8, ptr %13, i64 16
  br label %67

63:                                               ; preds = %22
  %64 = getelementptr inbounds nuw i8, ptr %13, i64 32
  br label %67

65:                                               ; preds = %27
  %66 = getelementptr inbounds nuw i8, ptr %13, i64 48
  br label %67

67:                                               ; preds = %11, %61, %63, %65, %56, %49, %43
  %68 = phi ptr [ %41, %43 ], [ %50, %49 ], [ %57, %56 ], [ %62, %61 ], [ %64, %63 ], [ %66, %65 ], [ %13, %11 ]
  %69 = icmp eq ptr %68, %1
  br i1 %69, label %89, label %70

70:                                               ; preds = %67
  %71 = ptrtoint ptr %68 to i64
  %72 = sub i64 %3, %71
  %73 = ashr exact i64 %72, 4
  %74 = icmp sgt i64 %73, 0
  br i1 %74, label %75, label %84

75:                                               ; preds = %70, %80
  %76 = phi i64 [ %82, %80 ], [ %73, %70 ]
  %77 = shl nuw nsw i64 %76, 4
  %78 = tail call noalias noundef ptr @_ZnwmRKSt9nothrow_t(i64 noundef %77, ptr noundef nonnull align 1 dereferenceable(1) @_ZSt7nothrow) #14
  %79 = icmp eq ptr %78, null
  br i1 %79, label %80, label %84

80:                                               ; preds = %75
  %81 = add nuw nsw i64 %76, 1
  %82 = lshr i64 %81, 1
  %83 = icmp samesign ult i64 %76, 2
  br i1 %83, label %84, label %75, !llvm.loop !23

84:                                               ; preds = %80, %75, %70
  %85 = phi ptr [ null, %70 ], [ %78, %75 ], [ null, %80 ]
  %86 = phi i64 [ 0, %70 ], [ %76, %75 ], [ 0, %80 ]
  %87 = tail call fastcc noundef ptr @"_ZSt27__stable_partition_adaptiveIPZ4testvE12OrderedValueS1_N9__gnu_cxx5__ops10_Iter_predIZNSt6ranges8__detail16__make_pred_projIZ4testvE3$_0St8identityEEDaRT_RT0_EUlTyOSA_E_EElESA_SA_SA_T1_T2_SC_SI_"(ptr noundef nonnull %68, ptr noundef nonnull %1, i64 noundef %73, ptr noundef %85, i64 noundef %86)
  %88 = shl nuw nsw i64 %86, 4
  tail call void @_ZdlPvm(ptr noundef %85, i64 noundef %88) #12
  br label %89

89:                                               ; preds = %39, %56, %67, %84
  ret void
}

; Function Attrs: noreturn nounwind
declare void @__assert_fail(ptr noundef, ptr noundef, i32 noundef, ptr noundef) local_unnamed_addr #4

; Function Attrs: mustprogress nocallback nofree nosync nounwind willreturn memory(argmem: readwrite)
declare void @llvm.lifetime.end.p0(ptr captures(none)) #1

; Function Attrs: mustprogress norecurse uwtable
define dso_local noundef i32 @main(i32 noundef %0, ptr noundef readnone captures(none) %1) local_unnamed_addr #5 {
  %3 = tail call noundef zeroext i1 @_Z4testv()
  ret i32 0
}

declare i32 @__gxx_personality_v0(...)

; Function Attrs: mustprogress uwtable
define linkonce_odr dso_local void @_Z16test_iterators_2I22bidirectional_iteratorIPiES2_Evv() local_unnamed_addr #0 comdat {
  tail call void @_Z8test_oneI22bidirectional_iteratorIPiES2_Lm0EZ16test_iterators_2IS2_S2_EvvEUliE_EvSt5arrayIiXT1_EET2_mS6_(i64 noundef 0)
  tail call void @_Z8test_oneI22bidirectional_iteratorIPiES2_Lm1EZ16test_iterators_2IS2_S2_EvvEUliE_EvSt5arrayIiXT1_EET2_mS6_(i32 1, i64 noundef 1, i32 1)
  tail call void @_Z8test_oneI22bidirectional_iteratorIPiES2_Lm1EZ16test_iterators_2IS2_S2_EvvEUliE_EvSt5arrayIiXT1_EET2_mS6_(i32 2, i64 noundef 0, i32 2)
  tail call void @_Z8test_oneI22bidirectional_iteratorIPiES2_Lm2EZ16test_iterators_2IS2_S2_EvvEUliE_EvSt5arrayIiXT1_EET2_mS6_(i64 4294967298, i64 noundef 1, i64 8589934593)
  tail call void @_Z8test_oneI22bidirectional_iteratorIPiES2_Lm2EZ16test_iterators_2IS2_S2_EvvEUliE_EvSt5arrayIiXT1_EET2_mS6_(i64 8589934593, i64 noundef 1, i64 8589934593)
  tail call void @_Z8test_oneI22bidirectional_iteratorIPiES2_Lm3EZ16test_iterators_2IS2_S2_EvvEUliE_EvSt5arrayIiXT1_EET2_mS6_(i64 4294967298, i32 3, i64 noundef 2, i64 12884901889, i32 2)
  tail call void @_Z8test_oneI22bidirectional_iteratorIPiES2_Lm8EZ16test_iterators_2IS2_S2_EvvEUliE_EvSt5arrayIiXT1_EET2_mS6_(ptr noundef nonnull byval(%"struct.std::array.12") align 8 @constinit.97, i64 noundef 4, ptr noundef nonnull byval(%"struct.std::array.12") align 8 @constinit.98)
  tail call void @_Z8test_oneI22bidirectional_iteratorIPiES2_Lm8EZ16test_iterators_2IS2_S2_EvvEUliE_EvSt5arrayIiXT1_EET2_mS6_(ptr noundef nonnull byval(%"struct.std::array.12") align 8 @constinit.99, i64 noundef 3, ptr noundef nonnull byval(%"struct.std::array.12") align 8 @constinit.100)
  tail call void @_Z8test_oneI22bidirectional_iteratorIPiES2_Lm3EZ16test_iterators_2IS2_S2_EvvEUliE_EvSt5arrayIiXT1_EET2_mS6_(i64 4294967297, i32 1, i64 noundef 3, i64 4294967297, i32 1)
  tail call void @_Z8test_oneI22bidirectional_iteratorIPiES2_Lm3EZ16test_iterators_2IS2_S2_EvvEUliE_EvSt5arrayIiXT1_EET2_mS6_(i64 8589934594, i32 2, i64 noundef 0, i64 8589934594, i32 2)
  tail call void @_Z8test_oneI22bidirectional_iteratorIPiES2_Lm6EZ16test_iterators_2IS2_S2_EvvEUliE_EvSt5arrayIiXT1_EET2_mS6_(ptr noundef nonnull byval(%"struct.std::array.13") align 8 @constinit.104, i64 noundef 3, ptr noundef nonnull byval(%"struct.std::array.13") align 8 @constinit.104)
  tail call void @_Z8test_oneI22bidirectional_iteratorIPiES2_Lm6EZ16test_iterators_2IS2_S2_EvvEUliE_EvSt5arrayIiXT1_EET2_mS6_(ptr noundef nonnull byval(%"struct.std::array.13") align 8 @constinit.103, i64 noundef 3, ptr noundef nonnull byval(%"struct.std::array.13") align 8 @constinit.104)
  tail call void @_Z8test_oneI22bidirectional_iteratorIPiES2_Lm6EZ16test_iterators_2IS2_S2_EvvEUliE_EvSt5arrayIiXT1_EET2_mS6_(ptr noundef nonnull byval(%"struct.std::array.13") align 8 @constinit.105, i64 noundef 3, ptr noundef nonnull byval(%"struct.std::array.13") align 8 @constinit.106)
  tail call void @_Z8test_oneI22bidirectional_iteratorIPiES2_Lm5EZ16test_iterators_2IS2_S2_EvvEUliE0_EvSt5arrayIiXT1_EET2_mS6_(ptr noundef nonnull byval(%"struct.std::array.16") align 8 @constinit.107, i64 noundef 2, ptr noundef nonnull byval(%"struct.std::array.16") align 8 @constinit.108)
  ret void
}

; Function Attrs: mustprogress uwtable
define linkonce_odr dso_local void @_Z16test_iterators_2I22bidirectional_iteratorIPiE16sentinel_wrapperIS2_EEvv() local_unnamed_addr #0 comdat {
  tail call void @_Z8test_oneI22bidirectional_iteratorIPiE16sentinel_wrapperIS2_ELm0EZ16test_iterators_2IS2_S4_EvvEUliE_EvSt5arrayIiXT1_EET2_mS8_(i64 noundef 0)
  tail call void @_Z8test_oneI22bidirectional_iteratorIPiE16sentinel_wrapperIS2_ELm1EZ16test_iterators_2IS2_S4_EvvEUliE_EvSt5arrayIiXT1_EET2_mS8_(i32 1, i64 noundef 1, i32 1)
  tail call void @_Z8test_oneI22bidirectional_iteratorIPiE16sentinel_wrapperIS2_ELm1EZ16test_iterators_2IS2_S4_EvvEUliE_EvSt5arrayIiXT1_EET2_mS8_(i32 2, i64 noundef 0, i32 2)
  tail call void @_Z8test_oneI22bidirectional_iteratorIPiE16sentinel_wrapperIS2_ELm2EZ16test_iterators_2IS2_S4_EvvEUliE_EvSt5arrayIiXT1_EET2_mS8_(i64 4294967298, i64 noundef 1, i64 8589934593)
  tail call void @_Z8test_oneI22bidirectional_iteratorIPiE16sentinel_wrapperIS2_ELm2EZ16test_iterators_2IS2_S4_EvvEUliE_EvSt5arrayIiXT1_EET2_mS8_(i64 8589934593, i64 noundef 1, i64 8589934593)
  tail call void @_Z8test_oneI22bidirectional_iteratorIPiE16sentinel_wrapperIS2_ELm3EZ16test_iterators_2IS2_S4_EvvEUliE_EvSt5arrayIiXT1_EET2_mS8_(i64 4294967298, i32 3, i64 noundef 2, i64 12884901889, i32 2)
  tail call void @_Z8test_oneI22bidirectional_iteratorIPiE16sentinel_wrapperIS2_ELm8EZ16test_iterators_2IS2_S4_EvvEUliE_EvSt5arrayIiXT1_EET2_mS8_(ptr noundef nonnull byval(%"struct.std::array.12") align 8 @constinit.97, i64 noundef 4, ptr noundef nonnull byval(%"struct.std::array.12") align 8 @constinit.98)
  tail call void @_Z8test_oneI22bidirectional_iteratorIPiE16sentinel_wrapperIS2_ELm8EZ16test_iterators_2IS2_S4_EvvEUliE_EvSt5arrayIiXT1_EET2_mS8_(ptr noundef nonnull byval(%"struct.std::array.12") align 8 @constinit.99, i64 noundef 3, ptr noundef nonnull byval(%"struct.std::array.12") align 8 @constinit.100)
  tail call void @_Z8test_oneI22bidirectional_iteratorIPiE16sentinel_wrapperIS2_ELm3EZ16test_iterators_2IS2_S4_EvvEUliE_EvSt5arrayIiXT1_EET2_mS8_(i64 4294967297, i32 1, i64 noundef 3, i64 4294967297, i32 1)
  tail call void @_Z8test_oneI22bidirectional_iteratorIPiE16sentinel_wrapperIS2_ELm3EZ16test_iterators_2IS2_S4_EvvEUliE_EvSt5arrayIiXT1_EET2_mS8_(i64 8589934594, i32 2, i64 noundef 0, i64 8589934594, i32 2)
  tail call void @_Z8test_oneI22bidirectional_iteratorIPiE16sentinel_wrapperIS2_ELm6EZ16test_iterators_2IS2_S4_EvvEUliE_EvSt5arrayIiXT1_EET2_mS8_(ptr noundef nonnull byval(%"struct.std::array.13") align 8 @constinit.104, i64 noundef 3, ptr noundef nonnull byval(%"struct.std::array.13") align 8 @constinit.104)
  tail call void @_Z8test_oneI22bidirectional_iteratorIPiE16sentinel_wrapperIS2_ELm6EZ16test_iterators_2IS2_S4_EvvEUliE_EvSt5arrayIiXT1_EET2_mS8_(ptr noundef nonnull byval(%"struct.std::array.13") align 8 @constinit.103, i64 noundef 3, ptr noundef nonnull byval(%"struct.std::array.13") align 8 @constinit.104)
  tail call void @_Z8test_oneI22bidirectional_iteratorIPiE16sentinel_wrapperIS2_ELm6EZ16test_iterators_2IS2_S4_EvvEUliE_EvSt5arrayIiXT1_EET2_mS8_(ptr noundef nonnull byval(%"struct.std::array.13") align 8 @constinit.105, i64 noundef 3, ptr noundef nonnull byval(%"struct.std::array.13") align 8 @constinit.106)
  tail call void @_Z8test_oneI22bidirectional_iteratorIPiE16sentinel_wrapperIS2_ELm5EZ16test_iterators_2IS2_S4_EvvEUliE0_EvSt5arrayIiXT1_EET2_mS8_(ptr noundef nonnull byval(%"struct.std::array.16") align 8 @constinit.107, i64 noundef 2, ptr noundef nonnull byval(%"struct.std::array.16") align 8 @constinit.108)
  ret void
}

; Function Attrs: mustprogress uwtable
define linkonce_odr dso_local void @_Z8test_oneI22bidirectional_iteratorIPiES2_Lm0EZ16test_iterators_2IS2_S2_EvvEUliE_EvSt5arrayIiXT1_EET2_mS6_(i64 noundef %0) local_unnamed_addr #0 comdat personality ptr @__gxx_personality_v0 {
  %2 = alloca %class.bidirectional_iterator, align 8
  %3 = alloca %class.bidirectional_iterator, align 8
  %4 = alloca %"class.std::ranges::subrange.18", align 8
  %5 = alloca %class.bidirectional_iterator, align 8
  %6 = alloca %class.bidirectional_iterator, align 8
  %7 = alloca %"class.std::ranges::subrange.18", align 8
  call void @llvm.lifetime.start.p0(ptr nonnull %4) #12
  store ptr null, ptr %5, align 8, !tbaa !24
  %8 = getelementptr inbounds nuw i8, ptr %5, i64 8
  store i8 0, ptr %8, align 8, !tbaa !27
  store ptr null, ptr %6, align 8, !tbaa !24
  %9 = getelementptr inbounds nuw i8, ptr %6, i64 8
  store i8 0, ptr %9, align 8, !tbaa !27
  call void @_ZNKSt6ranges21__stable_partition_fnclITkSt22bidirectional_iterator22bidirectional_iteratorIPiETkSt12sentinel_forIT_ES4_St8identityTkSt24indirect_unary_predicateINSt8__detail11__projectedIS6_T1_E6__typeEEZ16test_iterators_2IS4_S4_EvvEUliE_Q10permutableIS6_EEENS_8subrangeIS6_S6_Xqu18sized_sentinel_forIS6_S6_ELNS_13subrange_kindE1ELSH_0EEEES6_T0_T2_SB_(ptr dead_on_unwind nonnull writable sret(%"class.std::ranges::subrange.18") align 8 %4, ptr noundef nonnull align 1 dereferenceable(1) @_ZNSt6ranges16stable_partitionE, ptr dead_on_return noundef nonnull %5, ptr dead_on_return noundef nonnull %6)
  %10 = load ptr, ptr %4, align 8, !tbaa !24
  %11 = getelementptr inbounds nuw i32, ptr null, i64 %0
  %12 = icmp eq ptr %10, %11
  br i1 %12, label %14, label %13

13:                                               ; preds = %1
  call void @__assert_fail(ptr noundef nonnull @.str.18, ptr noundef nonnull @.str.1, i32 noundef 104, ptr noundef nonnull @__PRETTY_FUNCTION__._Z8test_oneI22bidirectional_iteratorIPiES2_Lm0EZ16test_iterators_2IS2_S2_EvvEUliE_EvSt5arrayIiXT1_EET2_mS6_) #13
  unreachable

14:                                               ; preds = %1
  %15 = getelementptr inbounds nuw i8, ptr %4, i64 16
  %16 = load ptr, ptr %15, align 8, !tbaa !24
  %17 = icmp eq ptr %16, null
  br i1 %17, label %19, label %18

18:                                               ; preds = %14
  call void @__assert_fail(ptr noundef nonnull @.str.19, ptr noundef nonnull @.str.1, i32 noundef 105, ptr noundef nonnull @__PRETTY_FUNCTION__._Z8test_oneI22bidirectional_iteratorIPiES2_Lm0EZ16test_iterators_2IS2_S2_EvvEUliE_EvSt5arrayIiXT1_EET2_mS6_) #13
  unreachable

19:                                               ; preds = %14
  %20 = icmp eq ptr %10, null
  br i1 %20, label %31, label %21

21:                                               ; preds = %19, %26
  %22 = phi ptr [ %27, %26 ], [ null, %19 ]
  %23 = load i32, ptr %22, align 4, !tbaa !15
  %24 = and i32 %23, 1
  %25 = icmp eq i32 %24, 0
  br i1 %25, label %30, label %26

26:                                               ; preds = %21
  %27 = getelementptr inbounds nuw i8, ptr %22, i64 4
  %28 = icmp eq ptr %27, %10
  br i1 %28, label %29, label %21, !llvm.loop !29

29:                                               ; preds = %26
  call void @__assert_fail(ptr noundef nonnull @.str.21, ptr noundef nonnull @.str.1, i32 noundef 108, ptr noundef nonnull @__PRETTY_FUNCTION__._Z8test_oneI22bidirectional_iteratorIPiES2_Lm0EZ16test_iterators_2IS2_S2_EvvEUliE_EvSt5arrayIiXT1_EET2_mS6_) #13
  unreachable

30:                                               ; preds = %21
  call void @__assert_fail(ptr noundef nonnull @.str.20, ptr noundef nonnull @.str.1, i32 noundef 107, ptr noundef nonnull @__PRETTY_FUNCTION__._Z8test_oneI22bidirectional_iteratorIPiES2_Lm0EZ16test_iterators_2IS2_S2_EvvEUliE_EvSt5arrayIiXT1_EET2_mS6_) #13
  unreachable

31:                                               ; preds = %19
  call void @llvm.lifetime.end.p0(ptr nonnull %4) #12
  call void @llvm.lifetime.start.p0(ptr nonnull %7) #12
  call void @llvm.lifetime.start.p0(ptr nonnull %2)
  call void @llvm.lifetime.start.p0(ptr nonnull %3)
  store ptr null, ptr %2, align 8, !tbaa !24, !noalias !30
  %32 = getelementptr inbounds nuw i8, ptr %2, i64 8
  store i8 0, ptr %32, align 8, !tbaa !27, !noalias !30
  store ptr null, ptr %3, align 8, !tbaa !24, !noalias !30
  %33 = getelementptr inbounds nuw i8, ptr %3, i64 8
  store i8 0, ptr %33, align 8, !tbaa !27, !noalias !30
  call void @_ZNKSt6ranges21__stable_partition_fnclITkSt22bidirectional_iterator22bidirectional_iteratorIPiETkSt12sentinel_forIT_ES4_St8identityTkSt24indirect_unary_predicateINSt8__detail11__projectedIS6_T1_E6__typeEEZ16test_iterators_2IS4_S4_EvvEUliE_Q10permutableIS6_EEENS_8subrangeIS6_S6_Xqu18sized_sentinel_forIS6_S6_ELNS_13subrange_kindE1ELSH_0EEEES6_T0_T2_SB_(ptr dead_on_unwind nonnull writable sret(%"class.std::ranges::subrange.18") align 8 %7, ptr noundef nonnull align 1 dereferenceable(1) @_ZNSt6ranges16stable_partitionE, ptr dead_on_return noundef nonnull %2, ptr dead_on_return noundef nonnull %3)
  call void @llvm.lifetime.end.p0(ptr nonnull %2)
  call void @llvm.lifetime.end.p0(ptr nonnull %3)
  %34 = load ptr, ptr %7, align 8, !tbaa !24
  %35 = icmp eq ptr %34, null
  br i1 %35, label %37, label %36

36:                                               ; preds = %31
  call void @__assert_fail(ptr noundef nonnull @.str.18, ptr noundef nonnull @.str.1, i32 noundef 120, ptr noundef nonnull @__PRETTY_FUNCTION__._Z8test_oneI22bidirectional_iteratorIPiES2_Lm0EZ16test_iterators_2IS2_S2_EvvEUliE_EvSt5arrayIiXT1_EET2_mS6_) #13
  unreachable

37:                                               ; preds = %31
  %38 = getelementptr inbounds nuw i8, ptr %7, i64 16
  %39 = load ptr, ptr %38, align 8, !tbaa !24
  %40 = icmp eq ptr %39, null
  br i1 %40, label %42, label %41

41:                                               ; preds = %37
  call void @__assert_fail(ptr noundef nonnull @.str.19, ptr noundef nonnull @.str.1, i32 noundef 121, ptr noundef nonnull @__PRETTY_FUNCTION__._Z8test_oneI22bidirectional_iteratorIPiES2_Lm0EZ16test_iterators_2IS2_S2_EvvEUliE_EvSt5arrayIiXT1_EET2_mS6_) #13
  unreachable

42:                                               ; preds = %37
  call void @llvm.lifetime.end.p0(ptr nonnull %7) #12
  ret void
}

; Function Attrs: mustprogress uwtable
define linkonce_odr dso_local void @_Z8test_oneI22bidirectional_iteratorIPiES2_Lm1EZ16test_iterators_2IS2_S2_EvvEUliE_EvSt5arrayIiXT1_EET2_mS6_(i32 %0, i64 noundef %1, i32 %2) local_unnamed_addr #0 comdat personality ptr @__gxx_personality_v0 {
  %4 = alloca %class.bidirectional_iterator, align 8
  %5 = alloca %class.bidirectional_iterator, align 8
  %6 = alloca %"struct.std::array.10", align 4
  %7 = alloca %"class.std::ranges::subrange.18", align 8
  %8 = alloca %class.bidirectional_iterator, align 8
  %9 = alloca %class.bidirectional_iterator, align 8
  %10 = alloca %"struct.std::array.10", align 4
  %11 = alloca %"class.std::ranges::subrange.18", align 8
  call void @llvm.lifetime.start.p0(ptr nonnull %6) #12
  store i32 %0, ptr %6, align 4, !tbaa !6
  %12 = getelementptr inbounds nuw i8, ptr %6, i64 4
  call void @llvm.lifetime.start.p0(ptr nonnull %7) #12
  store ptr %6, ptr %8, align 8, !tbaa !24
  %13 = getelementptr inbounds nuw i8, ptr %8, i64 8
  store i8 0, ptr %13, align 8, !tbaa !27
  store ptr %12, ptr %9, align 8, !tbaa !24
  %14 = getelementptr inbounds nuw i8, ptr %9, i64 8
  store i8 0, ptr %14, align 8, !tbaa !27
  call void @_ZNKSt6ranges21__stable_partition_fnclITkSt22bidirectional_iterator22bidirectional_iteratorIPiETkSt12sentinel_forIT_ES4_St8identityTkSt24indirect_unary_predicateINSt8__detail11__projectedIS6_T1_E6__typeEEZ16test_iterators_2IS4_S4_EvvEUliE_Q10permutableIS6_EEENS_8subrangeIS6_S6_Xqu18sized_sentinel_forIS6_S6_ELNS_13subrange_kindE1ELSH_0EEEES6_T0_T2_SB_(ptr dead_on_unwind nonnull writable sret(%"class.std::ranges::subrange.18") align 8 %7, ptr noundef nonnull align 1 dereferenceable(1) @_ZNSt6ranges16stable_partitionE, ptr dead_on_return noundef nonnull %8, ptr dead_on_return noundef nonnull %9)
  %15 = load i32, ptr %6, align 4
  %16 = icmp eq i32 %15, %2
  br i1 %16, label %18, label %17

17:                                               ; preds = %3
  call void @__assert_fail(ptr noundef nonnull @.str.24, ptr noundef nonnull @.str.1, i32 noundef 103, ptr noundef nonnull @__PRETTY_FUNCTION__._Z8test_oneI22bidirectional_iteratorIPiES2_Lm1EZ16test_iterators_2IS2_S2_EvvEUliE_EvSt5arrayIiXT1_EET2_mS6_) #13
  unreachable

18:                                               ; preds = %3
  %19 = load ptr, ptr %7, align 8, !tbaa !24
  %20 = getelementptr inbounds nuw i32, ptr %6, i64 %1
  %21 = icmp eq ptr %19, %20
  br i1 %21, label %23, label %22

22:                                               ; preds = %18
  call void @__assert_fail(ptr noundef nonnull @.str.18, ptr noundef nonnull @.str.1, i32 noundef 104, ptr noundef nonnull @__PRETTY_FUNCTION__._Z8test_oneI22bidirectional_iteratorIPiES2_Lm1EZ16test_iterators_2IS2_S2_EvvEUliE_EvSt5arrayIiXT1_EET2_mS6_) #13
  unreachable

23:                                               ; preds = %18
  %24 = getelementptr inbounds nuw i8, ptr %7, i64 16
  %25 = load ptr, ptr %24, align 8, !tbaa !24
  %26 = icmp eq ptr %25, %12
  br i1 %26, label %28, label %27

27:                                               ; preds = %23
  call void @__assert_fail(ptr noundef nonnull @.str.19, ptr noundef nonnull @.str.1, i32 noundef 105, ptr noundef nonnull @__PRETTY_FUNCTION__._Z8test_oneI22bidirectional_iteratorIPiES2_Lm1EZ16test_iterators_2IS2_S2_EvvEUliE_EvSt5arrayIiXT1_EET2_mS6_) #13
  unreachable

28:                                               ; preds = %23
  %29 = icmp eq ptr %6, %19
  br i1 %29, label %39, label %30

30:                                               ; preds = %28, %35
  %31 = phi ptr [ %36, %35 ], [ %6, %28 ]
  %32 = load i32, ptr %31, align 4, !tbaa !15
  %33 = and i32 %32, 1
  %34 = icmp eq i32 %33, 0
  br i1 %34, label %38, label %35

35:                                               ; preds = %30
  %36 = getelementptr inbounds nuw i8, ptr %31, i64 4
  %37 = icmp eq ptr %36, %19
  br i1 %37, label %39, label %30, !llvm.loop !29

38:                                               ; preds = %30
  call void @__assert_fail(ptr noundef nonnull @.str.20, ptr noundef nonnull @.str.1, i32 noundef 107, ptr noundef nonnull @__PRETTY_FUNCTION__._Z8test_oneI22bidirectional_iteratorIPiES2_Lm1EZ16test_iterators_2IS2_S2_EvvEUliE_EvSt5arrayIiXT1_EET2_mS6_) #13
  unreachable

39:                                               ; preds = %35, %28
  %40 = icmp eq ptr %19, %12
  br i1 %40, label %50, label %41

41:                                               ; preds = %39, %46
  %42 = phi ptr [ %47, %46 ], [ %19, %39 ]
  %43 = load i32, ptr %42, align 4, !tbaa !15
  %44 = and i32 %43, 1
  %45 = icmp eq i32 %44, 0
  br i1 %45, label %46, label %49

46:                                               ; preds = %41
  %47 = getelementptr inbounds nuw i8, ptr %42, i64 4
  %48 = icmp eq ptr %42, %6
  br i1 %48, label %50, label %41, !llvm.loop !33

49:                                               ; preds = %41
  call void @__assert_fail(ptr noundef nonnull @.str.21, ptr noundef nonnull @.str.1, i32 noundef 108, ptr noundef nonnull @__PRETTY_FUNCTION__._Z8test_oneI22bidirectional_iteratorIPiES2_Lm1EZ16test_iterators_2IS2_S2_EvvEUliE_EvSt5arrayIiXT1_EET2_mS6_) #13
  unreachable

50:                                               ; preds = %46, %39
  call void @llvm.lifetime.end.p0(ptr nonnull %7) #12
  call void @llvm.lifetime.end.p0(ptr nonnull %6) #12
  call void @llvm.lifetime.start.p0(ptr nonnull %10) #12
  store i32 %0, ptr %10, align 4, !tbaa !6
  %51 = getelementptr inbounds nuw i8, ptr %10, i64 4
  call void @llvm.lifetime.start.p0(ptr nonnull %11) #12
  call void @llvm.lifetime.start.p0(ptr nonnull %4)
  call void @llvm.lifetime.start.p0(ptr nonnull %5)
  store ptr %10, ptr %4, align 8, !tbaa !24, !noalias !34
  %52 = getelementptr inbounds nuw i8, ptr %4, i64 8
  store i8 0, ptr %52, align 8, !tbaa !27, !noalias !34
  store ptr %51, ptr %5, align 8, !tbaa !24, !noalias !34
  %53 = getelementptr inbounds nuw i8, ptr %5, i64 8
  store i8 0, ptr %53, align 8, !tbaa !27, !noalias !34
  call void @_ZNKSt6ranges21__stable_partition_fnclITkSt22bidirectional_iterator22bidirectional_iteratorIPiETkSt12sentinel_forIT_ES4_St8identityTkSt24indirect_unary_predicateINSt8__detail11__projectedIS6_T1_E6__typeEEZ16test_iterators_2IS4_S4_EvvEUliE_Q10permutableIS6_EEENS_8subrangeIS6_S6_Xqu18sized_sentinel_forIS6_S6_ELNS_13subrange_kindE1ELSH_0EEEES6_T0_T2_SB_(ptr dead_on_unwind nonnull writable sret(%"class.std::ranges::subrange.18") align 8 %11, ptr noundef nonnull align 1 dereferenceable(1) @_ZNSt6ranges16stable_partitionE, ptr dead_on_return noundef nonnull %4, ptr dead_on_return noundef nonnull %5)
  call void @llvm.lifetime.end.p0(ptr nonnull %4)
  call void @llvm.lifetime.end.p0(ptr nonnull %5)
  %54 = load i32, ptr %10, align 4
  %55 = icmp eq i32 %54, %2
  br i1 %55, label %57, label %56

56:                                               ; preds = %50
  call void @__assert_fail(ptr noundef nonnull @.str.24, ptr noundef nonnull @.str.1, i32 noundef 119, ptr noundef nonnull @__PRETTY_FUNCTION__._Z8test_oneI22bidirectional_iteratorIPiES2_Lm1EZ16test_iterators_2IS2_S2_EvvEUliE_EvSt5arrayIiXT1_EET2_mS6_) #13
  unreachable

57:                                               ; preds = %50
  %58 = load ptr, ptr %11, align 8, !tbaa !24
  %59 = getelementptr inbounds nuw i32, ptr %10, i64 %1
  %60 = icmp eq ptr %58, %59
  br i1 %60, label %62, label %61

61:                                               ; preds = %57
  call void @__assert_fail(ptr noundef nonnull @.str.18, ptr noundef nonnull @.str.1, i32 noundef 120, ptr noundef nonnull @__PRETTY_FUNCTION__._Z8test_oneI22bidirectional_iteratorIPiES2_Lm1EZ16test_iterators_2IS2_S2_EvvEUliE_EvSt5arrayIiXT1_EET2_mS6_) #13
  unreachable

62:                                               ; preds = %57
  %63 = getelementptr inbounds nuw i8, ptr %11, i64 16
  %64 = load ptr, ptr %63, align 8, !tbaa !24
  %65 = icmp eq ptr %64, %51
  br i1 %65, label %67, label %66

66:                                               ; preds = %62
  call void @__assert_fail(ptr noundef nonnull @.str.19, ptr noundef nonnull @.str.1, i32 noundef 121, ptr noundef nonnull @__PRETTY_FUNCTION__._Z8test_oneI22bidirectional_iteratorIPiES2_Lm1EZ16test_iterators_2IS2_S2_EvvEUliE_EvSt5arrayIiXT1_EET2_mS6_) #13
  unreachable

67:                                               ; preds = %62
  %68 = icmp eq ptr %10, %58
  br i1 %68, label %78, label %69

69:                                               ; preds = %67, %74
  %70 = phi ptr [ %75, %74 ], [ %10, %67 ]
  %71 = load i32, ptr %70, align 4, !tbaa !15
  %72 = and i32 %71, 1
  %73 = icmp eq i32 %72, 0
  br i1 %73, label %77, label %74

74:                                               ; preds = %69
  %75 = getelementptr inbounds nuw i8, ptr %70, i64 4
  %76 = icmp eq ptr %75, %58
  br i1 %76, label %78, label %69, !llvm.loop !29

77:                                               ; preds = %69
  call void @__assert_fail(ptr noundef nonnull @.str.20, ptr noundef nonnull @.str.1, i32 noundef 123, ptr noundef nonnull @__PRETTY_FUNCTION__._Z8test_oneI22bidirectional_iteratorIPiES2_Lm1EZ16test_iterators_2IS2_S2_EvvEUliE_EvSt5arrayIiXT1_EET2_mS6_) #13
  unreachable

78:                                               ; preds = %74, %67
  %79 = icmp eq ptr %58, %51
  br i1 %79, label %89, label %80

80:                                               ; preds = %78, %85
  %81 = phi ptr [ %86, %85 ], [ %58, %78 ]
  %82 = load i32, ptr %81, align 4, !tbaa !15
  %83 = and i32 %82, 1
  %84 = icmp eq i32 %83, 0
  br i1 %84, label %85, label %88

85:                                               ; preds = %80
  %86 = getelementptr inbounds nuw i8, ptr %81, i64 4
  %87 = icmp eq ptr %81, %10
  br i1 %87, label %89, label %80, !llvm.loop !33

88:                                               ; preds = %80
  call void @__assert_fail(ptr noundef nonnull @.str.21, ptr noundef nonnull @.str.1, i32 noundef 124, ptr noundef nonnull @__PRETTY_FUNCTION__._Z8test_oneI22bidirectional_iteratorIPiES2_Lm1EZ16test_iterators_2IS2_S2_EvvEUliE_EvSt5arrayIiXT1_EET2_mS6_) #13
  unreachable

89:                                               ; preds = %85, %78
  call void @llvm.lifetime.end.p0(ptr nonnull %11) #12
  call void @llvm.lifetime.end.p0(ptr nonnull %10) #12
  ret void
}

; Function Attrs: mustprogress uwtable
define linkonce_odr dso_local void @_Z8test_oneI22bidirectional_iteratorIPiES2_Lm2EZ16test_iterators_2IS2_S2_EvvEUliE_EvSt5arrayIiXT1_EET2_mS6_(i64 %0, i64 noundef %1, i64 %2) local_unnamed_addr #0 comdat personality ptr @__gxx_personality_v0 {
  %4 = alloca %class.bidirectional_iterator, align 8
  %5 = alloca %class.bidirectional_iterator, align 8
  %6 = alloca %"struct.std::array.0", align 8
  %7 = alloca %"class.std::ranges::subrange.18", align 8
  %8 = alloca %class.bidirectional_iterator, align 8
  %9 = alloca %class.bidirectional_iterator, align 8
  %10 = alloca %"struct.std::array.0", align 8
  %11 = alloca %"class.std::ranges::subrange.18", align 8
  call void @llvm.lifetime.start.p0(ptr nonnull %6) #12
  store i64 %0, ptr %6, align 8, !tbaa !6
  %12 = getelementptr inbounds nuw i8, ptr %6, i64 8
  call void @llvm.lifetime.start.p0(ptr nonnull %7) #12
  store ptr %6, ptr %8, align 8, !tbaa !24
  %13 = getelementptr inbounds nuw i8, ptr %8, i64 8
  store i8 0, ptr %13, align 8, !tbaa !27
  store ptr %12, ptr %9, align 8, !tbaa !24
  %14 = getelementptr inbounds nuw i8, ptr %9, i64 8
  store i8 0, ptr %14, align 8, !tbaa !27
  call void @_ZNKSt6ranges21__stable_partition_fnclITkSt22bidirectional_iterator22bidirectional_iteratorIPiETkSt12sentinel_forIT_ES4_St8identityTkSt24indirect_unary_predicateINSt8__detail11__projectedIS6_T1_E6__typeEEZ16test_iterators_2IS4_S4_EvvEUliE_Q10permutableIS6_EEENS_8subrangeIS6_S6_Xqu18sized_sentinel_forIS6_S6_ELNS_13subrange_kindE1ELSH_0EEEES6_T0_T2_SB_(ptr dead_on_unwind nonnull writable sret(%"class.std::ranges::subrange.18") align 8 %7, ptr noundef nonnull align 1 dereferenceable(1) @_ZNSt6ranges16stable_partitionE, ptr dead_on_return noundef nonnull %8, ptr dead_on_return noundef nonnull %9)
  %15 = load i64, ptr %6, align 8
  %16 = icmp eq i64 %15, %2
  br i1 %16, label %18, label %17

17:                                               ; preds = %3
  call void @__assert_fail(ptr noundef nonnull @.str.24, ptr noundef nonnull @.str.1, i32 noundef 103, ptr noundef nonnull @__PRETTY_FUNCTION__._Z8test_oneI22bidirectional_iteratorIPiES2_Lm2EZ16test_iterators_2IS2_S2_EvvEUliE_EvSt5arrayIiXT1_EET2_mS6_) #13
  unreachable

18:                                               ; preds = %3
  %19 = load ptr, ptr %7, align 8, !tbaa !24
  %20 = getelementptr inbounds nuw i32, ptr %6, i64 %1
  %21 = icmp eq ptr %19, %20
  br i1 %21, label %23, label %22

22:                                               ; preds = %18
  call void @__assert_fail(ptr noundef nonnull @.str.18, ptr noundef nonnull @.str.1, i32 noundef 104, ptr noundef nonnull @__PRETTY_FUNCTION__._Z8test_oneI22bidirectional_iteratorIPiES2_Lm2EZ16test_iterators_2IS2_S2_EvvEUliE_EvSt5arrayIiXT1_EET2_mS6_) #13
  unreachable

23:                                               ; preds = %18
  %24 = getelementptr inbounds nuw i8, ptr %7, i64 16
  %25 = load ptr, ptr %24, align 8, !tbaa !24
  %26 = icmp eq ptr %25, %12
  br i1 %26, label %28, label %27

27:                                               ; preds = %23
  call void @__assert_fail(ptr noundef nonnull @.str.19, ptr noundef nonnull @.str.1, i32 noundef 105, ptr noundef nonnull @__PRETTY_FUNCTION__._Z8test_oneI22bidirectional_iteratorIPiES2_Lm2EZ16test_iterators_2IS2_S2_EvvEUliE_EvSt5arrayIiXT1_EET2_mS6_) #13
  unreachable

28:                                               ; preds = %23
  %29 = icmp eq ptr %6, %19
  br i1 %29, label %39, label %30

30:                                               ; preds = %28, %35
  %31 = phi ptr [ %36, %35 ], [ %6, %28 ]
  %32 = load i32, ptr %31, align 4, !tbaa !15
  %33 = and i32 %32, 1
  %34 = icmp eq i32 %33, 0
  br i1 %34, label %38, label %35

35:                                               ; preds = %30
  %36 = getelementptr inbounds nuw i8, ptr %31, i64 4
  %37 = icmp eq ptr %36, %19
  br i1 %37, label %39, label %30, !llvm.loop !29

38:                                               ; preds = %30
  call void @__assert_fail(ptr noundef nonnull @.str.20, ptr noundef nonnull @.str.1, i32 noundef 107, ptr noundef nonnull @__PRETTY_FUNCTION__._Z8test_oneI22bidirectional_iteratorIPiES2_Lm2EZ16test_iterators_2IS2_S2_EvvEUliE_EvSt5arrayIiXT1_EET2_mS6_) #13
  unreachable

39:                                               ; preds = %35, %28
  %40 = icmp eq ptr %19, %12
  br i1 %40, label %50, label %41

41:                                               ; preds = %39, %46
  %42 = phi ptr [ %47, %46 ], [ %19, %39 ]
  %43 = load i32, ptr %42, align 4, !tbaa !15
  %44 = and i32 %43, 1
  %45 = icmp eq i32 %44, 0
  br i1 %45, label %46, label %49

46:                                               ; preds = %41
  %47 = getelementptr inbounds nuw i8, ptr %42, i64 4
  %48 = icmp eq ptr %47, %12
  br i1 %48, label %50, label %41, !llvm.loop !37

49:                                               ; preds = %41
  call void @__assert_fail(ptr noundef nonnull @.str.21, ptr noundef nonnull @.str.1, i32 noundef 108, ptr noundef nonnull @__PRETTY_FUNCTION__._Z8test_oneI22bidirectional_iteratorIPiES2_Lm2EZ16test_iterators_2IS2_S2_EvvEUliE_EvSt5arrayIiXT1_EET2_mS6_) #13
  unreachable

50:                                               ; preds = %46, %39
  call void @llvm.lifetime.end.p0(ptr nonnull %7) #12
  call void @llvm.lifetime.end.p0(ptr nonnull %6) #12
  call void @llvm.lifetime.start.p0(ptr nonnull %10) #12
  store i64 %0, ptr %10, align 8, !tbaa !6
  %51 = getelementptr inbounds nuw i8, ptr %10, i64 8
  call void @llvm.lifetime.start.p0(ptr nonnull %11) #12
  call void @llvm.lifetime.start.p0(ptr nonnull %4)
  call void @llvm.lifetime.start.p0(ptr nonnull %5)
  store ptr %10, ptr %4, align 8, !tbaa !24, !noalias !38
  %52 = getelementptr inbounds nuw i8, ptr %4, i64 8
  store i8 0, ptr %52, align 8, !tbaa !27, !noalias !38
  store ptr %51, ptr %5, align 8, !tbaa !24, !noalias !38
  %53 = getelementptr inbounds nuw i8, ptr %5, i64 8
  store i8 0, ptr %53, align 8, !tbaa !27, !noalias !38
  call void @_ZNKSt6ranges21__stable_partition_fnclITkSt22bidirectional_iterator22bidirectional_iteratorIPiETkSt12sentinel_forIT_ES4_St8identityTkSt24indirect_unary_predicateINSt8__detail11__projectedIS6_T1_E6__typeEEZ16test_iterators_2IS4_S4_EvvEUliE_Q10permutableIS6_EEENS_8subrangeIS6_S6_Xqu18sized_sentinel_forIS6_S6_ELNS_13subrange_kindE1ELSH_0EEEES6_T0_T2_SB_(ptr dead_on_unwind nonnull writable sret(%"class.std::ranges::subrange.18") align 8 %11, ptr noundef nonnull align 1 dereferenceable(1) @_ZNSt6ranges16stable_partitionE, ptr dead_on_return noundef nonnull %4, ptr dead_on_return noundef nonnull %5)
  call void @llvm.lifetime.end.p0(ptr nonnull %4)
  call void @llvm.lifetime.end.p0(ptr nonnull %5)
  %54 = load i64, ptr %10, align 8
  %55 = icmp eq i64 %54, %2
  br i1 %55, label %57, label %56

56:                                               ; preds = %50
  call void @__assert_fail(ptr noundef nonnull @.str.24, ptr noundef nonnull @.str.1, i32 noundef 119, ptr noundef nonnull @__PRETTY_FUNCTION__._Z8test_oneI22bidirectional_iteratorIPiES2_Lm2EZ16test_iterators_2IS2_S2_EvvEUliE_EvSt5arrayIiXT1_EET2_mS6_) #13
  unreachable

57:                                               ; preds = %50
  %58 = load ptr, ptr %11, align 8, !tbaa !24
  %59 = getelementptr inbounds nuw i32, ptr %10, i64 %1
  %60 = icmp eq ptr %58, %59
  br i1 %60, label %62, label %61

61:                                               ; preds = %57
  call void @__assert_fail(ptr noundef nonnull @.str.18, ptr noundef nonnull @.str.1, i32 noundef 120, ptr noundef nonnull @__PRETTY_FUNCTION__._Z8test_oneI22bidirectional_iteratorIPiES2_Lm2EZ16test_iterators_2IS2_S2_EvvEUliE_EvSt5arrayIiXT1_EET2_mS6_) #13
  unreachable

62:                                               ; preds = %57
  %63 = getelementptr inbounds nuw i8, ptr %11, i64 16
  %64 = load ptr, ptr %63, align 8, !tbaa !24
  %65 = icmp eq ptr %64, %51
  br i1 %65, label %67, label %66

66:                                               ; preds = %62
  call void @__assert_fail(ptr noundef nonnull @.str.19, ptr noundef nonnull @.str.1, i32 noundef 121, ptr noundef nonnull @__PRETTY_FUNCTION__._Z8test_oneI22bidirectional_iteratorIPiES2_Lm2EZ16test_iterators_2IS2_S2_EvvEUliE_EvSt5arrayIiXT1_EET2_mS6_) #13
  unreachable

67:                                               ; preds = %62
  %68 = icmp eq ptr %10, %58
  br i1 %68, label %78, label %69

69:                                               ; preds = %67, %74
  %70 = phi ptr [ %75, %74 ], [ %10, %67 ]
  %71 = load i32, ptr %70, align 4, !tbaa !15
  %72 = and i32 %71, 1
  %73 = icmp eq i32 %72, 0
  br i1 %73, label %77, label %74

74:                                               ; preds = %69
  %75 = getelementptr inbounds nuw i8, ptr %70, i64 4
  %76 = icmp eq ptr %75, %58
  br i1 %76, label %78, label %69, !llvm.loop !29

77:                                               ; preds = %69
  call void @__assert_fail(ptr noundef nonnull @.str.20, ptr noundef nonnull @.str.1, i32 noundef 123, ptr noundef nonnull @__PRETTY_FUNCTION__._Z8test_oneI22bidirectional_iteratorIPiES2_Lm2EZ16test_iterators_2IS2_S2_EvvEUliE_EvSt5arrayIiXT1_EET2_mS6_) #13
  unreachable

78:                                               ; preds = %74, %67
  %79 = icmp eq ptr %58, %51
  br i1 %79, label %89, label %80

80:                                               ; preds = %78, %85
  %81 = phi ptr [ %86, %85 ], [ %58, %78 ]
  %82 = load i32, ptr %81, align 4, !tbaa !15
  %83 = and i32 %82, 1
  %84 = icmp eq i32 %83, 0
  br i1 %84, label %85, label %88

85:                                               ; preds = %80
  %86 = getelementptr inbounds nuw i8, ptr %81, i64 4
  %87 = icmp eq ptr %86, %51
  br i1 %87, label %89, label %80, !llvm.loop !37

88:                                               ; preds = %80
  call void @__assert_fail(ptr noundef nonnull @.str.21, ptr noundef nonnull @.str.1, i32 noundef 124, ptr noundef nonnull @__PRETTY_FUNCTION__._Z8test_oneI22bidirectional_iteratorIPiES2_Lm2EZ16test_iterators_2IS2_S2_EvvEUliE_EvSt5arrayIiXT1_EET2_mS6_) #13
  unreachable

89:                                               ; preds = %85, %78
  call void @llvm.lifetime.end.p0(ptr nonnull %11) #12
  call void @llvm.lifetime.end.p0(ptr nonnull %10) #12
  ret void
}

; Function Attrs: mustprogress uwtable
define linkonce_odr dso_local void @_Z8test_oneI22bidirectional_iteratorIPiES2_Lm3EZ16test_iterators_2IS2_S2_EvvEUliE_EvSt5arrayIiXT1_EET2_mS6_(i64 %0, i32 %1, i64 noundef %2, i64 %3, i32 %4) local_unnamed_addr #0 comdat personality ptr @__gxx_personality_v0 {
  %6 = alloca %class.bidirectional_iterator, align 8
  %7 = alloca %class.bidirectional_iterator, align 8
  %8 = alloca %"struct.std::array.11", align 8
  %9 = alloca %"struct.std::array.11", align 8
  %10 = alloca %"class.std::ranges::subrange.18", align 8
  %11 = alloca %class.bidirectional_iterator, align 8
  %12 = alloca %class.bidirectional_iterator, align 8
  %13 = alloca %"struct.std::array.11", align 8
  %14 = alloca %"class.std::ranges::subrange.18", align 8
  store i64 %3, ptr %8, align 8
  %15 = getelementptr inbounds nuw i8, ptr %8, i64 8
  store i32 %4, ptr %15, align 8
  call void @llvm.lifetime.start.p0(ptr nonnull %9) #12
  store i64 %0, ptr %9, align 8
  %16 = getelementptr inbounds nuw i8, ptr %9, i64 8
  store i32 %1, ptr %16, align 8, !tbaa !6
  %17 = getelementptr inbounds nuw i8, ptr %9, i64 12
  call void @llvm.lifetime.start.p0(ptr nonnull %10) #12
  store ptr %9, ptr %11, align 8, !tbaa !24
  %18 = getelementptr inbounds nuw i8, ptr %11, i64 8
  store i8 0, ptr %18, align 8, !tbaa !27
  store ptr %17, ptr %12, align 8, !tbaa !24
  %19 = getelementptr inbounds nuw i8, ptr %12, i64 8
  store i8 0, ptr %19, align 8, !tbaa !27
  call void @_ZNKSt6ranges21__stable_partition_fnclITkSt22bidirectional_iterator22bidirectional_iteratorIPiETkSt12sentinel_forIT_ES4_St8identityTkSt24indirect_unary_predicateINSt8__detail11__projectedIS6_T1_E6__typeEEZ16test_iterators_2IS4_S4_EvvEUliE_Q10permutableIS6_EEENS_8subrangeIS6_S6_Xqu18sized_sentinel_forIS6_S6_ELNS_13subrange_kindE1ELSH_0EEEES6_T0_T2_SB_(ptr dead_on_unwind nonnull writable sret(%"class.std::ranges::subrange.18") align 8 %10, ptr noundef nonnull align 1 dereferenceable(1) @_ZNSt6ranges16stable_partitionE, ptr dead_on_return noundef nonnull %11, ptr dead_on_return noundef nonnull %12)
  %20 = call i32 @bcmp(ptr noundef nonnull align 4 dereferenceable(12) %9, ptr noundef nonnull align 4 dereferenceable(12) %8, i64 12)
  %21 = icmp eq i32 %20, 0
  br i1 %21, label %23, label %22

22:                                               ; preds = %5
  call void @__assert_fail(ptr noundef nonnull @.str.24, ptr noundef nonnull @.str.1, i32 noundef 103, ptr noundef nonnull @__PRETTY_FUNCTION__._Z8test_oneI22bidirectional_iteratorIPiES2_Lm3EZ16test_iterators_2IS2_S2_EvvEUliE_EvSt5arrayIiXT1_EET2_mS6_) #13
  unreachable

23:                                               ; preds = %5
  %24 = load ptr, ptr %10, align 8, !tbaa !24
  %25 = getelementptr inbounds nuw i32, ptr %9, i64 %2
  %26 = icmp eq ptr %24, %25
  br i1 %26, label %28, label %27

27:                                               ; preds = %23
  call void @__assert_fail(ptr noundef nonnull @.str.18, ptr noundef nonnull @.str.1, i32 noundef 104, ptr noundef nonnull @__PRETTY_FUNCTION__._Z8test_oneI22bidirectional_iteratorIPiES2_Lm3EZ16test_iterators_2IS2_S2_EvvEUliE_EvSt5arrayIiXT1_EET2_mS6_) #13
  unreachable

28:                                               ; preds = %23
  %29 = getelementptr inbounds nuw i8, ptr %10, i64 16
  %30 = load ptr, ptr %29, align 8, !tbaa !24
  %31 = icmp eq ptr %30, %17
  br i1 %31, label %33, label %32

32:                                               ; preds = %28
  call void @__assert_fail(ptr noundef nonnull @.str.19, ptr noundef nonnull @.str.1, i32 noundef 105, ptr noundef nonnull @__PRETTY_FUNCTION__._Z8test_oneI22bidirectional_iteratorIPiES2_Lm3EZ16test_iterators_2IS2_S2_EvvEUliE_EvSt5arrayIiXT1_EET2_mS6_) #13
  unreachable

33:                                               ; preds = %28
  %34 = icmp eq ptr %9, %24
  br i1 %34, label %44, label %35

35:                                               ; preds = %33, %40
  %36 = phi ptr [ %41, %40 ], [ %9, %33 ]
  %37 = load i32, ptr %36, align 4, !tbaa !15
  %38 = and i32 %37, 1
  %39 = icmp eq i32 %38, 0
  br i1 %39, label %43, label %40

40:                                               ; preds = %35
  %41 = getelementptr inbounds nuw i8, ptr %36, i64 4
  %42 = icmp eq ptr %41, %24
  br i1 %42, label %44, label %35, !llvm.loop !29

43:                                               ; preds = %35
  call void @__assert_fail(ptr noundef nonnull @.str.20, ptr noundef nonnull @.str.1, i32 noundef 107, ptr noundef nonnull @__PRETTY_FUNCTION__._Z8test_oneI22bidirectional_iteratorIPiES2_Lm3EZ16test_iterators_2IS2_S2_EvvEUliE_EvSt5arrayIiXT1_EET2_mS6_) #13
  unreachable

44:                                               ; preds = %40, %33
  %45 = icmp eq ptr %24, %17
  br i1 %45, label %55, label %46

46:                                               ; preds = %44, %51
  %47 = phi ptr [ %52, %51 ], [ %24, %44 ]
  %48 = load i32, ptr %47, align 4, !tbaa !15
  %49 = and i32 %48, 1
  %50 = icmp eq i32 %49, 0
  br i1 %50, label %51, label %54

51:                                               ; preds = %46
  %52 = getelementptr inbounds nuw i8, ptr %47, i64 4
  %53 = icmp eq ptr %52, %17
  br i1 %53, label %55, label %46, !llvm.loop !41

54:                                               ; preds = %46
  call void @__assert_fail(ptr noundef nonnull @.str.21, ptr noundef nonnull @.str.1, i32 noundef 108, ptr noundef nonnull @__PRETTY_FUNCTION__._Z8test_oneI22bidirectional_iteratorIPiES2_Lm3EZ16test_iterators_2IS2_S2_EvvEUliE_EvSt5arrayIiXT1_EET2_mS6_) #13
  unreachable

55:                                               ; preds = %51, %44
  call void @llvm.lifetime.end.p0(ptr nonnull %10) #12
  call void @llvm.lifetime.end.p0(ptr nonnull %9) #12
  call void @llvm.lifetime.start.p0(ptr nonnull %13) #12
  store i64 %0, ptr %13, align 8
  %56 = getelementptr inbounds nuw i8, ptr %13, i64 8
  store i32 %1, ptr %56, align 8, !tbaa !6
  %57 = getelementptr inbounds nuw i8, ptr %13, i64 12
  call void @llvm.lifetime.start.p0(ptr nonnull %14) #12
  call void @llvm.lifetime.start.p0(ptr nonnull %6)
  call void @llvm.lifetime.start.p0(ptr nonnull %7)
  store ptr %13, ptr %6, align 8, !tbaa !24, !noalias !42
  %58 = getelementptr inbounds nuw i8, ptr %6, i64 8
  store i8 0, ptr %58, align 8, !tbaa !27, !noalias !42
  store ptr %57, ptr %7, align 8, !tbaa !24, !noalias !42
  %59 = getelementptr inbounds nuw i8, ptr %7, i64 8
  store i8 0, ptr %59, align 8, !tbaa !27, !noalias !42
  call void @_ZNKSt6ranges21__stable_partition_fnclITkSt22bidirectional_iterator22bidirectional_iteratorIPiETkSt12sentinel_forIT_ES4_St8identityTkSt24indirect_unary_predicateINSt8__detail11__projectedIS6_T1_E6__typeEEZ16test_iterators_2IS4_S4_EvvEUliE_Q10permutableIS6_EEENS_8subrangeIS6_S6_Xqu18sized_sentinel_forIS6_S6_ELNS_13subrange_kindE1ELSH_0EEEES6_T0_T2_SB_(ptr dead_on_unwind nonnull writable sret(%"class.std::ranges::subrange.18") align 8 %14, ptr noundef nonnull align 1 dereferenceable(1) @_ZNSt6ranges16stable_partitionE, ptr dead_on_return noundef nonnull %6, ptr dead_on_return noundef nonnull %7)
  call void @llvm.lifetime.end.p0(ptr nonnull %6)
  call void @llvm.lifetime.end.p0(ptr nonnull %7)
  %60 = call i32 @bcmp(ptr noundef nonnull align 4 dereferenceable(12) %13, ptr noundef nonnull align 4 dereferenceable(12) %8, i64 12)
  %61 = icmp eq i32 %60, 0
  br i1 %61, label %63, label %62

62:                                               ; preds = %55
  call void @__assert_fail(ptr noundef nonnull @.str.24, ptr noundef nonnull @.str.1, i32 noundef 119, ptr noundef nonnull @__PRETTY_FUNCTION__._Z8test_oneI22bidirectional_iteratorIPiES2_Lm3EZ16test_iterators_2IS2_S2_EvvEUliE_EvSt5arrayIiXT1_EET2_mS6_) #13
  unreachable

63:                                               ; preds = %55
  %64 = load ptr, ptr %14, align 8, !tbaa !24
  %65 = getelementptr inbounds nuw i32, ptr %13, i64 %2
  %66 = icmp eq ptr %64, %65
  br i1 %66, label %68, label %67

67:                                               ; preds = %63
  call void @__assert_fail(ptr noundef nonnull @.str.18, ptr noundef nonnull @.str.1, i32 noundef 120, ptr noundef nonnull @__PRETTY_FUNCTION__._Z8test_oneI22bidirectional_iteratorIPiES2_Lm3EZ16test_iterators_2IS2_S2_EvvEUliE_EvSt5arrayIiXT1_EET2_mS6_) #13
  unreachable

68:                                               ; preds = %63
  %69 = getelementptr inbounds nuw i8, ptr %14, i64 16
  %70 = load ptr, ptr %69, align 8, !tbaa !24
  %71 = icmp eq ptr %70, %57
  br i1 %71, label %73, label %72

72:                                               ; preds = %68
  call void @__assert_fail(ptr noundef nonnull @.str.19, ptr noundef nonnull @.str.1, i32 noundef 121, ptr noundef nonnull @__PRETTY_FUNCTION__._Z8test_oneI22bidirectional_iteratorIPiES2_Lm3EZ16test_iterators_2IS2_S2_EvvEUliE_EvSt5arrayIiXT1_EET2_mS6_) #13
  unreachable

73:                                               ; preds = %68
  %74 = icmp eq ptr %13, %64
  br i1 %74, label %84, label %75

75:                                               ; preds = %73, %80
  %76 = phi ptr [ %81, %80 ], [ %13, %73 ]
  %77 = load i32, ptr %76, align 4, !tbaa !15
  %78 = and i32 %77, 1
  %79 = icmp eq i32 %78, 0
  br i1 %79, label %83, label %80

80:                                               ; preds = %75
  %81 = getelementptr inbounds nuw i8, ptr %76, i64 4
  %82 = icmp eq ptr %81, %64
  br i1 %82, label %84, label %75, !llvm.loop !29

83:                                               ; preds = %75
  call void @__assert_fail(ptr noundef nonnull @.str.20, ptr noundef nonnull @.str.1, i32 noundef 123, ptr noundef nonnull @__PRETTY_FUNCTION__._Z8test_oneI22bidirectional_iteratorIPiES2_Lm3EZ16test_iterators_2IS2_S2_EvvEUliE_EvSt5arrayIiXT1_EET2_mS6_) #13
  unreachable

84:                                               ; preds = %80, %73
  %85 = icmp eq ptr %64, %57
  br i1 %85, label %95, label %86

86:                                               ; preds = %84, %91
  %87 = phi ptr [ %92, %91 ], [ %64, %84 ]
  %88 = load i32, ptr %87, align 4, !tbaa !15
  %89 = and i32 %88, 1
  %90 = icmp eq i32 %89, 0
  br i1 %90, label %91, label %94

91:                                               ; preds = %86
  %92 = getelementptr inbounds nuw i8, ptr %87, i64 4
  %93 = icmp eq ptr %92, %57
  br i1 %93, label %95, label %86, !llvm.loop !41

94:                                               ; preds = %86
  call void @__assert_fail(ptr noundef nonnull @.str.21, ptr noundef nonnull @.str.1, i32 noundef 124, ptr noundef nonnull @__PRETTY_FUNCTION__._Z8test_oneI22bidirectional_iteratorIPiES2_Lm3EZ16test_iterators_2IS2_S2_EvvEUliE_EvSt5arrayIiXT1_EET2_mS6_) #13
  unreachable

95:                                               ; preds = %91, %84
  call void @llvm.lifetime.end.p0(ptr nonnull %14) #12
  call void @llvm.lifetime.end.p0(ptr nonnull %13) #12
  ret void
}

; Function Attrs: mustprogress uwtable
define linkonce_odr dso_local void @_Z8test_oneI22bidirectional_iteratorIPiES2_Lm8EZ16test_iterators_2IS2_S2_EvvEUliE_EvSt5arrayIiXT1_EET2_mS6_(ptr noundef byval(%"struct.std::array.12") align 8 %0, i64 noundef %1, ptr noundef byval(%"struct.std::array.12") align 8 %2) local_unnamed_addr #0 comdat personality ptr @__gxx_personality_v0 {
  %4 = alloca %class.bidirectional_iterator, align 8
  %5 = alloca %class.bidirectional_iterator, align 8
  %6 = alloca %"struct.std::array.12", align 4
  %7 = alloca %"class.std::ranges::subrange.18", align 8
  %8 = alloca %class.bidirectional_iterator, align 8
  %9 = alloca %class.bidirectional_iterator, align 8
  %10 = alloca %"struct.std::array.12", align 4
  %11 = alloca %"class.std::ranges::subrange.18", align 8
  call void @llvm.lifetime.start.p0(ptr nonnull %6) #12
  call void @llvm.memcpy.p0.p0.i64(ptr noundef nonnull align 4 dereferenceable(32) %6, ptr noundef nonnull align 8 dereferenceable(32) %0, i64 32, i1 false), !tbaa.struct !45
  %12 = getelementptr inbounds nuw i8, ptr %6, i64 32
  call void @llvm.lifetime.start.p0(ptr nonnull %7) #12
  store ptr %6, ptr %8, align 8, !tbaa !24
  %13 = getelementptr inbounds nuw i8, ptr %8, i64 8
  store i8 0, ptr %13, align 8, !tbaa !27
  store ptr %12, ptr %9, align 8, !tbaa !24
  %14 = getelementptr inbounds nuw i8, ptr %9, i64 8
  store i8 0, ptr %14, align 8, !tbaa !27
  call void @_ZNKSt6ranges21__stable_partition_fnclITkSt22bidirectional_iterator22bidirectional_iteratorIPiETkSt12sentinel_forIT_ES4_St8identityTkSt24indirect_unary_predicateINSt8__detail11__projectedIS6_T1_E6__typeEEZ16test_iterators_2IS4_S4_EvvEUliE_Q10permutableIS6_EEENS_8subrangeIS6_S6_Xqu18sized_sentinel_forIS6_S6_ELNS_13subrange_kindE1ELSH_0EEEES6_T0_T2_SB_(ptr dead_on_unwind nonnull writable sret(%"class.std::ranges::subrange.18") align 8 %7, ptr noundef nonnull align 1 dereferenceable(1) @_ZNSt6ranges16stable_partitionE, ptr dead_on_return noundef nonnull %8, ptr dead_on_return noundef nonnull %9)
  %15 = call i32 @bcmp(ptr noundef nonnull align 4 dereferenceable(32) %6, ptr noundef nonnull align 4 dereferenceable(32) %2, i64 32)
  %16 = icmp eq i32 %15, 0
  br i1 %16, label %18, label %17

17:                                               ; preds = %3
  call void @__assert_fail(ptr noundef nonnull @.str.24, ptr noundef nonnull @.str.1, i32 noundef 103, ptr noundef nonnull @__PRETTY_FUNCTION__._Z8test_oneI22bidirectional_iteratorIPiES2_Lm8EZ16test_iterators_2IS2_S2_EvvEUliE_EvSt5arrayIiXT1_EET2_mS6_) #13
  unreachable

18:                                               ; preds = %3
  %19 = load ptr, ptr %7, align 8, !tbaa !24
  %20 = getelementptr inbounds nuw i32, ptr %6, i64 %1
  %21 = icmp eq ptr %19, %20
  br i1 %21, label %23, label %22

22:                                               ; preds = %18
  call void @__assert_fail(ptr noundef nonnull @.str.18, ptr noundef nonnull @.str.1, i32 noundef 104, ptr noundef nonnull @__PRETTY_FUNCTION__._Z8test_oneI22bidirectional_iteratorIPiES2_Lm8EZ16test_iterators_2IS2_S2_EvvEUliE_EvSt5arrayIiXT1_EET2_mS6_) #13
  unreachable

23:                                               ; preds = %18
  %24 = getelementptr inbounds nuw i8, ptr %7, i64 16
  %25 = load ptr, ptr %24, align 8, !tbaa !24
  %26 = icmp eq ptr %25, %12
  br i1 %26, label %28, label %27

27:                                               ; preds = %23
  call void @__assert_fail(ptr noundef nonnull @.str.19, ptr noundef nonnull @.str.1, i32 noundef 105, ptr noundef nonnull @__PRETTY_FUNCTION__._Z8test_oneI22bidirectional_iteratorIPiES2_Lm8EZ16test_iterators_2IS2_S2_EvvEUliE_EvSt5arrayIiXT1_EET2_mS6_) #13
  unreachable

28:                                               ; preds = %23
  %29 = icmp eq ptr %6, %19
  br i1 %29, label %39, label %30

30:                                               ; preds = %28, %35
  %31 = phi ptr [ %36, %35 ], [ %6, %28 ]
  %32 = load i32, ptr %31, align 4, !tbaa !15
  %33 = and i32 %32, 1
  %34 = icmp eq i32 %33, 0
  br i1 %34, label %38, label %35

35:                                               ; preds = %30
  %36 = getelementptr inbounds nuw i8, ptr %31, i64 4
  %37 = icmp eq ptr %36, %19
  br i1 %37, label %39, label %30, !llvm.loop !29

38:                                               ; preds = %30
  call void @__assert_fail(ptr noundef nonnull @.str.20, ptr noundef nonnull @.str.1, i32 noundef 107, ptr noundef nonnull @__PRETTY_FUNCTION__._Z8test_oneI22bidirectional_iteratorIPiES2_Lm8EZ16test_iterators_2IS2_S2_EvvEUliE_EvSt5arrayIiXT1_EET2_mS6_) #13
  unreachable

39:                                               ; preds = %35, %28
  %40 = icmp eq ptr %19, %12
  br i1 %40, label %50, label %41

41:                                               ; preds = %39, %46
  %42 = phi ptr [ %47, %46 ], [ %19, %39 ]
  %43 = load i32, ptr %42, align 4, !tbaa !15
  %44 = and i32 %43, 1
  %45 = icmp eq i32 %44, 0
  br i1 %45, label %46, label %49

46:                                               ; preds = %41
  %47 = getelementptr inbounds nuw i8, ptr %42, i64 4
  %48 = icmp eq ptr %47, %12
  br i1 %48, label %50, label %41, !llvm.loop !46

49:                                               ; preds = %41
  call void @__assert_fail(ptr noundef nonnull @.str.21, ptr noundef nonnull @.str.1, i32 noundef 108, ptr noundef nonnull @__PRETTY_FUNCTION__._Z8test_oneI22bidirectional_iteratorIPiES2_Lm8EZ16test_iterators_2IS2_S2_EvvEUliE_EvSt5arrayIiXT1_EET2_mS6_) #13
  unreachable

50:                                               ; preds = %46, %39
  call void @llvm.lifetime.end.p0(ptr nonnull %7) #12
  call void @llvm.lifetime.end.p0(ptr nonnull %6) #12
  call void @llvm.lifetime.start.p0(ptr nonnull %10) #12
  call void @llvm.memcpy.p0.p0.i64(ptr noundef nonnull align 4 dereferenceable(32) %10, ptr noundef nonnull align 8 dereferenceable(32) %0, i64 32, i1 false), !tbaa.struct !45
  %51 = getelementptr inbounds nuw i8, ptr %10, i64 32
  call void @llvm.lifetime.start.p0(ptr nonnull %11) #12
  call void @llvm.lifetime.start.p0(ptr nonnull %4)
  call void @llvm.lifetime.start.p0(ptr nonnull %5)
  store ptr %10, ptr %4, align 8, !tbaa !24, !noalias !47
  %52 = getelementptr inbounds nuw i8, ptr %4, i64 8
  store i8 0, ptr %52, align 8, !tbaa !27, !noalias !47
  store ptr %51, ptr %5, align 8, !tbaa !24, !noalias !47
  %53 = getelementptr inbounds nuw i8, ptr %5, i64 8
  store i8 0, ptr %53, align 8, !tbaa !27, !noalias !47
  call void @_ZNKSt6ranges21__stable_partition_fnclITkSt22bidirectional_iterator22bidirectional_iteratorIPiETkSt12sentinel_forIT_ES4_St8identityTkSt24indirect_unary_predicateINSt8__detail11__projectedIS6_T1_E6__typeEEZ16test_iterators_2IS4_S4_EvvEUliE_Q10permutableIS6_EEENS_8subrangeIS6_S6_Xqu18sized_sentinel_forIS6_S6_ELNS_13subrange_kindE1ELSH_0EEEES6_T0_T2_SB_(ptr dead_on_unwind nonnull writable sret(%"class.std::ranges::subrange.18") align 8 %11, ptr noundef nonnull align 1 dereferenceable(1) @_ZNSt6ranges16stable_partitionE, ptr dead_on_return noundef nonnull %4, ptr dead_on_return noundef nonnull %5)
  call void @llvm.lifetime.end.p0(ptr nonnull %4)
  call void @llvm.lifetime.end.p0(ptr nonnull %5)
  %54 = call i32 @bcmp(ptr noundef nonnull align 4 dereferenceable(32) %10, ptr noundef nonnull align 4 dereferenceable(32) %2, i64 32)
  %55 = icmp eq i32 %54, 0
  br i1 %55, label %57, label %56

56:                                               ; preds = %50
  call void @__assert_fail(ptr noundef nonnull @.str.24, ptr noundef nonnull @.str.1, i32 noundef 119, ptr noundef nonnull @__PRETTY_FUNCTION__._Z8test_oneI22bidirectional_iteratorIPiES2_Lm8EZ16test_iterators_2IS2_S2_EvvEUliE_EvSt5arrayIiXT1_EET2_mS6_) #13
  unreachable

57:                                               ; preds = %50
  %58 = load ptr, ptr %11, align 8, !tbaa !24
  %59 = getelementptr inbounds nuw i32, ptr %10, i64 %1
  %60 = icmp eq ptr %58, %59
  br i1 %60, label %62, label %61

61:                                               ; preds = %57
  call void @__assert_fail(ptr noundef nonnull @.str.18, ptr noundef nonnull @.str.1, i32 noundef 120, ptr noundef nonnull @__PRETTY_FUNCTION__._Z8test_oneI22bidirectional_iteratorIPiES2_Lm8EZ16test_iterators_2IS2_S2_EvvEUliE_EvSt5arrayIiXT1_EET2_mS6_) #13
  unreachable

62:                                               ; preds = %57
  %63 = getelementptr inbounds nuw i8, ptr %11, i64 16
  %64 = load ptr, ptr %63, align 8, !tbaa !24
  %65 = icmp eq ptr %64, %51
  br i1 %65, label %67, label %66

66:                                               ; preds = %62
  call void @__assert_fail(ptr noundef nonnull @.str.19, ptr noundef nonnull @.str.1, i32 noundef 121, ptr noundef nonnull @__PRETTY_FUNCTION__._Z8test_oneI22bidirectional_iteratorIPiES2_Lm8EZ16test_iterators_2IS2_S2_EvvEUliE_EvSt5arrayIiXT1_EET2_mS6_) #13
  unreachable

67:                                               ; preds = %62
  %68 = icmp eq ptr %10, %58
  br i1 %68, label %78, label %69

69:                                               ; preds = %67, %74
  %70 = phi ptr [ %75, %74 ], [ %10, %67 ]
  %71 = load i32, ptr %70, align 4, !tbaa !15
  %72 = and i32 %71, 1
  %73 = icmp eq i32 %72, 0
  br i1 %73, label %77, label %74

74:                                               ; preds = %69
  %75 = getelementptr inbounds nuw i8, ptr %70, i64 4
  %76 = icmp eq ptr %75, %58
  br i1 %76, label %78, label %69, !llvm.loop !29

77:                                               ; preds = %69
  call void @__assert_fail(ptr noundef nonnull @.str.20, ptr noundef nonnull @.str.1, i32 noundef 123, ptr noundef nonnull @__PRETTY_FUNCTION__._Z8test_oneI22bidirectional_iteratorIPiES2_Lm8EZ16test_iterators_2IS2_S2_EvvEUliE_EvSt5arrayIiXT1_EET2_mS6_) #13
  unreachable

78:                                               ; preds = %74, %67
  %79 = icmp eq ptr %58, %51
  br i1 %79, label %89, label %80

80:                                               ; preds = %78, %85
  %81 = phi ptr [ %86, %85 ], [ %58, %78 ]
  %82 = load i32, ptr %81, align 4, !tbaa !15
  %83 = and i32 %82, 1
  %84 = icmp eq i32 %83, 0
  br i1 %84, label %85, label %88

85:                                               ; preds = %80
  %86 = getelementptr inbounds nuw i8, ptr %81, i64 4
  %87 = icmp eq ptr %86, %51
  br i1 %87, label %89, label %80, !llvm.loop !46

88:                                               ; preds = %80
  call void @__assert_fail(ptr noundef nonnull @.str.21, ptr noundef nonnull @.str.1, i32 noundef 124, ptr noundef nonnull @__PRETTY_FUNCTION__._Z8test_oneI22bidirectional_iteratorIPiES2_Lm8EZ16test_iterators_2IS2_S2_EvvEUliE_EvSt5arrayIiXT1_EET2_mS6_) #13
  unreachable

89:                                               ; preds = %85, %78
  call void @llvm.lifetime.end.p0(ptr nonnull %11) #12
  call void @llvm.lifetime.end.p0(ptr nonnull %10) #12
  ret void
}

; Function Attrs: mustprogress uwtable
define linkonce_odr dso_local void @_Z8test_oneI22bidirectional_iteratorIPiES2_Lm6EZ16test_iterators_2IS2_S2_EvvEUliE_EvSt5arrayIiXT1_EET2_mS6_(ptr noundef byval(%"struct.std::array.13") align 8 %0, i64 noundef %1, ptr noundef byval(%"struct.std::array.13") align 8 %2) local_unnamed_addr #0 comdat personality ptr @__gxx_personality_v0 {
  %4 = alloca %class.bidirectional_iterator, align 8
  %5 = alloca %class.bidirectional_iterator, align 8
  %6 = alloca %"struct.std::array.13", align 4
  %7 = alloca %"class.std::ranges::subrange.18", align 8
  %8 = alloca %class.bidirectional_iterator, align 8
  %9 = alloca %class.bidirectional_iterator, align 8
  %10 = alloca %"struct.std::array.13", align 4
  %11 = alloca %"class.std::ranges::subrange.18", align 8
  call void @llvm.lifetime.start.p0(ptr nonnull %6) #12
  call void @llvm.memcpy.p0.p0.i64(ptr noundef nonnull align 4 dereferenceable(24) %6, ptr noundef nonnull align 8 dereferenceable(24) %0, i64 24, i1 false), !tbaa.struct !50
  %12 = getelementptr inbounds nuw i8, ptr %6, i64 24
  call void @llvm.lifetime.start.p0(ptr nonnull %7) #12
  store ptr %6, ptr %8, align 8, !tbaa !24
  %13 = getelementptr inbounds nuw i8, ptr %8, i64 8
  store i8 0, ptr %13, align 8, !tbaa !27
  store ptr %12, ptr %9, align 8, !tbaa !24
  %14 = getelementptr inbounds nuw i8, ptr %9, i64 8
  store i8 0, ptr %14, align 8, !tbaa !27
  call void @_ZNKSt6ranges21__stable_partition_fnclITkSt22bidirectional_iterator22bidirectional_iteratorIPiETkSt12sentinel_forIT_ES4_St8identityTkSt24indirect_unary_predicateINSt8__detail11__projectedIS6_T1_E6__typeEEZ16test_iterators_2IS4_S4_EvvEUliE_Q10permutableIS6_EEENS_8subrangeIS6_S6_Xqu18sized_sentinel_forIS6_S6_ELNS_13subrange_kindE1ELSH_0EEEES6_T0_T2_SB_(ptr dead_on_unwind nonnull writable sret(%"class.std::ranges::subrange.18") align 8 %7, ptr noundef nonnull align 1 dereferenceable(1) @_ZNSt6ranges16stable_partitionE, ptr dead_on_return noundef nonnull %8, ptr dead_on_return noundef nonnull %9)
  %15 = call i32 @bcmp(ptr noundef nonnull align 4 dereferenceable(24) %6, ptr noundef nonnull align 4 dereferenceable(24) %2, i64 24)
  %16 = icmp eq i32 %15, 0
  br i1 %16, label %18, label %17

17:                                               ; preds = %3
  call void @__assert_fail(ptr noundef nonnull @.str.24, ptr noundef nonnull @.str.1, i32 noundef 103, ptr noundef nonnull @__PRETTY_FUNCTION__._Z8test_oneI22bidirectional_iteratorIPiES2_Lm6EZ16test_iterators_2IS2_S2_EvvEUliE_EvSt5arrayIiXT1_EET2_mS6_) #13
  unreachable

18:                                               ; preds = %3
  %19 = load ptr, ptr %7, align 8, !tbaa !24
  %20 = getelementptr inbounds nuw i32, ptr %6, i64 %1
  %21 = icmp eq ptr %19, %20
  br i1 %21, label %23, label %22

22:                                               ; preds = %18
  call void @__assert_fail(ptr noundef nonnull @.str.18, ptr noundef nonnull @.str.1, i32 noundef 104, ptr noundef nonnull @__PRETTY_FUNCTION__._Z8test_oneI22bidirectional_iteratorIPiES2_Lm6EZ16test_iterators_2IS2_S2_EvvEUliE_EvSt5arrayIiXT1_EET2_mS6_) #13
  unreachable

23:                                               ; preds = %18
  %24 = getelementptr inbounds nuw i8, ptr %7, i64 16
  %25 = load ptr, ptr %24, align 8, !tbaa !24
  %26 = icmp eq ptr %25, %12
  br i1 %26, label %28, label %27

27:                                               ; preds = %23
  call void @__assert_fail(ptr noundef nonnull @.str.19, ptr noundef nonnull @.str.1, i32 noundef 105, ptr noundef nonnull @__PRETTY_FUNCTION__._Z8test_oneI22bidirectional_iteratorIPiES2_Lm6EZ16test_iterators_2IS2_S2_EvvEUliE_EvSt5arrayIiXT1_EET2_mS6_) #13
  unreachable

28:                                               ; preds = %23
  %29 = icmp eq ptr %6, %19
  br i1 %29, label %39, label %30

30:                                               ; preds = %28, %35
  %31 = phi ptr [ %36, %35 ], [ %6, %28 ]
  %32 = load i32, ptr %31, align 4, !tbaa !15
  %33 = and i32 %32, 1
  %34 = icmp eq i32 %33, 0
  br i1 %34, label %38, label %35

35:                                               ; preds = %30
  %36 = getelementptr inbounds nuw i8, ptr %31, i64 4
  %37 = icmp eq ptr %36, %19
  br i1 %37, label %39, label %30, !llvm.loop !29

38:                                               ; preds = %30
  call void @__assert_fail(ptr noundef nonnull @.str.20, ptr noundef nonnull @.str.1, i32 noundef 107, ptr noundef nonnull @__PRETTY_FUNCTION__._Z8test_oneI22bidirectional_iteratorIPiES2_Lm6EZ16test_iterators_2IS2_S2_EvvEUliE_EvSt5arrayIiXT1_EET2_mS6_) #13
  unreachable

39:                                               ; preds = %35, %28
  %40 = icmp eq ptr %19, %12
  br i1 %40, label %50, label %41

41:                                               ; preds = %39, %46
  %42 = phi ptr [ %47, %46 ], [ %19, %39 ]
  %43 = load i32, ptr %42, align 4, !tbaa !15
  %44 = and i32 %43, 1
  %45 = icmp eq i32 %44, 0
  br i1 %45, label %46, label %49

46:                                               ; preds = %41
  %47 = getelementptr inbounds nuw i8, ptr %42, i64 4
  %48 = icmp eq ptr %47, %12
  br i1 %48, label %50, label %41, !llvm.loop !51

49:                                               ; preds = %41
  call void @__assert_fail(ptr noundef nonnull @.str.21, ptr noundef nonnull @.str.1, i32 noundef 108, ptr noundef nonnull @__PRETTY_FUNCTION__._Z8test_oneI22bidirectional_iteratorIPiES2_Lm6EZ16test_iterators_2IS2_S2_EvvEUliE_EvSt5arrayIiXT1_EET2_mS6_) #13
  unreachable

50:                                               ; preds = %46, %39
  call void @llvm.lifetime.end.p0(ptr nonnull %7) #12
  call void @llvm.lifetime.end.p0(ptr nonnull %6) #12
  call void @llvm.lifetime.start.p0(ptr nonnull %10) #12
  call void @llvm.memcpy.p0.p0.i64(ptr noundef nonnull align 4 dereferenceable(24) %10, ptr noundef nonnull align 8 dereferenceable(24) %0, i64 24, i1 false), !tbaa.struct !50
  %51 = getelementptr inbounds nuw i8, ptr %10, i64 24
  call void @llvm.lifetime.start.p0(ptr nonnull %11) #12
  call void @llvm.lifetime.start.p0(ptr nonnull %4)
  call void @llvm.lifetime.start.p0(ptr nonnull %5)
  store ptr %10, ptr %4, align 8, !tbaa !24, !noalias !52
  %52 = getelementptr inbounds nuw i8, ptr %4, i64 8
  store i8 0, ptr %52, align 8, !tbaa !27, !noalias !52
  store ptr %51, ptr %5, align 8, !tbaa !24, !noalias !52
  %53 = getelementptr inbounds nuw i8, ptr %5, i64 8
  store i8 0, ptr %53, align 8, !tbaa !27, !noalias !52
  call void @_ZNKSt6ranges21__stable_partition_fnclITkSt22bidirectional_iterator22bidirectional_iteratorIPiETkSt12sentinel_forIT_ES4_St8identityTkSt24indirect_unary_predicateINSt8__detail11__projectedIS6_T1_E6__typeEEZ16test_iterators_2IS4_S4_EvvEUliE_Q10permutableIS6_EEENS_8subrangeIS6_S6_Xqu18sized_sentinel_forIS6_S6_ELNS_13subrange_kindE1ELSH_0EEEES6_T0_T2_SB_(ptr dead_on_unwind nonnull writable sret(%"class.std::ranges::subrange.18") align 8 %11, ptr noundef nonnull align 1 dereferenceable(1) @_ZNSt6ranges16stable_partitionE, ptr dead_on_return noundef nonnull %4, ptr dead_on_return noundef nonnull %5)
  call void @llvm.lifetime.end.p0(ptr nonnull %4)
  call void @llvm.lifetime.end.p0(ptr nonnull %5)
  %54 = call i32 @bcmp(ptr noundef nonnull align 4 dereferenceable(24) %10, ptr noundef nonnull align 4 dereferenceable(24) %2, i64 24)
  %55 = icmp eq i32 %54, 0
  br i1 %55, label %57, label %56

56:                                               ; preds = %50
  call void @__assert_fail(ptr noundef nonnull @.str.24, ptr noundef nonnull @.str.1, i32 noundef 119, ptr noundef nonnull @__PRETTY_FUNCTION__._Z8test_oneI22bidirectional_iteratorIPiES2_Lm6EZ16test_iterators_2IS2_S2_EvvEUliE_EvSt5arrayIiXT1_EET2_mS6_) #13
  unreachable

57:                                               ; preds = %50
  %58 = load ptr, ptr %11, align 8, !tbaa !24
  %59 = getelementptr inbounds nuw i32, ptr %10, i64 %1
  %60 = icmp eq ptr %58, %59
  br i1 %60, label %62, label %61

61:                                               ; preds = %57
  call void @__assert_fail(ptr noundef nonnull @.str.18, ptr noundef nonnull @.str.1, i32 noundef 120, ptr noundef nonnull @__PRETTY_FUNCTION__._Z8test_oneI22bidirectional_iteratorIPiES2_Lm6EZ16test_iterators_2IS2_S2_EvvEUliE_EvSt5arrayIiXT1_EET2_mS6_) #13
  unreachable

62:                                               ; preds = %57
  %63 = getelementptr inbounds nuw i8, ptr %11, i64 16
  %64 = load ptr, ptr %63, align 8, !tbaa !24
  %65 = icmp eq ptr %64, %51
  br i1 %65, label %67, label %66

66:                                               ; preds = %62
  call void @__assert_fail(ptr noundef nonnull @.str.19, ptr noundef nonnull @.str.1, i32 noundef 121, ptr noundef nonnull @__PRETTY_FUNCTION__._Z8test_oneI22bidirectional_iteratorIPiES2_Lm6EZ16test_iterators_2IS2_S2_EvvEUliE_EvSt5arrayIiXT1_EET2_mS6_) #13
  unreachable

67:                                               ; preds = %62
  %68 = icmp eq ptr %10, %58
  br i1 %68, label %78, label %69

69:                                               ; preds = %67, %74
  %70 = phi ptr [ %75, %74 ], [ %10, %67 ]
  %71 = load i32, ptr %70, align 4, !tbaa !15
  %72 = and i32 %71, 1
  %73 = icmp eq i32 %72, 0
  br i1 %73, label %77, label %74

74:                                               ; preds = %69
  %75 = getelementptr inbounds nuw i8, ptr %70, i64 4
  %76 = icmp eq ptr %75, %58
  br i1 %76, label %78, label %69, !llvm.loop !29

77:                                               ; preds = %69
  call void @__assert_fail(ptr noundef nonnull @.str.20, ptr noundef nonnull @.str.1, i32 noundef 123, ptr noundef nonnull @__PRETTY_FUNCTION__._Z8test_oneI22bidirectional_iteratorIPiES2_Lm6EZ16test_iterators_2IS2_S2_EvvEUliE_EvSt5arrayIiXT1_EET2_mS6_) #13
  unreachable

78:                                               ; preds = %74, %67
  %79 = icmp eq ptr %58, %51
  br i1 %79, label %89, label %80

80:                                               ; preds = %78, %85
  %81 = phi ptr [ %86, %85 ], [ %58, %78 ]
  %82 = load i32, ptr %81, align 4, !tbaa !15
  %83 = and i32 %82, 1
  %84 = icmp eq i32 %83, 0
  br i1 %84, label %85, label %88

85:                                               ; preds = %80
  %86 = getelementptr inbounds nuw i8, ptr %81, i64 4
  %87 = icmp eq ptr %86, %51
  br i1 %87, label %89, label %80, !llvm.loop !51

88:                                               ; preds = %80
  call void @__assert_fail(ptr noundef nonnull @.str.21, ptr noundef nonnull @.str.1, i32 noundef 124, ptr noundef nonnull @__PRETTY_FUNCTION__._Z8test_oneI22bidirectional_iteratorIPiES2_Lm6EZ16test_iterators_2IS2_S2_EvvEUliE_EvSt5arrayIiXT1_EET2_mS6_) #13
  unreachable

89:                                               ; preds = %85, %78
  call void @llvm.lifetime.end.p0(ptr nonnull %11) #12
  call void @llvm.lifetime.end.p0(ptr nonnull %10) #12
  ret void
}

; Function Attrs: mustprogress uwtable
define linkonce_odr dso_local void @_Z8test_oneI22bidirectional_iteratorIPiES2_Lm5EZ16test_iterators_2IS2_S2_EvvEUliE0_EvSt5arrayIiXT1_EET2_mS6_(ptr noundef byval(%"struct.std::array.16") align 8 %0, i64 noundef %1, ptr noundef byval(%"struct.std::array.16") align 8 %2) local_unnamed_addr #0 comdat personality ptr @__gxx_personality_v0 {
  %4 = alloca %class.bidirectional_iterator, align 8
  %5 = alloca %class.bidirectional_iterator, align 8
  %6 = alloca %"struct.std::array.16", align 4
  %7 = alloca %"class.std::ranges::subrange.18", align 8
  %8 = alloca %class.bidirectional_iterator, align 8
  %9 = alloca %class.bidirectional_iterator, align 8
  %10 = alloca %"struct.std::array.16", align 4
  %11 = alloca %"class.std::ranges::subrange.18", align 8
  call void @llvm.lifetime.start.p0(ptr nonnull %6) #12
  call void @llvm.memcpy.p0.p0.i64(ptr noundef nonnull align 4 dereferenceable(20) %6, ptr noundef nonnull align 8 dereferenceable(20) %0, i64 20, i1 false), !tbaa.struct !55
  %12 = getelementptr inbounds nuw i8, ptr %6, i64 20
  call void @llvm.lifetime.start.p0(ptr nonnull %7) #12
  store ptr %6, ptr %8, align 8, !tbaa !24
  %13 = getelementptr inbounds nuw i8, ptr %8, i64 8
  store i8 0, ptr %13, align 8, !tbaa !27
  store ptr %12, ptr %9, align 8, !tbaa !24
  %14 = getelementptr inbounds nuw i8, ptr %9, i64 8
  store i8 0, ptr %14, align 8, !tbaa !27
  call void @_ZNKSt6ranges21__stable_partition_fnclITkSt22bidirectional_iterator22bidirectional_iteratorIPiETkSt12sentinel_forIT_ES4_St8identityTkSt24indirect_unary_predicateINSt8__detail11__projectedIS6_T1_E6__typeEEZ16test_iterators_2IS4_S4_EvvEUliE0_Q10permutableIS6_EEENS_8subrangeIS6_S6_Xqu18sized_sentinel_forIS6_S6_ELNS_13subrange_kindE1ELSH_0EEEES6_T0_T2_SB_(ptr dead_on_unwind nonnull writable sret(%"class.std::ranges::subrange.18") align 8 %7, ptr noundef nonnull align 1 dereferenceable(1) @_ZNSt6ranges16stable_partitionE, ptr dead_on_return noundef nonnull %8, ptr dead_on_return noundef nonnull %9)
  %15 = call i32 @bcmp(ptr noundef nonnull align 4 dereferenceable(20) %6, ptr noundef nonnull align 4 dereferenceable(20) %2, i64 20)
  %16 = icmp eq i32 %15, 0
  br i1 %16, label %18, label %17

17:                                               ; preds = %3
  call void @__assert_fail(ptr noundef nonnull @.str.24, ptr noundef nonnull @.str.1, i32 noundef 103, ptr noundef nonnull @__PRETTY_FUNCTION__._Z8test_oneI22bidirectional_iteratorIPiES2_Lm5EZ16test_iterators_2IS2_S2_EvvEUliE0_EvSt5arrayIiXT1_EET2_mS6_) #13
  unreachable

18:                                               ; preds = %3
  %19 = load ptr, ptr %7, align 8, !tbaa !24
  %20 = getelementptr inbounds nuw i32, ptr %6, i64 %1
  %21 = icmp eq ptr %19, %20
  br i1 %21, label %23, label %22

22:                                               ; preds = %18
  call void @__assert_fail(ptr noundef nonnull @.str.18, ptr noundef nonnull @.str.1, i32 noundef 104, ptr noundef nonnull @__PRETTY_FUNCTION__._Z8test_oneI22bidirectional_iteratorIPiES2_Lm5EZ16test_iterators_2IS2_S2_EvvEUliE0_EvSt5arrayIiXT1_EET2_mS6_) #13
  unreachable

23:                                               ; preds = %18
  %24 = getelementptr inbounds nuw i8, ptr %7, i64 16
  %25 = load ptr, ptr %24, align 8, !tbaa !24
  %26 = icmp eq ptr %25, %12
  br i1 %26, label %28, label %27

27:                                               ; preds = %23
  call void @__assert_fail(ptr noundef nonnull @.str.19, ptr noundef nonnull @.str.1, i32 noundef 105, ptr noundef nonnull @__PRETTY_FUNCTION__._Z8test_oneI22bidirectional_iteratorIPiES2_Lm5EZ16test_iterators_2IS2_S2_EvvEUliE0_EvSt5arrayIiXT1_EET2_mS6_) #13
  unreachable

28:                                               ; preds = %23
  %29 = icmp eq ptr %6, %19
  br i1 %29, label %38, label %30

30:                                               ; preds = %28, %34
  %31 = phi ptr [ %35, %34 ], [ %6, %28 ]
  %32 = load i32, ptr %31, align 4, !tbaa !15
  %33 = icmp slt i32 %32, 0
  br i1 %33, label %34, label %37

34:                                               ; preds = %30
  %35 = getelementptr inbounds nuw i8, ptr %31, i64 4
  %36 = icmp eq ptr %35, %19
  br i1 %36, label %38, label %30, !llvm.loop !56

37:                                               ; preds = %30
  call void @__assert_fail(ptr noundef nonnull @.str.20, ptr noundef nonnull @.str.1, i32 noundef 107, ptr noundef nonnull @__PRETTY_FUNCTION__._Z8test_oneI22bidirectional_iteratorIPiES2_Lm5EZ16test_iterators_2IS2_S2_EvvEUliE0_EvSt5arrayIiXT1_EET2_mS6_) #13
  unreachable

38:                                               ; preds = %34, %28
  %39 = icmp eq ptr %19, %12
  br i1 %39, label %48, label %40

40:                                               ; preds = %38, %44
  %41 = phi ptr [ %45, %44 ], [ %19, %38 ]
  %42 = load i32, ptr %41, align 4, !tbaa !15
  %43 = icmp sgt i32 %42, -1
  br i1 %43, label %44, label %47

44:                                               ; preds = %40
  %45 = getelementptr inbounds nuw i8, ptr %41, i64 4
  %46 = icmp eq ptr %45, %12
  br i1 %46, label %48, label %40, !llvm.loop !57

47:                                               ; preds = %40
  call void @__assert_fail(ptr noundef nonnull @.str.21, ptr noundef nonnull @.str.1, i32 noundef 108, ptr noundef nonnull @__PRETTY_FUNCTION__._Z8test_oneI22bidirectional_iteratorIPiES2_Lm5EZ16test_iterators_2IS2_S2_EvvEUliE0_EvSt5arrayIiXT1_EET2_mS6_) #13
  unreachable

48:                                               ; preds = %44, %38
  call void @llvm.lifetime.end.p0(ptr nonnull %7) #12
  call void @llvm.lifetime.end.p0(ptr nonnull %6) #12
  call void @llvm.lifetime.start.p0(ptr nonnull %10) #12
  call void @llvm.memcpy.p0.p0.i64(ptr noundef nonnull align 4 dereferenceable(20) %10, ptr noundef nonnull align 8 dereferenceable(20) %0, i64 20, i1 false), !tbaa.struct !55
  %49 = getelementptr inbounds nuw i8, ptr %10, i64 20
  call void @llvm.lifetime.start.p0(ptr nonnull %11) #12
  call void @llvm.lifetime.start.p0(ptr nonnull %4)
  call void @llvm.lifetime.start.p0(ptr nonnull %5)
  store ptr %10, ptr %4, align 8, !tbaa !24, !noalias !58
  %50 = getelementptr inbounds nuw i8, ptr %4, i64 8
  store i8 0, ptr %50, align 8, !tbaa !27, !noalias !58
  store ptr %49, ptr %5, align 8, !tbaa !24, !noalias !58
  %51 = getelementptr inbounds nuw i8, ptr %5, i64 8
  store i8 0, ptr %51, align 8, !tbaa !27, !noalias !58
  call void @_ZNKSt6ranges21__stable_partition_fnclITkSt22bidirectional_iterator22bidirectional_iteratorIPiETkSt12sentinel_forIT_ES4_St8identityTkSt24indirect_unary_predicateINSt8__detail11__projectedIS6_T1_E6__typeEEZ16test_iterators_2IS4_S4_EvvEUliE0_Q10permutableIS6_EEENS_8subrangeIS6_S6_Xqu18sized_sentinel_forIS6_S6_ELNS_13subrange_kindE1ELSH_0EEEES6_T0_T2_SB_(ptr dead_on_unwind nonnull writable sret(%"class.std::ranges::subrange.18") align 8 %11, ptr noundef nonnull align 1 dereferenceable(1) @_ZNSt6ranges16stable_partitionE, ptr dead_on_return noundef nonnull %4, ptr dead_on_return noundef nonnull %5)
  call void @llvm.lifetime.end.p0(ptr nonnull %4)
  call void @llvm.lifetime.end.p0(ptr nonnull %5)
  %52 = call i32 @bcmp(ptr noundef nonnull align 4 dereferenceable(20) %10, ptr noundef nonnull align 4 dereferenceable(20) %2, i64 20)
  %53 = icmp eq i32 %52, 0
  br i1 %53, label %55, label %54

54:                                               ; preds = %48
  call void @__assert_fail(ptr noundef nonnull @.str.24, ptr noundef nonnull @.str.1, i32 noundef 119, ptr noundef nonnull @__PRETTY_FUNCTION__._Z8test_oneI22bidirectional_iteratorIPiES2_Lm5EZ16test_iterators_2IS2_S2_EvvEUliE0_EvSt5arrayIiXT1_EET2_mS6_) #13
  unreachable

55:                                               ; preds = %48
  %56 = load ptr, ptr %11, align 8, !tbaa !24
  %57 = getelementptr inbounds nuw i32, ptr %10, i64 %1
  %58 = icmp eq ptr %56, %57
  br i1 %58, label %60, label %59

59:                                               ; preds = %55
  call void @__assert_fail(ptr noundef nonnull @.str.18, ptr noundef nonnull @.str.1, i32 noundef 120, ptr noundef nonnull @__PRETTY_FUNCTION__._Z8test_oneI22bidirectional_iteratorIPiES2_Lm5EZ16test_iterators_2IS2_S2_EvvEUliE0_EvSt5arrayIiXT1_EET2_mS6_) #13
  unreachable

60:                                               ; preds = %55
  %61 = getelementptr inbounds nuw i8, ptr %11, i64 16
  %62 = load ptr, ptr %61, align 8, !tbaa !24
  %63 = icmp eq ptr %62, %49
  br i1 %63, label %65, label %64

64:                                               ; preds = %60
  call void @__assert_fail(ptr noundef nonnull @.str.19, ptr noundef nonnull @.str.1, i32 noundef 121, ptr noundef nonnull @__PRETTY_FUNCTION__._Z8test_oneI22bidirectional_iteratorIPiES2_Lm5EZ16test_iterators_2IS2_S2_EvvEUliE0_EvSt5arrayIiXT1_EET2_mS6_) #13
  unreachable

65:                                               ; preds = %60
  %66 = icmp eq ptr %10, %56
  br i1 %66, label %75, label %67

67:                                               ; preds = %65, %71
  %68 = phi ptr [ %72, %71 ], [ %10, %65 ]
  %69 = load i32, ptr %68, align 4, !tbaa !15
  %70 = icmp slt i32 %69, 0
  br i1 %70, label %71, label %74

71:                                               ; preds = %67
  %72 = getelementptr inbounds nuw i8, ptr %68, i64 4
  %73 = icmp eq ptr %72, %56
  br i1 %73, label %75, label %67, !llvm.loop !56

74:                                               ; preds = %67
  call void @__assert_fail(ptr noundef nonnull @.str.20, ptr noundef nonnull @.str.1, i32 noundef 123, ptr noundef nonnull @__PRETTY_FUNCTION__._Z8test_oneI22bidirectional_iteratorIPiES2_Lm5EZ16test_iterators_2IS2_S2_EvvEUliE0_EvSt5arrayIiXT1_EET2_mS6_) #13
  unreachable

75:                                               ; preds = %71, %65
  %76 = icmp eq ptr %56, %49
  br i1 %76, label %85, label %77

77:                                               ; preds = %75, %81
  %78 = phi ptr [ %82, %81 ], [ %56, %75 ]
  %79 = load i32, ptr %78, align 4, !tbaa !15
  %80 = icmp sgt i32 %79, -1
  br i1 %80, label %81, label %84

81:                                               ; preds = %77
  %82 = getelementptr inbounds nuw i8, ptr %78, i64 4
  %83 = icmp eq ptr %82, %49
  br i1 %83, label %85, label %77, !llvm.loop !57

84:                                               ; preds = %77
  call void @__assert_fail(ptr noundef nonnull @.str.21, ptr noundef nonnull @.str.1, i32 noundef 124, ptr noundef nonnull @__PRETTY_FUNCTION__._Z8test_oneI22bidirectional_iteratorIPiES2_Lm5EZ16test_iterators_2IS2_S2_EvvEUliE0_EvSt5arrayIiXT1_EET2_mS6_) #13
  unreachable

85:                                               ; preds = %81, %75
  call void @llvm.lifetime.end.p0(ptr nonnull %11) #12
  call void @llvm.lifetime.end.p0(ptr nonnull %10) #12
  ret void
}

; Function Attrs: mustprogress uwtable
define linkonce_odr dso_local void @_ZNKSt6ranges21__stable_partition_fnclITkSt22bidirectional_iterator22bidirectional_iteratorIPiETkSt12sentinel_forIT_ES4_St8identityTkSt24indirect_unary_predicateINSt8__detail11__projectedIS6_T1_E6__typeEEZ16test_iterators_2IS4_S4_EvvEUliE_Q10permutableIS6_EEENS_8subrangeIS6_S6_Xqu18sized_sentinel_forIS6_S6_ELNS_13subrange_kindE1ELSH_0EEEES6_T0_T2_SB_(ptr dead_on_unwind noalias writable sret(%"class.std::ranges::subrange.18") align 8 %0, ptr noundef nonnull align 1 dereferenceable(1) %1, ptr dead_on_return noundef %2, ptr dead_on_return noundef %3) local_unnamed_addr #0 comdat align 2 {
  %5 = alloca %class.bidirectional_iterator, align 8
  %6 = alloca %class.bidirectional_iterator, align 8
  %7 = alloca %class.anon.7, align 1
  %8 = alloca %"struct.std::identity", align 1
  %9 = alloca %class.bidirectional_iterator, align 8
  %10 = getelementptr inbounds nuw i8, ptr %2, i64 8
  %11 = load ptr, ptr %3, align 8, !tbaa !24
  %12 = getelementptr inbounds nuw i8, ptr %3, i64 8
  %13 = load i8, ptr %12, align 8, !tbaa !27
  %14 = trunc nuw i8 %13 to i1
  br i1 %14, label %15, label %16

15:                                               ; preds = %4
  tail call void @__assert_fail(ptr noundef nonnull @.str.22, ptr noundef nonnull @.str.23, i32 noundef 31, ptr noundef nonnull @__PRETTY_FUNCTION__._ZN7support19double_move_trackeraSEOS0_) #13, !noalias !61
  unreachable

16:                                               ; preds = %4
  call void @llvm.lifetime.start.p0(ptr nonnull %9) #12
  %17 = load i8, ptr %10, align 1, !tbaa !64, !range !66, !noundef !67
  %18 = trunc nuw i8 %17 to i1
  br i1 %18, label %19, label %20

19:                                               ; preds = %16
  tail call void @__assert_fail(ptr noundef nonnull @.str.22, ptr noundef nonnull @.str.23, i32 noundef 24, ptr noundef nonnull @__PRETTY_FUNCTION__._ZN7support19double_move_trackerC2EOS0_) #13
  unreachable

20:                                               ; preds = %16
  %21 = load ptr, ptr %2, align 8, !tbaa !68
  store i8 1, ptr %10, align 8, !tbaa !64
  call void @llvm.lifetime.start.p0(ptr nonnull %5)
  call void @llvm.lifetime.start.p0(ptr nonnull %6)
  store ptr %21, ptr %5, align 8, !tbaa !24, !noalias !70
  %22 = getelementptr inbounds nuw i8, ptr %5, i64 8
  store i8 0, ptr %22, align 8, !tbaa !27, !noalias !70
  store ptr %11, ptr %6, align 8, !tbaa !24, !noalias !70
  %23 = getelementptr inbounds nuw i8, ptr %6, i64 8
  store i8 0, ptr %23, align 8, !tbaa !27, !noalias !70
  call void @_ZSt18__stable_partitionI22bidirectional_iteratorIPiEN9__gnu_cxx5__ops10_Iter_predIZNSt6ranges8__detail16__make_pred_projIZ16test_iterators_2IS2_S2_EvvEUliE_St8identityEEDaRT_RT0_EUlTyOSC_E_EEESC_SC_SC_SE_(ptr dead_on_unwind nonnull writable sret(%class.bidirectional_iterator) align 8 %9, ptr dead_on_return noundef nonnull %5, ptr dead_on_return noundef nonnull %6, ptr nonnull %7, ptr nonnull %8)
  call void @llvm.lifetime.end.p0(ptr nonnull %5)
  call void @llvm.lifetime.end.p0(ptr nonnull %6)
  %24 = getelementptr inbounds nuw i8, ptr %9, i64 8
  %25 = load i8, ptr %24, align 8, !tbaa !64, !range !66, !noundef !67
  %26 = trunc nuw i8 %25 to i1
  br i1 %26, label %27, label %28

27:                                               ; preds = %20
  call void @__assert_fail(ptr noundef nonnull @.str.22, ptr noundef nonnull @.str.23, i32 noundef 24, ptr noundef nonnull @__PRETTY_FUNCTION__._ZN7support19double_move_trackerC2EOS0_) #13
  unreachable

28:                                               ; preds = %20
  %29 = load ptr, ptr %9, align 8, !tbaa !68
  store ptr %29, ptr %0, align 8, !tbaa !68
  %30 = getelementptr inbounds nuw i8, ptr %0, i64 8
  store i8 0, ptr %30, align 8, !tbaa !64
  %31 = getelementptr inbounds nuw i8, ptr %0, i64 16
  store ptr %11, ptr %31, align 8, !tbaa !24
  %32 = getelementptr inbounds nuw i8, ptr %0, i64 24
  store i8 0, ptr %32, align 8, !tbaa !27
  call void @llvm.lifetime.end.p0(ptr nonnull %9) #12
  ret void
}

; Function Attrs: mustprogress uwtable
define linkonce_odr dso_local void @_ZSt18__stable_partitionI22bidirectional_iteratorIPiEN9__gnu_cxx5__ops10_Iter_predIZNSt6ranges8__detail16__make_pred_projIZ16test_iterators_2IS2_S2_EvvEUliE_St8identityEEDaRT_RT0_EUlTyOSC_E_EEESC_SC_SC_SE_(ptr dead_on_unwind noalias writable sret(%class.bidirectional_iterator) align 8 %0, ptr dead_on_return noundef %1, ptr dead_on_return noundef %2, ptr %3, ptr %4) local_unnamed_addr #0 comdat personality ptr @__gxx_personality_v0 {
  %6 = alloca %class.bidirectional_iterator, align 8
  %7 = alloca %class.bidirectional_iterator, align 8
  %8 = load ptr, ptr %1, align 8, !tbaa !24
  %9 = getelementptr inbounds nuw i8, ptr %1, i64 8
  %10 = load i8, ptr %9, align 8, !tbaa !27
  %11 = load ptr, ptr %2, align 8, !tbaa !24
  %12 = icmp eq ptr %8, %11
  br i1 %12, label %21, label %13

13:                                               ; preds = %5, %18
  %14 = phi ptr [ %19, %18 ], [ %8, %5 ]
  %15 = load i32, ptr %14, align 4, !tbaa !15, !noalias !73
  %16 = and i32 %15, 1
  %17 = icmp eq i32 %16, 0
  br i1 %17, label %21, label %18

18:                                               ; preds = %13
  %19 = getelementptr inbounds nuw i8, ptr %14, i64 4
  %20 = icmp eq ptr %19, %11
  br i1 %20, label %21, label %13, !llvm.loop !78

21:                                               ; preds = %18, %13, %5
  %22 = phi ptr [ %8, %5 ], [ %19, %18 ], [ %14, %13 ]
  %23 = ptrtoint ptr %22 to i64
  %24 = trunc nuw i8 %10 to i1
  br i1 %24, label %25, label %26

25:                                               ; preds = %21
  tail call void @__assert_fail(ptr noundef nonnull @.str.22, ptr noundef nonnull @.str.23, i32 noundef 24, ptr noundef nonnull @__PRETTY_FUNCTION__._ZN7support19double_move_trackerC2EOS0_) #13, !noalias !73
  unreachable

26:                                               ; preds = %21
  store ptr %22, ptr %1, align 8, !tbaa !68
  store i8 0, ptr %9, align 8, !tbaa !64
  %27 = load ptr, ptr %2, align 8, !tbaa !68
  %28 = icmp eq ptr %22, %27
  br i1 %28, label %36, label %29

29:                                               ; preds = %26
  %30 = ptrtoint ptr %27 to i64
  %31 = add i64 %30, -4
  %32 = sub i64 %31, %23
  %33 = lshr i64 %32, 2
  %34 = add nuw nsw i64 %33, 1
  %35 = tail call i64 @llvm.umin.i64(i64 %34, i64 2305843009213693951)
  br label %38

36:                                               ; preds = %26
  store ptr %22, ptr %0, align 8, !tbaa !68
  %37 = getelementptr inbounds nuw i8, ptr %0, i64 8
  store i8 0, ptr %37, align 8, !tbaa !64
  br label %54

38:                                               ; preds = %43, %29
  %39 = phi i64 [ %45, %43 ], [ %35, %29 ]
  %40 = shl nuw nsw i64 %39, 2
  %41 = tail call noalias noundef ptr @_ZnwmRKSt9nothrow_t(i64 noundef %40, ptr noundef nonnull align 1 dereferenceable(1) @_ZSt7nothrow) #14
  %42 = icmp eq ptr %41, null
  br i1 %42, label %43, label %47

43:                                               ; preds = %38
  %44 = add nuw nsw i64 %39, 1
  %45 = lshr i64 %44, 1
  %46 = icmp samesign ult i64 %39, 2
  br i1 %46, label %47, label %38, !llvm.loop !79

47:                                               ; preds = %38, %43
  %48 = phi i64 [ 0, %43 ], [ %39, %38 ]
  call void @llvm.memcpy.p0.p0.i64(ptr noundef nonnull align 8 dereferenceable(16) %6, ptr noundef nonnull align 8 dereferenceable(16) %1, i64 16, i1 false), !tbaa.struct !80
  call void @llvm.memcpy.p0.p0.i64(ptr noundef nonnull align 8 dereferenceable(16) %7, ptr noundef nonnull align 8 dereferenceable(16) %2, i64 16, i1 false), !tbaa.struct !80
  invoke void @_ZSt27__stable_partition_adaptiveI22bidirectional_iteratorIPiES1_N9__gnu_cxx5__ops10_Iter_predIZNSt6ranges8__detail16__make_pred_projIZ16test_iterators_2IS2_S2_EvvEUliE_St8identityEEDaRT_RT0_EUlTyOSC_E_EElESC_SC_SC_T1_T2_SE_SK_(ptr dead_on_unwind writable sret(%class.bidirectional_iterator) align 8 %0, ptr dead_on_return noundef nonnull %6, ptr dead_on_return noundef nonnull %7, ptr %3, ptr %4, i64 noundef %34, ptr noundef %41, i64 noundef %48)
          to label %49 unwind label %51

49:                                               ; preds = %47
  %50 = shl nuw nsw i64 %48, 2
  call void @_ZdlPvm(ptr noundef %41, i64 noundef %50) #12
  br label %54

51:                                               ; preds = %47
  %52 = landingpad { ptr, i32 }
          cleanup
  %53 = shl nuw nsw i64 %48, 2
  call void @_ZdlPvm(ptr noundef %41, i64 noundef %53) #12
  resume { ptr, i32 } %52

54:                                               ; preds = %49, %36
  ret void
}

; Function Attrs: mustprogress uwtable
define linkonce_odr dso_local void @_ZSt27__stable_partition_adaptiveI22bidirectional_iteratorIPiES1_N9__gnu_cxx5__ops10_Iter_predIZNSt6ranges8__detail16__make_pred_projIZ16test_iterators_2IS2_S2_EvvEUliE_St8identityEEDaRT_RT0_EUlTyOSC_E_EElESC_SC_SC_T1_T2_SE_SK_(ptr dead_on_unwind noalias writable sret(%class.bidirectional_iterator) align 8 %0, ptr dead_on_return noundef %1, ptr dead_on_return noundef %2, ptr %3, ptr %4, i64 noundef %5, ptr noundef %6, i64 noundef %7) local_unnamed_addr #0 comdat personality ptr @__gxx_personality_v0 {
  %9 = alloca %class.bidirectional_iterator, align 8
  %10 = alloca %class.bidirectional_iterator, align 8
  %11 = alloca %class.bidirectional_iterator, align 8
  %12 = alloca [7 x i8], align 1
  %13 = alloca %class.bidirectional_iterator, align 8
  %14 = alloca %class.bidirectional_iterator, align 8
  %15 = alloca %class.bidirectional_iterator, align 8
  %16 = alloca %class.bidirectional_iterator, align 8
  %17 = alloca %class.bidirectional_iterator, align 8
  %18 = alloca %class.bidirectional_iterator, align 8
  %19 = icmp eq i64 %5, 1
  br i1 %19, label %20, label %27

20:                                               ; preds = %8
  %21 = load ptr, ptr %1, align 8, !tbaa !68
  store ptr %21, ptr %0, align 8, !tbaa !68
  %22 = getelementptr inbounds nuw i8, ptr %0, i64 8
  %23 = getelementptr inbounds nuw i8, ptr %1, i64 8
  store i8 0, ptr %22, align 8, !tbaa !64
  %24 = load i8, ptr %23, align 8, !tbaa !64, !range !66, !noundef !67
  %25 = trunc nuw i8 %24 to i1
  br i1 %25, label %26, label %152

26:                                               ; preds = %20
  tail call void @__assert_fail(ptr noundef nonnull @.str.22, ptr noundef nonnull @.str.23, i32 noundef 24, ptr noundef nonnull @__PRETTY_FUNCTION__._ZN7support19double_move_trackerC2EOS0_) #13
  unreachable

27:                                               ; preds = %8
  %28 = icmp sgt i64 %5, %7
  br i1 %28, label %107, label %29

29:                                               ; preds = %27
  tail call void @llvm.memcpy.p0.p0.i64(ptr noundef nonnull align 8 dereferenceable(16) %0, ptr noundef nonnull align 8 dereferenceable(16) %1, i64 16, i1 false), !tbaa.struct !80
  %30 = load ptr, ptr %1, align 8, !tbaa !68
  %31 = load i32, ptr %30, align 4, !tbaa !15
  store i32 %31, ptr %6, align 4, !tbaa !15
  %32 = getelementptr inbounds nuw i8, ptr %6, i64 4
  %33 = load ptr, ptr %0, align 8
  %34 = getelementptr inbounds nuw i8, ptr %30, i64 4
  store ptr %34, ptr %1, align 8, !tbaa !68
  %35 = load ptr, ptr %2, align 8, !tbaa !68
  %36 = icmp eq ptr %34, %35
  br i1 %36, label %54, label %37

37:                                               ; preds = %29, %48
  %38 = phi ptr [ %51, %48 ], [ %34, %29 ]
  %39 = phi ptr [ %50, %48 ], [ %32, %29 ]
  %40 = phi ptr [ %49, %48 ], [ %33, %29 ]
  %41 = load i32, ptr %38, align 4, !tbaa !15
  %42 = and i32 %41, 1
  %43 = icmp eq i32 %42, 0
  br i1 %43, label %46, label %44

44:                                               ; preds = %37
  store i32 %41, ptr %40, align 4, !tbaa !15
  %45 = getelementptr inbounds nuw i8, ptr %40, i64 4
  br label %48

46:                                               ; preds = %37
  store i32 %41, ptr %39, align 4, !tbaa !15
  %47 = getelementptr inbounds nuw i8, ptr %39, i64 4
  br label %48

48:                                               ; preds = %44, %46
  %49 = phi ptr [ %45, %44 ], [ %40, %46 ]
  %50 = phi ptr [ %39, %44 ], [ %47, %46 ]
  %51 = getelementptr inbounds nuw i8, ptr %38, i64 4
  store ptr %51, ptr %1, align 8, !tbaa !68
  %52 = load ptr, ptr %2, align 8, !tbaa !68
  %53 = icmp eq ptr %51, %52
  br i1 %53, label %54, label %37, !llvm.loop !81

54:                                               ; preds = %48, %29
  %55 = phi ptr [ %33, %29 ], [ %49, %48 ]
  %56 = phi ptr [ %32, %29 ], [ %50, %48 ]
  %57 = ptrtoint ptr %55 to i64
  store ptr %55, ptr %0, align 8
  %58 = getelementptr inbounds nuw i8, ptr %0, i64 8
  %59 = load i8, ptr %58, align 8, !tbaa !27
  %60 = trunc nuw i8 %59 to i1
  br i1 %60, label %61, label %62

61:                                               ; preds = %54
  tail call void @__assert_fail(ptr noundef nonnull @.str.22, ptr noundef nonnull @.str.23, i32 noundef 24, ptr noundef nonnull @__PRETTY_FUNCTION__._ZN7support19double_move_trackerC2EOS0_) #13, !noalias !82
  unreachable

62:                                               ; preds = %54
  %63 = ptrtoint ptr %56 to i64
  %64 = ptrtoint ptr %6 to i64
  %65 = sub i64 %63, %64
  %66 = ashr exact i64 %65, 2
  %67 = icmp sgt i64 %66, 0
  br i1 %67, label %68, label %152

68:                                               ; preds = %62
  %69 = icmp ult i64 %66, 8
  %70 = sub i64 %57, %64
  %71 = icmp ult i64 %70, 32
  %72 = select i1 %69, i1 true, i1 %71
  br i1 %72, label %94, label %73

73:                                               ; preds = %68
  %74 = and i64 %66, 9223372036854775800
  %75 = shl i64 %74, 2
  %76 = getelementptr i8, ptr %55, i64 %75
  %77 = and i64 %66, 7
  %78 = shl i64 %74, 2
  %79 = getelementptr i8, ptr %6, i64 %78
  br label %80

80:                                               ; preds = %80, %73
  %81 = phi i64 [ 0, %73 ], [ %90, %80 ]
  %82 = shl i64 %81, 2
  %83 = getelementptr i8, ptr %55, i64 %82
  %84 = shl i64 %81, 2
  %85 = getelementptr i8, ptr %6, i64 %84
  %86 = getelementptr i8, ptr %85, i64 16
  %87 = load <4 x i32>, ptr %85, align 4, !tbaa !15, !noalias !89
  %88 = load <4 x i32>, ptr %86, align 4, !tbaa !15, !noalias !89
  %89 = getelementptr i8, ptr %83, i64 16
  store <4 x i32> %87, ptr %83, align 4, !tbaa !15, !noalias !89
  store <4 x i32> %88, ptr %89, align 4, !tbaa !15, !noalias !89
  %90 = add nuw i64 %81, 8
  %91 = icmp eq i64 %90, %74
  br i1 %91, label %92, label %80, !llvm.loop !96

92:                                               ; preds = %80
  %93 = icmp eq i64 %66, %74
  br i1 %93, label %152, label %94

94:                                               ; preds = %68, %92
  %95 = phi ptr [ %55, %68 ], [ %76, %92 ]
  %96 = phi i64 [ %66, %68 ], [ %77, %92 ]
  %97 = phi ptr [ %6, %68 ], [ %79, %92 ]
  br label %98

98:                                               ; preds = %94, %98
  %99 = phi ptr [ %104, %98 ], [ %95, %94 ]
  %100 = phi i64 [ %105, %98 ], [ %96, %94 ]
  %101 = phi ptr [ %103, %98 ], [ %97, %94 ]
  %102 = load i32, ptr %101, align 4, !tbaa !15, !noalias !89
  store i32 %102, ptr %99, align 4, !tbaa !15, !noalias !89
  %103 = getelementptr inbounds nuw i8, ptr %101, i64 4
  %104 = getelementptr inbounds nuw i8, ptr %99, i64 4
  %105 = add nsw i64 %100, -1
  %106 = icmp samesign ugt i64 %100, 1
  br i1 %106, label %98, label %152, !llvm.loop !99

107:                                              ; preds = %27
  call void @llvm.lifetime.start.p0(ptr nonnull %12)
  %108 = load ptr, ptr %1, align 8, !tbaa !24
  %109 = getelementptr inbounds nuw i8, ptr %1, i64 8
  %110 = load i8, ptr %109, align 8, !tbaa !27
  %111 = getelementptr inbounds nuw i8, ptr %1, i64 9
  call void @llvm.memcpy.p0.p0.i64(ptr noundef nonnull align 1 dereferenceable(7) %12, ptr noundef nonnull align 1 dereferenceable(7) %111, i64 7, i1 false), !tbaa.struct !67
  %112 = sdiv i64 %5, 2
  %113 = add i64 %5, 1
  %114 = icmp ult i64 %113, 3
  %115 = shl i64 %112, 2
  %116 = select i1 %114, i64 0, i64 %115
  %117 = getelementptr i8, ptr %108, i64 %116
  call void @llvm.lifetime.start.p0(ptr nonnull %13) #12
  call void @llvm.memcpy.p0.p0.i64(ptr noundef nonnull align 8 dereferenceable(16) %14, ptr noundef nonnull align 8 dereferenceable(16) %1, i64 16, i1 false), !tbaa.struct !80
  store ptr %117, ptr %15, align 8, !tbaa !24
  %118 = getelementptr inbounds nuw i8, ptr %15, i64 8
  store i8 %110, ptr %118, align 8, !tbaa !27
  %119 = getelementptr inbounds nuw i8, ptr %15, i64 9
  call void @llvm.memcpy.p0.p0.i64(ptr noundef nonnull align 1 dereferenceable(7) %119, ptr noundef nonnull align 1 dereferenceable(7) %111, i64 7, i1 false)
  call void @_ZSt27__stable_partition_adaptiveI22bidirectional_iteratorIPiES1_N9__gnu_cxx5__ops10_Iter_predIZNSt6ranges8__detail16__make_pred_projIZ16test_iterators_2IS2_S2_EvvEUliE_St8identityEEDaRT_RT0_EUlTyOSC_E_EElESC_SC_SC_T1_T2_SE_SK_(ptr dead_on_unwind nonnull writable sret(%class.bidirectional_iterator) align 8 %13, ptr dead_on_return noundef nonnull %14, ptr dead_on_return noundef nonnull %15, ptr %3, ptr %4, i64 noundef %112, ptr noundef %6, i64 noundef %7)
  %120 = sub nsw i64 %5, %112
  %121 = icmp eq i64 %120, 0
  br i1 %121, label %132, label %122

122:                                              ; preds = %107, %128
  %123 = phi i64 [ %129, %128 ], [ %120, %107 ]
  %124 = phi ptr [ %130, %128 ], [ %117, %107 ]
  %125 = load i32, ptr %124, align 4, !tbaa !15, !noalias !100
  %126 = and i32 %125, 1
  %127 = icmp eq i32 %126, 0
  br i1 %127, label %132, label %128

128:                                              ; preds = %122
  %129 = add nsw i64 %123, -1
  %130 = getelementptr inbounds nuw i8, ptr %124, i64 4
  %131 = icmp eq i64 %129, 0
  br i1 %131, label %132, label %122, !llvm.loop !103

132:                                              ; preds = %128, %122, %107
  %133 = phi i64 [ 0, %107 ], [ 0, %128 ], [ %123, %122 ]
  %134 = phi ptr [ %117, %107 ], [ %130, %128 ], [ %124, %122 ]
  %135 = trunc nuw i8 %110 to i1
  br i1 %135, label %136, label %137

136:                                              ; preds = %132
  call void @__assert_fail(ptr noundef nonnull @.str.22, ptr noundef nonnull @.str.23, i32 noundef 24, ptr noundef nonnull @__PRETTY_FUNCTION__._ZN7support19double_move_trackerC2EOS0_) #13, !noalias !100
  unreachable

137:                                              ; preds = %132
  %138 = icmp eq i64 %133, 0
  br i1 %138, label %147, label %139

139:                                              ; preds = %137
  call void @llvm.lifetime.start.p0(ptr nonnull %16) #12
  store ptr %134, ptr %17, align 8, !tbaa !24
  %140 = getelementptr inbounds nuw i8, ptr %17, i64 8
  store i8 0, ptr %140, align 8, !tbaa !27
  call void @llvm.memcpy.p0.p0.i64(ptr noundef nonnull align 8 dereferenceable(16) %18, ptr noundef nonnull align 8 dereferenceable(16) %2, i64 16, i1 false), !tbaa.struct !80
  call void @_ZSt27__stable_partition_adaptiveI22bidirectional_iteratorIPiES1_N9__gnu_cxx5__ops10_Iter_predIZNSt6ranges8__detail16__make_pred_projIZ16test_iterators_2IS2_S2_EvvEUliE_St8identityEEDaRT_RT0_EUlTyOSC_E_EElESC_SC_SC_T1_T2_SE_SK_(ptr dead_on_unwind nonnull writable sret(%class.bidirectional_iterator) align 8 %16, ptr dead_on_return noundef nonnull %17, ptr dead_on_return noundef nonnull %18, ptr %3, ptr %4, i64 noundef %133, ptr noundef %6, i64 noundef %7)
  %141 = getelementptr inbounds nuw i8, ptr %16, i64 8
  %142 = load i8, ptr %141, align 8, !tbaa !64, !range !66, !noundef !67
  %143 = trunc nuw i8 %142 to i1
  br i1 %143, label %144, label %145

144:                                              ; preds = %139
  call void @__assert_fail(ptr noundef nonnull @.str.22, ptr noundef nonnull @.str.23, i32 noundef 31, ptr noundef nonnull @__PRETTY_FUNCTION__._ZN7support19double_move_trackeraSEOS0_) #13
  unreachable

145:                                              ; preds = %139
  %146 = load ptr, ptr %16, align 8, !tbaa !68
  call void @llvm.lifetime.end.p0(ptr nonnull %16) #12
  br label %147

147:                                              ; preds = %145, %137
  %148 = phi ptr [ %134, %137 ], [ %146, %145 ]
  call void @llvm.lifetime.start.p0(ptr nonnull %9)
  call void @llvm.memcpy.p0.p0.i64(ptr noundef nonnull align 8 dereferenceable(16) %9, ptr noundef nonnull align 8 dereferenceable(16) %13, i64 16, i1 false)
  %149 = getelementptr inbounds nuw i8, ptr %10, i64 9
  call void @llvm.lifetime.start.p0(ptr nonnull %10)
  call void @llvm.memcpy.p0.p0.i64(ptr noundef nonnull align 1 dereferenceable(7) %149, ptr noundef nonnull align 1 dereferenceable(7) %12, i64 7, i1 false)
  call void @llvm.lifetime.start.p0(ptr nonnull %11)
  store ptr %117, ptr %10, align 8, !tbaa !24, !noalias !104
  %150 = getelementptr inbounds nuw i8, ptr %10, i64 8
  store i8 0, ptr %150, align 8, !tbaa !27, !noalias !104
  store ptr %148, ptr %11, align 8, !tbaa !24, !noalias !104
  %151 = getelementptr inbounds nuw i8, ptr %11, i64 8
  store i8 0, ptr %151, align 8, !tbaa !27, !noalias !104
  call void @_ZNSt3_V28__rotateI22bidirectional_iteratorIPiEEET_S4_S4_S4_St26bidirectional_iterator_tag(ptr dead_on_unwind writable sret(%class.bidirectional_iterator) align 8 %0, ptr dead_on_return noundef nonnull %9, ptr dead_on_return noundef nonnull %10, ptr dead_on_return noundef nonnull %11)
  call void @llvm.lifetime.end.p0(ptr nonnull %9)
  call void @llvm.lifetime.end.p0(ptr nonnull %10)
  call void @llvm.lifetime.end.p0(ptr nonnull %11)
  call void @llvm.lifetime.end.p0(ptr nonnull %13) #12
  call void @llvm.lifetime.end.p0(ptr nonnull %12)
  br label %152

152:                                              ; preds = %98, %92, %20, %62, %147
  ret void
}

; Function Attrs: nobuiltin nounwind allocsize(0)
declare noalias noundef ptr @_ZnwmRKSt9nothrow_t(i64 noundef, ptr noundef nonnull align 1 dereferenceable(1)) local_unnamed_addr #6

; Function Attrs: nobuiltin nounwind
declare void @_ZdlPvm(ptr noundef, i64 noundef) local_unnamed_addr #7

; Function Attrs: mustprogress uwtable
define linkonce_odr dso_local void @_ZNSt3_V28__rotateI22bidirectional_iteratorIPiEEET_S4_S4_S4_St26bidirectional_iterator_tag(ptr dead_on_unwind noalias writable sret(%class.bidirectional_iterator) align 8 %0, ptr dead_on_return noundef %1, ptr dead_on_return noundef %2, ptr dead_on_return noundef %3) local_unnamed_addr #0 comdat {
  %5 = load ptr, ptr %1, align 8, !tbaa !68
  %6 = ptrtoint ptr %5 to i64
  %7 = load ptr, ptr %2, align 8, !tbaa !68
  %8 = ptrtoint ptr %7 to i64
  %9 = icmp eq ptr %5, %7
  %10 = load ptr, ptr %3, align 8, !tbaa !68
  %11 = ptrtoint ptr %10 to i64
  br i1 %9, label %12, label %18

12:                                               ; preds = %4
  store ptr %10, ptr %0, align 8, !tbaa !68
  %13 = getelementptr inbounds nuw i8, ptr %0, i64 8
  %14 = getelementptr inbounds nuw i8, ptr %3, i64 8
  store i8 0, ptr %13, align 8, !tbaa !64
  %15 = load i8, ptr %14, align 1, !tbaa !64, !range !66, !noundef !67
  %16 = trunc nuw i8 %15 to i1
  br i1 %16, label %17, label %360

17:                                               ; preds = %12
  tail call void @__assert_fail(ptr noundef nonnull @.str.22, ptr noundef nonnull @.str.23, i32 noundef 24, ptr noundef nonnull @__PRETTY_FUNCTION__._ZN7support19double_move_trackerC2EOS0_) #13
  unreachable

18:                                               ; preds = %4
  %19 = icmp eq ptr %10, %7
  br i1 %19, label %20, label %26

20:                                               ; preds = %18
  store ptr %5, ptr %0, align 8, !tbaa !68
  %21 = getelementptr inbounds nuw i8, ptr %0, i64 8
  %22 = getelementptr inbounds nuw i8, ptr %1, i64 8
  store i8 0, ptr %21, align 8, !tbaa !64
  %23 = load i8, ptr %22, align 1, !tbaa !64, !range !66, !noundef !67
  %24 = trunc nuw i8 %23 to i1
  br i1 %24, label %25, label %360

25:                                               ; preds = %20
  tail call void @__assert_fail(ptr noundef nonnull @.str.22, ptr noundef nonnull @.str.23, i32 noundef 24, ptr noundef nonnull @__PRETTY_FUNCTION__._ZN7support19double_move_trackerC2EOS0_) #13
  unreachable

26:                                               ; preds = %18
  %27 = getelementptr inbounds nuw i8, ptr %1, i64 8
  %28 = add i64 %8, -4
  %29 = sub i64 %28, %6
  %30 = lshr i64 %29, 3
  %31 = add i64 %8, -8
  %32 = sub i64 %31, %6
  %33 = lshr i64 %32, 3
  %34 = tail call i64 @llvm.umin.i64(i64 %30, i64 %33)
  %35 = add nuw nsw i64 %34, 1
  %36 = icmp samesign ult i64 %34, 36
  br i1 %36, label %88, label %37

37:                                               ; preds = %26
  %38 = xor i64 %8, 4
  %39 = sub i64 %38, %6
  %40 = sub i64 %8, %6
  %41 = or i64 %39, %40
  %42 = and i64 %41, 7
  %43 = icmp eq i64 %42, 0
  br i1 %43, label %44, label %88

44:                                               ; preds = %37
  %45 = add i64 %8, -4
  %46 = sub i64 %45, %6
  %47 = lshr i64 %46, 3
  %48 = add i64 %8, -8
  %49 = sub i64 %48, %6
  %50 = lshr i64 %49, 3
  %51 = tail call i64 @llvm.umin.i64(i64 %47, i64 %50)
  %52 = shl nuw nsw i64 %51, 2
  %53 = getelementptr i8, ptr %5, i64 %52
  %54 = getelementptr i8, ptr %53, i64 4
  %55 = sub nuw nsw i64 -4, %52
  %56 = getelementptr i8, ptr %7, i64 %55
  %57 = icmp ult ptr %5, %7
  %58 = icmp ult ptr %56, %54
  %59 = and i1 %57, %58
  br i1 %59, label %88, label %60

60:                                               ; preds = %44
  %61 = and i64 %35, 7
  %62 = icmp eq i64 %61, 0
  %63 = select i1 %62, i64 8, i64 %61
  %64 = sub nsw i64 %35, %63
  %65 = shl i64 %64, 2
  %66 = getelementptr i8, ptr %5, i64 %65
  %67 = mul i64 %64, -4
  %68 = getelementptr i8, ptr %7, i64 %67
  br label %69

69:                                               ; preds = %69, %60
  %70 = phi i64 [ 0, %60 ], [ %86, %69 ]
  %71 = shl i64 %70, 2
  %72 = getelementptr i8, ptr %5, i64 %71
  %73 = mul i64 %70, -4
  %74 = getelementptr i8, ptr %7, i64 %73
  %75 = getelementptr i8, ptr %72, i64 16
  %76 = load <4 x i32>, ptr %72, align 4, !tbaa !15, !alias.scope !107, !noalias !110
  %77 = load <4 x i32>, ptr %75, align 4, !tbaa !15, !alias.scope !107, !noalias !110
  %78 = getelementptr inbounds i8, ptr %74, i64 -16
  %79 = getelementptr inbounds i8, ptr %74, i64 -32
  %80 = load <4 x i32>, ptr %78, align 4, !tbaa !15, !alias.scope !110
  %81 = shufflevector <4 x i32> %80, <4 x i32> poison, <4 x i32> <i32 3, i32 2, i32 1, i32 0>
  %82 = load <4 x i32>, ptr %79, align 4, !tbaa !15, !alias.scope !110
  %83 = shufflevector <4 x i32> %82, <4 x i32> poison, <4 x i32> <i32 3, i32 2, i32 1, i32 0>
  store <4 x i32> %81, ptr %72, align 4, !tbaa !15, !alias.scope !107, !noalias !110
  store <4 x i32> %83, ptr %75, align 4, !tbaa !15, !alias.scope !107, !noalias !110
  %84 = shufflevector <4 x i32> %76, <4 x i32> poison, <4 x i32> <i32 3, i32 2, i32 1, i32 0>
  store <4 x i32> %84, ptr %78, align 4, !tbaa !15, !alias.scope !110
  %85 = shufflevector <4 x i32> %77, <4 x i32> poison, <4 x i32> <i32 3, i32 2, i32 1, i32 0>
  store <4 x i32> %85, ptr %79, align 4, !tbaa !15, !alias.scope !110
  %86 = add nuw i64 %70, 8
  %87 = icmp eq i64 %86, %64
  br i1 %87, label %88, label %69, !llvm.loop !112

88:                                               ; preds = %69, %44, %37, %26
  %89 = phi ptr [ %5, %44 ], [ %5, %37 ], [ %5, %26 ], [ %66, %69 ]
  %90 = phi ptr [ %7, %44 ], [ %7, %37 ], [ %7, %26 ], [ %68, %69 ]
  br label %91

91:                                               ; preds = %88, %96
  %92 = phi ptr [ %99, %96 ], [ %89, %88 ]
  %93 = phi ptr [ %94, %96 ], [ %90, %88 ]
  %94 = getelementptr inbounds i8, ptr %93, i64 -4
  %95 = icmp eq ptr %92, %94
  br i1 %95, label %101, label %96

96:                                               ; preds = %91
  %97 = load i32, ptr %92, align 4, !tbaa !15
  %98 = load i32, ptr %94, align 4, !tbaa !15
  store i32 %98, ptr %92, align 4, !tbaa !15
  store i32 %97, ptr %94, align 4, !tbaa !15
  %99 = getelementptr inbounds nuw i8, ptr %92, i64 4
  %100 = icmp eq ptr %99, %94
  br i1 %100, label %101, label %91, !llvm.loop !113

101:                                              ; preds = %91, %96
  %102 = getelementptr inbounds nuw i8, ptr %3, i64 8
  %103 = add i64 %11, -4
  %104 = sub i64 %103, %8
  %105 = lshr i64 %104, 3
  %106 = add i64 %11, -8
  %107 = sub i64 %106, %8
  %108 = lshr i64 %107, 3
  %109 = tail call i64 @llvm.umin.i64(i64 %105, i64 %108)
  %110 = add nuw nsw i64 %109, 1
  %111 = icmp samesign ult i64 %109, 36
  br i1 %111, label %163, label %112

112:                                              ; preds = %101
  %113 = xor i64 %11, 4
  %114 = sub i64 %113, %8
  %115 = sub i64 %11, %8
  %116 = or i64 %114, %115
  %117 = and i64 %116, 7
  %118 = icmp eq i64 %117, 0
  br i1 %118, label %119, label %163

119:                                              ; preds = %112
  %120 = add i64 %11, -4
  %121 = sub i64 %120, %8
  %122 = lshr i64 %121, 3
  %123 = add i64 %11, -8
  %124 = sub i64 %123, %8
  %125 = lshr i64 %124, 3
  %126 = tail call i64 @llvm.umin.i64(i64 %122, i64 %125)
  %127 = shl nuw nsw i64 %126, 2
  %128 = getelementptr i8, ptr %7, i64 %127
  %129 = getelementptr i8, ptr %128, i64 4
  %130 = sub nuw nsw i64 -4, %127
  %131 = getelementptr i8, ptr %10, i64 %130
  %132 = icmp ult ptr %7, %10
  %133 = icmp ult ptr %131, %129
  %134 = and i1 %132, %133
  br i1 %134, label %163, label %135

135:                                              ; preds = %119
  %136 = and i64 %110, 7
  %137 = icmp eq i64 %136, 0
  %138 = select i1 %137, i64 8, i64 %136
  %139 = sub nsw i64 %110, %138
  %140 = shl i64 %139, 2
  %141 = getelementptr i8, ptr %7, i64 %140
  %142 = mul i64 %139, -4
  %143 = getelementptr i8, ptr %10, i64 %142
  br label %144

144:                                              ; preds = %144, %135
  %145 = phi i64 [ 0, %135 ], [ %161, %144 ]
  %146 = shl i64 %145, 2
  %147 = getelementptr i8, ptr %7, i64 %146
  %148 = mul i64 %145, -4
  %149 = getelementptr i8, ptr %10, i64 %148
  %150 = getelementptr i8, ptr %147, i64 16
  %151 = load <4 x i32>, ptr %147, align 4, !tbaa !15, !alias.scope !114, !noalias !117
  %152 = load <4 x i32>, ptr %150, align 4, !tbaa !15, !alias.scope !114, !noalias !117
  %153 = getelementptr inbounds i8, ptr %149, i64 -16
  %154 = getelementptr inbounds i8, ptr %149, i64 -32
  %155 = load <4 x i32>, ptr %153, align 4, !tbaa !15, !alias.scope !117
  %156 = shufflevector <4 x i32> %155, <4 x i32> poison, <4 x i32> <i32 3, i32 2, i32 1, i32 0>
  %157 = load <4 x i32>, ptr %154, align 4, !tbaa !15, !alias.scope !117
  %158 = shufflevector <4 x i32> %157, <4 x i32> poison, <4 x i32> <i32 3, i32 2, i32 1, i32 0>
  store <4 x i32> %156, ptr %147, align 4, !tbaa !15, !alias.scope !114, !noalias !117
  store <4 x i32> %158, ptr %150, align 4, !tbaa !15, !alias.scope !114, !noalias !117
  %159 = shufflevector <4 x i32> %151, <4 x i32> poison, <4 x i32> <i32 3, i32 2, i32 1, i32 0>
  store <4 x i32> %159, ptr %153, align 4, !tbaa !15, !alias.scope !117
  %160 = shufflevector <4 x i32> %152, <4 x i32> poison, <4 x i32> <i32 3, i32 2, i32 1, i32 0>
  store <4 x i32> %160, ptr %154, align 4, !tbaa !15, !alias.scope !117
  %161 = add nuw i64 %145, 8
  %162 = icmp eq i64 %161, %139
  br i1 %162, label %163, label %144, !llvm.loop !119

163:                                              ; preds = %144, %119, %112, %101
  %164 = phi ptr [ %7, %119 ], [ %7, %112 ], [ %7, %101 ], [ %141, %144 ]
  %165 = phi ptr [ %10, %119 ], [ %10, %112 ], [ %10, %101 ], [ %143, %144 ]
  br label %166

166:                                              ; preds = %163, %171
  %167 = phi ptr [ %174, %171 ], [ %164, %163 ]
  %168 = phi ptr [ %169, %171 ], [ %165, %163 ]
  %169 = getelementptr inbounds i8, ptr %168, i64 -4
  %170 = icmp eq ptr %167, %169
  br i1 %170, label %176, label %171

171:                                              ; preds = %166
  %172 = load i32, ptr %167, align 4, !tbaa !15
  %173 = load i32, ptr %169, align 4, !tbaa !15
  store i32 %173, ptr %167, align 4, !tbaa !15
  store i32 %172, ptr %169, align 4, !tbaa !15
  %174 = getelementptr inbounds nuw i8, ptr %167, i64 4
  %175 = icmp eq ptr %174, %169
  br i1 %175, label %176, label %166, !llvm.loop !120

176:                                              ; preds = %171, %166
  br label %177

177:                                              ; preds = %176, %182
  %178 = phi ptr [ %188, %182 ], [ %7, %176 ]
  %179 = phi ptr [ %187, %182 ], [ %5, %176 ]
  %180 = load ptr, ptr %3, align 8, !tbaa !68
  %181 = icmp eq ptr %178, %180
  br i1 %181, label %190, label %182

182:                                              ; preds = %177
  %183 = getelementptr inbounds i8, ptr %180, i64 -4
  store ptr %183, ptr %3, align 8, !tbaa !68
  %184 = load i32, ptr %179, align 4, !tbaa !15
  %185 = load i32, ptr %183, align 4, !tbaa !15
  store i32 %185, ptr %179, align 4, !tbaa !15
  store i32 %184, ptr %183, align 4, !tbaa !15
  %186 = load ptr, ptr %1, align 8, !tbaa !68
  %187 = getelementptr inbounds nuw i8, ptr %186, i64 4
  store ptr %187, ptr %1, align 8, !tbaa !68
  %188 = load ptr, ptr %2, align 8, !tbaa !68
  %189 = icmp eq ptr %187, %188
  br i1 %189, label %190, label %177, !llvm.loop !121

190:                                              ; preds = %177, %182
  %191 = phi ptr [ %179, %177 ], [ %187, %182 ]
  %192 = phi ptr [ %178, %177 ], [ %188, %182 ]
  %193 = ptrtoint ptr %192 to i64
  %194 = ptrtoint ptr %191 to i64
  %195 = ptrtoint ptr %192 to i64
  %196 = ptrtoint ptr %191 to i64
  %197 = icmp eq ptr %191, %192
  br i1 %197, label %262, label %198

198:                                              ; preds = %190
  %199 = add i64 %193, -4
  %200 = sub i64 %199, %194
  %201 = lshr i64 %200, 3
  %202 = add i64 %193, -8
  %203 = sub i64 %202, %194
  %204 = lshr i64 %203, 3
  %205 = tail call i64 @llvm.umin.i64(i64 %201, i64 %204)
  %206 = add nuw nsw i64 %205, 1
  %207 = icmp samesign ult i64 %205, 36
  br i1 %207, label %208, label %211

208:                                              ; preds = %243, %218, %211, %198
  %209 = phi ptr [ %191, %218 ], [ %191, %211 ], [ %191, %198 ], [ %240, %243 ]
  %210 = phi ptr [ %192, %218 ], [ %192, %211 ], [ %192, %198 ], [ %242, %243 ]
  br label %345

211:                                              ; preds = %198
  %212 = xor i64 %195, 4
  %213 = sub i64 %212, %196
  %214 = sub i64 %195, %196
  %215 = or i64 %213, %214
  %216 = and i64 %215, 7
  %217 = icmp eq i64 %216, 0
  br i1 %217, label %218, label %208

218:                                              ; preds = %211
  %219 = add i64 %195, -4
  %220 = sub i64 %219, %194
  %221 = lshr i64 %220, 3
  %222 = add i64 %195, -8
  %223 = sub i64 %222, %194
  %224 = lshr i64 %223, 3
  %225 = tail call i64 @llvm.umin.i64(i64 %221, i64 %224)
  %226 = shl nuw nsw i64 %225, 2
  %227 = getelementptr i8, ptr %191, i64 %226
  %228 = getelementptr i8, ptr %227, i64 4
  %229 = sub nuw nsw i64 -4, %226
  %230 = getelementptr i8, ptr %192, i64 %229
  %231 = icmp ult ptr %191, %192
  %232 = icmp ult ptr %230, %228
  %233 = and i1 %231, %232
  br i1 %233, label %208, label %234

234:                                              ; preds = %218
  %235 = and i64 %206, 7
  %236 = icmp eq i64 %235, 0
  %237 = select i1 %236, i64 8, i64 %235
  %238 = sub nsw i64 %206, %237
  %239 = shl i64 %238, 2
  %240 = getelementptr i8, ptr %191, i64 %239
  %241 = mul i64 %238, -4
  %242 = getelementptr i8, ptr %192, i64 %241
  br label %243

243:                                              ; preds = %243, %234
  %244 = phi i64 [ 0, %234 ], [ %260, %243 ]
  %245 = shl i64 %244, 2
  %246 = getelementptr i8, ptr %191, i64 %245
  %247 = mul i64 %244, -4
  %248 = getelementptr i8, ptr %192, i64 %247
  %249 = getelementptr i8, ptr %246, i64 16
  %250 = load <4 x i32>, ptr %246, align 4, !tbaa !15, !alias.scope !122, !noalias !125
  %251 = load <4 x i32>, ptr %249, align 4, !tbaa !15, !alias.scope !122, !noalias !125
  %252 = getelementptr inbounds i8, ptr %248, i64 -16
  %253 = getelementptr inbounds i8, ptr %248, i64 -32
  %254 = load <4 x i32>, ptr %252, align 4, !tbaa !15, !alias.scope !125
  %255 = shufflevector <4 x i32> %254, <4 x i32> poison, <4 x i32> <i32 3, i32 2, i32 1, i32 0>
  %256 = load <4 x i32>, ptr %253, align 4, !tbaa !15, !alias.scope !125
  %257 = shufflevector <4 x i32> %256, <4 x i32> poison, <4 x i32> <i32 3, i32 2, i32 1, i32 0>
  store <4 x i32> %255, ptr %246, align 4, !tbaa !15, !alias.scope !122, !noalias !125
  store <4 x i32> %257, ptr %249, align 4, !tbaa !15, !alias.scope !122, !noalias !125
  %258 = shufflevector <4 x i32> %250, <4 x i32> poison, <4 x i32> <i32 3, i32 2, i32 1, i32 0>
  store <4 x i32> %258, ptr %252, align 4, !tbaa !15, !alias.scope !125
  %259 = shufflevector <4 x i32> %251, <4 x i32> poison, <4 x i32> <i32 3, i32 2, i32 1, i32 0>
  store <4 x i32> %259, ptr %253, align 4, !tbaa !15, !alias.scope !125
  %260 = add nuw i64 %244, 8
  %261 = icmp eq i64 %260, %238
  br i1 %261, label %208, label %243, !llvm.loop !127

262:                                              ; preds = %190
  %263 = load ptr, ptr %3, align 8, !tbaa !24
  %264 = ptrtoint ptr %263 to i64
  %265 = icmp eq ptr %191, %263
  br i1 %265, label %340, label %266

266:                                              ; preds = %262
  %267 = add i64 %264, -4
  %268 = sub i64 %267, %193
  %269 = lshr i64 %268, 3
  %270 = add i64 %264, -8
  %271 = sub i64 %270, %193
  %272 = lshr i64 %271, 3
  %273 = tail call i64 @llvm.umin.i64(i64 %269, i64 %272)
  %274 = add nuw nsw i64 %273, 1
  %275 = icmp samesign ult i64 %273, 36
  br i1 %275, label %327, label %276

276:                                              ; preds = %266
  %277 = xor i64 %264, 4
  %278 = sub i64 %277, %193
  %279 = sub i64 %264, %193
  %280 = or i64 %278, %279
  %281 = and i64 %280, 7
  %282 = icmp eq i64 %281, 0
  br i1 %282, label %283, label %327

283:                                              ; preds = %276
  %284 = add i64 %264, -4
  %285 = sub i64 %284, %193
  %286 = lshr i64 %285, 3
  %287 = add i64 %264, -8
  %288 = sub i64 %287, %193
  %289 = lshr i64 %288, 3
  %290 = tail call i64 @llvm.umin.i64(i64 %286, i64 %289)
  %291 = shl nuw nsw i64 %290, 2
  %292 = getelementptr i8, ptr %192, i64 %291
  %293 = getelementptr i8, ptr %292, i64 4
  %294 = sub nuw nsw i64 -4, %291
  %295 = getelementptr i8, ptr %263, i64 %294
  %296 = icmp ult ptr %192, %263
  %297 = icmp ult ptr %295, %293
  %298 = and i1 %296, %297
  br i1 %298, label %327, label %299

299:                                              ; preds = %283
  %300 = and i64 %274, 7
  %301 = icmp eq i64 %300, 0
  %302 = select i1 %301, i64 8, i64 %300
  %303 = sub nsw i64 %274, %302
  %304 = shl i64 %303, 2
  %305 = getelementptr i8, ptr %192, i64 %304
  %306 = mul i64 %303, -4
  %307 = getelementptr i8, ptr %263, i64 %306
  br label %308

308:                                              ; preds = %308, %299
  %309 = phi i64 [ 0, %299 ], [ %325, %308 ]
  %310 = shl i64 %309, 2
  %311 = getelementptr i8, ptr %192, i64 %310
  %312 = mul i64 %309, -4
  %313 = getelementptr i8, ptr %263, i64 %312
  %314 = getelementptr i8, ptr %311, i64 16
  %315 = load <4 x i32>, ptr %311, align 4, !tbaa !15, !alias.scope !128, !noalias !131
  %316 = load <4 x i32>, ptr %314, align 4, !tbaa !15, !alias.scope !128, !noalias !131
  %317 = getelementptr inbounds i8, ptr %313, i64 -16
  %318 = getelementptr inbounds i8, ptr %313, i64 -32
  %319 = load <4 x i32>, ptr %317, align 4, !tbaa !15, !alias.scope !131
  %320 = shufflevector <4 x i32> %319, <4 x i32> poison, <4 x i32> <i32 3, i32 2, i32 1, i32 0>
  %321 = load <4 x i32>, ptr %318, align 4, !tbaa !15, !alias.scope !131
  %322 = shufflevector <4 x i32> %321, <4 x i32> poison, <4 x i32> <i32 3, i32 2, i32 1, i32 0>
  store <4 x i32> %320, ptr %311, align 4, !tbaa !15, !alias.scope !128, !noalias !131
  store <4 x i32> %322, ptr %314, align 4, !tbaa !15, !alias.scope !128, !noalias !131
  %323 = shufflevector <4 x i32> %315, <4 x i32> poison, <4 x i32> <i32 3, i32 2, i32 1, i32 0>
  store <4 x i32> %323, ptr %317, align 4, !tbaa !15, !alias.scope !131
  %324 = shufflevector <4 x i32> %316, <4 x i32> poison, <4 x i32> <i32 3, i32 2, i32 1, i32 0>
  store <4 x i32> %324, ptr %318, align 4, !tbaa !15, !alias.scope !131
  %325 = add nuw i64 %309, 8
  %326 = icmp eq i64 %325, %303
  br i1 %326, label %327, label %308, !llvm.loop !133

327:                                              ; preds = %308, %283, %276, %266
  %328 = phi ptr [ %192, %283 ], [ %192, %276 ], [ %192, %266 ], [ %305, %308 ]
  %329 = phi ptr [ %263, %283 ], [ %263, %276 ], [ %263, %266 ], [ %307, %308 ]
  br label %330

330:                                              ; preds = %327, %335
  %331 = phi ptr [ %338, %335 ], [ %328, %327 ]
  %332 = phi ptr [ %333, %335 ], [ %329, %327 ]
  %333 = getelementptr inbounds i8, ptr %332, i64 -4
  %334 = icmp eq ptr %331, %333
  br i1 %334, label %340, label %335

335:                                              ; preds = %330
  %336 = load i32, ptr %331, align 4, !tbaa !15
  %337 = load i32, ptr %333, align 4, !tbaa !15
  store i32 %337, ptr %331, align 4, !tbaa !15
  store i32 %336, ptr %333, align 4, !tbaa !15
  %338 = getelementptr inbounds nuw i8, ptr %331, i64 4
  %339 = icmp eq ptr %338, %333
  br i1 %339, label %340, label %330, !llvm.loop !134

340:                                              ; preds = %330, %335, %262
  store ptr %263, ptr %0, align 8, !tbaa !68
  %341 = getelementptr inbounds nuw i8, ptr %0, i64 8
  store i8 0, ptr %341, align 8, !tbaa !64
  %342 = load i8, ptr %102, align 1, !tbaa !64, !range !66, !noundef !67
  %343 = trunc nuw i8 %342 to i1
  br i1 %343, label %344, label %360

344:                                              ; preds = %340
  tail call void @__assert_fail(ptr noundef nonnull @.str.22, ptr noundef nonnull @.str.23, i32 noundef 24, ptr noundef nonnull @__PRETTY_FUNCTION__._ZN7support19double_move_trackerC2EOS0_) #13
  unreachable

345:                                              ; preds = %208, %350
  %346 = phi ptr [ %353, %350 ], [ %209, %208 ]
  %347 = phi ptr [ %348, %350 ], [ %210, %208 ]
  %348 = getelementptr inbounds i8, ptr %347, i64 -4
  %349 = icmp eq ptr %346, %348
  br i1 %349, label %355, label %350

350:                                              ; preds = %345
  %351 = load i32, ptr %346, align 4, !tbaa !15
  %352 = load i32, ptr %348, align 4, !tbaa !15
  store i32 %352, ptr %346, align 4, !tbaa !15
  store i32 %351, ptr %348, align 4, !tbaa !15
  %353 = getelementptr inbounds nuw i8, ptr %346, i64 4
  %354 = icmp eq ptr %353, %348
  br i1 %354, label %355, label %345, !llvm.loop !135

355:                                              ; preds = %345, %350
  store ptr %191, ptr %0, align 8, !tbaa !68
  %356 = getelementptr inbounds nuw i8, ptr %0, i64 8
  store i8 0, ptr %356, align 8, !tbaa !64
  %357 = load i8, ptr %27, align 1, !tbaa !64, !range !66, !noundef !67
  %358 = trunc nuw i8 %357 to i1
  br i1 %358, label %359, label %360

359:                                              ; preds = %355
  tail call void @__assert_fail(ptr noundef nonnull @.str.22, ptr noundef nonnull @.str.23, i32 noundef 24, ptr noundef nonnull @__PRETTY_FUNCTION__._ZN7support19double_move_trackerC2EOS0_) #13
  unreachable

360:                                              ; preds = %355, %340, %20, %12
  ret void
}

; Function Attrs: mustprogress uwtable
define linkonce_odr dso_local void @_ZNKSt6ranges21__stable_partition_fnclITkSt22bidirectional_iterator22bidirectional_iteratorIPiETkSt12sentinel_forIT_ES4_St8identityTkSt24indirect_unary_predicateINSt8__detail11__projectedIS6_T1_E6__typeEEZ16test_iterators_2IS4_S4_EvvEUliE0_Q10permutableIS6_EEENS_8subrangeIS6_S6_Xqu18sized_sentinel_forIS6_S6_ELNS_13subrange_kindE1ELSH_0EEEES6_T0_T2_SB_(ptr dead_on_unwind noalias writable sret(%"class.std::ranges::subrange.18") align 8 %0, ptr noundef nonnull align 1 dereferenceable(1) %1, ptr dead_on_return noundef %2, ptr dead_on_return noundef %3) local_unnamed_addr #0 comdat align 2 {
  %5 = alloca %class.bidirectional_iterator, align 8
  %6 = alloca %class.bidirectional_iterator, align 8
  %7 = alloca %class.anon.14, align 1
  %8 = alloca %"struct.std::identity", align 1
  %9 = alloca %class.bidirectional_iterator, align 8
  %10 = getelementptr inbounds nuw i8, ptr %2, i64 8
  %11 = load ptr, ptr %3, align 8, !tbaa !24
  %12 = getelementptr inbounds nuw i8, ptr %3, i64 8
  %13 = load i8, ptr %12, align 8, !tbaa !27
  %14 = trunc nuw i8 %13 to i1
  br i1 %14, label %15, label %16

15:                                               ; preds = %4
  tail call void @__assert_fail(ptr noundef nonnull @.str.22, ptr noundef nonnull @.str.23, i32 noundef 31, ptr noundef nonnull @__PRETTY_FUNCTION__._ZN7support19double_move_trackeraSEOS0_) #13, !noalias !136
  unreachable

16:                                               ; preds = %4
  call void @llvm.lifetime.start.p0(ptr nonnull %9) #12
  %17 = load i8, ptr %10, align 1, !tbaa !64, !range !66, !noundef !67
  %18 = trunc nuw i8 %17 to i1
  br i1 %18, label %19, label %20

19:                                               ; preds = %16
  tail call void @__assert_fail(ptr noundef nonnull @.str.22, ptr noundef nonnull @.str.23, i32 noundef 24, ptr noundef nonnull @__PRETTY_FUNCTION__._ZN7support19double_move_trackerC2EOS0_) #13
  unreachable

20:                                               ; preds = %16
  %21 = load ptr, ptr %2, align 8, !tbaa !68
  store i8 1, ptr %10, align 8, !tbaa !64
  call void @llvm.lifetime.start.p0(ptr nonnull %5)
  call void @llvm.lifetime.start.p0(ptr nonnull %6)
  store ptr %21, ptr %5, align 8, !tbaa !24, !noalias !139
  %22 = getelementptr inbounds nuw i8, ptr %5, i64 8
  store i8 0, ptr %22, align 8, !tbaa !27, !noalias !139
  store ptr %11, ptr %6, align 8, !tbaa !24, !noalias !139
  %23 = getelementptr inbounds nuw i8, ptr %6, i64 8
  store i8 0, ptr %23, align 8, !tbaa !27, !noalias !139
  call void @_ZSt18__stable_partitionI22bidirectional_iteratorIPiEN9__gnu_cxx5__ops10_Iter_predIZNSt6ranges8__detail16__make_pred_projIZ16test_iterators_2IS2_S2_EvvEUliE0_St8identityEEDaRT_RT0_EUlTyOSC_E_EEESC_SC_SC_SE_(ptr dead_on_unwind nonnull writable sret(%class.bidirectional_iterator) align 8 %9, ptr dead_on_return noundef nonnull %5, ptr dead_on_return noundef nonnull %6, ptr nonnull %7, ptr nonnull %8)
  call void @llvm.lifetime.end.p0(ptr nonnull %5)
  call void @llvm.lifetime.end.p0(ptr nonnull %6)
  %24 = getelementptr inbounds nuw i8, ptr %9, i64 8
  %25 = load i8, ptr %24, align 8, !tbaa !64, !range !66, !noundef !67
  %26 = trunc nuw i8 %25 to i1
  br i1 %26, label %27, label %28

27:                                               ; preds = %20
  call void @__assert_fail(ptr noundef nonnull @.str.22, ptr noundef nonnull @.str.23, i32 noundef 24, ptr noundef nonnull @__PRETTY_FUNCTION__._ZN7support19double_move_trackerC2EOS0_) #13
  unreachable

28:                                               ; preds = %20
  %29 = load ptr, ptr %9, align 8, !tbaa !68
  store ptr %29, ptr %0, align 8, !tbaa !68
  %30 = getelementptr inbounds nuw i8, ptr %0, i64 8
  store i8 0, ptr %30, align 8, !tbaa !64
  %31 = getelementptr inbounds nuw i8, ptr %0, i64 16
  store ptr %11, ptr %31, align 8, !tbaa !24
  %32 = getelementptr inbounds nuw i8, ptr %0, i64 24
  store i8 0, ptr %32, align 8, !tbaa !27
  call void @llvm.lifetime.end.p0(ptr nonnull %9) #12
  ret void
}

; Function Attrs: mustprogress uwtable
define linkonce_odr dso_local void @_ZSt18__stable_partitionI22bidirectional_iteratorIPiEN9__gnu_cxx5__ops10_Iter_predIZNSt6ranges8__detail16__make_pred_projIZ16test_iterators_2IS2_S2_EvvEUliE0_St8identityEEDaRT_RT0_EUlTyOSC_E_EEESC_SC_SC_SE_(ptr dead_on_unwind noalias writable sret(%class.bidirectional_iterator) align 8 %0, ptr dead_on_return noundef %1, ptr dead_on_return noundef %2, ptr %3, ptr %4) local_unnamed_addr #0 comdat personality ptr @__gxx_personality_v0 {
  %6 = alloca %class.bidirectional_iterator, align 8
  %7 = alloca %class.bidirectional_iterator, align 8
  %8 = load ptr, ptr %1, align 8, !tbaa !24
  %9 = getelementptr inbounds nuw i8, ptr %1, i64 8
  %10 = load i8, ptr %9, align 8, !tbaa !27
  %11 = load ptr, ptr %2, align 8, !tbaa !24
  %12 = icmp eq ptr %8, %11
  br i1 %12, label %20, label %13

13:                                               ; preds = %5, %17
  %14 = phi ptr [ %18, %17 ], [ %8, %5 ]
  %15 = load i32, ptr %14, align 4, !tbaa !15, !noalias !142
  %16 = icmp sgt i32 %15, -1
  br i1 %16, label %20, label %17

17:                                               ; preds = %13
  %18 = getelementptr inbounds nuw i8, ptr %14, i64 4
  %19 = icmp eq ptr %18, %11
  br i1 %19, label %20, label %13, !llvm.loop !147

20:                                               ; preds = %17, %13, %5
  %21 = phi ptr [ %8, %5 ], [ %18, %17 ], [ %14, %13 ]
  %22 = ptrtoint ptr %21 to i64
  %23 = trunc nuw i8 %10 to i1
  br i1 %23, label %24, label %25

24:                                               ; preds = %20
  tail call void @__assert_fail(ptr noundef nonnull @.str.22, ptr noundef nonnull @.str.23, i32 noundef 24, ptr noundef nonnull @__PRETTY_FUNCTION__._ZN7support19double_move_trackerC2EOS0_) #13, !noalias !142
  unreachable

25:                                               ; preds = %20
  store ptr %21, ptr %1, align 8, !tbaa !68
  store i8 0, ptr %9, align 8, !tbaa !64
  %26 = load ptr, ptr %2, align 8, !tbaa !68
  %27 = icmp eq ptr %21, %26
  br i1 %27, label %35, label %28

28:                                               ; preds = %25
  %29 = ptrtoint ptr %26 to i64
  %30 = add i64 %29, -4
  %31 = sub i64 %30, %22
  %32 = lshr i64 %31, 2
  %33 = add nuw nsw i64 %32, 1
  %34 = tail call i64 @llvm.umin.i64(i64 %33, i64 2305843009213693951)
  br label %37

35:                                               ; preds = %25
  store ptr %21, ptr %0, align 8, !tbaa !68
  %36 = getelementptr inbounds nuw i8, ptr %0, i64 8
  store i8 0, ptr %36, align 8, !tbaa !64
  br label %53

37:                                               ; preds = %42, %28
  %38 = phi i64 [ %44, %42 ], [ %34, %28 ]
  %39 = shl nuw nsw i64 %38, 2
  %40 = tail call noalias noundef ptr @_ZnwmRKSt9nothrow_t(i64 noundef %39, ptr noundef nonnull align 1 dereferenceable(1) @_ZSt7nothrow) #14
  %41 = icmp eq ptr %40, null
  br i1 %41, label %42, label %46

42:                                               ; preds = %37
  %43 = add nuw nsw i64 %38, 1
  %44 = lshr i64 %43, 1
  %45 = icmp samesign ult i64 %38, 2
  br i1 %45, label %46, label %37, !llvm.loop !79

46:                                               ; preds = %37, %42
  %47 = phi i64 [ 0, %42 ], [ %38, %37 ]
  call void @llvm.memcpy.p0.p0.i64(ptr noundef nonnull align 8 dereferenceable(16) %6, ptr noundef nonnull align 8 dereferenceable(16) %1, i64 16, i1 false), !tbaa.struct !80
  call void @llvm.memcpy.p0.p0.i64(ptr noundef nonnull align 8 dereferenceable(16) %7, ptr noundef nonnull align 8 dereferenceable(16) %2, i64 16, i1 false), !tbaa.struct !80
  invoke void @_ZSt27__stable_partition_adaptiveI22bidirectional_iteratorIPiES1_N9__gnu_cxx5__ops10_Iter_predIZNSt6ranges8__detail16__make_pred_projIZ16test_iterators_2IS2_S2_EvvEUliE0_St8identityEEDaRT_RT0_EUlTyOSC_E_EElESC_SC_SC_T1_T2_SE_SK_(ptr dead_on_unwind writable sret(%class.bidirectional_iterator) align 8 %0, ptr dead_on_return noundef nonnull %6, ptr dead_on_return noundef nonnull %7, ptr %3, ptr %4, i64 noundef %33, ptr noundef %40, i64 noundef %47)
          to label %48 unwind label %50

48:                                               ; preds = %46
  %49 = shl nuw nsw i64 %47, 2
  call void @_ZdlPvm(ptr noundef %40, i64 noundef %49) #12
  br label %53

50:                                               ; preds = %46
  %51 = landingpad { ptr, i32 }
          cleanup
  %52 = shl nuw nsw i64 %47, 2
  call void @_ZdlPvm(ptr noundef %40, i64 noundef %52) #12
  resume { ptr, i32 } %51

53:                                               ; preds = %48, %35
  ret void
}

; Function Attrs: mustprogress uwtable
define linkonce_odr dso_local void @_ZSt27__stable_partition_adaptiveI22bidirectional_iteratorIPiES1_N9__gnu_cxx5__ops10_Iter_predIZNSt6ranges8__detail16__make_pred_projIZ16test_iterators_2IS2_S2_EvvEUliE0_St8identityEEDaRT_RT0_EUlTyOSC_E_EElESC_SC_SC_T1_T2_SE_SK_(ptr dead_on_unwind noalias writable sret(%class.bidirectional_iterator) align 8 %0, ptr dead_on_return noundef %1, ptr dead_on_return noundef %2, ptr %3, ptr %4, i64 noundef %5, ptr noundef %6, i64 noundef %7) local_unnamed_addr #0 comdat personality ptr @__gxx_personality_v0 {
  %9 = alloca %class.bidirectional_iterator, align 8
  %10 = alloca %class.bidirectional_iterator, align 8
  %11 = alloca %class.bidirectional_iterator, align 8
  %12 = alloca [7 x i8], align 1
  %13 = alloca %class.bidirectional_iterator, align 8
  %14 = alloca %class.bidirectional_iterator, align 8
  %15 = alloca %class.bidirectional_iterator, align 8
  %16 = alloca %class.bidirectional_iterator, align 8
  %17 = alloca %class.bidirectional_iterator, align 8
  %18 = alloca %class.bidirectional_iterator, align 8
  %19 = icmp eq i64 %5, 1
  br i1 %19, label %20, label %27

20:                                               ; preds = %8
  %21 = load ptr, ptr %1, align 8, !tbaa !68
  store ptr %21, ptr %0, align 8, !tbaa !68
  %22 = getelementptr inbounds nuw i8, ptr %0, i64 8
  %23 = getelementptr inbounds nuw i8, ptr %1, i64 8
  store i8 0, ptr %22, align 8, !tbaa !64
  %24 = load i8, ptr %23, align 8, !tbaa !64, !range !66, !noundef !67
  %25 = trunc nuw i8 %24 to i1
  br i1 %25, label %26, label %150

26:                                               ; preds = %20
  tail call void @__assert_fail(ptr noundef nonnull @.str.22, ptr noundef nonnull @.str.23, i32 noundef 24, ptr noundef nonnull @__PRETTY_FUNCTION__._ZN7support19double_move_trackerC2EOS0_) #13
  unreachable

27:                                               ; preds = %8
  %28 = icmp sgt i64 %5, %7
  br i1 %28, label %106, label %29

29:                                               ; preds = %27
  tail call void @llvm.memcpy.p0.p0.i64(ptr noundef nonnull align 8 dereferenceable(16) %0, ptr noundef nonnull align 8 dereferenceable(16) %1, i64 16, i1 false), !tbaa.struct !80
  %30 = load ptr, ptr %1, align 8, !tbaa !68
  %31 = load i32, ptr %30, align 4, !tbaa !15
  store i32 %31, ptr %6, align 4, !tbaa !15
  %32 = getelementptr inbounds nuw i8, ptr %6, i64 4
  %33 = load ptr, ptr %0, align 8
  %34 = getelementptr inbounds nuw i8, ptr %30, i64 4
  store ptr %34, ptr %1, align 8, !tbaa !68
  %35 = load ptr, ptr %2, align 8, !tbaa !68
  %36 = icmp eq ptr %34, %35
  br i1 %36, label %53, label %37

37:                                               ; preds = %29, %47
  %38 = phi ptr [ %50, %47 ], [ %34, %29 ]
  %39 = phi ptr [ %49, %47 ], [ %32, %29 ]
  %40 = phi ptr [ %48, %47 ], [ %33, %29 ]
  %41 = load i32, ptr %38, align 4, !tbaa !15
  %42 = icmp slt i32 %41, 0
  br i1 %42, label %43, label %45

43:                                               ; preds = %37
  store i32 %41, ptr %40, align 4, !tbaa !15
  %44 = getelementptr inbounds nuw i8, ptr %40, i64 4
  br label %47

45:                                               ; preds = %37
  store i32 %41, ptr %39, align 4, !tbaa !15
  %46 = getelementptr inbounds nuw i8, ptr %39, i64 4
  br label %47

47:                                               ; preds = %43, %45
  %48 = phi ptr [ %44, %43 ], [ %40, %45 ]
  %49 = phi ptr [ %39, %43 ], [ %46, %45 ]
  %50 = getelementptr inbounds nuw i8, ptr %38, i64 4
  store ptr %50, ptr %1, align 8, !tbaa !68
  %51 = load ptr, ptr %2, align 8, !tbaa !68
  %52 = icmp eq ptr %50, %51
  br i1 %52, label %53, label %37, !llvm.loop !148

53:                                               ; preds = %47, %29
  %54 = phi ptr [ %33, %29 ], [ %48, %47 ]
  %55 = phi ptr [ %32, %29 ], [ %49, %47 ]
  %56 = ptrtoint ptr %54 to i64
  store ptr %54, ptr %0, align 8
  %57 = getelementptr inbounds nuw i8, ptr %0, i64 8
  %58 = load i8, ptr %57, align 8, !tbaa !27
  %59 = trunc nuw i8 %58 to i1
  br i1 %59, label %60, label %61

60:                                               ; preds = %53
  tail call void @__assert_fail(ptr noundef nonnull @.str.22, ptr noundef nonnull @.str.23, i32 noundef 24, ptr noundef nonnull @__PRETTY_FUNCTION__._ZN7support19double_move_trackerC2EOS0_) #13, !noalias !149
  unreachable

61:                                               ; preds = %53
  %62 = ptrtoint ptr %55 to i64
  %63 = ptrtoint ptr %6 to i64
  %64 = sub i64 %62, %63
  %65 = ashr exact i64 %64, 2
  %66 = icmp sgt i64 %65, 0
  br i1 %66, label %67, label %150

67:                                               ; preds = %61
  %68 = icmp ult i64 %65, 8
  %69 = sub i64 %56, %63
  %70 = icmp ult i64 %69, 32
  %71 = select i1 %68, i1 true, i1 %70
  br i1 %71, label %93, label %72

72:                                               ; preds = %67
  %73 = and i64 %65, 9223372036854775800
  %74 = shl i64 %73, 2
  %75 = getelementptr i8, ptr %54, i64 %74
  %76 = and i64 %65, 7
  %77 = shl i64 %73, 2
  %78 = getelementptr i8, ptr %6, i64 %77
  br label %79

79:                                               ; preds = %79, %72
  %80 = phi i64 [ 0, %72 ], [ %89, %79 ]
  %81 = shl i64 %80, 2
  %82 = getelementptr i8, ptr %54, i64 %81
  %83 = shl i64 %80, 2
  %84 = getelementptr i8, ptr %6, i64 %83
  %85 = getelementptr i8, ptr %84, i64 16
  %86 = load <4 x i32>, ptr %84, align 4, !tbaa !15, !noalias !156
  %87 = load <4 x i32>, ptr %85, align 4, !tbaa !15, !noalias !156
  %88 = getelementptr i8, ptr %82, i64 16
  store <4 x i32> %86, ptr %82, align 4, !tbaa !15, !noalias !156
  store <4 x i32> %87, ptr %88, align 4, !tbaa !15, !noalias !156
  %89 = add nuw i64 %80, 8
  %90 = icmp eq i64 %89, %73
  br i1 %90, label %91, label %79, !llvm.loop !163

91:                                               ; preds = %79
  %92 = icmp eq i64 %65, %73
  br i1 %92, label %150, label %93

93:                                               ; preds = %67, %91
  %94 = phi ptr [ %54, %67 ], [ %75, %91 ]
  %95 = phi i64 [ %65, %67 ], [ %76, %91 ]
  %96 = phi ptr [ %6, %67 ], [ %78, %91 ]
  br label %97

97:                                               ; preds = %93, %97
  %98 = phi ptr [ %103, %97 ], [ %94, %93 ]
  %99 = phi i64 [ %104, %97 ], [ %95, %93 ]
  %100 = phi ptr [ %102, %97 ], [ %96, %93 ]
  %101 = load i32, ptr %100, align 4, !tbaa !15, !noalias !156
  store i32 %101, ptr %98, align 4, !tbaa !15, !noalias !156
  %102 = getelementptr inbounds nuw i8, ptr %100, i64 4
  %103 = getelementptr inbounds nuw i8, ptr %98, i64 4
  %104 = add nsw i64 %99, -1
  %105 = icmp samesign ugt i64 %99, 1
  br i1 %105, label %97, label %150, !llvm.loop !164

106:                                              ; preds = %27
  call void @llvm.lifetime.start.p0(ptr nonnull %12)
  %107 = load ptr, ptr %1, align 8, !tbaa !24
  %108 = getelementptr inbounds nuw i8, ptr %1, i64 8
  %109 = load i8, ptr %108, align 8, !tbaa !27
  %110 = getelementptr inbounds nuw i8, ptr %1, i64 9
  call void @llvm.memcpy.p0.p0.i64(ptr noundef nonnull align 1 dereferenceable(7) %12, ptr noundef nonnull align 1 dereferenceable(7) %110, i64 7, i1 false), !tbaa.struct !67
  %111 = sdiv i64 %5, 2
  %112 = add i64 %5, 1
  %113 = icmp ult i64 %112, 3
  %114 = shl i64 %111, 2
  %115 = select i1 %113, i64 0, i64 %114
  %116 = getelementptr i8, ptr %107, i64 %115
  call void @llvm.lifetime.start.p0(ptr nonnull %13) #12
  call void @llvm.memcpy.p0.p0.i64(ptr noundef nonnull align 8 dereferenceable(16) %14, ptr noundef nonnull align 8 dereferenceable(16) %1, i64 16, i1 false), !tbaa.struct !80
  store ptr %116, ptr %15, align 8, !tbaa !24
  %117 = getelementptr inbounds nuw i8, ptr %15, i64 8
  store i8 %109, ptr %117, align 8, !tbaa !27
  %118 = getelementptr inbounds nuw i8, ptr %15, i64 9
  call void @llvm.memcpy.p0.p0.i64(ptr noundef nonnull align 1 dereferenceable(7) %118, ptr noundef nonnull align 1 dereferenceable(7) %110, i64 7, i1 false)
  call void @_ZSt27__stable_partition_adaptiveI22bidirectional_iteratorIPiES1_N9__gnu_cxx5__ops10_Iter_predIZNSt6ranges8__detail16__make_pred_projIZ16test_iterators_2IS2_S2_EvvEUliE0_St8identityEEDaRT_RT0_EUlTyOSC_E_EElESC_SC_SC_T1_T2_SE_SK_(ptr dead_on_unwind nonnull writable sret(%class.bidirectional_iterator) align 8 %13, ptr dead_on_return noundef nonnull %14, ptr dead_on_return noundef nonnull %15, ptr %3, ptr %4, i64 noundef %111, ptr noundef %6, i64 noundef %7)
  %119 = sub nsw i64 %5, %111
  %120 = icmp eq i64 %119, 0
  br i1 %120, label %130, label %121

121:                                              ; preds = %106, %126
  %122 = phi i64 [ %127, %126 ], [ %119, %106 ]
  %123 = phi ptr [ %128, %126 ], [ %116, %106 ]
  %124 = load i32, ptr %123, align 4, !tbaa !15, !noalias !165
  %125 = icmp slt i32 %124, 0
  br i1 %125, label %126, label %130

126:                                              ; preds = %121
  %127 = add nsw i64 %122, -1
  %128 = getelementptr inbounds nuw i8, ptr %123, i64 4
  %129 = icmp eq i64 %127, 0
  br i1 %129, label %130, label %121, !llvm.loop !168

130:                                              ; preds = %126, %121, %106
  %131 = phi i64 [ 0, %106 ], [ %122, %121 ], [ 0, %126 ]
  %132 = phi ptr [ %116, %106 ], [ %123, %121 ], [ %128, %126 ]
  %133 = trunc nuw i8 %109 to i1
  br i1 %133, label %134, label %135

134:                                              ; preds = %130
  call void @__assert_fail(ptr noundef nonnull @.str.22, ptr noundef nonnull @.str.23, i32 noundef 24, ptr noundef nonnull @__PRETTY_FUNCTION__._ZN7support19double_move_trackerC2EOS0_) #13, !noalias !165
  unreachable

135:                                              ; preds = %130
  %136 = icmp eq i64 %131, 0
  br i1 %136, label %145, label %137

137:                                              ; preds = %135
  call void @llvm.lifetime.start.p0(ptr nonnull %16) #12
  store ptr %132, ptr %17, align 8, !tbaa !24
  %138 = getelementptr inbounds nuw i8, ptr %17, i64 8
  store i8 0, ptr %138, align 8, !tbaa !27
  call void @llvm.memcpy.p0.p0.i64(ptr noundef nonnull align 8 dereferenceable(16) %18, ptr noundef nonnull align 8 dereferenceable(16) %2, i64 16, i1 false), !tbaa.struct !80
  call void @_ZSt27__stable_partition_adaptiveI22bidirectional_iteratorIPiES1_N9__gnu_cxx5__ops10_Iter_predIZNSt6ranges8__detail16__make_pred_projIZ16test_iterators_2IS2_S2_EvvEUliE0_St8identityEEDaRT_RT0_EUlTyOSC_E_EElESC_SC_SC_T1_T2_SE_SK_(ptr dead_on_unwind nonnull writable sret(%class.bidirectional_iterator) align 8 %16, ptr dead_on_return noundef nonnull %17, ptr dead_on_return noundef nonnull %18, ptr %3, ptr %4, i64 noundef %131, ptr noundef %6, i64 noundef %7)
  %139 = getelementptr inbounds nuw i8, ptr %16, i64 8
  %140 = load i8, ptr %139, align 8, !tbaa !64, !range !66, !noundef !67
  %141 = trunc nuw i8 %140 to i1
  br i1 %141, label %142, label %143

142:                                              ; preds = %137
  call void @__assert_fail(ptr noundef nonnull @.str.22, ptr noundef nonnull @.str.23, i32 noundef 31, ptr noundef nonnull @__PRETTY_FUNCTION__._ZN7support19double_move_trackeraSEOS0_) #13
  unreachable

143:                                              ; preds = %137
  %144 = load ptr, ptr %16, align 8, !tbaa !68
  call void @llvm.lifetime.end.p0(ptr nonnull %16) #12
  br label %145

145:                                              ; preds = %143, %135
  %146 = phi ptr [ %132, %135 ], [ %144, %143 ]
  call void @llvm.lifetime.start.p0(ptr nonnull %9)
  call void @llvm.memcpy.p0.p0.i64(ptr noundef nonnull align 8 dereferenceable(16) %9, ptr noundef nonnull align 8 dereferenceable(16) %13, i64 16, i1 false)
  %147 = getelementptr inbounds nuw i8, ptr %10, i64 9
  call void @llvm.lifetime.start.p0(ptr nonnull %10)
  call void @llvm.memcpy.p0.p0.i64(ptr noundef nonnull align 1 dereferenceable(7) %147, ptr noundef nonnull align 1 dereferenceable(7) %12, i64 7, i1 false)
  call void @llvm.lifetime.start.p0(ptr nonnull %11)
  store ptr %116, ptr %10, align 8, !tbaa !24, !noalias !169
  %148 = getelementptr inbounds nuw i8, ptr %10, i64 8
  store i8 0, ptr %148, align 8, !tbaa !27, !noalias !169
  store ptr %146, ptr %11, align 8, !tbaa !24, !noalias !169
  %149 = getelementptr inbounds nuw i8, ptr %11, i64 8
  store i8 0, ptr %149, align 8, !tbaa !27, !noalias !169
  call void @_ZNSt3_V28__rotateI22bidirectional_iteratorIPiEEET_S4_S4_S4_St26bidirectional_iterator_tag(ptr dead_on_unwind writable sret(%class.bidirectional_iterator) align 8 %0, ptr dead_on_return noundef nonnull %9, ptr dead_on_return noundef nonnull %10, ptr dead_on_return noundef nonnull %11)
  call void @llvm.lifetime.end.p0(ptr nonnull %9)
  call void @llvm.lifetime.end.p0(ptr nonnull %10)
  call void @llvm.lifetime.end.p0(ptr nonnull %11)
  call void @llvm.lifetime.end.p0(ptr nonnull %13) #12
  call void @llvm.lifetime.end.p0(ptr nonnull %12)
  br label %150

150:                                              ; preds = %97, %91, %20, %61, %145
  ret void
}

; Function Attrs: mustprogress uwtable
define linkonce_odr dso_local void @_Z8test_oneI22bidirectional_iteratorIPiE16sentinel_wrapperIS2_ELm0EZ16test_iterators_2IS2_S4_EvvEUliE_EvSt5arrayIiXT1_EET2_mS8_(i64 noundef %0) local_unnamed_addr #0 comdat personality ptr @__gxx_personality_v0 {
  %2 = alloca %class.bidirectional_iterator, align 8
  %3 = alloca %class.bidirectional_iterator, align 8
  %4 = alloca %class.anon.30, align 1
  %5 = alloca %"struct.std::identity", align 1
  %6 = alloca %class.bidirectional_iterator, align 8
  %7 = alloca %class.bidirectional_iterator, align 8
  %8 = alloca %class.bidirectional_iterator, align 8
  %9 = alloca %class.anon.30, align 1
  %10 = alloca %"struct.std::identity", align 1
  %11 = alloca %class.bidirectional_iterator, align 8
  call void @llvm.lifetime.start.p0(ptr nonnull %9)
  call void @llvm.lifetime.start.p0(ptr nonnull %10)
  call void @llvm.lifetime.start.p0(ptr nonnull %11) #12, !noalias !172
  call void @llvm.lifetime.start.p0(ptr nonnull %7), !noalias !172
  call void @llvm.lifetime.start.p0(ptr nonnull %8), !noalias !172
  store ptr null, ptr %7, align 8, !tbaa !24, !noalias !175
  %12 = getelementptr inbounds nuw i8, ptr %7, i64 8
  store i8 0, ptr %12, align 8, !tbaa !27, !noalias !175
  store ptr null, ptr %8, align 8, !tbaa !24, !noalias !175
  %13 = getelementptr inbounds nuw i8, ptr %8, i64 8
  store i8 0, ptr %13, align 8, !tbaa !27, !noalias !175
  call void @_ZSt18__stable_partitionI22bidirectional_iteratorIPiEN9__gnu_cxx5__ops10_Iter_predIZNSt6ranges8__detail16__make_pred_projIZ16test_iterators_2IS2_16sentinel_wrapperIS2_EEvvEUliE_St8identityEEDaRT_RT0_EUlTyOSE_E_EEESE_SE_SE_SG_(ptr dead_on_unwind nonnull writable sret(%class.bidirectional_iterator) align 8 %11, ptr dead_on_return noundef nonnull %7, ptr dead_on_return noundef nonnull %8, ptr nonnull %9, ptr nonnull %10), !noalias !172
  call void @llvm.lifetime.end.p0(ptr nonnull %7), !noalias !172
  call void @llvm.lifetime.end.p0(ptr nonnull %8), !noalias !172
  %14 = getelementptr inbounds nuw i8, ptr %11, i64 8
  %15 = load i8, ptr %14, align 8, !tbaa !64, !range !66, !noalias !172, !noundef !67
  %16 = trunc nuw i8 %15 to i1
  br i1 %16, label %17, label %18

17:                                               ; preds = %1
  call void @__assert_fail(ptr noundef nonnull @.str.22, ptr noundef nonnull @.str.23, i32 noundef 24, ptr noundef nonnull @__PRETTY_FUNCTION__._ZN7support19double_move_trackerC2EOS0_) #13, !noalias !172
  unreachable

18:                                               ; preds = %1
  %19 = load ptr, ptr %11, align 8, !tbaa !68, !noalias !172
  call void @llvm.lifetime.end.p0(ptr nonnull %11) #12, !noalias !172
  call void @llvm.lifetime.end.p0(ptr nonnull %9)
  call void @llvm.lifetime.end.p0(ptr nonnull %10)
  %20 = getelementptr inbounds nuw i32, ptr null, i64 %0
  %21 = icmp eq ptr %19, %20
  br i1 %21, label %23, label %22

22:                                               ; preds = %18
  call void @__assert_fail(ptr noundef nonnull @.str.18, ptr noundef nonnull @.str.1, i32 noundef 104, ptr noundef nonnull @__PRETTY_FUNCTION__._Z8test_oneI22bidirectional_iteratorIPiE16sentinel_wrapperIS2_ELm0EZ16test_iterators_2IS2_S4_EvvEUliE_EvSt5arrayIiXT1_EET2_mS8_) #13
  unreachable

23:                                               ; preds = %18
  %24 = icmp eq ptr %19, null
  br i1 %24, label %35, label %25

25:                                               ; preds = %23, %30
  %26 = phi ptr [ %31, %30 ], [ null, %23 ]
  %27 = load i32, ptr %26, align 4, !tbaa !15
  %28 = and i32 %27, 1
  %29 = icmp eq i32 %28, 0
  br i1 %29, label %34, label %30

30:                                               ; preds = %25
  %31 = getelementptr inbounds nuw i8, ptr %26, i64 4
  %32 = icmp eq ptr %31, %19
  br i1 %32, label %33, label %25, !llvm.loop !178

33:                                               ; preds = %30
  call void @__assert_fail(ptr noundef nonnull @.str.21, ptr noundef nonnull @.str.1, i32 noundef 108, ptr noundef nonnull @__PRETTY_FUNCTION__._Z8test_oneI22bidirectional_iteratorIPiE16sentinel_wrapperIS2_ELm0EZ16test_iterators_2IS2_S4_EvvEUliE_EvSt5arrayIiXT1_EET2_mS8_) #13
  unreachable

34:                                               ; preds = %25
  call void @__assert_fail(ptr noundef nonnull @.str.20, ptr noundef nonnull @.str.1, i32 noundef 107, ptr noundef nonnull @__PRETTY_FUNCTION__._Z8test_oneI22bidirectional_iteratorIPiE16sentinel_wrapperIS2_ELm0EZ16test_iterators_2IS2_S4_EvvEUliE_EvSt5arrayIiXT1_EET2_mS8_) #13
  unreachable

35:                                               ; preds = %23
  call void @llvm.lifetime.start.p0(ptr nonnull %4), !noalias !179
  call void @llvm.lifetime.start.p0(ptr nonnull %5), !noalias !179
  call void @llvm.lifetime.start.p0(ptr nonnull %6) #12, !noalias !182
  call void @llvm.lifetime.start.p0(ptr nonnull %2), !noalias !182
  call void @llvm.lifetime.start.p0(ptr nonnull %3), !noalias !182
  store ptr null, ptr %2, align 8, !tbaa !24, !noalias !185
  %36 = getelementptr inbounds nuw i8, ptr %2, i64 8
  store i8 0, ptr %36, align 8, !tbaa !27, !noalias !185
  store ptr null, ptr %3, align 8, !tbaa !24, !noalias !185
  %37 = getelementptr inbounds nuw i8, ptr %3, i64 8
  store i8 0, ptr %37, align 8, !tbaa !27, !noalias !185
  call void @_ZSt18__stable_partitionI22bidirectional_iteratorIPiEN9__gnu_cxx5__ops10_Iter_predIZNSt6ranges8__detail16__make_pred_projIZ16test_iterators_2IS2_16sentinel_wrapperIS2_EEvvEUliE_St8identityEEDaRT_RT0_EUlTyOSE_E_EEESE_SE_SE_SG_(ptr dead_on_unwind nonnull writable sret(%class.bidirectional_iterator) align 8 %6, ptr dead_on_return noundef nonnull %2, ptr dead_on_return noundef nonnull %3, ptr nonnull %4, ptr nonnull %5), !noalias !182
  call void @llvm.lifetime.end.p0(ptr nonnull %2), !noalias !182
  call void @llvm.lifetime.end.p0(ptr nonnull %3), !noalias !182
  %38 = getelementptr inbounds nuw i8, ptr %6, i64 8
  %39 = load i8, ptr %38, align 8, !tbaa !64, !range !66, !noalias !182, !noundef !67
  %40 = trunc nuw i8 %39 to i1
  br i1 %40, label %41, label %42

41:                                               ; preds = %35
  call void @__assert_fail(ptr noundef nonnull @.str.22, ptr noundef nonnull @.str.23, i32 noundef 24, ptr noundef nonnull @__PRETTY_FUNCTION__._ZN7support19double_move_trackerC2EOS0_) #13, !noalias !182
  unreachable

42:                                               ; preds = %35
  %43 = load ptr, ptr %6, align 8, !tbaa !68, !noalias !182
  call void @llvm.lifetime.end.p0(ptr nonnull %6) #12, !noalias !182
  call void @llvm.lifetime.end.p0(ptr nonnull %4), !noalias !179
  call void @llvm.lifetime.end.p0(ptr nonnull %5), !noalias !179
  %44 = icmp eq ptr %43, null
  br i1 %44, label %46, label %45

45:                                               ; preds = %42
  call void @__assert_fail(ptr noundef nonnull @.str.18, ptr noundef nonnull @.str.1, i32 noundef 120, ptr noundef nonnull @__PRETTY_FUNCTION__._Z8test_oneI22bidirectional_iteratorIPiE16sentinel_wrapperIS2_ELm0EZ16test_iterators_2IS2_S4_EvvEUliE_EvSt5arrayIiXT1_EET2_mS8_) #13
  unreachable

46:                                               ; preds = %42
  ret void
}

; Function Attrs: mustprogress uwtable
define linkonce_odr dso_local void @_Z8test_oneI22bidirectional_iteratorIPiE16sentinel_wrapperIS2_ELm1EZ16test_iterators_2IS2_S4_EvvEUliE_EvSt5arrayIiXT1_EET2_mS8_(i32 %0, i64 noundef %1, i32 %2) local_unnamed_addr #0 comdat personality ptr @__gxx_personality_v0 {
  %4 = alloca %class.bidirectional_iterator, align 8
  %5 = alloca %class.bidirectional_iterator, align 8
  %6 = alloca %class.anon.30, align 1
  %7 = alloca %"struct.std::identity", align 1
  %8 = alloca %class.bidirectional_iterator, align 8
  %9 = alloca %class.bidirectional_iterator, align 8
  %10 = alloca %class.bidirectional_iterator, align 8
  %11 = alloca %class.anon.30, align 1
  %12 = alloca %"struct.std::identity", align 1
  %13 = alloca %class.bidirectional_iterator, align 8
  %14 = alloca %"struct.std::array.10", align 4
  %15 = alloca %"struct.std::array.10", align 4
  call void @llvm.lifetime.start.p0(ptr nonnull %14) #12
  store i32 %0, ptr %14, align 4, !tbaa !6
  %16 = getelementptr inbounds nuw i8, ptr %14, i64 4
  call void @llvm.lifetime.start.p0(ptr nonnull %11)
  call void @llvm.lifetime.start.p0(ptr nonnull %12)
  call void @llvm.lifetime.start.p0(ptr nonnull %13) #12, !noalias !188
  call void @llvm.lifetime.start.p0(ptr nonnull %9), !noalias !188
  call void @llvm.lifetime.start.p0(ptr nonnull %10), !noalias !188
  store ptr %14, ptr %9, align 8, !tbaa !24, !noalias !191
  %17 = getelementptr inbounds nuw i8, ptr %9, i64 8
  store i8 0, ptr %17, align 8, !tbaa !27, !noalias !191
  store ptr %16, ptr %10, align 8, !tbaa !24, !noalias !191
  %18 = getelementptr inbounds nuw i8, ptr %10, i64 8
  store i8 0, ptr %18, align 8, !tbaa !27, !noalias !191
  call void @_ZSt18__stable_partitionI22bidirectional_iteratorIPiEN9__gnu_cxx5__ops10_Iter_predIZNSt6ranges8__detail16__make_pred_projIZ16test_iterators_2IS2_16sentinel_wrapperIS2_EEvvEUliE_St8identityEEDaRT_RT0_EUlTyOSE_E_EEESE_SE_SE_SG_(ptr dead_on_unwind nonnull writable sret(%class.bidirectional_iterator) align 8 %13, ptr dead_on_return noundef nonnull %9, ptr dead_on_return noundef nonnull %10, ptr nonnull %11, ptr nonnull %12), !noalias !188
  call void @llvm.lifetime.end.p0(ptr nonnull %9), !noalias !188
  call void @llvm.lifetime.end.p0(ptr nonnull %10), !noalias !188
  %19 = getelementptr inbounds nuw i8, ptr %13, i64 8
  %20 = load i8, ptr %19, align 8, !tbaa !64, !range !66, !noalias !188, !noundef !67
  %21 = trunc nuw i8 %20 to i1
  br i1 %21, label %22, label %23

22:                                               ; preds = %3
  call void @__assert_fail(ptr noundef nonnull @.str.22, ptr noundef nonnull @.str.23, i32 noundef 24, ptr noundef nonnull @__PRETTY_FUNCTION__._ZN7support19double_move_trackerC2EOS0_) #13, !noalias !188
  unreachable

23:                                               ; preds = %3
  %24 = load ptr, ptr %13, align 8, !tbaa !68, !noalias !188
  call void @llvm.lifetime.end.p0(ptr nonnull %13) #12, !noalias !188
  call void @llvm.lifetime.end.p0(ptr nonnull %11)
  call void @llvm.lifetime.end.p0(ptr nonnull %12)
  %25 = load i32, ptr %14, align 4
  %26 = icmp eq i32 %25, %2
  br i1 %26, label %28, label %27

27:                                               ; preds = %23
  call void @__assert_fail(ptr noundef nonnull @.str.24, ptr noundef nonnull @.str.1, i32 noundef 103, ptr noundef nonnull @__PRETTY_FUNCTION__._Z8test_oneI22bidirectional_iteratorIPiE16sentinel_wrapperIS2_ELm1EZ16test_iterators_2IS2_S4_EvvEUliE_EvSt5arrayIiXT1_EET2_mS8_) #13
  unreachable

28:                                               ; preds = %23
  %29 = getelementptr inbounds nuw i32, ptr %14, i64 %1
  %30 = icmp eq ptr %24, %29
  br i1 %30, label %32, label %31

31:                                               ; preds = %28
  call void @__assert_fail(ptr noundef nonnull @.str.18, ptr noundef nonnull @.str.1, i32 noundef 104, ptr noundef nonnull @__PRETTY_FUNCTION__._Z8test_oneI22bidirectional_iteratorIPiE16sentinel_wrapperIS2_ELm1EZ16test_iterators_2IS2_S4_EvvEUliE_EvSt5arrayIiXT1_EET2_mS8_) #13
  unreachable

32:                                               ; preds = %28
  %33 = icmp eq ptr %14, %24
  br i1 %33, label %43, label %34

34:                                               ; preds = %32, %39
  %35 = phi ptr [ %40, %39 ], [ %14, %32 ]
  %36 = load i32, ptr %35, align 4, !tbaa !15
  %37 = and i32 %36, 1
  %38 = icmp eq i32 %37, 0
  br i1 %38, label %42, label %39

39:                                               ; preds = %34
  %40 = getelementptr inbounds nuw i8, ptr %35, i64 4
  %41 = icmp eq ptr %40, %24
  br i1 %41, label %43, label %34, !llvm.loop !178

42:                                               ; preds = %34
  call void @__assert_fail(ptr noundef nonnull @.str.20, ptr noundef nonnull @.str.1, i32 noundef 107, ptr noundef nonnull @__PRETTY_FUNCTION__._Z8test_oneI22bidirectional_iteratorIPiE16sentinel_wrapperIS2_ELm1EZ16test_iterators_2IS2_S4_EvvEUliE_EvSt5arrayIiXT1_EET2_mS8_) #13
  unreachable

43:                                               ; preds = %39, %32
  %44 = icmp eq ptr %16, %24
  br i1 %44, label %54, label %45

45:                                               ; preds = %43, %50
  %46 = phi ptr [ %51, %50 ], [ %24, %43 ]
  %47 = load i32, ptr %46, align 4, !tbaa !15
  %48 = and i32 %47, 1
  %49 = icmp eq i32 %48, 0
  br i1 %49, label %50, label %53

50:                                               ; preds = %45
  %51 = getelementptr inbounds nuw i8, ptr %46, i64 4
  %52 = icmp eq ptr %14, %46
  br i1 %52, label %54, label %45, !llvm.loop !194

53:                                               ; preds = %45
  call void @__assert_fail(ptr noundef nonnull @.str.21, ptr noundef nonnull @.str.1, i32 noundef 108, ptr noundef nonnull @__PRETTY_FUNCTION__._Z8test_oneI22bidirectional_iteratorIPiE16sentinel_wrapperIS2_ELm1EZ16test_iterators_2IS2_S4_EvvEUliE_EvSt5arrayIiXT1_EET2_mS8_) #13
  unreachable

54:                                               ; preds = %50, %43
  call void @llvm.lifetime.end.p0(ptr nonnull %14) #12
  call void @llvm.lifetime.start.p0(ptr nonnull %15) #12
  store i32 %0, ptr %15, align 4, !tbaa !6
  %55 = getelementptr inbounds nuw i8, ptr %15, i64 4
  call void @llvm.lifetime.start.p0(ptr nonnull %6), !noalias !195
  call void @llvm.lifetime.start.p0(ptr nonnull %7), !noalias !195
  call void @llvm.lifetime.start.p0(ptr nonnull %8) #12, !noalias !198
  call void @llvm.lifetime.start.p0(ptr nonnull %4), !noalias !198
  call void @llvm.lifetime.start.p0(ptr nonnull %5), !noalias !198
  store ptr %15, ptr %4, align 8, !tbaa !24, !noalias !201
  %56 = getelementptr inbounds nuw i8, ptr %4, i64 8
  store i8 0, ptr %56, align 8, !tbaa !27, !noalias !201
  store ptr %55, ptr %5, align 8, !tbaa !24, !noalias !201
  %57 = getelementptr inbounds nuw i8, ptr %5, i64 8
  store i8 0, ptr %57, align 8, !tbaa !27, !noalias !201
  call void @_ZSt18__stable_partitionI22bidirectional_iteratorIPiEN9__gnu_cxx5__ops10_Iter_predIZNSt6ranges8__detail16__make_pred_projIZ16test_iterators_2IS2_16sentinel_wrapperIS2_EEvvEUliE_St8identityEEDaRT_RT0_EUlTyOSE_E_EEESE_SE_SE_SG_(ptr dead_on_unwind nonnull writable sret(%class.bidirectional_iterator) align 8 %8, ptr dead_on_return noundef nonnull %4, ptr dead_on_return noundef nonnull %5, ptr nonnull %6, ptr nonnull %7), !noalias !198
  call void @llvm.lifetime.end.p0(ptr nonnull %4), !noalias !198
  call void @llvm.lifetime.end.p0(ptr nonnull %5), !noalias !198
  %58 = getelementptr inbounds nuw i8, ptr %8, i64 8
  %59 = load i8, ptr %58, align 8, !tbaa !64, !range !66, !noalias !198, !noundef !67
  %60 = trunc nuw i8 %59 to i1
  br i1 %60, label %61, label %62

61:                                               ; preds = %54
  call void @__assert_fail(ptr noundef nonnull @.str.22, ptr noundef nonnull @.str.23, i32 noundef 24, ptr noundef nonnull @__PRETTY_FUNCTION__._ZN7support19double_move_trackerC2EOS0_) #13, !noalias !198
  unreachable

62:                                               ; preds = %54
  %63 = load ptr, ptr %8, align 8, !tbaa !68, !noalias !198
  call void @llvm.lifetime.end.p0(ptr nonnull %8) #12, !noalias !198
  call void @llvm.lifetime.end.p0(ptr nonnull %6), !noalias !195
  call void @llvm.lifetime.end.p0(ptr nonnull %7), !noalias !195
  %64 = load i32, ptr %15, align 4
  %65 = icmp eq i32 %64, %2
  br i1 %65, label %67, label %66

66:                                               ; preds = %62
  call void @__assert_fail(ptr noundef nonnull @.str.24, ptr noundef nonnull @.str.1, i32 noundef 119, ptr noundef nonnull @__PRETTY_FUNCTION__._Z8test_oneI22bidirectional_iteratorIPiE16sentinel_wrapperIS2_ELm1EZ16test_iterators_2IS2_S4_EvvEUliE_EvSt5arrayIiXT1_EET2_mS8_) #13
  unreachable

67:                                               ; preds = %62
  %68 = getelementptr inbounds nuw i32, ptr %15, i64 %1
  %69 = icmp eq ptr %63, %68
  br i1 %69, label %71, label %70

70:                                               ; preds = %67
  call void @__assert_fail(ptr noundef nonnull @.str.18, ptr noundef nonnull @.str.1, i32 noundef 120, ptr noundef nonnull @__PRETTY_FUNCTION__._Z8test_oneI22bidirectional_iteratorIPiE16sentinel_wrapperIS2_ELm1EZ16test_iterators_2IS2_S4_EvvEUliE_EvSt5arrayIiXT1_EET2_mS8_) #13
  unreachable

71:                                               ; preds = %67
  %72 = icmp eq ptr %15, %63
  br i1 %72, label %82, label %73

73:                                               ; preds = %71, %78
  %74 = phi ptr [ %79, %78 ], [ %15, %71 ]
  %75 = load i32, ptr %74, align 4, !tbaa !15
  %76 = and i32 %75, 1
  %77 = icmp eq i32 %76, 0
  br i1 %77, label %81, label %78

78:                                               ; preds = %73
  %79 = getelementptr inbounds nuw i8, ptr %74, i64 4
  %80 = icmp eq ptr %79, %63
  br i1 %80, label %82, label %73, !llvm.loop !178

81:                                               ; preds = %73
  call void @__assert_fail(ptr noundef nonnull @.str.20, ptr noundef nonnull @.str.1, i32 noundef 123, ptr noundef nonnull @__PRETTY_FUNCTION__._Z8test_oneI22bidirectional_iteratorIPiE16sentinel_wrapperIS2_ELm1EZ16test_iterators_2IS2_S4_EvvEUliE_EvSt5arrayIiXT1_EET2_mS8_) #13
  unreachable

82:                                               ; preds = %78, %71
  %83 = icmp eq ptr %55, %63
  br i1 %83, label %93, label %84

84:                                               ; preds = %82, %89
  %85 = phi ptr [ %90, %89 ], [ %63, %82 ]
  %86 = load i32, ptr %85, align 4, !tbaa !15
  %87 = and i32 %86, 1
  %88 = icmp eq i32 %87, 0
  br i1 %88, label %89, label %92

89:                                               ; preds = %84
  %90 = getelementptr inbounds nuw i8, ptr %85, i64 4
  %91 = icmp eq ptr %15, %85
  br i1 %91, label %93, label %84, !llvm.loop !194

92:                                               ; preds = %84
  call void @__assert_fail(ptr noundef nonnull @.str.21, ptr noundef nonnull @.str.1, i32 noundef 124, ptr noundef nonnull @__PRETTY_FUNCTION__._Z8test_oneI22bidirectional_iteratorIPiE16sentinel_wrapperIS2_ELm1EZ16test_iterators_2IS2_S4_EvvEUliE_EvSt5arrayIiXT1_EET2_mS8_) #13
  unreachable

93:                                               ; preds = %89, %82
  call void @llvm.lifetime.end.p0(ptr nonnull %15) #12
  ret void
}

; Function Attrs: mustprogress uwtable
define linkonce_odr dso_local void @_Z8test_oneI22bidirectional_iteratorIPiE16sentinel_wrapperIS2_ELm2EZ16test_iterators_2IS2_S4_EvvEUliE_EvSt5arrayIiXT1_EET2_mS8_(i64 %0, i64 noundef %1, i64 %2) local_unnamed_addr #0 comdat personality ptr @__gxx_personality_v0 {
  %4 = alloca %class.bidirectional_iterator, align 8
  %5 = alloca %class.bidirectional_iterator, align 8
  %6 = alloca %class.anon.30, align 1
  %7 = alloca %"struct.std::identity", align 1
  %8 = alloca %class.bidirectional_iterator, align 8
  %9 = alloca %class.bidirectional_iterator, align 8
  %10 = alloca %class.bidirectional_iterator, align 8
  %11 = alloca %class.anon.30, align 1
  %12 = alloca %"struct.std::identity", align 1
  %13 = alloca %class.bidirectional_iterator, align 8
  %14 = alloca %"struct.std::array.0", align 8
  %15 = alloca %"struct.std::array.0", align 8
  call void @llvm.lifetime.start.p0(ptr nonnull %14) #12
  store i64 %0, ptr %14, align 8, !tbaa !6
  %16 = getelementptr inbounds nuw i8, ptr %14, i64 8
  call void @llvm.lifetime.start.p0(ptr nonnull %11)
  call void @llvm.lifetime.start.p0(ptr nonnull %12)
  call void @llvm.lifetime.start.p0(ptr nonnull %13) #12, !noalias !204
  call void @llvm.lifetime.start.p0(ptr nonnull %9), !noalias !204
  call void @llvm.lifetime.start.p0(ptr nonnull %10), !noalias !204
  store ptr %14, ptr %9, align 8, !tbaa !24, !noalias !207
  %17 = getelementptr inbounds nuw i8, ptr %9, i64 8
  store i8 0, ptr %17, align 8, !tbaa !27, !noalias !207
  store ptr %16, ptr %10, align 8, !tbaa !24, !noalias !207
  %18 = getelementptr inbounds nuw i8, ptr %10, i64 8
  store i8 0, ptr %18, align 8, !tbaa !27, !noalias !207
  call void @_ZSt18__stable_partitionI22bidirectional_iteratorIPiEN9__gnu_cxx5__ops10_Iter_predIZNSt6ranges8__detail16__make_pred_projIZ16test_iterators_2IS2_16sentinel_wrapperIS2_EEvvEUliE_St8identityEEDaRT_RT0_EUlTyOSE_E_EEESE_SE_SE_SG_(ptr dead_on_unwind nonnull writable sret(%class.bidirectional_iterator) align 8 %13, ptr dead_on_return noundef nonnull %9, ptr dead_on_return noundef nonnull %10, ptr nonnull %11, ptr nonnull %12), !noalias !204
  call void @llvm.lifetime.end.p0(ptr nonnull %9), !noalias !204
  call void @llvm.lifetime.end.p0(ptr nonnull %10), !noalias !204
  %19 = getelementptr inbounds nuw i8, ptr %13, i64 8
  %20 = load i8, ptr %19, align 8, !tbaa !64, !range !66, !noalias !204, !noundef !67
  %21 = trunc nuw i8 %20 to i1
  br i1 %21, label %22, label %23

22:                                               ; preds = %3
  call void @__assert_fail(ptr noundef nonnull @.str.22, ptr noundef nonnull @.str.23, i32 noundef 24, ptr noundef nonnull @__PRETTY_FUNCTION__._ZN7support19double_move_trackerC2EOS0_) #13, !noalias !204
  unreachable

23:                                               ; preds = %3
  %24 = load ptr, ptr %13, align 8, !tbaa !68, !noalias !204
  call void @llvm.lifetime.end.p0(ptr nonnull %13) #12, !noalias !204
  call void @llvm.lifetime.end.p0(ptr nonnull %11)
  call void @llvm.lifetime.end.p0(ptr nonnull %12)
  %25 = load i64, ptr %14, align 8
  %26 = icmp eq i64 %25, %2
  br i1 %26, label %28, label %27

27:                                               ; preds = %23
  call void @__assert_fail(ptr noundef nonnull @.str.24, ptr noundef nonnull @.str.1, i32 noundef 103, ptr noundef nonnull @__PRETTY_FUNCTION__._Z8test_oneI22bidirectional_iteratorIPiE16sentinel_wrapperIS2_ELm2EZ16test_iterators_2IS2_S4_EvvEUliE_EvSt5arrayIiXT1_EET2_mS8_) #13
  unreachable

28:                                               ; preds = %23
  %29 = getelementptr inbounds nuw i32, ptr %14, i64 %1
  %30 = icmp eq ptr %24, %29
  br i1 %30, label %32, label %31

31:                                               ; preds = %28
  call void @__assert_fail(ptr noundef nonnull @.str.18, ptr noundef nonnull @.str.1, i32 noundef 104, ptr noundef nonnull @__PRETTY_FUNCTION__._Z8test_oneI22bidirectional_iteratorIPiE16sentinel_wrapperIS2_ELm2EZ16test_iterators_2IS2_S4_EvvEUliE_EvSt5arrayIiXT1_EET2_mS8_) #13
  unreachable

32:                                               ; preds = %28
  %33 = icmp eq ptr %14, %24
  br i1 %33, label %43, label %34

34:                                               ; preds = %32, %39
  %35 = phi ptr [ %40, %39 ], [ %14, %32 ]
  %36 = load i32, ptr %35, align 4, !tbaa !15
  %37 = and i32 %36, 1
  %38 = icmp eq i32 %37, 0
  br i1 %38, label %42, label %39

39:                                               ; preds = %34
  %40 = getelementptr inbounds nuw i8, ptr %35, i64 4
  %41 = icmp eq ptr %40, %24
  br i1 %41, label %43, label %34, !llvm.loop !178

42:                                               ; preds = %34
  call void @__assert_fail(ptr noundef nonnull @.str.20, ptr noundef nonnull @.str.1, i32 noundef 107, ptr noundef nonnull @__PRETTY_FUNCTION__._Z8test_oneI22bidirectional_iteratorIPiE16sentinel_wrapperIS2_ELm2EZ16test_iterators_2IS2_S4_EvvEUliE_EvSt5arrayIiXT1_EET2_mS8_) #13
  unreachable

43:                                               ; preds = %39, %32
  %44 = icmp eq ptr %16, %24
  br i1 %44, label %54, label %45

45:                                               ; preds = %43, %50
  %46 = phi ptr [ %51, %50 ], [ %24, %43 ]
  %47 = load i32, ptr %46, align 4, !tbaa !15
  %48 = and i32 %47, 1
  %49 = icmp eq i32 %48, 0
  br i1 %49, label %50, label %53

50:                                               ; preds = %45
  %51 = getelementptr inbounds nuw i8, ptr %46, i64 4
  %52 = icmp eq ptr %16, %51
  br i1 %52, label %54, label %45, !llvm.loop !210

53:                                               ; preds = %45
  call void @__assert_fail(ptr noundef nonnull @.str.21, ptr noundef nonnull @.str.1, i32 noundef 108, ptr noundef nonnull @__PRETTY_FUNCTION__._Z8test_oneI22bidirectional_iteratorIPiE16sentinel_wrapperIS2_ELm2EZ16test_iterators_2IS2_S4_EvvEUliE_EvSt5arrayIiXT1_EET2_mS8_) #13
  unreachable

54:                                               ; preds = %50, %43
  call void @llvm.lifetime.end.p0(ptr nonnull %14) #12
  call void @llvm.lifetime.start.p0(ptr nonnull %15) #12
  store i64 %0, ptr %15, align 8, !tbaa !6
  %55 = getelementptr inbounds nuw i8, ptr %15, i64 8
  call void @llvm.lifetime.start.p0(ptr nonnull %6), !noalias !211
  call void @llvm.lifetime.start.p0(ptr nonnull %7), !noalias !211
  call void @llvm.lifetime.start.p0(ptr nonnull %8) #12, !noalias !214
  call void @llvm.lifetime.start.p0(ptr nonnull %4), !noalias !214
  call void @llvm.lifetime.start.p0(ptr nonnull %5), !noalias !214
  store ptr %15, ptr %4, align 8, !tbaa !24, !noalias !217
  %56 = getelementptr inbounds nuw i8, ptr %4, i64 8
  store i8 0, ptr %56, align 8, !tbaa !27, !noalias !217
  store ptr %55, ptr %5, align 8, !tbaa !24, !noalias !217
  %57 = getelementptr inbounds nuw i8, ptr %5, i64 8
  store i8 0, ptr %57, align 8, !tbaa !27, !noalias !217
  call void @_ZSt18__stable_partitionI22bidirectional_iteratorIPiEN9__gnu_cxx5__ops10_Iter_predIZNSt6ranges8__detail16__make_pred_projIZ16test_iterators_2IS2_16sentinel_wrapperIS2_EEvvEUliE_St8identityEEDaRT_RT0_EUlTyOSE_E_EEESE_SE_SE_SG_(ptr dead_on_unwind nonnull writable sret(%class.bidirectional_iterator) align 8 %8, ptr dead_on_return noundef nonnull %4, ptr dead_on_return noundef nonnull %5, ptr nonnull %6, ptr nonnull %7), !noalias !214
  call void @llvm.lifetime.end.p0(ptr nonnull %4), !noalias !214
  call void @llvm.lifetime.end.p0(ptr nonnull %5), !noalias !214
  %58 = getelementptr inbounds nuw i8, ptr %8, i64 8
  %59 = load i8, ptr %58, align 8, !tbaa !64, !range !66, !noalias !214, !noundef !67
  %60 = trunc nuw i8 %59 to i1
  br i1 %60, label %61, label %62

61:                                               ; preds = %54
  call void @__assert_fail(ptr noundef nonnull @.str.22, ptr noundef nonnull @.str.23, i32 noundef 24, ptr noundef nonnull @__PRETTY_FUNCTION__._ZN7support19double_move_trackerC2EOS0_) #13, !noalias !214
  unreachable

62:                                               ; preds = %54
  %63 = load ptr, ptr %8, align 8, !tbaa !68, !noalias !214
  call void @llvm.lifetime.end.p0(ptr nonnull %8) #12, !noalias !214
  call void @llvm.lifetime.end.p0(ptr nonnull %6), !noalias !211
  call void @llvm.lifetime.end.p0(ptr nonnull %7), !noalias !211
  %64 = load i64, ptr %15, align 8
  %65 = icmp eq i64 %64, %2
  br i1 %65, label %67, label %66

66:                                               ; preds = %62
  call void @__assert_fail(ptr noundef nonnull @.str.24, ptr noundef nonnull @.str.1, i32 noundef 119, ptr noundef nonnull @__PRETTY_FUNCTION__._Z8test_oneI22bidirectional_iteratorIPiE16sentinel_wrapperIS2_ELm2EZ16test_iterators_2IS2_S4_EvvEUliE_EvSt5arrayIiXT1_EET2_mS8_) #13
  unreachable

67:                                               ; preds = %62
  %68 = getelementptr inbounds nuw i32, ptr %15, i64 %1
  %69 = icmp eq ptr %63, %68
  br i1 %69, label %71, label %70

70:                                               ; preds = %67
  call void @__assert_fail(ptr noundef nonnull @.str.18, ptr noundef nonnull @.str.1, i32 noundef 120, ptr noundef nonnull @__PRETTY_FUNCTION__._Z8test_oneI22bidirectional_iteratorIPiE16sentinel_wrapperIS2_ELm2EZ16test_iterators_2IS2_S4_EvvEUliE_EvSt5arrayIiXT1_EET2_mS8_) #13
  unreachable

71:                                               ; preds = %67
  %72 = icmp eq ptr %15, %63
  br i1 %72, label %82, label %73

73:                                               ; preds = %71, %78
  %74 = phi ptr [ %79, %78 ], [ %15, %71 ]
  %75 = load i32, ptr %74, align 4, !tbaa !15
  %76 = and i32 %75, 1
  %77 = icmp eq i32 %76, 0
  br i1 %77, label %81, label %78

78:                                               ; preds = %73
  %79 = getelementptr inbounds nuw i8, ptr %74, i64 4
  %80 = icmp eq ptr %79, %63
  br i1 %80, label %82, label %73, !llvm.loop !178

81:                                               ; preds = %73
  call void @__assert_fail(ptr noundef nonnull @.str.20, ptr noundef nonnull @.str.1, i32 noundef 123, ptr noundef nonnull @__PRETTY_FUNCTION__._Z8test_oneI22bidirectional_iteratorIPiE16sentinel_wrapperIS2_ELm2EZ16test_iterators_2IS2_S4_EvvEUliE_EvSt5arrayIiXT1_EET2_mS8_) #13
  unreachable

82:                                               ; preds = %78, %71
  %83 = icmp eq ptr %55, %63
  br i1 %83, label %93, label %84

84:                                               ; preds = %82, %89
  %85 = phi ptr [ %90, %89 ], [ %63, %82 ]
  %86 = load i32, ptr %85, align 4, !tbaa !15
  %87 = and i32 %86, 1
  %88 = icmp eq i32 %87, 0
  br i1 %88, label %89, label %92

89:                                               ; preds = %84
  %90 = getelementptr inbounds nuw i8, ptr %85, i64 4
  %91 = icmp eq ptr %55, %90
  br i1 %91, label %93, label %84, !llvm.loop !210

92:                                               ; preds = %84
  call void @__assert_fail(ptr noundef nonnull @.str.21, ptr noundef nonnull @.str.1, i32 noundef 124, ptr noundef nonnull @__PRETTY_FUNCTION__._Z8test_oneI22bidirectional_iteratorIPiE16sentinel_wrapperIS2_ELm2EZ16test_iterators_2IS2_S4_EvvEUliE_EvSt5arrayIiXT1_EET2_mS8_) #13
  unreachable

93:                                               ; preds = %89, %82
  call void @llvm.lifetime.end.p0(ptr nonnull %15) #12
  ret void
}

; Function Attrs: mustprogress uwtable
define linkonce_odr dso_local void @_Z8test_oneI22bidirectional_iteratorIPiE16sentinel_wrapperIS2_ELm3EZ16test_iterators_2IS2_S4_EvvEUliE_EvSt5arrayIiXT1_EET2_mS8_(i64 %0, i32 %1, i64 noundef %2, i64 %3, i32 %4) local_unnamed_addr #0 comdat personality ptr @__gxx_personality_v0 {
  %6 = alloca %class.bidirectional_iterator, align 8
