; ModuleID = '/root/project/RuyiTuner/third_party/train/llvm-project/libcxx/test/std/algorithms/alg.modifying.operations/alg.remove/ranges_remove_copy.pass.cpp'
source_filename = "/root/project/RuyiTuner/third_party/train/llvm-project/libcxx/test/std/algorithms/alg.modifying.operations/alg.remove/ranges_remove_copy.pass.cpp"
target datalayout = "e-m:e-p270:32:32-p271:32:32-p272:64:64-i64:64-i128:128-f80:128-n8:16:32:64-S128"
target triple = "x86_64-unknown-linux-gnu"

%"struct.std::array.1" = type { [2 x i32] }
%struct.Data = type { %"struct.std::array.2", %"struct.std::array.3", i32 }
%"struct.std::array.2" = type { [6 x i32] }
%"struct.std::array.3" = type { [5 x i32] }
%struct.Data.11 = type { %"struct.std::array.12", %"struct.std::array.3", i32 }
%"struct.std::array.12" = type { [8 x i32] }

$_Z4testv = comdat any

$_Z21test_output_iteratorsI20cpp17_input_iteratorIPiS1_E16sentinel_wrapperIS2_EEvv = comdat any

$_Z21test_output_iteratorsI20cpp17_input_iteratorIPiS1_E14sized_sentinelIS2_EEvv = comdat any

$_Z21test_output_iteratorsI20cpp20_input_iteratorIPiE16sentinel_wrapperIS2_EEvv = comdat any

$_Z21test_output_iteratorsI20cpp20_input_iteratorIPiE14sized_sentinelIS2_EEvv = comdat any

$_Z4testI20cpp17_input_iteratorIPiS1_E16sentinel_wrapperIS2_E21cpp17_output_iteratorIS1_ELi6ELi5EEv4DataIXT2_EXT3_EE = comdat any

$_Z4testI20cpp17_input_iteratorIPiS1_E16sentinel_wrapperIS2_E21cpp17_output_iteratorIS1_ELi8ELi5EEv4DataIXT2_EXT3_EE = comdat any

$_Z4testI20cpp17_input_iteratorIPiS1_E16sentinel_wrapperIS2_E16forward_iteratorIS1_ELi6ELi5EEv4DataIXT2_EXT3_EE = comdat any

$_Z4testI20cpp17_input_iteratorIPiS1_E16sentinel_wrapperIS2_E16forward_iteratorIS1_ELi8ELi5EEv4DataIXT2_EXT3_EE = comdat any

$_Z4testI20cpp17_input_iteratorIPiS1_E16sentinel_wrapperIS2_E22bidirectional_iteratorIS1_ELi6ELi5EEv4DataIXT2_EXT3_EE = comdat any

$_Z4testI20cpp17_input_iteratorIPiS1_E16sentinel_wrapperIS2_E22bidirectional_iteratorIS1_ELi8ELi5EEv4DataIXT2_EXT3_EE = comdat any

$_Z4testI20cpp17_input_iteratorIPiS1_E16sentinel_wrapperIS2_E22random_access_iteratorIS1_ELi6ELi5EEv4DataIXT2_EXT3_EE = comdat any

$_Z4testI20cpp17_input_iteratorIPiS1_E16sentinel_wrapperIS2_E22random_access_iteratorIS1_ELi8ELi5EEv4DataIXT2_EXT3_EE = comdat any

$_Z4testI20cpp17_input_iteratorIPiS1_E16sentinel_wrapperIS2_E19contiguous_iteratorIS1_ELi6ELi5EEv4DataIXT2_EXT3_EE = comdat any

$_Z4testI20cpp17_input_iteratorIPiS1_E16sentinel_wrapperIS2_E19contiguous_iteratorIS1_ELi8ELi5EEv4DataIXT2_EXT3_EE = comdat any

$_Z4testI20cpp17_input_iteratorIPiS1_E16sentinel_wrapperIS2_ES1_Li6ELi5EEv4DataIXT2_EXT3_EE = comdat any

$_Z4testI20cpp17_input_iteratorIPiS1_E16sentinel_wrapperIS2_ES1_Li8ELi5EEv4DataIXT2_EXT3_EE = comdat any

$_Z4testI20cpp17_input_iteratorIPiS1_E14sized_sentinelIS2_E21cpp17_output_iteratorIS1_ELi6ELi5EEv4DataIXT2_EXT3_EE = comdat any

$_Z4testI20cpp17_input_iteratorIPiS1_E14sized_sentinelIS2_E21cpp17_output_iteratorIS1_ELi8ELi5EEv4DataIXT2_EXT3_EE = comdat any

$_Z4testI20cpp17_input_iteratorIPiS1_E14sized_sentinelIS2_E16forward_iteratorIS1_ELi6ELi5EEv4DataIXT2_EXT3_EE = comdat any

$_Z4testI20cpp17_input_iteratorIPiS1_E14sized_sentinelIS2_E16forward_iteratorIS1_ELi8ELi5EEv4DataIXT2_EXT3_EE = comdat any

$_Z4testI20cpp17_input_iteratorIPiS1_E14sized_sentinelIS2_E22bidirectional_iteratorIS1_ELi6ELi5EEv4DataIXT2_EXT3_EE = comdat any

$_Z4testI20cpp17_input_iteratorIPiS1_E14sized_sentinelIS2_E22bidirectional_iteratorIS1_ELi8ELi5EEv4DataIXT2_EXT3_EE = comdat any

$_Z4testI20cpp17_input_iteratorIPiS1_E14sized_sentinelIS2_E22random_access_iteratorIS1_ELi6ELi5EEv4DataIXT2_EXT3_EE = comdat any

$_Z4testI20cpp17_input_iteratorIPiS1_E14sized_sentinelIS2_E22random_access_iteratorIS1_ELi8ELi5EEv4DataIXT2_EXT3_EE = comdat any

$_Z4testI20cpp17_input_iteratorIPiS1_E14sized_sentinelIS2_E19contiguous_iteratorIS1_ELi6ELi5EEv4DataIXT2_EXT3_EE = comdat any

$_Z4testI20cpp17_input_iteratorIPiS1_E14sized_sentinelIS2_E19contiguous_iteratorIS1_ELi8ELi5EEv4DataIXT2_EXT3_EE = comdat any

$_Z4testI20cpp17_input_iteratorIPiS1_E14sized_sentinelIS2_ES1_Li6ELi5EEv4DataIXT2_EXT3_EE = comdat any

$_Z4testI20cpp17_input_iteratorIPiS1_E14sized_sentinelIS2_ES1_Li8ELi5EEv4DataIXT2_EXT3_EE = comdat any

$_Z4testI20cpp20_input_iteratorIPiE16sentinel_wrapperIS2_E21cpp17_output_iteratorIS1_ELi6ELi5EEv4DataIXT2_EXT3_EE = comdat any

$_Z4testI20cpp20_input_iteratorIPiE16sentinel_wrapperIS2_E21cpp17_output_iteratorIS1_ELi8ELi5EEv4DataIXT2_EXT3_EE = comdat any

$_Z4testI20cpp20_input_iteratorIPiE16sentinel_wrapperIS2_E16forward_iteratorIS1_ELi6ELi5EEv4DataIXT2_EXT3_EE = comdat any

$_Z4testI20cpp20_input_iteratorIPiE16sentinel_wrapperIS2_E16forward_iteratorIS1_ELi8ELi5EEv4DataIXT2_EXT3_EE = comdat any

$_Z4testI20cpp20_input_iteratorIPiE16sentinel_wrapperIS2_E22bidirectional_iteratorIS1_ELi6ELi5EEv4DataIXT2_EXT3_EE = comdat any

$_Z4testI20cpp20_input_iteratorIPiE16sentinel_wrapperIS2_E22bidirectional_iteratorIS1_ELi8ELi5EEv4DataIXT2_EXT3_EE = comdat any

$_Z4testI20cpp20_input_iteratorIPiE16sentinel_wrapperIS2_E22random_access_iteratorIS1_ELi6ELi5EEv4DataIXT2_EXT3_EE = comdat any

$_Z4testI20cpp20_input_iteratorIPiE16sentinel_wrapperIS2_E22random_access_iteratorIS1_ELi8ELi5EEv4DataIXT2_EXT3_EE = comdat any

$_Z4testI20cpp20_input_iteratorIPiE16sentinel_wrapperIS2_E19contiguous_iteratorIS1_ELi6ELi5EEv4DataIXT2_EXT3_EE = comdat any

$_Z4testI20cpp20_input_iteratorIPiE16sentinel_wrapperIS2_E19contiguous_iteratorIS1_ELi8ELi5EEv4DataIXT2_EXT3_EE = comdat any

$_Z4testI20cpp20_input_iteratorIPiE16sentinel_wrapperIS2_ES1_Li6ELi5EEv4DataIXT2_EXT3_EE = comdat any

$_Z4testI20cpp20_input_iteratorIPiE16sentinel_wrapperIS2_ES1_Li8ELi5EEv4DataIXT2_EXT3_EE = comdat any

$_Z4testI20cpp20_input_iteratorIPiE14sized_sentinelIS2_E21cpp17_output_iteratorIS1_ELi6ELi5EEv4DataIXT2_EXT3_EE = comdat any

$_Z4testI20cpp20_input_iteratorIPiE14sized_sentinelIS2_E21cpp17_output_iteratorIS1_ELi8ELi5EEv4DataIXT2_EXT3_EE = comdat any

$_Z4testI20cpp20_input_iteratorIPiE14sized_sentinelIS2_E16forward_iteratorIS1_ELi6ELi5EEv4DataIXT2_EXT3_EE = comdat any

$_Z4testI20cpp20_input_iteratorIPiE14sized_sentinelIS2_E16forward_iteratorIS1_ELi8ELi5EEv4DataIXT2_EXT3_EE = comdat any

$_Z4testI20cpp20_input_iteratorIPiE14sized_sentinelIS2_E22bidirectional_iteratorIS1_ELi6ELi5EEv4DataIXT2_EXT3_EE = comdat any

$_Z4testI20cpp20_input_iteratorIPiE14sized_sentinelIS2_E22bidirectional_iteratorIS1_ELi8ELi5EEv4DataIXT2_EXT3_EE = comdat any

$_Z4testI20cpp20_input_iteratorIPiE14sized_sentinelIS2_E22random_access_iteratorIS1_ELi6ELi5EEv4DataIXT2_EXT3_EE = comdat any

$_Z4testI20cpp20_input_iteratorIPiE14sized_sentinelIS2_E22random_access_iteratorIS1_ELi8ELi5EEv4DataIXT2_EXT3_EE = comdat any

$_Z4testI20cpp20_input_iteratorIPiE14sized_sentinelIS2_E19contiguous_iteratorIS1_ELi6ELi5EEv4DataIXT2_EXT3_EE = comdat any

$_Z4testI20cpp20_input_iteratorIPiE14sized_sentinelIS2_E19contiguous_iteratorIS1_ELi8ELi5EEv4DataIXT2_EXT3_EE = comdat any

$_Z4testI20cpp20_input_iteratorIPiE14sized_sentinelIS2_ES1_Li6ELi5EEv4DataIXT2_EXT3_EE = comdat any

$_Z4testI20cpp20_input_iteratorIPiE14sized_sentinelIS2_ES1_Li8ELi5EEv4DataIXT2_EXT3_EE = comdat any

$_Z21test_output_iteratorsI16forward_iteratorIPiES2_Evv = comdat any

$_Z21test_output_iteratorsI16forward_iteratorIPiE16sentinel_wrapperIS2_EEvv = comdat any

$_Z21test_output_iteratorsI16forward_iteratorIPiE14sized_sentinelIS2_EEvv = comdat any

$_Z4testI16forward_iteratorIPiES2_21cpp17_output_iteratorIS1_ELi6ELi5EEv4DataIXT2_EXT3_EE = comdat any

$_Z4testI16forward_iteratorIPiES2_21cpp17_output_iteratorIS1_ELi8ELi5EEv4DataIXT2_EXT3_EE = comdat any

$_Z4testI16forward_iteratorIPiES2_S2_Li6ELi5EEv4DataIXT2_EXT3_EE = comdat any

$_Z4testI16forward_iteratorIPiES2_S2_Li8ELi5EEv4DataIXT2_EXT3_EE = comdat any

$_Z4testI16forward_iteratorIPiES2_22bidirectional_iteratorIS1_ELi6ELi5EEv4DataIXT2_EXT3_EE = comdat any

$_Z4testI16forward_iteratorIPiES2_22bidirectional_iteratorIS1_ELi8ELi5EEv4DataIXT2_EXT3_EE = comdat any

$_Z4testI16forward_iteratorIPiES2_22random_access_iteratorIS1_ELi6ELi5EEv4DataIXT2_EXT3_EE = comdat any

$_Z4testI16forward_iteratorIPiES2_22random_access_iteratorIS1_ELi8ELi5EEv4DataIXT2_EXT3_EE = comdat any

$_Z4testI16forward_iteratorIPiES2_19contiguous_iteratorIS1_ELi6ELi5EEv4DataIXT2_EXT3_EE = comdat any

$_Z4testI16forward_iteratorIPiES2_19contiguous_iteratorIS1_ELi8ELi5EEv4DataIXT2_EXT3_EE = comdat any

$_Z4testI16forward_iteratorIPiES2_S1_Li6ELi5EEv4DataIXT2_EXT3_EE = comdat any

$_Z4testI16forward_iteratorIPiES2_S1_Li8ELi5EEv4DataIXT2_EXT3_EE = comdat any

$_Z4testI16forward_iteratorIPiE16sentinel_wrapperIS2_E21cpp17_output_iteratorIS1_ELi6ELi5EEv4DataIXT2_EXT3_EE = comdat any

$_Z4testI16forward_iteratorIPiE16sentinel_wrapperIS2_E21cpp17_output_iteratorIS1_ELi8ELi5EEv4DataIXT2_EXT3_EE = comdat any

$_Z4testI16forward_iteratorIPiE16sentinel_wrapperIS2_ES2_Li6ELi5EEv4DataIXT2_EXT3_EE = comdat any

$_Z4testI16forward_iteratorIPiE16sentinel_wrapperIS2_ES2_Li8ELi5EEv4DataIXT2_EXT3_EE = comdat any

$_Z4testI16forward_iteratorIPiE16sentinel_wrapperIS2_E22bidirectional_iteratorIS1_ELi6ELi5EEv4DataIXT2_EXT3_EE = comdat any

$_Z4testI16forward_iteratorIPiE16sentinel_wrapperIS2_E22bidirectional_iteratorIS1_ELi8ELi5EEv4DataIXT2_EXT3_EE = comdat any

$_Z4testI16forward_iteratorIPiE16sentinel_wrapperIS2_E22random_access_iteratorIS1_ELi6ELi5EEv4DataIXT2_EXT3_EE = comdat any

$_Z4testI16forward_iteratorIPiE16sentinel_wrapperIS2_E22random_access_iteratorIS1_ELi8ELi5EEv4DataIXT2_EXT3_EE = comdat any

$_Z4testI16forward_iteratorIPiE16sentinel_wrapperIS2_E19contiguous_iteratorIS1_ELi6ELi5EEv4DataIXT2_EXT3_EE = comdat any

$_Z4testI16forward_iteratorIPiE16sentinel_wrapperIS2_E19contiguous_iteratorIS1_ELi8ELi5EEv4DataIXT2_EXT3_EE = comdat any

$_Z4testI16forward_iteratorIPiE16sentinel_wrapperIS2_ES1_Li6ELi5EEv4DataIXT2_EXT3_EE = comdat any

$_Z4testI16forward_iteratorIPiE16sentinel_wrapperIS2_ES1_Li8ELi5EEv4DataIXT2_EXT3_EE = comdat any

$_Z4testI16forward_iteratorIPiE14sized_sentinelIS2_E21cpp17_output_iteratorIS1_ELi6ELi5EEv4DataIXT2_EXT3_EE = comdat any

$_Z4testI16forward_iteratorIPiE14sized_sentinelIS2_E21cpp17_output_iteratorIS1_ELi8ELi5EEv4DataIXT2_EXT3_EE = comdat any

$_Z4testI16forward_iteratorIPiE14sized_sentinelIS2_ES2_Li6ELi5EEv4DataIXT2_EXT3_EE = comdat any

$_Z4testI16forward_iteratorIPiE14sized_sentinelIS2_ES2_Li8ELi5EEv4DataIXT2_EXT3_EE = comdat any

$_Z4testI16forward_iteratorIPiE14sized_sentinelIS2_E22bidirectional_iteratorIS1_ELi6ELi5EEv4DataIXT2_EXT3_EE = comdat any

$_Z4testI16forward_iteratorIPiE14sized_sentinelIS2_E22bidirectional_iteratorIS1_ELi8ELi5EEv4DataIXT2_EXT3_EE = comdat any

$_Z4testI16forward_iteratorIPiE14sized_sentinelIS2_E22random_access_iteratorIS1_ELi6ELi5EEv4DataIXT2_EXT3_EE = comdat any

$_Z4testI16forward_iteratorIPiE14sized_sentinelIS2_E22random_access_iteratorIS1_ELi8ELi5EEv4DataIXT2_EXT3_EE = comdat any

$_Z4testI16forward_iteratorIPiE14sized_sentinelIS2_E19contiguous_iteratorIS1_ELi6ELi5EEv4DataIXT2_EXT3_EE = comdat any

$_Z4testI16forward_iteratorIPiE14sized_sentinelIS2_E19contiguous_iteratorIS1_ELi8ELi5EEv4DataIXT2_EXT3_EE = comdat any

$_Z4testI16forward_iteratorIPiE14sized_sentinelIS2_ES1_Li6ELi5EEv4DataIXT2_EXT3_EE = comdat any

$_Z4testI16forward_iteratorIPiE14sized_sentinelIS2_ES1_Li8ELi5EEv4DataIXT2_EXT3_EE = comdat any

$_Z21test_output_iteratorsI22bidirectional_iteratorIPiES2_Evv = comdat any

$_Z21test_output_iteratorsI22bidirectional_iteratorIPiE16sentinel_wrapperIS2_EEvv = comdat any

$_Z21test_output_iteratorsI22bidirectional_iteratorIPiE14sized_sentinelIS2_EEvv = comdat any

$_Z4testI22bidirectional_iteratorIPiES2_21cpp17_output_iteratorIS1_ELi6ELi5EEv4DataIXT2_EXT3_EE = comdat any

$_Z4testI22bidirectional_iteratorIPiES2_21cpp17_output_iteratorIS1_ELi8ELi5EEv4DataIXT2_EXT3_EE = comdat any

$_Z4testI22bidirectional_iteratorIPiES2_16forward_iteratorIS1_ELi6ELi5EEv4DataIXT2_EXT3_EE = comdat any

$_Z4testI22bidirectional_iteratorIPiES2_16forward_iteratorIS1_ELi8ELi5EEv4DataIXT2_EXT3_EE = comdat any

$_Z4testI22bidirectional_iteratorIPiES2_S2_Li6ELi5EEv4DataIXT2_EXT3_EE = comdat any

$_Z4testI22bidirectional_iteratorIPiES2_S2_Li8ELi5EEv4DataIXT2_EXT3_EE = comdat any

$_Z4testI22bidirectional_iteratorIPiES2_22random_access_iteratorIS1_ELi6ELi5EEv4DataIXT2_EXT3_EE = comdat any

$_Z4testI22bidirectional_iteratorIPiES2_22random_access_iteratorIS1_ELi8ELi5EEv4DataIXT2_EXT3_EE = comdat any

$_Z4testI22bidirectional_iteratorIPiES2_19contiguous_iteratorIS1_ELi6ELi5EEv4DataIXT2_EXT3_EE = comdat any

$_Z4testI22bidirectional_iteratorIPiES2_19contiguous_iteratorIS1_ELi8ELi5EEv4DataIXT2_EXT3_EE = comdat any

$_Z4testI22bidirectional_iteratorIPiES2_S1_Li6ELi5EEv4DataIXT2_EXT3_EE = comdat any

$_Z4testI22bidirectional_iteratorIPiES2_S1_Li8ELi5EEv4DataIXT2_EXT3_EE = comdat any

$_Z4testI22bidirectional_iteratorIPiE16sentinel_wrapperIS2_E21cpp17_output_iteratorIS1_ELi6ELi5EEv4DataIXT2_EXT3_EE = comdat any

$_Z4testI22bidirectional_iteratorIPiE16sentinel_wrapperIS2_E21cpp17_output_iteratorIS1_ELi8ELi5EEv4DataIXT2_EXT3_EE = comdat any

$_Z4testI22bidirectional_iteratorIPiE16sentinel_wrapperIS2_E16forward_iteratorIS1_ELi6ELi5EEv4DataIXT2_EXT3_EE = comdat any

$_Z4testI22bidirectional_iteratorIPiE16sentinel_wrapperIS2_E16forward_iteratorIS1_ELi8ELi5EEv4DataIXT2_EXT3_EE = comdat any

$_Z4testI22bidirectional_iteratorIPiE16sentinel_wrapperIS2_ES2_Li6ELi5EEv4DataIXT2_EXT3_EE = comdat any

$_Z4testI22bidirectional_iteratorIPiE16sentinel_wrapperIS2_ES2_Li8ELi5EEv4DataIXT2_EXT3_EE = comdat any

$_Z4testI22bidirectional_iteratorIPiE16sentinel_wrapperIS2_E22random_access_iteratorIS1_ELi6ELi5EEv4DataIXT2_EXT3_EE = comdat any

$_Z4testI22bidirectional_iteratorIPiE16sentinel_wrapperIS2_E22random_access_iteratorIS1_ELi8ELi5EEv4DataIXT2_EXT3_EE = comdat any

$_Z4testI22bidirectional_iteratorIPiE16sentinel_wrapperIS2_E19contiguous_iteratorIS1_ELi6ELi5EEv4DataIXT2_EXT3_EE = comdat any

$_Z4testI22bidirectional_iteratorIPiE16sentinel_wrapperIS2_E19contiguous_iteratorIS1_ELi8ELi5EEv4DataIXT2_EXT3_EE = comdat any

$_Z4testI22bidirectional_iteratorIPiE16sentinel_wrapperIS2_ES1_Li6ELi5EEv4DataIXT2_EXT3_EE = comdat any

$_Z4testI22bidirectional_iteratorIPiE16sentinel_wrapperIS2_ES1_Li8ELi5EEv4DataIXT2_EXT3_EE = comdat any

$_Z4testI22bidirectional_iteratorIPiE14sized_sentinelIS2_E21cpp17_output_iteratorIS1_ELi6ELi5EEv4DataIXT2_EXT3_EE = comdat any

$_Z4testI22bidirectional_iteratorIPiE14sized_sentinelIS2_E21cpp17_output_iteratorIS1_ELi8ELi5EEv4DataIXT2_EXT3_EE = comdat any

$_Z4testI22bidirectional_iteratorIPiE14sized_sentinelIS2_E16forward_iteratorIS1_ELi6ELi5EEv4DataIXT2_EXT3_EE = comdat any

$_Z4testI22bidirectional_iteratorIPiE14sized_sentinelIS2_E16forward_iteratorIS1_ELi8ELi5EEv4DataIXT2_EXT3_EE = comdat any

$_Z4testI22bidirectional_iteratorIPiE14sized_sentinelIS2_ES2_Li6ELi5EEv4DataIXT2_EXT3_EE = comdat any

$_Z4testI22bidirectional_iteratorIPiE14sized_sentinelIS2_ES2_Li8ELi5EEv4DataIXT2_EXT3_EE = comdat any

$_Z4testI22bidirectional_iteratorIPiE14sized_sentinelIS2_E22random_access_iteratorIS1_ELi6ELi5EEv4DataIXT2_EXT3_EE = comdat any

$_Z4testI22bidirectional_iteratorIPiE14sized_sentinelIS2_E22random_access_iteratorIS1_ELi8ELi5EEv4DataIXT2_EXT3_EE = comdat any

$_Z4testI22bidirectional_iteratorIPiE14sized_sentinelIS2_E19contiguous_iteratorIS1_ELi6ELi5EEv4DataIXT2_EXT3_EE = comdat any

$_Z4testI22bidirectional_iteratorIPiE14sized_sentinelIS2_E19contiguous_iteratorIS1_ELi8ELi5EEv4DataIXT2_EXT3_EE = comdat any

$_Z4testI22bidirectional_iteratorIPiE14sized_sentinelIS2_ES1_Li6ELi5EEv4DataIXT2_EXT3_EE = comdat any

$_Z4testI22bidirectional_iteratorIPiE14sized_sentinelIS2_ES1_Li8ELi5EEv4DataIXT2_EXT3_EE = comdat any

$_Z21test_output_iteratorsI22random_access_iteratorIPiES2_Evv = comdat any

$_Z21test_output_iteratorsI22random_access_iteratorIPiE16sentinel_wrapperIS2_EEvv = comdat any

$_Z21test_output_iteratorsI22random_access_iteratorIPiE14sized_sentinelIS2_EEvv = comdat any

$_Z4testI22random_access_iteratorIPiES2_21cpp17_output_iteratorIS1_ELi6ELi5EEv4DataIXT2_EXT3_EE = comdat any

$_Z4testI22random_access_iteratorIPiES2_21cpp17_output_iteratorIS1_ELi8ELi5EEv4DataIXT2_EXT3_EE = comdat any

$_Z4testI22random_access_iteratorIPiES2_16forward_iteratorIS1_ELi6ELi5EEv4DataIXT2_EXT3_EE = comdat any

$_Z4testI22random_access_iteratorIPiES2_16forward_iteratorIS1_ELi8ELi5EEv4DataIXT2_EXT3_EE = comdat any

$_Z4testI22random_access_iteratorIPiES2_22bidirectional_iteratorIS1_ELi6ELi5EEv4DataIXT2_EXT3_EE = comdat any

$_Z4testI22random_access_iteratorIPiES2_22bidirectional_iteratorIS1_ELi8ELi5EEv4DataIXT2_EXT3_EE = comdat any

$_Z4testI22random_access_iteratorIPiES2_S2_Li6ELi5EEv4DataIXT2_EXT3_EE = comdat any

$_Z4testI22random_access_iteratorIPiES2_S2_Li8ELi5EEv4DataIXT2_EXT3_EE = comdat any

$_Z4testI22random_access_iteratorIPiES2_19contiguous_iteratorIS1_ELi6ELi5EEv4DataIXT2_EXT3_EE = comdat any

$_Z4testI22random_access_iteratorIPiES2_19contiguous_iteratorIS1_ELi8ELi5EEv4DataIXT2_EXT3_EE = comdat any

$_Z4testI22random_access_iteratorIPiES2_S1_Li6ELi5EEv4DataIXT2_EXT3_EE = comdat any

$_Z4testI22random_access_iteratorIPiES2_S1_Li8ELi5EEv4DataIXT2_EXT3_EE = comdat any

$_Z4testI22random_access_iteratorIPiE16sentinel_wrapperIS2_E21cpp17_output_iteratorIS1_ELi6ELi5EEv4DataIXT2_EXT3_EE = comdat any

$_Z4testI22random_access_iteratorIPiE16sentinel_wrapperIS2_E21cpp17_output_iteratorIS1_ELi8ELi5EEv4DataIXT2_EXT3_EE = comdat any

$_Z4testI22random_access_iteratorIPiE16sentinel_wrapperIS2_E16forward_iteratorIS1_ELi6ELi5EEv4DataIXT2_EXT3_EE = comdat any

$_Z4testI22random_access_iteratorIPiE16sentinel_wrapperIS2_E16forward_iteratorIS1_ELi8ELi5EEv4DataIXT2_EXT3_EE = comdat any

$_Z4testI22random_access_iteratorIPiE16sentinel_wrapperIS2_E22bidirectional_iteratorIS1_ELi6ELi5EEv4DataIXT2_EXT3_EE = comdat any

$_Z4testI22random_access_iteratorIPiE16sentinel_wrapperIS2_E22bidirectional_iteratorIS1_ELi8ELi5EEv4DataIXT2_EXT3_EE = comdat any

$_Z4testI22random_access_iteratorIPiE16sentinel_wrapperIS2_ES2_Li6ELi5EEv4DataIXT2_EXT3_EE = comdat any

$_Z4testI22random_access_iteratorIPiE16sentinel_wrapperIS2_ES2_Li8ELi5EEv4DataIXT2_EXT3_EE = comdat any

$_Z4testI22random_access_iteratorIPiE16sentinel_wrapperIS2_E19contiguous_iteratorIS1_ELi6ELi5EEv4DataIXT2_EXT3_EE = comdat any

$_Z4testI22random_access_iteratorIPiE16sentinel_wrapperIS2_E19contiguous_iteratorIS1_ELi8ELi5EEv4DataIXT2_EXT3_EE = comdat any

$_Z4testI22random_access_iteratorIPiE16sentinel_wrapperIS2_ES1_Li6ELi5EEv4DataIXT2_EXT3_EE = comdat any

$_Z4testI22random_access_iteratorIPiE16sentinel_wrapperIS2_ES1_Li8ELi5EEv4DataIXT2_EXT3_EE = comdat any

$_Z4testI22random_access_iteratorIPiE14sized_sentinelIS2_E21cpp17_output_iteratorIS1_ELi6ELi5EEv4DataIXT2_EXT3_EE = comdat any

$_Z4testI22random_access_iteratorIPiE14sized_sentinelIS2_E21cpp17_output_iteratorIS1_ELi8ELi5EEv4DataIXT2_EXT3_EE = comdat any

$_Z4testI22random_access_iteratorIPiE14sized_sentinelIS2_E16forward_iteratorIS1_ELi6ELi5EEv4DataIXT2_EXT3_EE = comdat any

$_Z4testI22random_access_iteratorIPiE14sized_sentinelIS2_E16forward_iteratorIS1_ELi8ELi5EEv4DataIXT2_EXT3_EE = comdat any

$_Z4testI22random_access_iteratorIPiE14sized_sentinelIS2_E22bidirectional_iteratorIS1_ELi6ELi5EEv4DataIXT2_EXT3_EE = comdat any

$_Z4testI22random_access_iteratorIPiE14sized_sentinelIS2_E22bidirectional_iteratorIS1_ELi8ELi5EEv4DataIXT2_EXT3_EE = comdat any

$_Z4testI22random_access_iteratorIPiE14sized_sentinelIS2_ES2_Li6ELi5EEv4DataIXT2_EXT3_EE = comdat any

$_Z4testI22random_access_iteratorIPiE14sized_sentinelIS2_ES2_Li8ELi5EEv4DataIXT2_EXT3_EE = comdat any

$_Z4testI22random_access_iteratorIPiE14sized_sentinelIS2_E19contiguous_iteratorIS1_ELi6ELi5EEv4DataIXT2_EXT3_EE = comdat any

$_Z4testI22random_access_iteratorIPiE14sized_sentinelIS2_E19contiguous_iteratorIS1_ELi8ELi5EEv4DataIXT2_EXT3_EE = comdat any

$_Z4testI22random_access_iteratorIPiE14sized_sentinelIS2_ES1_Li6ELi5EEv4DataIXT2_EXT3_EE = comdat any

$_Z4testI22random_access_iteratorIPiE14sized_sentinelIS2_ES1_Li8ELi5EEv4DataIXT2_EXT3_EE = comdat any

$_Z21test_output_iteratorsI19contiguous_iteratorIPiES2_Evv = comdat any

$_Z21test_output_iteratorsI19contiguous_iteratorIPiE16sentinel_wrapperIS2_EEvv = comdat any

$_Z21test_output_iteratorsI19contiguous_iteratorIPiE14sized_sentinelIS2_EEvv = comdat any

$_Z4testI19contiguous_iteratorIPiES2_21cpp17_output_iteratorIS1_ELi6ELi5EEv4DataIXT2_EXT3_EE = comdat any

$_Z4testI19contiguous_iteratorIPiES2_21cpp17_output_iteratorIS1_ELi8ELi5EEv4DataIXT2_EXT3_EE = comdat any

$_Z4testI19contiguous_iteratorIPiES2_16forward_iteratorIS1_ELi6ELi5EEv4DataIXT2_EXT3_EE = comdat any

$_Z4testI19contiguous_iteratorIPiES2_16forward_iteratorIS1_ELi8ELi5EEv4DataIXT2_EXT3_EE = comdat any

$_Z4testI19contiguous_iteratorIPiES2_22bidirectional_iteratorIS1_ELi6ELi5EEv4DataIXT2_EXT3_EE = comdat any

$_Z4testI19contiguous_iteratorIPiES2_22bidirectional_iteratorIS1_ELi8ELi5EEv4DataIXT2_EXT3_EE = comdat any

$_Z4testI19contiguous_iteratorIPiES2_22random_access_iteratorIS1_ELi6ELi5EEv4DataIXT2_EXT3_EE = comdat any

$_Z4testI19contiguous_iteratorIPiES2_22random_access_iteratorIS1_ELi8ELi5EEv4DataIXT2_EXT3_EE = comdat any

$_Z4testI19contiguous_iteratorIPiES2_S2_Li6ELi5EEv4DataIXT2_EXT3_EE = comdat any

$_Z4testI19contiguous_iteratorIPiES2_S2_Li8ELi5EEv4DataIXT2_EXT3_EE = comdat any

$_Z4testI19contiguous_iteratorIPiES2_S1_Li6ELi5EEv4DataIXT2_EXT3_EE = comdat any

$_Z4testI19contiguous_iteratorIPiES2_S1_Li8ELi5EEv4DataIXT2_EXT3_EE = comdat any

$_Z4testI19contiguous_iteratorIPiE16sentinel_wrapperIS2_E21cpp17_output_iteratorIS1_ELi6ELi5EEv4DataIXT2_EXT3_EE = comdat any

$_Z4testI19contiguous_iteratorIPiE16sentinel_wrapperIS2_E21cpp17_output_iteratorIS1_ELi8ELi5EEv4DataIXT2_EXT3_EE = comdat any

$_Z4testI19contiguous_iteratorIPiE16sentinel_wrapperIS2_E16forward_iteratorIS1_ELi6ELi5EEv4DataIXT2_EXT3_EE = comdat any

$_Z4testI19contiguous_iteratorIPiE16sentinel_wrapperIS2_E16forward_iteratorIS1_ELi8ELi5EEv4DataIXT2_EXT3_EE = comdat any

$_Z4testI19contiguous_iteratorIPiE16sentinel_wrapperIS2_E22bidirectional_iteratorIS1_ELi6ELi5EEv4DataIXT2_EXT3_EE = comdat any

$_Z4testI19contiguous_iteratorIPiE16sentinel_wrapperIS2_E22bidirectional_iteratorIS1_ELi8ELi5EEv4DataIXT2_EXT3_EE = comdat any

$_Z4testI19contiguous_iteratorIPiE16sentinel_wrapperIS2_E22random_access_iteratorIS1_ELi6ELi5EEv4DataIXT2_EXT3_EE = comdat any

$_Z4testI19contiguous_iteratorIPiE16sentinel_wrapperIS2_E22random_access_iteratorIS1_ELi8ELi5EEv4DataIXT2_EXT3_EE = comdat any

$_Z4testI19contiguous_iteratorIPiE16sentinel_wrapperIS2_ES2_Li6ELi5EEv4DataIXT2_EXT3_EE = comdat any

$_Z4testI19contiguous_iteratorIPiE16sentinel_wrapperIS2_ES2_Li8ELi5EEv4DataIXT2_EXT3_EE = comdat any

$_Z4testI19contiguous_iteratorIPiE16sentinel_wrapperIS2_ES1_Li6ELi5EEv4DataIXT2_EXT3_EE = comdat any

$_Z4testI19contiguous_iteratorIPiE16sentinel_wrapperIS2_ES1_Li8ELi5EEv4DataIXT2_EXT3_EE = comdat any

$_Z4testI19contiguous_iteratorIPiE14sized_sentinelIS2_E21cpp17_output_iteratorIS1_ELi6ELi5EEv4DataIXT2_EXT3_EE = comdat any

$_Z4testI19contiguous_iteratorIPiE14sized_sentinelIS2_E21cpp17_output_iteratorIS1_ELi8ELi5EEv4DataIXT2_EXT3_EE = comdat any

$_Z4testI19contiguous_iteratorIPiE14sized_sentinelIS2_E16forward_iteratorIS1_ELi6ELi5EEv4DataIXT2_EXT3_EE = comdat any

$_Z4testI19contiguous_iteratorIPiE14sized_sentinelIS2_E16forward_iteratorIS1_ELi8ELi5EEv4DataIXT2_EXT3_EE = comdat any

$_Z4testI19contiguous_iteratorIPiE14sized_sentinelIS2_E22bidirectional_iteratorIS1_ELi6ELi5EEv4DataIXT2_EXT3_EE = comdat any

$_Z4testI19contiguous_iteratorIPiE14sized_sentinelIS2_E22bidirectional_iteratorIS1_ELi8ELi5EEv4DataIXT2_EXT3_EE = comdat any

$_Z4testI19contiguous_iteratorIPiE14sized_sentinelIS2_E22random_access_iteratorIS1_ELi6ELi5EEv4DataIXT2_EXT3_EE = comdat any

$_Z4testI19contiguous_iteratorIPiE14sized_sentinelIS2_E22random_access_iteratorIS1_ELi8ELi5EEv4DataIXT2_EXT3_EE = comdat any

$_Z4testI19contiguous_iteratorIPiE14sized_sentinelIS2_ES2_Li6ELi5EEv4DataIXT2_EXT3_EE = comdat any

$_Z4testI19contiguous_iteratorIPiE14sized_sentinelIS2_ES2_Li8ELi5EEv4DataIXT2_EXT3_EE = comdat any

$_Z4testI19contiguous_iteratorIPiE14sized_sentinelIS2_ES1_Li6ELi5EEv4DataIXT2_EXT3_EE = comdat any

$_Z4testI19contiguous_iteratorIPiE14sized_sentinelIS2_ES1_Li8ELi5EEv4DataIXT2_EXT3_EE = comdat any

$_Z21test_output_iteratorsIPiS0_Evv = comdat any

$_Z21test_output_iteratorsIPi16sentinel_wrapperIS0_EEvv = comdat any

$_Z21test_output_iteratorsIPi14sized_sentinelIS0_EEvv = comdat any

$_Z4testIPiS0_21cpp17_output_iteratorIS0_ELi6ELi5EEv4DataIXT2_EXT3_EE = comdat any

$_Z4testIPiS0_21cpp17_output_iteratorIS0_ELi8ELi5EEv4DataIXT2_EXT3_EE = comdat any

$_Z4testIPiS0_16forward_iteratorIS0_ELi6ELi5EEv4DataIXT2_EXT3_EE = comdat any

$_Z4testIPiS0_16forward_iteratorIS0_ELi8ELi5EEv4DataIXT2_EXT3_EE = comdat any

$_Z4testIPiS0_22bidirectional_iteratorIS0_ELi6ELi5EEv4DataIXT2_EXT3_EE = comdat any

$_Z4testIPiS0_22bidirectional_iteratorIS0_ELi8ELi5EEv4DataIXT2_EXT3_EE = comdat any

$_Z4testIPiS0_22random_access_iteratorIS0_ELi6ELi5EEv4DataIXT2_EXT3_EE = comdat any

$_Z4testIPiS0_22random_access_iteratorIS0_ELi8ELi5EEv4DataIXT2_EXT3_EE = comdat any

$_Z4testIPiS0_19contiguous_iteratorIS0_ELi6ELi5EEv4DataIXT2_EXT3_EE = comdat any

$_Z4testIPiS0_19contiguous_iteratorIS0_ELi8ELi5EEv4DataIXT2_EXT3_EE = comdat any

$_Z4testIPiS0_S0_Li6ELi5EEv4DataIXT2_EXT3_EE = comdat any

$_Z4testIPiS0_S0_Li8ELi5EEv4DataIXT2_EXT3_EE = comdat any

$_Z4testIPi16sentinel_wrapperIS0_E21cpp17_output_iteratorIS0_ELi6ELi5EEv4DataIXT2_EXT3_EE = comdat any

$_Z4testIPi16sentinel_wrapperIS0_E21cpp17_output_iteratorIS0_ELi8ELi5EEv4DataIXT2_EXT3_EE = comdat any

$_Z4testIPi16sentinel_wrapperIS0_E16forward_iteratorIS0_ELi6ELi5EEv4DataIXT2_EXT3_EE = comdat any

$_Z4testIPi16sentinel_wrapperIS0_E16forward_iteratorIS0_ELi8ELi5EEv4DataIXT2_EXT3_EE = comdat any

$_Z4testIPi16sentinel_wrapperIS0_E22bidirectional_iteratorIS0_ELi6ELi5EEv4DataIXT2_EXT3_EE = comdat any

$_Z4testIPi16sentinel_wrapperIS0_E22bidirectional_iteratorIS0_ELi8ELi5EEv4DataIXT2_EXT3_EE = comdat any

$_Z4testIPi16sentinel_wrapperIS0_E22random_access_iteratorIS0_ELi6ELi5EEv4DataIXT2_EXT3_EE = comdat any

$_Z4testIPi16sentinel_wrapperIS0_E22random_access_iteratorIS0_ELi8ELi5EEv4DataIXT2_EXT3_EE = comdat any

$_Z4testIPi16sentinel_wrapperIS0_E19contiguous_iteratorIS0_ELi6ELi5EEv4DataIXT2_EXT3_EE = comdat any

$_Z4testIPi16sentinel_wrapperIS0_E19contiguous_iteratorIS0_ELi8ELi5EEv4DataIXT2_EXT3_EE = comdat any

$_Z4testIPi16sentinel_wrapperIS0_ES0_Li6ELi5EEv4DataIXT2_EXT3_EE = comdat any

$_Z4testIPi16sentinel_wrapperIS0_ES0_Li8ELi5EEv4DataIXT2_EXT3_EE = comdat any

$_Z4testIPi14sized_sentinelIS0_E21cpp17_output_iteratorIS0_ELi6ELi5EEv4DataIXT2_EXT3_EE = comdat any

$_Z4testIPi14sized_sentinelIS0_E21cpp17_output_iteratorIS0_ELi8ELi5EEv4DataIXT2_EXT3_EE = comdat any

$_Z4testIPi14sized_sentinelIS0_E16forward_iteratorIS0_ELi6ELi5EEv4DataIXT2_EXT3_EE = comdat any

$_Z4testIPi14sized_sentinelIS0_E16forward_iteratorIS0_ELi8ELi5EEv4DataIXT2_EXT3_EE = comdat any

$_Z4testIPi14sized_sentinelIS0_E22bidirectional_iteratorIS0_ELi6ELi5EEv4DataIXT2_EXT3_EE = comdat any

$_Z4testIPi14sized_sentinelIS0_E22bidirectional_iteratorIS0_ELi8ELi5EEv4DataIXT2_EXT3_EE = comdat any

$_Z4testIPi14sized_sentinelIS0_E22random_access_iteratorIS0_ELi6ELi5EEv4DataIXT2_EXT3_EE = comdat any

$_Z4testIPi14sized_sentinelIS0_E22random_access_iteratorIS0_ELi8ELi5EEv4DataIXT2_EXT3_EE = comdat any

$_Z4testIPi14sized_sentinelIS0_E19contiguous_iteratorIS0_ELi6ELi5EEv4DataIXT2_EXT3_EE = comdat any

$_Z4testIPi14sized_sentinelIS0_E19contiguous_iteratorIS0_ELi8ELi5EEv4DataIXT2_EXT3_EE = comdat any

$_Z4testIPi14sized_sentinelIS0_ES0_Li6ELi5EEv4DataIXT2_EXT3_EE = comdat any

$_Z4testIPi14sized_sentinelIS0_ES0_Li8ELi5EEv4DataIXT2_EXT3_EE = comdat any

@.str.4 = private unnamed_addr constant [146 x i8] c"/root/project/RuyiTuner/third_party/train/llvm-project/libcxx/test/std/algorithms/alg.modifying.operations/alg.remove/ranges_remove_copy.pass.cpp\00", align 1
@__PRETTY_FUNCTION__._Z4testv = private unnamed_addr constant [12 x i8] c"bool test()\00", align 1
@.str.5 = private unnamed_addr constant [34 x i8] c"std::ranges::equal(out, expected)\00", align 1
@__PRETTY_FUNCTION__._Z4testI20cpp17_input_iteratorIPiS1_E16sentinel_wrapperIS2_E21cpp17_output_iteratorIS1_ELi6ELi5EEv4DataIXT2_EXT3_EE = private unnamed_addr constant [169 x i8] c"void test(Data<N, M>) [InIter = cpp17_input_iterator<int *>, Sent = sentinel_wrapper<cpp17_input_iterator<int *>>, OutIter = cpp17_output_iterator<int *>, N = 6, M = 5]\00", align 1
@.str.11 = private unnamed_addr constant [35 x i8] c"base(ret.out) == output.data() + M\00", align 1
@.str.12 = private unnamed_addr constant [21 x i8] c"d.expected == output\00", align 1
@__PRETTY_FUNCTION__._Z4testI20cpp17_input_iteratorIPiS1_E16sentinel_wrapperIS2_E21cpp17_output_iteratorIS1_ELi8ELi5EEv4DataIXT2_EXT3_EE = private unnamed_addr constant [169 x i8] c"void test(Data<N, M>) [InIter = cpp17_input_iterator<int *>, Sent = sentinel_wrapper<cpp17_input_iterator<int *>>, OutIter = cpp17_output_iterator<int *>, N = 8, M = 5]\00", align 1
@__PRETTY_FUNCTION__._Z4testI20cpp17_input_iteratorIPiS1_E16sentinel_wrapperIS2_E16forward_iteratorIS1_ELi6ELi5EEv4DataIXT2_EXT3_EE = private unnamed_addr constant [164 x i8] c"void test(Data<N, M>) [InIter = cpp17_input_iterator<int *>, Sent = sentinel_wrapper<cpp17_input_iterator<int *>>, OutIter = forward_iterator<int *>, N = 6, M = 5]\00", align 1
@__PRETTY_FUNCTION__._Z4testI20cpp17_input_iteratorIPiS1_E16sentinel_wrapperIS2_E16forward_iteratorIS1_ELi8ELi5EEv4DataIXT2_EXT3_EE = private unnamed_addr constant [164 x i8] c"void test(Data<N, M>) [InIter = cpp17_input_iterator<int *>, Sent = sentinel_wrapper<cpp17_input_iterator<int *>>, OutIter = forward_iterator<int *>, N = 8, M = 5]\00", align 1
@__PRETTY_FUNCTION__._Z4testI20cpp17_input_iteratorIPiS1_E16sentinel_wrapperIS2_E22bidirectional_iteratorIS1_ELi6ELi5EEv4DataIXT2_EXT3_EE = private unnamed_addr constant [170 x i8] c"void test(Data<N, M>) [InIter = cpp17_input_iterator<int *>, Sent = sentinel_wrapper<cpp17_input_iterator<int *>>, OutIter = bidirectional_iterator<int *>, N = 6, M = 5]\00", align 1
@__PRETTY_FUNCTION__._Z4testI20cpp17_input_iteratorIPiS1_E16sentinel_wrapperIS2_E22bidirectional_iteratorIS1_ELi8ELi5EEv4DataIXT2_EXT3_EE = private unnamed_addr constant [170 x i8] c"void test(Data<N, M>) [InIter = cpp17_input_iterator<int *>, Sent = sentinel_wrapper<cpp17_input_iterator<int *>>, OutIter = bidirectional_iterator<int *>, N = 8, M = 5]\00", align 1
@__PRETTY_FUNCTION__._Z4testI20cpp17_input_iteratorIPiS1_E16sentinel_wrapperIS2_E22random_access_iteratorIS1_ELi6ELi5EEv4DataIXT2_EXT3_EE = private unnamed_addr constant [170 x i8] c"void test(Data<N, M>) [InIter = cpp17_input_iterator<int *>, Sent = sentinel_wrapper<cpp17_input_iterator<int *>>, OutIter = random_access_iterator<int *>, N = 6, M = 5]\00", align 1
@__PRETTY_FUNCTION__._Z4testI20cpp17_input_iteratorIPiS1_E16sentinel_wrapperIS2_E22random_access_iteratorIS1_ELi8ELi5EEv4DataIXT2_EXT3_EE = private unnamed_addr constant [170 x i8] c"void test(Data<N, M>) [InIter = cpp17_input_iterator<int *>, Sent = sentinel_wrapper<cpp17_input_iterator<int *>>, OutIter = random_access_iterator<int *>, N = 8, M = 5]\00", align 1
@__PRETTY_FUNCTION__._Z4testI20cpp17_input_iteratorIPiS1_E16sentinel_wrapperIS2_E19contiguous_iteratorIS1_ELi6ELi5EEv4DataIXT2_EXT3_EE = private unnamed_addr constant [167 x i8] c"void test(Data<N, M>) [InIter = cpp17_input_iterator<int *>, Sent = sentinel_wrapper<cpp17_input_iterator<int *>>, OutIter = contiguous_iterator<int *>, N = 6, M = 5]\00", align 1
@__PRETTY_FUNCTION__._Z4testI20cpp17_input_iteratorIPiS1_E16sentinel_wrapperIS2_E19contiguous_iteratorIS1_ELi8ELi5EEv4DataIXT2_EXT3_EE = private unnamed_addr constant [167 x i8] c"void test(Data<N, M>) [InIter = cpp17_input_iterator<int *>, Sent = sentinel_wrapper<cpp17_input_iterator<int *>>, OutIter = contiguous_iterator<int *>, N = 8, M = 5]\00", align 1
@__PRETTY_FUNCTION__._Z4testI20cpp17_input_iteratorIPiS1_E16sentinel_wrapperIS2_ES1_Li6ELi5EEv4DataIXT2_EXT3_EE = private unnamed_addr constant [146 x i8] c"void test(Data<N, M>) [InIter = cpp17_input_iterator<int *>, Sent = sentinel_wrapper<cpp17_input_iterator<int *>>, OutIter = int *, N = 6, M = 5]\00", align 1
@__PRETTY_FUNCTION__._Z4testI20cpp17_input_iteratorIPiS1_E16sentinel_wrapperIS2_ES1_Li8ELi5EEv4DataIXT2_EXT3_EE = private unnamed_addr constant [146 x i8] c"void test(Data<N, M>) [InIter = cpp17_input_iterator<int *>, Sent = sentinel_wrapper<cpp17_input_iterator<int *>>, OutIter = int *, N = 8, M = 5]\00", align 1
@__PRETTY_FUNCTION__._Z4testI20cpp17_input_iteratorIPiS1_E14sized_sentinelIS2_E21cpp17_output_iteratorIS1_ELi6ELi5EEv4DataIXT2_EXT3_EE = private unnamed_addr constant [167 x i8] c"void test(Data<N, M>) [InIter = cpp17_input_iterator<int *>, Sent = sized_sentinel<cpp17_input_iterator<int *>>, OutIter = cpp17_output_iterator<int *>, N = 6, M = 5]\00", align 1
@__PRETTY_FUNCTION__._Z4testI20cpp17_input_iteratorIPiS1_E14sized_sentinelIS2_E21cpp17_output_iteratorIS1_ELi8ELi5EEv4DataIXT2_EXT3_EE = private unnamed_addr constant [167 x i8] c"void test(Data<N, M>) [InIter = cpp17_input_iterator<int *>, Sent = sized_sentinel<cpp17_input_iterator<int *>>, OutIter = cpp17_output_iterator<int *>, N = 8, M = 5]\00", align 1
@__PRETTY_FUNCTION__._Z4testI20cpp17_input_iteratorIPiS1_E14sized_sentinelIS2_E16forward_iteratorIS1_ELi6ELi5EEv4DataIXT2_EXT3_EE = private unnamed_addr constant [162 x i8] c"void test(Data<N, M>) [InIter = cpp17_input_iterator<int *>, Sent = sized_sentinel<cpp17_input_iterator<int *>>, OutIter = forward_iterator<int *>, N = 6, M = 5]\00", align 1
@__PRETTY_FUNCTION__._Z4testI20cpp17_input_iteratorIPiS1_E14sized_sentinelIS2_E16forward_iteratorIS1_ELi8ELi5EEv4DataIXT2_EXT3_EE = private unnamed_addr constant [162 x i8] c"void test(Data<N, M>) [InIter = cpp17_input_iterator<int *>, Sent = sized_sentinel<cpp17_input_iterator<int *>>, OutIter = forward_iterator<int *>, N = 8, M = 5]\00", align 1
@__PRETTY_FUNCTION__._Z4testI20cpp17_input_iteratorIPiS1_E14sized_sentinelIS2_E22bidirectional_iteratorIS1_ELi6ELi5EEv4DataIXT2_EXT3_EE = private unnamed_addr constant [168 x i8] c"void test(Data<N, M>) [InIter = cpp17_input_iterator<int *>, Sent = sized_sentinel<cpp17_input_iterator<int *>>, OutIter = bidirectional_iterator<int *>, N = 6, M = 5]\00", align 1
@__PRETTY_FUNCTION__._Z4testI20cpp17_input_iteratorIPiS1_E14sized_sentinelIS2_E22bidirectional_iteratorIS1_ELi8ELi5EEv4DataIXT2_EXT3_EE = private unnamed_addr constant [168 x i8] c"void test(Data<N, M>) [InIter = cpp17_input_iterator<int *>, Sent = sized_sentinel<cpp17_input_iterator<int *>>, OutIter = bidirectional_iterator<int *>, N = 8, M = 5]\00", align 1
@__PRETTY_FUNCTION__._Z4testI20cpp17_input_iteratorIPiS1_E14sized_sentinelIS2_E22random_access_iteratorIS1_ELi6ELi5EEv4DataIXT2_EXT3_EE = private unnamed_addr constant [168 x i8] c"void test(Data<N, M>) [InIter = cpp17_input_iterator<int *>, Sent = sized_sentinel<cpp17_input_iterator<int *>>, OutIter = random_access_iterator<int *>, N = 6, M = 5]\00", align 1
@__PRETTY_FUNCTION__._Z4testI20cpp17_input_iteratorIPiS1_E14sized_sentinelIS2_E22random_access_iteratorIS1_ELi8ELi5EEv4DataIXT2_EXT3_EE = private unnamed_addr constant [168 x i8] c"void test(Data<N, M>) [InIter = cpp17_input_iterator<int *>, Sent = sized_sentinel<cpp17_input_iterator<int *>>, OutIter = random_access_iterator<int *>, N = 8, M = 5]\00", align 1
@__PRETTY_FUNCTION__._Z4testI20cpp17_input_iteratorIPiS1_E14sized_sentinelIS2_E19contiguous_iteratorIS1_ELi6ELi5EEv4DataIXT2_EXT3_EE = private unnamed_addr constant [165 x i8] c"void test(Data<N, M>) [InIter = cpp17_input_iterator<int *>, Sent = sized_sentinel<cpp17_input_iterator<int *>>, OutIter = contiguous_iterator<int *>, N = 6, M = 5]\00", align 1
@__PRETTY_FUNCTION__._Z4testI20cpp17_input_iteratorIPiS1_E14sized_sentinelIS2_E19contiguous_iteratorIS1_ELi8ELi5EEv4DataIXT2_EXT3_EE = private unnamed_addr constant [165 x i8] c"void test(Data<N, M>) [InIter = cpp17_input_iterator<int *>, Sent = sized_sentinel<cpp17_input_iterator<int *>>, OutIter = contiguous_iterator<int *>, N = 8, M = 5]\00", align 1
@__PRETTY_FUNCTION__._Z4testI20cpp17_input_iteratorIPiS1_E14sized_sentinelIS2_ES1_Li6ELi5EEv4DataIXT2_EXT3_EE = private unnamed_addr constant [144 x i8] c"void test(Data<N, M>) [InIter = cpp17_input_iterator<int *>, Sent = sized_sentinel<cpp17_input_iterator<int *>>, OutIter = int *, N = 6, M = 5]\00", align 1
@__PRETTY_FUNCTION__._Z4testI20cpp17_input_iteratorIPiS1_E14sized_sentinelIS2_ES1_Li8ELi5EEv4DataIXT2_EXT3_EE = private unnamed_addr constant [144 x i8] c"void test(Data<N, M>) [InIter = cpp17_input_iterator<int *>, Sent = sized_sentinel<cpp17_input_iterator<int *>>, OutIter = int *, N = 8, M = 5]\00", align 1
@__PRETTY_FUNCTION__._Z4testI20cpp20_input_iteratorIPiE16sentinel_wrapperIS2_E21cpp17_output_iteratorIS1_ELi6ELi5EEv4DataIXT2_EXT3_EE = private unnamed_addr constant [169 x i8] c"void test(Data<N, M>) [InIter = cpp20_input_iterator<int *>, Sent = sentinel_wrapper<cpp20_input_iterator<int *>>, OutIter = cpp17_output_iterator<int *>, N = 6, M = 5]\00", align 1
@__PRETTY_FUNCTION__._Z4testI20cpp20_input_iteratorIPiE16sentinel_wrapperIS2_E21cpp17_output_iteratorIS1_ELi8ELi5EEv4DataIXT2_EXT3_EE = private unnamed_addr constant [169 x i8] c"void test(Data<N, M>) [InIter = cpp20_input_iterator<int *>, Sent = sentinel_wrapper<cpp20_input_iterator<int *>>, OutIter = cpp17_output_iterator<int *>, N = 8, M = 5]\00", align 1
@__PRETTY_FUNCTION__._Z4testI20cpp20_input_iteratorIPiE16sentinel_wrapperIS2_E16forward_iteratorIS1_ELi6ELi5EEv4DataIXT2_EXT3_EE = private unnamed_addr constant [164 x i8] c"void test(Data<N, M>) [InIter = cpp20_input_iterator<int *>, Sent = sentinel_wrapper<cpp20_input_iterator<int *>>, OutIter = forward_iterator<int *>, N = 6, M = 5]\00", align 1
@__PRETTY_FUNCTION__._Z4testI20cpp20_input_iteratorIPiE16sentinel_wrapperIS2_E16forward_iteratorIS1_ELi8ELi5EEv4DataIXT2_EXT3_EE = private unnamed_addr constant [164 x i8] c"void test(Data<N, M>) [InIter = cpp20_input_iterator<int *>, Sent = sentinel_wrapper<cpp20_input_iterator<int *>>, OutIter = forward_iterator<int *>, N = 8, M = 5]\00", align 1
@__PRETTY_FUNCTION__._Z4testI20cpp20_input_iteratorIPiE16sentinel_wrapperIS2_E22bidirectional_iteratorIS1_ELi6ELi5EEv4DataIXT2_EXT3_EE = private unnamed_addr constant [170 x i8] c"void test(Data<N, M>) [InIter = cpp20_input_iterator<int *>, Sent = sentinel_wrapper<cpp20_input_iterator<int *>>, OutIter = bidirectional_iterator<int *>, N = 6, M = 5]\00", align 1
@__PRETTY_FUNCTION__._Z4testI20cpp20_input_iteratorIPiE16sentinel_wrapperIS2_E22bidirectional_iteratorIS1_ELi8ELi5EEv4DataIXT2_EXT3_EE = private unnamed_addr constant [170 x i8] c"void test(Data<N, M>) [InIter = cpp20_input_iterator<int *>, Sent = sentinel_wrapper<cpp20_input_iterator<int *>>, OutIter = bidirectional_iterator<int *>, N = 8, M = 5]\00", align 1
@__PRETTY_FUNCTION__._Z4testI20cpp20_input_iteratorIPiE16sentinel_wrapperIS2_E22random_access_iteratorIS1_ELi6ELi5EEv4DataIXT2_EXT3_EE = private unnamed_addr constant [170 x i8] c"void test(Data<N, M>) [InIter = cpp20_input_iterator<int *>, Sent = sentinel_wrapper<cpp20_input_iterator<int *>>, OutIter = random_access_iterator<int *>, N = 6, M = 5]\00", align 1
@__PRETTY_FUNCTION__._Z4testI20cpp20_input_iteratorIPiE16sentinel_wrapperIS2_E22random_access_iteratorIS1_ELi8ELi5EEv4DataIXT2_EXT3_EE = private unnamed_addr constant [170 x i8] c"void test(Data<N, M>) [InIter = cpp20_input_iterator<int *>, Sent = sentinel_wrapper<cpp20_input_iterator<int *>>, OutIter = random_access_iterator<int *>, N = 8, M = 5]\00", align 1
@__PRETTY_FUNCTION__._Z4testI20cpp20_input_iteratorIPiE16sentinel_wrapperIS2_E19contiguous_iteratorIS1_ELi6ELi5EEv4DataIXT2_EXT3_EE = private unnamed_addr constant [167 x i8] c"void test(Data<N, M>) [InIter = cpp20_input_iterator<int *>, Sent = sentinel_wrapper<cpp20_input_iterator<int *>>, OutIter = contiguous_iterator<int *>, N = 6, M = 5]\00", align 1
@__PRETTY_FUNCTION__._Z4testI20cpp20_input_iteratorIPiE16sentinel_wrapperIS2_E19contiguous_iteratorIS1_ELi8ELi5EEv4DataIXT2_EXT3_EE = private unnamed_addr constant [167 x i8] c"void test(Data<N, M>) [InIter = cpp20_input_iterator<int *>, Sent = sentinel_wrapper<cpp20_input_iterator<int *>>, OutIter = contiguous_iterator<int *>, N = 8, M = 5]\00", align 1
@__PRETTY_FUNCTION__._Z4testI20cpp20_input_iteratorIPiE16sentinel_wrapperIS2_ES1_Li6ELi5EEv4DataIXT2_EXT3_EE = private unnamed_addr constant [146 x i8] c"void test(Data<N, M>) [InIter = cpp20_input_iterator<int *>, Sent = sentinel_wrapper<cpp20_input_iterator<int *>>, OutIter = int *, N = 6, M = 5]\00", align 1
@__PRETTY_FUNCTION__._Z4testI20cpp20_input_iteratorIPiE16sentinel_wrapperIS2_ES1_Li8ELi5EEv4DataIXT2_EXT3_EE = private unnamed_addr constant [146 x i8] c"void test(Data<N, M>) [InIter = cpp20_input_iterator<int *>, Sent = sentinel_wrapper<cpp20_input_iterator<int *>>, OutIter = int *, N = 8, M = 5]\00", align 1
@__PRETTY_FUNCTION__._Z4testI20cpp20_input_iteratorIPiE14sized_sentinelIS2_E21cpp17_output_iteratorIS1_ELi6ELi5EEv4DataIXT2_EXT3_EE = private unnamed_addr constant [167 x i8] c"void test(Data<N, M>) [InIter = cpp20_input_iterator<int *>, Sent = sized_sentinel<cpp20_input_iterator<int *>>, OutIter = cpp17_output_iterator<int *>, N = 6, M = 5]\00", align 1
@__PRETTY_FUNCTION__._Z4testI20cpp20_input_iteratorIPiE14sized_sentinelIS2_E21cpp17_output_iteratorIS1_ELi8ELi5EEv4DataIXT2_EXT3_EE = private unnamed_addr constant [167 x i8] c"void test(Data<N, M>) [InIter = cpp20_input_iterator<int *>, Sent = sized_sentinel<cpp20_input_iterator<int *>>, OutIter = cpp17_output_iterator<int *>, N = 8, M = 5]\00", align 1
@__PRETTY_FUNCTION__._Z4testI20cpp20_input_iteratorIPiE14sized_sentinelIS2_E16forward_iteratorIS1_ELi6ELi5EEv4DataIXT2_EXT3_EE = private unnamed_addr constant [162 x i8] c"void test(Data<N, M>) [InIter = cpp20_input_iterator<int *>, Sent = sized_sentinel<cpp20_input_iterator<int *>>, OutIter = forward_iterator<int *>, N = 6, M = 5]\00", align 1
@__PRETTY_FUNCTION__._Z4testI20cpp20_input_iteratorIPiE14sized_sentinelIS2_E16forward_iteratorIS1_ELi8ELi5EEv4DataIXT2_EXT3_EE = private unnamed_addr constant [162 x i8] c"void test(Data<N, M>) [InIter = cpp20_input_iterator<int *>, Sent = sized_sentinel<cpp20_input_iterator<int *>>, OutIter = forward_iterator<int *>, N = 8, M = 5]\00", align 1
@__PRETTY_FUNCTION__._Z4testI20cpp20_input_iteratorIPiE14sized_sentinelIS2_E22bidirectional_iteratorIS1_ELi6ELi5EEv4DataIXT2_EXT3_EE = private unnamed_addr constant [168 x i8] c"void test(Data<N, M>) [InIter = cpp20_input_iterator<int *>, Sent = sized_sentinel<cpp20_input_iterator<int *>>, OutIter = bidirectional_iterator<int *>, N = 6, M = 5]\00", align 1
@__PRETTY_FUNCTION__._Z4testI20cpp20_input_iteratorIPiE14sized_sentinelIS2_E22bidirectional_iteratorIS1_ELi8ELi5EEv4DataIXT2_EXT3_EE = private unnamed_addr constant [168 x i8] c"void test(Data<N, M>) [InIter = cpp20_input_iterator<int *>, Sent = sized_sentinel<cpp20_input_iterator<int *>>, OutIter = bidirectional_iterator<int *>, N = 8, M = 5]\00", align 1
@__PRETTY_FUNCTION__._Z4testI20cpp20_input_iteratorIPiE14sized_sentinelIS2_E22random_access_iteratorIS1_ELi6ELi5EEv4DataIXT2_EXT3_EE = private unnamed_addr constant [168 x i8] c"void test(Data<N, M>) [InIter = cpp20_input_iterator<int *>, Sent = sized_sentinel<cpp20_input_iterator<int *>>, OutIter = random_access_iterator<int *>, N = 6, M = 5]\00", align 1
@__PRETTY_FUNCTION__._Z4testI20cpp20_input_iteratorIPiE14sized_sentinelIS2_E22random_access_iteratorIS1_ELi8ELi5EEv4DataIXT2_EXT3_EE = private unnamed_addr constant [168 x i8] c"void test(Data<N, M>) [InIter = cpp20_input_iterator<int *>, Sent = sized_sentinel<cpp20_input_iterator<int *>>, OutIter = random_access_iterator<int *>, N = 8, M = 5]\00", align 1
@__PRETTY_FUNCTION__._Z4testI20cpp20_input_iteratorIPiE14sized_sentinelIS2_E19contiguous_iteratorIS1_ELi6ELi5EEv4DataIXT2_EXT3_EE = private unnamed_addr constant [165 x i8] c"void test(Data<N, M>) [InIter = cpp20_input_iterator<int *>, Sent = sized_sentinel<cpp20_input_iterator<int *>>, OutIter = contiguous_iterator<int *>, N = 6, M = 5]\00", align 1
@__PRETTY_FUNCTION__._Z4testI20cpp20_input_iteratorIPiE14sized_sentinelIS2_E19contiguous_iteratorIS1_ELi8ELi5EEv4DataIXT2_EXT3_EE = private unnamed_addr constant [165 x i8] c"void test(Data<N, M>) [InIter = cpp20_input_iterator<int *>, Sent = sized_sentinel<cpp20_input_iterator<int *>>, OutIter = contiguous_iterator<int *>, N = 8, M = 5]\00", align 1
@__PRETTY_FUNCTION__._Z4testI20cpp20_input_iteratorIPiE14sized_sentinelIS2_ES1_Li6ELi5EEv4DataIXT2_EXT3_EE = private unnamed_addr constant [144 x i8] c"void test(Data<N, M>) [InIter = cpp20_input_iterator<int *>, Sent = sized_sentinel<cpp20_input_iterator<int *>>, OutIter = int *, N = 6, M = 5]\00", align 1
@__PRETTY_FUNCTION__._Z4testI20cpp20_input_iteratorIPiE14sized_sentinelIS2_ES1_Li8ELi5EEv4DataIXT2_EXT3_EE = private unnamed_addr constant [144 x i8] c"void test(Data<N, M>) [InIter = cpp20_input_iterator<int *>, Sent = sized_sentinel<cpp20_input_iterator<int *>>, OutIter = int *, N = 8, M = 5]\00", align 1
@__PRETTY_FUNCTION__._Z4testI16forward_iteratorIPiES2_21cpp17_output_iteratorIS1_ELi6ELi5EEv4DataIXT2_EXT3_EE = private unnamed_addr constant [143 x i8] c"void test(Data<N, M>) [InIter = forward_iterator<int *>, Sent = forward_iterator<int *>, OutIter = cpp17_output_iterator<int *>, N = 6, M = 5]\00", align 1
@__PRETTY_FUNCTION__._Z4testI16forward_iteratorIPiES2_21cpp17_output_iteratorIS1_ELi8ELi5EEv4DataIXT2_EXT3_EE = private unnamed_addr constant [143 x i8] c"void test(Data<N, M>) [InIter = forward_iterator<int *>, Sent = forward_iterator<int *>, OutIter = cpp17_output_iterator<int *>, N = 8, M = 5]\00", align 1
@__PRETTY_FUNCTION__._Z4testI16forward_iteratorIPiES2_S2_Li6ELi5EEv4DataIXT2_EXT3_EE = private unnamed_addr constant [138 x i8] c"void test(Data<N, M>) [InIter = forward_iterator<int *>, Sent = forward_iterator<int *>, OutIter = forward_iterator<int *>, N = 6, M = 5]\00", align 1
@__PRETTY_FUNCTION__._Z4testI16forward_iteratorIPiES2_S2_Li8ELi5EEv4DataIXT2_EXT3_EE = private unnamed_addr constant [138 x i8] c"void test(Data<N, M>) [InIter = forward_iterator<int *>, Sent = forward_iterator<int *>, OutIter = forward_iterator<int *>, N = 8, M = 5]\00", align 1
@__PRETTY_FUNCTION__._Z4testI16forward_iteratorIPiES2_22bidirectional_iteratorIS1_ELi6ELi5EEv4DataIXT2_EXT3_EE = private unnamed_addr constant [144 x i8] c"void test(Data<N, M>) [InIter = forward_iterator<int *>, Sent = forward_iterator<int *>, OutIter = bidirectional_iterator<int *>, N = 6, M = 5]\00", align 1
@__PRETTY_FUNCTION__._Z4testI16forward_iteratorIPiES2_22bidirectional_iteratorIS1_ELi8ELi5EEv4DataIXT2_EXT3_EE = private unnamed_addr constant [144 x i8] c"void test(Data<N, M>) [InIter = forward_iterator<int *>, Sent = forward_iterator<int *>, OutIter = bidirectional_iterator<int *>, N = 8, M = 5]\00", align 1
@__PRETTY_FUNCTION__._Z4testI16forward_iteratorIPiES2_22random_access_iteratorIS1_ELi6ELi5EEv4DataIXT2_EXT3_EE = private unnamed_addr constant [144 x i8] c"void test(Data<N, M>) [InIter = forward_iterator<int *>, Sent = forward_iterator<int *>, OutIter = random_access_iterator<int *>, N = 6, M = 5]\00", align 1
@__PRETTY_FUNCTION__._Z4testI16forward_iteratorIPiES2_22random_access_iteratorIS1_ELi8ELi5EEv4DataIXT2_EXT3_EE = private unnamed_addr constant [144 x i8] c"void test(Data<N, M>) [InIter = forward_iterator<int *>, Sent = forward_iterator<int *>, OutIter = random_access_iterator<int *>, N = 8, M = 5]\00", align 1
@__PRETTY_FUNCTION__._Z4testI16forward_iteratorIPiES2_19contiguous_iteratorIS1_ELi6ELi5EEv4DataIXT2_EXT3_EE = private unnamed_addr constant [141 x i8] c"void test(Data<N, M>) [InIter = forward_iterator<int *>, Sent = forward_iterator<int *>, OutIter = contiguous_iterator<int *>, N = 6, M = 5]\00", align 1
@__PRETTY_FUNCTION__._Z4testI16forward_iteratorIPiES2_19contiguous_iteratorIS1_ELi8ELi5EEv4DataIXT2_EXT3_EE = private unnamed_addr constant [141 x i8] c"void test(Data<N, M>) [InIter = forward_iterator<int *>, Sent = forward_iterator<int *>, OutIter = contiguous_iterator<int *>, N = 8, M = 5]\00", align 1
@__PRETTY_FUNCTION__._Z4testI16forward_iteratorIPiES2_S1_Li6ELi5EEv4DataIXT2_EXT3_EE = private unnamed_addr constant [120 x i8] c"void test(Data<N, M>) [InIter = forward_iterator<int *>, Sent = forward_iterator<int *>, OutIter = int *, N = 6, M = 5]\00", align 1
@__PRETTY_FUNCTION__._Z4testI16forward_iteratorIPiES2_S1_Li8ELi5EEv4DataIXT2_EXT3_EE = private unnamed_addr constant [120 x i8] c"void test(Data<N, M>) [InIter = forward_iterator<int *>, Sent = forward_iterator<int *>, OutIter = int *, N = 8, M = 5]\00", align 1
@__PRETTY_FUNCTION__._Z4testI16forward_iteratorIPiE16sentinel_wrapperIS2_E21cpp17_output_iteratorIS1_ELi6ELi5EEv4DataIXT2_EXT3_EE = private unnamed_addr constant [161 x i8] c"void test(Data<N, M>) [InIter = forward_iterator<int *>, Sent = sentinel_wrapper<forward_iterator<int *>>, OutIter = cpp17_output_iterator<int *>, N = 6, M = 5]\00", align 1
@__PRETTY_FUNCTION__._Z4testI16forward_iteratorIPiE16sentinel_wrapperIS2_E21cpp17_output_iteratorIS1_ELi8ELi5EEv4DataIXT2_EXT3_EE = private unnamed_addr constant [161 x i8] c"void test(Data<N, M>) [InIter = forward_iterator<int *>, Sent = sentinel_wrapper<forward_iterator<int *>>, OutIter = cpp17_output_iterator<int *>, N = 8, M = 5]\00", align 1
@__PRETTY_FUNCTION__._Z4testI16forward_iteratorIPiE16sentinel_wrapperIS2_ES2_Li6ELi5EEv4DataIXT2_EXT3_EE = private unnamed_addr constant [156 x i8] c"void test(Data<N, M>) [InIter = forward_iterator<int *>, Sent = sentinel_wrapper<forward_iterator<int *>>, OutIter = forward_iterator<int *>, N = 6, M = 5]\00", align 1
@__PRETTY_FUNCTION__._Z4testI16forward_iteratorIPiE16sentinel_wrapperIS2_ES2_Li8ELi5EEv4DataIXT2_EXT3_EE = private unnamed_addr constant [156 x i8] c"void test(Data<N, M>) [InIter = forward_iterator<int *>, Sent = sentinel_wrapper<forward_iterator<int *>>, OutIter = forward_iterator<int *>, N = 8, M = 5]\00", align 1
@__PRETTY_FUNCTION__._Z4testI16forward_iteratorIPiE16sentinel_wrapperIS2_E22bidirectional_iteratorIS1_ELi6ELi5EEv4DataIXT2_EXT3_EE = private unnamed_addr constant [162 x i8] c"void test(Data<N, M>) [InIter = forward_iterator<int *>, Sent = sentinel_wrapper<forward_iterator<int *>>, OutIter = bidirectional_iterator<int *>, N = 6, M = 5]\00", align 1
@__PRETTY_FUNCTION__._Z4testI16forward_iteratorIPiE16sentinel_wrapperIS2_E22bidirectional_iteratorIS1_ELi8ELi5EEv4DataIXT2_EXT3_EE = private unnamed_addr constant [162 x i8] c"void test(Data<N, M>) [InIter = forward_iterator<int *>, Sent = sentinel_wrapper<forward_iterator<int *>>, OutIter = bidirectional_iterator<int *>, N = 8, M = 5]\00", align 1
@__PRETTY_FUNCTION__._Z4testI16forward_iteratorIPiE16sentinel_wrapperIS2_E22random_access_iteratorIS1_ELi6ELi5EEv4DataIXT2_EXT3_EE = private unnamed_addr constant [162 x i8] c"void test(Data<N, M>) [InIter = forward_iterator<int *>, Sent = sentinel_wrapper<forward_iterator<int *>>, OutIter = random_access_iterator<int *>, N = 6, M = 5]\00", align 1
@__PRETTY_FUNCTION__._Z4testI16forward_iteratorIPiE16sentinel_wrapperIS2_E22random_access_iteratorIS1_ELi8ELi5EEv4DataIXT2_EXT3_EE = private unnamed_addr constant [162 x i8] c"void test(Data<N, M>) [InIter = forward_iterator<int *>, Sent = sentinel_wrapper<forward_iterator<int *>>, OutIter = random_access_iterator<int *>, N = 8, M = 5]\00", align 1
@__PRETTY_FUNCTION__._Z4testI16forward_iteratorIPiE16sentinel_wrapperIS2_E19contiguous_iteratorIS1_ELi6ELi5EEv4DataIXT2_EXT3_EE = private unnamed_addr constant [159 x i8] c"void test(Data<N, M>) [InIter = forward_iterator<int *>, Sent = sentinel_wrapper<forward_iterator<int *>>, OutIter = contiguous_iterator<int *>, N = 6, M = 5]\00", align 1
@__PRETTY_FUNCTION__._Z4testI16forward_iteratorIPiE16sentinel_wrapperIS2_E19contiguous_iteratorIS1_ELi8ELi5EEv4DataIXT2_EXT3_EE = private unnamed_addr constant [159 x i8] c"void test(Data<N, M>) [InIter = forward_iterator<int *>, Sent = sentinel_wrapper<forward_iterator<int *>>, OutIter = contiguous_iterator<int *>, N = 8, M = 5]\00", align 1
@__PRETTY_FUNCTION__._Z4testI16forward_iteratorIPiE16sentinel_wrapperIS2_ES1_Li6ELi5EEv4DataIXT2_EXT3_EE = private unnamed_addr constant [138 x i8] c"void test(Data<N, M>) [InIter = forward_iterator<int *>, Sent = sentinel_wrapper<forward_iterator<int *>>, OutIter = int *, N = 6, M = 5]\00", align 1
@__PRETTY_FUNCTION__._Z4testI16forward_iteratorIPiE16sentinel_wrapperIS2_ES1_Li8ELi5EEv4DataIXT2_EXT3_EE = private unnamed_addr constant [138 x i8] c"void test(Data<N, M>) [InIter = forward_iterator<int *>, Sent = sentinel_wrapper<forward_iterator<int *>>, OutIter = int *, N = 8, M = 5]\00", align 1
@__PRETTY_FUNCTION__._Z4testI16forward_iteratorIPiE14sized_sentinelIS2_E21cpp17_output_iteratorIS1_ELi6ELi5EEv4DataIXT2_EXT3_EE = private unnamed_addr constant [159 x i8] c"void test(Data<N, M>) [InIter = forward_iterator<int *>, Sent = sized_sentinel<forward_iterator<int *>>, OutIter = cpp17_output_iterator<int *>, N = 6, M = 5]\00", align 1
@__PRETTY_FUNCTION__._Z4testI16forward_iteratorIPiE14sized_sentinelIS2_E21cpp17_output_iteratorIS1_ELi8ELi5EEv4DataIXT2_EXT3_EE = private unnamed_addr constant [159 x i8] c"void test(Data<N, M>) [InIter = forward_iterator<int *>, Sent = sized_sentinel<forward_iterator<int *>>, OutIter = cpp17_output_iterator<int *>, N = 8, M = 5]\00", align 1
@__PRETTY_FUNCTION__._Z4testI16forward_iteratorIPiE14sized_sentinelIS2_ES2_Li6ELi5EEv4DataIXT2_EXT3_EE = private unnamed_addr constant [154 x i8] c"void test(Data<N, M>) [InIter = forward_iterator<int *>, Sent = sized_sentinel<forward_iterator<int *>>, OutIter = forward_iterator<int *>, N = 6, M = 5]\00", align 1
@__PRETTY_FUNCTION__._Z4testI16forward_iteratorIPiE14sized_sentinelIS2_ES2_Li8ELi5EEv4DataIXT2_EXT3_EE = private unnamed_addr constant [154 x i8] c"void test(Data<N, M>) [InIter = forward_iterator<int *>, Sent = sized_sentinel<forward_iterator<int *>>, OutIter = forward_iterator<int *>, N = 8, M = 5]\00", align 1
@__PRETTY_FUNCTION__._Z4testI16forward_iteratorIPiE14sized_sentinelIS2_E22bidirectional_iteratorIS1_ELi6ELi5EEv4DataIXT2_EXT3_EE = private unnamed_addr constant [160 x i8] c"void test(Data<N, M>) [InIter = forward_iterator<int *>, Sent = sized_sentinel<forward_iterator<int *>>, OutIter = bidirectional_iterator<int *>, N = 6, M = 5]\00", align 1
@__PRETTY_FUNCTION__._Z4testI16forward_iteratorIPiE14sized_sentinelIS2_E22bidirectional_iteratorIS1_ELi8ELi5EEv4DataIXT2_EXT3_EE = private unnamed_addr constant [160 x i8] c"void test(Data<N, M>) [InIter = forward_iterator<int *>, Sent = sized_sentinel<forward_iterator<int *>>, OutIter = bidirectional_iterator<int *>, N = 8, M = 5]\00", align 1
@__PRETTY_FUNCTION__._Z4testI16forward_iteratorIPiE14sized_sentinelIS2_E22random_access_iteratorIS1_ELi6ELi5EEv4DataIXT2_EXT3_EE = private unnamed_addr constant [160 x i8] c"void test(Data<N, M>) [InIter = forward_iterator<int *>, Sent = sized_sentinel<forward_iterator<int *>>, OutIter = random_access_iterator<int *>, N = 6, M = 5]\00", align 1
@__PRETTY_FUNCTION__._Z4testI16forward_iteratorIPiE14sized_sentinelIS2_E22random_access_iteratorIS1_ELi8ELi5EEv4DataIXT2_EXT3_EE = private unnamed_addr constant [160 x i8] c"void test(Data<N, M>) [InIter = forward_iterator<int *>, Sent = sized_sentinel<forward_iterator<int *>>, OutIter = random_access_iterator<int *>, N = 8, M = 5]\00", align 1
@__PRETTY_FUNCTION__._Z4testI16forward_iteratorIPiE14sized_sentinelIS2_E19contiguous_iteratorIS1_ELi6ELi5EEv4DataIXT2_EXT3_EE = private unnamed_addr constant [157 x i8] c"void test(Data<N, M>) [InIter = forward_iterator<int *>, Sent = sized_sentinel<forward_iterator<int *>>, OutIter = contiguous_iterator<int *>, N = 6, M = 5]\00", align 1
@__PRETTY_FUNCTION__._Z4testI16forward_iteratorIPiE14sized_sentinelIS2_E19contiguous_iteratorIS1_ELi8ELi5EEv4DataIXT2_EXT3_EE = private unnamed_addr constant [157 x i8] c"void test(Data<N, M>) [InIter = forward_iterator<int *>, Sent = sized_sentinel<forward_iterator<int *>>, OutIter = contiguous_iterator<int *>, N = 8, M = 5]\00", align 1
@__PRETTY_FUNCTION__._Z4testI16forward_iteratorIPiE14sized_sentinelIS2_ES1_Li6ELi5EEv4DataIXT2_EXT3_EE = private unnamed_addr constant [136 x i8] c"void test(Data<N, M>) [InIter = forward_iterator<int *>, Sent = sized_sentinel<forward_iterator<int *>>, OutIter = int *, N = 6, M = 5]\00", align 1
@__PRETTY_FUNCTION__._Z4testI16forward_iteratorIPiE14sized_sentinelIS2_ES1_Li8ELi5EEv4DataIXT2_EXT3_EE = private unnamed_addr constant [136 x i8] c"void test(Data<N, M>) [InIter = forward_iterator<int *>, Sent = sized_sentinel<forward_iterator<int *>>, OutIter = int *, N = 8, M = 5]\00", align 1
@__PRETTY_FUNCTION__._Z4testI22bidirectional_iteratorIPiES2_21cpp17_output_iteratorIS1_ELi6ELi5EEv4DataIXT2_EXT3_EE = private unnamed_addr constant [155 x i8] c"void test(Data<N, M>) [InIter = bidirectional_iterator<int *>, Sent = bidirectional_iterator<int *>, OutIter = cpp17_output_iterator<int *>, N = 6, M = 5]\00", align 1
@__PRETTY_FUNCTION__._Z4testI22bidirectional_iteratorIPiES2_21cpp17_output_iteratorIS1_ELi8ELi5EEv4DataIXT2_EXT3_EE = private unnamed_addr constant [155 x i8] c"void test(Data<N, M>) [InIter = bidirectional_iterator<int *>, Sent = bidirectional_iterator<int *>, OutIter = cpp17_output_iterator<int *>, N = 8, M = 5]\00", align 1
@__PRETTY_FUNCTION__._Z4testI22bidirectional_iteratorIPiES2_16forward_iteratorIS1_ELi6ELi5EEv4DataIXT2_EXT3_EE = private unnamed_addr constant [150 x i8] c"void test(Data<N, M>) [InIter = bidirectional_iterator<int *>, Sent = bidirectional_iterator<int *>, OutIter = forward_iterator<int *>, N = 6, M = 5]\00", align 1
@__PRETTY_FUNCTION__._Z4testI22bidirectional_iteratorIPiES2_16forward_iteratorIS1_ELi8ELi5EEv4DataIXT2_EXT3_EE = private unnamed_addr constant [150 x i8] c"void test(Data<N, M>) [InIter = bidirectional_iterator<int *>, Sent = bidirectional_iterator<int *>, OutIter = forward_iterator<int *>, N = 8, M = 5]\00", align 1
@__PRETTY_FUNCTION__._Z4testI22bidirectional_iteratorIPiES2_S2_Li6ELi5EEv4DataIXT2_EXT3_EE = private unnamed_addr constant [156 x i8] c"void test(Data<N, M>) [InIter = bidirectional_iterator<int *>, Sent = bidirectional_iterator<int *>, OutIter = bidirectional_iterator<int *>, N = 6, M = 5]\00", align 1
@__PRETTY_FUNCTION__._Z4testI22bidirectional_iteratorIPiES2_S2_Li8ELi5EEv4DataIXT2_EXT3_EE = private unnamed_addr constant [156 x i8] c"void test(Data<N, M>) [InIter = bidirectional_iterator<int *>, Sent = bidirectional_iterator<int *>, OutIter = bidirectional_iterator<int *>, N = 8, M = 5]\00", align 1
@__PRETTY_FUNCTION__._Z4testI22bidirectional_iteratorIPiES2_22random_access_iteratorIS1_ELi6ELi5EEv4DataIXT2_EXT3_EE = private unnamed_addr constant [156 x i8] c"void test(Data<N, M>) [InIter = bidirectional_iterator<int *>, Sent = bidirectional_iterator<int *>, OutIter = random_access_iterator<int *>, N = 6, M = 5]\00", align 1
@__PRETTY_FUNCTION__._Z4testI22bidirectional_iteratorIPiES2_22random_access_iteratorIS1_ELi8ELi5EEv4DataIXT2_EXT3_EE = private unnamed_addr constant [156 x i8] c"void test(Data<N, M>) [InIter = bidirectional_iterator<int *>, Sent = bidirectional_iterator<int *>, OutIter = random_access_iterator<int *>, N = 8, M = 5]\00", align 1
@__PRETTY_FUNCTION__._Z4testI22bidirectional_iteratorIPiES2_19contiguous_iteratorIS1_ELi6ELi5EEv4DataIXT2_EXT3_EE = private unnamed_addr constant [153 x i8] c"void test(Data<N, M>) [InIter = bidirectional_iterator<int *>, Sent = bidirectional_iterator<int *>, OutIter = contiguous_iterator<int *>, N = 6, M = 5]\00", align 1
@__PRETTY_FUNCTION__._Z4testI22bidirectional_iteratorIPiES2_19contiguous_iteratorIS1_ELi8ELi5EEv4DataIXT2_EXT3_EE = private unnamed_addr constant [153 x i8] c"void test(Data<N, M>) [InIter = bidirectional_iterator<int *>, Sent = bidirectional_iterator<int *>, OutIter = contiguous_iterator<int *>, N = 8, M = 5]\00", align 1
@__PRETTY_FUNCTION__._Z4testI22bidirectional_iteratorIPiES2_S1_Li6ELi5EEv4DataIXT2_EXT3_EE = private unnamed_addr constant [132 x i8] c"void test(Data<N, M>) [InIter = bidirectional_iterator<int *>, Sent = bidirectional_iterator<int *>, OutIter = int *, N = 6, M = 5]\00", align 1
@__PRETTY_FUNCTION__._Z4testI22bidirectional_iteratorIPiES2_S1_Li8ELi5EEv4DataIXT2_EXT3_EE = private unnamed_addr constant [132 x i8] c"void test(Data<N, M>) [InIter = bidirectional_iterator<int *>, Sent = bidirectional_iterator<int *>, OutIter = int *, N = 8, M = 5]\00", align 1
@__PRETTY_FUNCTION__._Z4testI22bidirectional_iteratorIPiE16sentinel_wrapperIS2_E21cpp17_output_iteratorIS1_ELi6ELi5EEv4DataIXT2_EXT3_EE = private unnamed_addr constant [173 x i8] c"void test(Data<N, M>) [InIter = bidirectional_iterator<int *>, Sent = sentinel_wrapper<bidirectional_iterator<int *>>, OutIter = cpp17_output_iterator<int *>, N = 6, M = 5]\00", align 1
@__PRETTY_FUNCTION__._Z4testI22bidirectional_iteratorIPiE16sentinel_wrapperIS2_E21cpp17_output_iteratorIS1_ELi8ELi5EEv4DataIXT2_EXT3_EE = private unnamed_addr constant [173 x i8] c"void test(Data<N, M>) [InIter = bidirectional_iterator<int *>, Sent = sentinel_wrapper<bidirectional_iterator<int *>>, OutIter = cpp17_output_iterator<int *>, N = 8, M = 5]\00", align 1
@__PRETTY_FUNCTION__._Z4testI22bidirectional_iteratorIPiE16sentinel_wrapperIS2_E16forward_iteratorIS1_ELi6ELi5EEv4DataIXT2_EXT3_EE = private unnamed_addr constant [168 x i8] c"void test(Data<N, M>) [InIter = bidirectional_iterator<int *>, Sent = sentinel_wrapper<bidirectional_iterator<int *>>, OutIter = forward_iterator<int *>, N = 6, M = 5]\00", align 1
@__PRETTY_FUNCTION__._Z4testI22bidirectional_iteratorIPiE16sentinel_wrapperIS2_E16forward_iteratorIS1_ELi8ELi5EEv4DataIXT2_EXT3_EE = private unnamed_addr constant [168 x i8] c"void test(Data<N, M>) [InIter = bidirectional_iterator<int *>, Sent = sentinel_wrapper<bidirectional_iterator<int *>>, OutIter = forward_iterator<int *>, N = 8, M = 5]\00", align 1
@__PRETTY_FUNCTION__._Z4testI22bidirectional_iteratorIPiE16sentinel_wrapperIS2_ES2_Li6ELi5EEv4DataIXT2_EXT3_EE = private unnamed_addr constant [174 x i8] c"void test(Data<N, M>) [InIter = bidirectional_iterator<int *>, Sent = sentinel_wrapper<bidirectional_iterator<int *>>, OutIter = bidirectional_iterator<int *>, N = 6, M = 5]\00", align 1
@__PRETTY_FUNCTION__._Z4testI22bidirectional_iteratorIPiE16sentinel_wrapperIS2_ES2_Li8ELi5EEv4DataIXT2_EXT3_EE = private unnamed_addr constant [174 x i8] c"void test(Data<N, M>) [InIter = bidirectional_iterator<int *>, Sent = sentinel_wrapper<bidirectional_iterator<int *>>, OutIter = bidirectional_iterator<int *>, N = 8, M = 5]\00", align 1
@__PRETTY_FUNCTION__._Z4testI22bidirectional_iteratorIPiE16sentinel_wrapperIS2_E22random_access_iteratorIS1_ELi6ELi5EEv4DataIXT2_EXT3_EE = private unnamed_addr constant [174 x i8] c"void test(Data<N, M>) [InIter = bidirectional_iterator<int *>, Sent = sentinel_wrapper<bidirectional_iterator<int *>>, OutIter = random_access_iterator<int *>, N = 6, M = 5]\00", align 1
@__PRETTY_FUNCTION__._Z4testI22bidirectional_iteratorIPiE16sentinel_wrapperIS2_E22random_access_iteratorIS1_ELi8ELi5EEv4DataIXT2_EXT3_EE = private unnamed_addr constant [174 x i8] c"void test(Data<N, M>) [InIter = bidirectional_iterator<int *>, Sent = sentinel_wrapper<bidirectional_iterator<int *>>, OutIter = random_access_iterator<int *>, N = 8, M = 5]\00", align 1
@__PRETTY_FUNCTION__._Z4testI22bidirectional_iteratorIPiE16sentinel_wrapperIS2_E19contiguous_iteratorIS1_ELi6ELi5EEv4DataIXT2_EXT3_EE = private unnamed_addr constant [171 x i8] c"void test(Data<N, M>) [InIter = bidirectional_iterator<int *>, Sent = sentinel_wrapper<bidirectional_iterator<int *>>, OutIter = contiguous_iterator<int *>, N = 6, M = 5]\00", align 1
@__PRETTY_FUNCTION__._Z4testI22bidirectional_iteratorIPiE16sentinel_wrapperIS2_E19contiguous_iteratorIS1_ELi8ELi5EEv4DataIXT2_EXT3_EE = private unnamed_addr constant [171 x i8] c"void test(Data<N, M>) [InIter = bidirectional_iterator<int *>, Sent = sentinel_wrapper<bidirectional_iterator<int *>>, OutIter = contiguous_iterator<int *>, N = 8, M = 5]\00", align 1
@__PRETTY_FUNCTION__._Z4testI22bidirectional_iteratorIPiE16sentinel_wrapperIS2_ES1_Li6ELi5EEv4DataIXT2_EXT3_EE = private unnamed_addr constant [150 x i8] c"void test(Data<N, M>) [InIter = bidirectional_iterator<int *>, Sent = sentinel_wrapper<bidirectional_iterator<int *>>, OutIter = int *, N = 6, M = 5]\00", align 1
@__PRETTY_FUNCTION__._Z4testI22bidirectional_iteratorIPiE16sentinel_wrapperIS2_ES1_Li8ELi5EEv4DataIXT2_EXT3_EE = private unnamed_addr constant [150 x i8] c"void test(Data<N, M>) [InIter = bidirectional_iterator<int *>, Sent = sentinel_wrapper<bidirectional_iterator<int *>>, OutIter = int *, N = 8, M = 5]\00", align 1
@__PRETTY_FUNCTION__._Z4testI22bidirectional_iteratorIPiE14sized_sentinelIS2_E21cpp17_output_iteratorIS1_ELi6ELi5EEv4DataIXT2_EXT3_EE = private unnamed_addr constant [171 x i8] c"void test(Data<N, M>) [InIter = bidirectional_iterator<int *>, Sent = sized_sentinel<bidirectional_iterator<int *>>, OutIter = cpp17_output_iterator<int *>, N = 6, M = 5]\00", align 1
@__PRETTY_FUNCTION__._Z4testI22bidirectional_iteratorIPiE14sized_sentinelIS2_E21cpp17_output_iteratorIS1_ELi8ELi5EEv4DataIXT2_EXT3_EE = private unnamed_addr constant [171 x i8] c"void test(Data<N, M>) [InIter = bidirectional_iterator<int *>, Sent = sized_sentinel<bidirectional_iterator<int *>>, OutIter = cpp17_output_iterator<int *>, N = 8, M = 5]\00", align 1
@__PRETTY_FUNCTION__._Z4testI22bidirectional_iteratorIPiE14sized_sentinelIS2_E16forward_iteratorIS1_ELi6ELi5EEv4DataIXT2_EXT3_EE = private unnamed_addr constant [166 x i8] c"void test(Data<N, M>) [InIter = bidirectional_iterator<int *>, Sent = sized_sentinel<bidirectional_iterator<int *>>, OutIter = forward_iterator<int *>, N = 6, M = 5]\00", align 1
@__PRETTY_FUNCTION__._Z4testI22bidirectional_iteratorIPiE14sized_sentinelIS2_E16forward_iteratorIS1_ELi8ELi5EEv4DataIXT2_EXT3_EE = private unnamed_addr constant [166 x i8] c"void test(Data<N, M>) [InIter = bidirectional_iterator<int *>, Sent = sized_sentinel<bidirectional_iterator<int *>>, OutIter = forward_iterator<int *>, N = 8, M = 5]\00", align 1
@__PRETTY_FUNCTION__._Z4testI22bidirectional_iteratorIPiE14sized_sentinelIS2_ES2_Li6ELi5EEv4DataIXT2_EXT3_EE = private unnamed_addr constant [172 x i8] c"void test(Data<N, M>) [InIter = bidirectional_iterator<int *>, Sent = sized_sentinel<bidirectional_iterator<int *>>, OutIter = bidirectional_iterator<int *>, N = 6, M = 5]\00", align 1
@__PRETTY_FUNCTION__._Z4testI22bidirectional_iteratorIPiE14sized_sentinelIS2_ES2_Li8ELi5EEv4DataIXT2_EXT3_EE = private unnamed_addr constant [172 x i8] c"void test(Data<N, M>) [InIter = bidirectional_iterator<int *>, Sent = sized_sentinel<bidirectional_iterator<int *>>, OutIter = bidirectional_iterator<int *>, N = 8, M = 5]\00", align 1
@__PRETTY_FUNCTION__._Z4testI22bidirectional_iteratorIPiE14sized_sentinelIS2_E22random_access_iteratorIS1_ELi6ELi5EEv4DataIXT2_EXT3_EE = private unnamed_addr constant [172 x i8] c"void test(Data<N, M>) [InIter = bidirectional_iterator<int *>, Sent = sized_sentinel<bidirectional_iterator<int *>>, OutIter = random_access_iterator<int *>, N = 6, M = 5]\00", align 1
@__PRETTY_FUNCTION__._Z4testI22bidirectional_iteratorIPiE14sized_sentinelIS2_E22random_access_iteratorIS1_ELi8ELi5EEv4DataIXT2_EXT3_EE = private unnamed_addr constant [172 x i8] c"void test(Data<N, M>) [InIter = bidirectional_iterator<int *>, Sent = sized_sentinel<bidirectional_iterator<int *>>, OutIter = random_access_iterator<int *>, N = 8, M = 5]\00", align 1
@__PRETTY_FUNCTION__._Z4testI22bidirectional_iteratorIPiE14sized_sentinelIS2_E19contiguous_iteratorIS1_ELi6ELi5EEv4DataIXT2_EXT3_EE = private unnamed_addr constant [169 x i8] c"void test(Data<N, M>) [InIter = bidirectional_iterator<int *>, Sent = sized_sentinel<bidirectional_iterator<int *>>, OutIter = contiguous_iterator<int *>, N = 6, M = 5]\00", align 1
@__PRETTY_FUNCTION__._Z4testI22bidirectional_iteratorIPiE14sized_sentinelIS2_E19contiguous_iteratorIS1_ELi8ELi5EEv4DataIXT2_EXT3_EE = private unnamed_addr constant [169 x i8] c"void test(Data<N, M>) [InIter = bidirectional_iterator<int *>, Sent = sized_sentinel<bidirectional_iterator<int *>>, OutIter = contiguous_iterator<int *>, N = 8, M = 5]\00", align 1
@__PRETTY_FUNCTION__._Z4testI22bidirectional_iteratorIPiE14sized_sentinelIS2_ES1_Li6ELi5EEv4DataIXT2_EXT3_EE = private unnamed_addr constant [148 x i8] c"void test(Data<N, M>) [InIter = bidirectional_iterator<int *>, Sent = sized_sentinel<bidirectional_iterator<int *>>, OutIter = int *, N = 6, M = 5]\00", align 1
@__PRETTY_FUNCTION__._Z4testI22bidirectional_iteratorIPiE14sized_sentinelIS2_ES1_Li8ELi5EEv4DataIXT2_EXT3_EE = private unnamed_addr constant [148 x i8] c"void test(Data<N, M>) [InIter = bidirectional_iterator<int *>, Sent = sized_sentinel<bidirectional_iterator<int *>>, OutIter = int *, N = 8, M = 5]\00", align 1
@__PRETTY_FUNCTION__._Z4testI22random_access_iteratorIPiES2_21cpp17_output_iteratorIS1_ELi6ELi5EEv4DataIXT2_EXT3_EE = private unnamed_addr constant [155 x i8] c"void test(Data<N, M>) [InIter = random_access_iterator<int *>, Sent = random_access_iterator<int *>, OutIter = cpp17_output_iterator<int *>, N = 6, M = 5]\00", align 1
@__PRETTY_FUNCTION__._Z4testI22random_access_iteratorIPiES2_21cpp17_output_iteratorIS1_ELi8ELi5EEv4DataIXT2_EXT3_EE = private unnamed_addr constant [155 x i8] c"void test(Data<N, M>) [InIter = random_access_iterator<int *>, Sent = random_access_iterator<int *>, OutIter = cpp17_output_iterator<int *>, N = 8, M = 5]\00", align 1
@__PRETTY_FUNCTION__._Z4testI22random_access_iteratorIPiES2_16forward_iteratorIS1_ELi6ELi5EEv4DataIXT2_EXT3_EE = private unnamed_addr constant [150 x i8] c"void test(Data<N, M>) [InIter = random_access_iterator<int *>, Sent = random_access_iterator<int *>, OutIter = forward_iterator<int *>, N = 6, M = 5]\00", align 1
@__PRETTY_FUNCTION__._Z4testI22random_access_iteratorIPiES2_16forward_iteratorIS1_ELi8ELi5EEv4DataIXT2_EXT3_EE = private unnamed_addr constant [150 x i8] c"void test(Data<N, M>) [InIter = random_access_iterator<int *>, Sent = random_access_iterator<int *>, OutIter = forward_iterator<int *>, N = 8, M = 5]\00", align 1
@__PRETTY_FUNCTION__._Z4testI22random_access_iteratorIPiES2_22bidirectional_iteratorIS1_ELi6ELi5EEv4DataIXT2_EXT3_EE = private unnamed_addr constant [156 x i8] c"void test(Data<N, M>) [InIter = random_access_iterator<int *>, Sent = random_access_iterator<int *>, OutIter = bidirectional_iterator<int *>, N = 6, M = 5]\00", align 1
@__PRETTY_FUNCTION__._Z4testI22random_access_iteratorIPiES2_22bidirectional_iteratorIS1_ELi8ELi5EEv4DataIXT2_EXT3_EE = private unnamed_addr constant [156 x i8] c"void test(Data<N, M>) [InIter = random_access_iterator<int *>, Sent = random_access_iterator<int *>, OutIter = bidirectional_iterator<int *>, N = 8, M = 5]\00", align 1
@__PRETTY_FUNCTION__._Z4testI22random_access_iteratorIPiES2_S2_Li6ELi5EEv4DataIXT2_EXT3_EE = private unnamed_addr constant [156 x i8] c"void test(Data<N, M>) [InIter = random_access_iterator<int *>, Sent = random_access_iterator<int *>, OutIter = random_access_iterator<int *>, N = 6, M = 5]\00", align 1
@__PRETTY_FUNCTION__._Z4testI22random_access_iteratorIPiES2_S2_Li8ELi5EEv4DataIXT2_EXT3_EE = private unnamed_addr constant [156 x i8] c"void test(Data<N, M>) [InIter = random_access_iterator<int *>, Sent = random_access_iterator<int *>, OutIter = random_access_iterator<int *>, N = 8, M = 5]\00", align 1
@__PRETTY_FUNCTION__._Z4testI22random_access_iteratorIPiES2_19contiguous_iteratorIS1_ELi6ELi5EEv4DataIXT2_EXT3_EE = private unnamed_addr constant [153 x i8] c"void test(Data<N, M>) [InIter = random_access_iterator<int *>, Sent = random_access_iterator<int *>, OutIter = contiguous_iterator<int *>, N = 6, M = 5]\00", align 1
@__PRETTY_FUNCTION__._Z4testI22random_access_iteratorIPiES2_19contiguous_iteratorIS1_ELi8ELi5EEv4DataIXT2_EXT3_EE = private unnamed_addr constant [153 x i8] c"void test(Data<N, M>) [InIter = random_access_iterator<int *>, Sent = random_access_iterator<int *>, OutIter = contiguous_iterator<int *>, N = 8, M = 5]\00", align 1
@__PRETTY_FUNCTION__._Z4testI22random_access_iteratorIPiES2_S1_Li6ELi5EEv4DataIXT2_EXT3_EE = private unnamed_addr constant [132 x i8] c"void test(Data<N, M>) [InIter = random_access_iterator<int *>, Sent = random_access_iterator<int *>, OutIter = int *, N = 6, M = 5]\00", align 1
@__PRETTY_FUNCTION__._Z4testI22random_access_iteratorIPiES2_S1_Li8ELi5EEv4DataIXT2_EXT3_EE = private unnamed_addr constant [132 x i8] c"void test(Data<N, M>) [InIter = random_access_iterator<int *>, Sent = random_access_iterator<int *>, OutIter = int *, N = 8, M = 5]\00", align 1
@__PRETTY_FUNCTION__._Z4testI22random_access_iteratorIPiE16sentinel_wrapperIS2_E21cpp17_output_iteratorIS1_ELi6ELi5EEv4DataIXT2_EXT3_EE = private unnamed_addr constant [173 x i8] c"void test(Data<N, M>) [InIter = random_access_iterator<int *>, Sent = sentinel_wrapper<random_access_iterator<int *>>, OutIter = cpp17_output_iterator<int *>, N = 6, M = 5]\00", align 1
@__PRETTY_FUNCTION__._Z4testI22random_access_iteratorIPiE16sentinel_wrapperIS2_E21cpp17_output_iteratorIS1_ELi8ELi5EEv4DataIXT2_EXT3_EE = private unnamed_addr constant [173 x i8] c"void test(Data<N, M>) [InIter = random_access_iterator<int *>, Sent = sentinel_wrapper<random_access_iterator<int *>>, OutIter = cpp17_output_iterator<int *>, N = 8, M = 5]\00", align 1
@__PRETTY_FUNCTION__._Z4testI22random_access_iteratorIPiE16sentinel_wrapperIS2_E16forward_iteratorIS1_ELi6ELi5EEv4DataIXT2_EXT3_EE = private unnamed_addr constant [168 x i8] c"void test(Data<N, M>) [InIter = random_access_iterator<int *>, Sent = sentinel_wrapper<random_access_iterator<int *>>, OutIter = forward_iterator<int *>, N = 6, M = 5]\00", align 1
@__PRETTY_FUNCTION__._Z4testI22random_access_iteratorIPiE16sentinel_wrapperIS2_E16forward_iteratorIS1_ELi8ELi5EEv4DataIXT2_EXT3_EE = private unnamed_addr constant [168 x i8] c"void test(Data<N, M>) [InIter = random_access_iterator<int *>, Sent = sentinel_wrapper<random_access_iterator<int *>>, OutIter = forward_iterator<int *>, N = 8, M = 5]\00", align 1
@__PRETTY_FUNCTION__._Z4testI22random_access_iteratorIPiE16sentinel_wrapperIS2_E22bidirectional_iteratorIS1_ELi6ELi5EEv4DataIXT2_EXT3_EE = private unnamed_addr constant [174 x i8] c"void test(Data<N, M>) [InIter = random_access_iterator<int *>, Sent = sentinel_wrapper<random_access_iterator<int *>>, OutIter = bidirectional_iterator<int *>, N = 6, M = 5]\00", align 1
@__PRETTY_FUNCTION__._Z4testI22random_access_iteratorIPiE16sentinel_wrapperIS2_E22bidirectional_iteratorIS1_ELi8ELi5EEv4DataIXT2_EXT3_EE = private unnamed_addr constant [174 x i8] c"void test(Data<N, M>) [InIter = random_access_iterator<int *>, Sent = sentinel_wrapper<random_access_iterator<int *>>, OutIter = bidirectional_iterator<int *>, N = 8, M = 5]\00", align 1
@__PRETTY_FUNCTION__._Z4testI22random_access_iteratorIPiE16sentinel_wrapperIS2_ES2_Li6ELi5EEv4DataIXT2_EXT3_EE = private unnamed_addr constant [174 x i8] c"void test(Data<N, M>) [InIter = random_access_iterator<int *>, Sent = sentinel_wrapper<random_access_iterator<int *>>, OutIter = random_access_iterator<int *>, N = 6, M = 5]\00", align 1
@__PRETTY_FUNCTION__._Z4testI22random_access_iteratorIPiE16sentinel_wrapperIS2_ES2_Li8ELi5EEv4DataIXT2_EXT3_EE = private unnamed_addr constant [174 x i8] c"void test(Data<N, M>) [InIter = random_access_iterator<int *>, Sent = sentinel_wrapper<random_access_iterator<int *>>, OutIter = random_access_iterator<int *>, N = 8, M = 5]\00", align 1
@__PRETTY_FUNCTION__._Z4testI22random_access_iteratorIPiE16sentinel_wrapperIS2_E19contiguous_iteratorIS1_ELi6ELi5EEv4DataIXT2_EXT3_EE = private unnamed_addr constant [171 x i8] c"void test(Data<N, M>) [InIter = random_access_iterator<int *>, Sent = sentinel_wrapper<random_access_iterator<int *>>, OutIter = contiguous_iterator<int *>, N = 6, M = 5]\00", align 1
@__PRETTY_FUNCTION__._Z4testI22random_access_iteratorIPiE16sentinel_wrapperIS2_E19contiguous_iteratorIS1_ELi8ELi5EEv4DataIXT2_EXT3_EE = private unnamed_addr constant [171 x i8] c"void test(Data<N, M>) [InIter = random_access_iterator<int *>, Sent = sentinel_wrapper<random_access_iterator<int *>>, OutIter = contiguous_iterator<int *>, N = 8, M = 5]\00", align 1
@__PRETTY_FUNCTION__._Z4testI22random_access_iteratorIPiE16sentinel_wrapperIS2_ES1_Li6ELi5EEv4DataIXT2_EXT3_EE = private unnamed_addr constant [150 x i8] c"void test(Data<N, M>) [InIter = random_access_iterator<int *>, Sent = sentinel_wrapper<random_access_iterator<int *>>, OutIter = int *, N = 6, M = 5]\00", align 1
@__PRETTY_FUNCTION__._Z4testI22random_access_iteratorIPiE16sentinel_wrapperIS2_ES1_Li8ELi5EEv4DataIXT2_EXT3_EE = private unnamed_addr constant [150 x i8] c"void test(Data<N, M>) [InIter = random_access_iterator<int *>, Sent = sentinel_wrapper<random_access_iterator<int *>>, OutIter = int *, N = 8, M = 5]\00", align 1
@__PRETTY_FUNCTION__._Z4testI22random_access_iteratorIPiE14sized_sentinelIS2_E21cpp17_output_iteratorIS1_ELi6ELi5EEv4DataIXT2_EXT3_EE = private unnamed_addr constant [171 x i8] c"void test(Data<N, M>) [InIter = random_access_iterator<int *>, Sent = sized_sentinel<random_access_iterator<int *>>, OutIter = cpp17_output_iterator<int *>, N = 6, M = 5]\00", align 1
@__PRETTY_FUNCTION__._Z4testI22random_access_iteratorIPiE14sized_sentinelIS2_E21cpp17_output_iteratorIS1_ELi8ELi5EEv4DataIXT2_EXT3_EE = private unnamed_addr constant [171 x i8] c"void test(Data<N, M>) [InIter = random_access_iterator<int *>, Sent = sized_sentinel<random_access_iterator<int *>>, OutIter = cpp17_output_iterator<int *>, N = 8, M = 5]\00", align 1
@__PRETTY_FUNCTION__._Z4testI22random_access_iteratorIPiE14sized_sentinelIS2_E16forward_iteratorIS1_ELi6ELi5EEv4DataIXT2_EXT3_EE = private unnamed_addr constant [166 x i8] c"void test(Data<N, M>) [InIter = random_access_iterator<int *>, Sent = sized_sentinel<random_access_iterator<int *>>, OutIter = forward_iterator<int *>, N = 6, M = 5]\00", align 1
@__PRETTY_FUNCTION__._Z4testI22random_access_iteratorIPiE14sized_sentinelIS2_E16forward_iteratorIS1_ELi8ELi5EEv4DataIXT2_EXT3_EE = private unnamed_addr constant [166 x i8] c"void test(Data<N, M>) [InIter = random_access_iterator<int *>, Sent = sized_sentinel<random_access_iterator<int *>>, OutIter = forward_iterator<int *>, N = 8, M = 5]\00", align 1
@__PRETTY_FUNCTION__._Z4testI22random_access_iteratorIPiE14sized_sentinelIS2_E22bidirectional_iteratorIS1_ELi6ELi5EEv4DataIXT2_EXT3_EE = private unnamed_addr constant [172 x i8] c"void test(Data<N, M>) [InIter = random_access_iterator<int *>, Sent = sized_sentinel<random_access_iterator<int *>>, OutIter = bidirectional_iterator<int *>, N = 6, M = 5]\00", align 1
@__PRETTY_FUNCTION__._Z4testI22random_access_iteratorIPiE14sized_sentinelIS2_E22bidirectional_iteratorIS1_ELi8ELi5EEv4DataIXT2_EXT3_EE = private unnamed_addr constant [172 x i8] c"void test(Data<N, M>) [InIter = random_access_iterator<int *>, Sent = sized_sentinel<random_access_iterator<int *>>, OutIter = bidirectional_iterator<int *>, N = 8, M = 5]\00", align 1
@__PRETTY_FUNCTION__._Z4testI22random_access_iteratorIPiE14sized_sentinelIS2_ES2_Li6ELi5EEv4DataIXT2_EXT3_EE = private unnamed_addr constant [172 x i8] c"void test(Data<N, M>) [InIter = random_access_iterator<int *>, Sent = sized_sentinel<random_access_iterator<int *>>, OutIter = random_access_iterator<int *>, N = 6, M = 5]\00", align 1
@__PRETTY_FUNCTION__._Z4testI22random_access_iteratorIPiE14sized_sentinelIS2_ES2_Li8ELi5EEv4DataIXT2_EXT3_EE = private unnamed_addr constant [172 x i8] c"void test(Data<N, M>) [InIter = random_access_iterator<int *>, Sent = sized_sentinel<random_access_iterator<int *>>, OutIter = random_access_iterator<int *>, N = 8, M = 5]\00", align 1
@__PRETTY_FUNCTION__._Z4testI22random_access_iteratorIPiE14sized_sentinelIS2_E19contiguous_iteratorIS1_ELi6ELi5EEv4DataIXT2_EXT3_EE = private unnamed_addr constant [169 x i8] c"void test(Data<N, M>) [InIter = random_access_iterator<int *>, Sent = sized_sentinel<random_access_iterator<int *>>, OutIter = contiguous_iterator<int *>, N = 6, M = 5]\00", align 1
@__PRETTY_FUNCTION__._Z4testI22random_access_iteratorIPiE14sized_sentinelIS2_E19contiguous_iteratorIS1_ELi8ELi5EEv4DataIXT2_EXT3_EE = private unnamed_addr constant [169 x i8] c"void test(Data<N, M>) [InIter = random_access_iterator<int *>, Sent = sized_sentinel<random_access_iterator<int *>>, OutIter = contiguous_iterator<int *>, N = 8, M = 5]\00", align 1
@__PRETTY_FUNCTION__._Z4testI22random_access_iteratorIPiE14sized_sentinelIS2_ES1_Li6ELi5EEv4DataIXT2_EXT3_EE = private unnamed_addr constant [148 x i8] c"void test(Data<N, M>) [InIter = random_access_iterator<int *>, Sent = sized_sentinel<random_access_iterator<int *>>, OutIter = int *, N = 6, M = 5]\00", align 1
@__PRETTY_FUNCTION__._Z4testI22random_access_iteratorIPiE14sized_sentinelIS2_ES1_Li8ELi5EEv4DataIXT2_EXT3_EE = private unnamed_addr constant [148 x i8] c"void test(Data<N, M>) [InIter = random_access_iterator<int *>, Sent = sized_sentinel<random_access_iterator<int *>>, OutIter = int *, N = 8, M = 5]\00", align 1
@__PRETTY_FUNCTION__._Z4testI19contiguous_iteratorIPiES2_21cpp17_output_iteratorIS1_ELi6ELi5EEv4DataIXT2_EXT3_EE = private unnamed_addr constant [149 x i8] c"void test(Data<N, M>) [InIter = contiguous_iterator<int *>, Sent = contiguous_iterator<int *>, OutIter = cpp17_output_iterator<int *>, N = 6, M = 5]\00", align 1
@__PRETTY_FUNCTION__._Z4testI19contiguous_iteratorIPiES2_21cpp17_output_iteratorIS1_ELi8ELi5EEv4DataIXT2_EXT3_EE = private unnamed_addr constant [149 x i8] c"void test(Data<N, M>) [InIter = contiguous_iterator<int *>, Sent = contiguous_iterator<int *>, OutIter = cpp17_output_iterator<int *>, N = 8, M = 5]\00", align 1
@__PRETTY_FUNCTION__._Z4testI19contiguous_iteratorIPiES2_16forward_iteratorIS1_ELi6ELi5EEv4DataIXT2_EXT3_EE = private unnamed_addr constant [144 x i8] c"void test(Data<N, M>) [InIter = contiguous_iterator<int *>, Sent = contiguous_iterator<int *>, OutIter = forward_iterator<int *>, N = 6, M = 5]\00", align 1
@__PRETTY_FUNCTION__._Z4testI19contiguous_iteratorIPiES2_16forward_iteratorIS1_ELi8ELi5EEv4DataIXT2_EXT3_EE = private unnamed_addr constant [144 x i8] c"void test(Data<N, M>) [InIter = contiguous_iterator<int *>, Sent = contiguous_iterator<int *>, OutIter = forward_iterator<int *>, N = 8, M = 5]\00", align 1
@__PRETTY_FUNCTION__._Z4testI19contiguous_iteratorIPiES2_22bidirectional_iteratorIS1_ELi6ELi5EEv4DataIXT2_EXT3_EE = private unnamed_addr constant [150 x i8] c"void test(Data<N, M>) [InIter = contiguous_iterator<int *>, Sent = contiguous_iterator<int *>, OutIter = bidirectional_iterator<int *>, N = 6, M = 5]\00", align 1
@__PRETTY_FUNCTION__._Z4testI19contiguous_iteratorIPiES2_22bidirectional_iteratorIS1_ELi8ELi5EEv4DataIXT2_EXT3_EE = private unnamed_addr constant [150 x i8] c"void test(Data<N, M>) [InIter = contiguous_iterator<int *>, Sent = contiguous_iterator<int *>, OutIter = bidirectional_iterator<int *>, N = 8, M = 5]\00", align 1
@__PRETTY_FUNCTION__._Z4testI19contiguous_iteratorIPiES2_22random_access_iteratorIS1_ELi6ELi5EEv4DataIXT2_EXT3_EE = private unnamed_addr constant [150 x i8] c"void test(Data<N, M>) [InIter = contiguous_iterator<int *>, Sent = contiguous_iterator<int *>, OutIter = random_access_iterator<int *>, N = 6, M = 5]\00", align 1
@__PRETTY_FUNCTION__._Z4testI19contiguous_iteratorIPiES2_22random_access_iteratorIS1_ELi8ELi5EEv4DataIXT2_EXT3_EE = private unnamed_addr constant [150 x i8] c"void test(Data<N, M>) [InIter = contiguous_iterator<int *>, Sent = contiguous_iterator<int *>, OutIter = random_access_iterator<int *>, N = 8, M = 5]\00", align 1
@__PRETTY_FUNCTION__._Z4testI19contiguous_iteratorIPiES2_S2_Li6ELi5EEv4DataIXT2_EXT3_EE = private unnamed_addr constant [147 x i8] c"void test(Data<N, M>) [InIter = contiguous_iterator<int *>, Sent = contiguous_iterator<int *>, OutIter = contiguous_iterator<int *>, N = 6, M = 5]\00", align 1
@__PRETTY_FUNCTION__._Z4testI19contiguous_iteratorIPiES2_S2_Li8ELi5EEv4DataIXT2_EXT3_EE = private unnamed_addr constant [147 x i8] c"void test(Data<N, M>) [InIter = contiguous_iterator<int *>, Sent = contiguous_iterator<int *>, OutIter = contiguous_iterator<int *>, N = 8, M = 5]\00", align 1
@__PRETTY_FUNCTION__._Z4testI19contiguous_iteratorIPiES2_S1_Li6ELi5EEv4DataIXT2_EXT3_EE = private unnamed_addr constant [126 x i8] c"void test(Data<N, M>) [InIter = contiguous_iterator<int *>, Sent = contiguous_iterator<int *>, OutIter = int *, N = 6, M = 5]\00", align 1
@__PRETTY_FUNCTION__._Z4testI19contiguous_iteratorIPiES2_S1_Li8ELi5EEv4DataIXT2_EXT3_EE = private unnamed_addr constant [126 x i8] c"void test(Data<N, M>) [InIter = contiguous_iterator<int *>, Sent = contiguous_iterator<int *>, OutIter = int *, N = 8, M = 5]\00", align 1
@__PRETTY_FUNCTION__._Z4testI19contiguous_iteratorIPiE16sentinel_wrapperIS2_E21cpp17_output_iteratorIS1_ELi6ELi5EEv4DataIXT2_EXT3_EE = private unnamed_addr constant [167 x i8] c"void test(Data<N, M>) [InIter = contiguous_iterator<int *>, Sent = sentinel_wrapper<contiguous_iterator<int *>>, OutIter = cpp17_output_iterator<int *>, N = 6, M = 5]\00", align 1
@__PRETTY_FUNCTION__._Z4testI19contiguous_iteratorIPiE16sentinel_wrapperIS2_E21cpp17_output_iteratorIS1_ELi8ELi5EEv4DataIXT2_EXT3_EE = private unnamed_addr constant [167 x i8] c"void test(Data<N, M>) [InIter = contiguous_iterator<int *>, Sent = sentinel_wrapper<contiguous_iterator<int *>>, OutIter = cpp17_output_iterator<int *>, N = 8, M = 5]\00", align 1
@__PRETTY_FUNCTION__._Z4testI19contiguous_iteratorIPiE16sentinel_wrapperIS2_E16forward_iteratorIS1_ELi6ELi5EEv4DataIXT2_EXT3_EE = private unnamed_addr constant [162 x i8] c"void test(Data<N, M>) [InIter = contiguous_iterator<int *>, Sent = sentinel_wrapper<contiguous_iterator<int *>>, OutIter = forward_iterator<int *>, N = 6, M = 5]\00", align 1
@__PRETTY_FUNCTION__._Z4testI19contiguous_iteratorIPiE16sentinel_wrapperIS2_E16forward_iteratorIS1_ELi8ELi5EEv4DataIXT2_EXT3_EE = private unnamed_addr constant [162 x i8] c"void test(Data<N, M>) [InIter = contiguous_iterator<int *>, Sent = sentinel_wrapper<contiguous_iterator<int *>>, OutIter = forward_iterator<int *>, N = 8, M = 5]\00", align 1
@__PRETTY_FUNCTION__._Z4testI19contiguous_iteratorIPiE16sentinel_wrapperIS2_E22bidirectional_iteratorIS1_ELi6ELi5EEv4DataIXT2_EXT3_EE = private unnamed_addr constant [168 x i8] c"void test(Data<N, M>) [InIter = contiguous_iterator<int *>, Sent = sentinel_wrapper<contiguous_iterator<int *>>, OutIter = bidirectional_iterator<int *>, N = 6, M = 5]\00", align 1
@__PRETTY_FUNCTION__._Z4testI19contiguous_iteratorIPiE16sentinel_wrapperIS2_E22bidirectional_iteratorIS1_ELi8ELi5EEv4DataIXT2_EXT3_EE = private unnamed_addr constant [168 x i8] c"void test(Data<N, M>) [InIter = contiguous_iterator<int *>, Sent = sentinel_wrapper<contiguous_iterator<int *>>, OutIter = bidirectional_iterator<int *>, N = 8, M = 5]\00", align 1
@__PRETTY_FUNCTION__._Z4testI19contiguous_iteratorIPiE16sentinel_wrapperIS2_E22random_access_iteratorIS1_ELi6ELi5EEv4DataIXT2_EXT3_EE = private unnamed_addr constant [168 x i8] c"void test(Data<N, M>) [InIter = contiguous_iterator<int *>, Sent = sentinel_wrapper<contiguous_iterator<int *>>, OutIter = random_access_iterator<int *>, N = 6, M = 5]\00", align 1
@__PRETTY_FUNCTION__._Z4testI19contiguous_iteratorIPiE16sentinel_wrapperIS2_E22random_access_iteratorIS1_ELi8ELi5EEv4DataIXT2_EXT3_EE = private unnamed_addr constant [168 x i8] c"void test(Data<N, M>) [InIter = contiguous_iterator<int *>, Sent = sentinel_wrapper<contiguous_iterator<int *>>, OutIter = random_access_iterator<int *>, N = 8, M = 5]\00", align 1
@__PRETTY_FUNCTION__._Z4testI19contiguous_iteratorIPiE16sentinel_wrapperIS2_ES2_Li6ELi5EEv4DataIXT2_EXT3_EE = private unnamed_addr constant [165 x i8] c"void test(Data<N, M>) [InIter = contiguous_iterator<int *>, Sent = sentinel_wrapper<contiguous_iterator<int *>>, OutIter = contiguous_iterator<int *>, N = 6, M = 5]\00", align 1
@__PRETTY_FUNCTION__._Z4testI19contiguous_iteratorIPiE16sentinel_wrapperIS2_ES2_Li8ELi5EEv4DataIXT2_EXT3_EE = private unnamed_addr constant [165 x i8] c"void test(Data<N, M>) [InIter = contiguous_iterator<int *>, Sent = sentinel_wrapper<contiguous_iterator<int *>>, OutIter = contiguous_iterator<int *>, N = 8, M = 5]\00", align 1
@__PRETTY_FUNCTION__._Z4testI19contiguous_iteratorIPiE16sentinel_wrapperIS2_ES1_Li6ELi5EEv4DataIXT2_EXT3_EE = private unnamed_addr constant [144 x i8] c"void test(Data<N, M>) [InIter = contiguous_iterator<int *>, Sent = sentinel_wrapper<contiguous_iterator<int *>>, OutIter = int *, N = 6, M = 5]\00", align 1
@__PRETTY_FUNCTION__._Z4testI19contiguous_iteratorIPiE16sentinel_wrapperIS2_ES1_Li8ELi5EEv4DataIXT2_EXT3_EE = private unnamed_addr constant [144 x i8] c"void test(Data<N, M>) [InIter = contiguous_iterator<int *>, Sent = sentinel_wrapper<contiguous_iterator<int *>>, OutIter = int *, N = 8, M = 5]\00", align 1
@__PRETTY_FUNCTION__._Z4testI19contiguous_iteratorIPiE14sized_sentinelIS2_E21cpp17_output_iteratorIS1_ELi6ELi5EEv4DataIXT2_EXT3_EE = private unnamed_addr constant [165 x i8] c"void test(Data<N, M>) [InIter = contiguous_iterator<int *>, Sent = sized_sentinel<contiguous_iterator<int *>>, OutIter = cpp17_output_iterator<int *>, N = 6, M = 5]\00", align 1
@__PRETTY_FUNCTION__._Z4testI19contiguous_iteratorIPiE14sized_sentinelIS2_E21cpp17_output_iteratorIS1_ELi8ELi5EEv4DataIXT2_EXT3_EE = private unnamed_addr constant [165 x i8] c"void test(Data<N, M>) [InIter = contiguous_iterator<int *>, Sent = sized_sentinel<contiguous_iterator<int *>>, OutIter = cpp17_output_iterator<int *>, N = 8, M = 5]\00", align 1
@__PRETTY_FUNCTION__._Z4testI19contiguous_iteratorIPiE14sized_sentinelIS2_E16forward_iteratorIS1_ELi6ELi5EEv4DataIXT2_EXT3_EE = private unnamed_addr constant [160 x i8] c"void test(Data<N, M>) [InIter = contiguous_iterator<int *>, Sent = sized_sentinel<contiguous_iterator<int *>>, OutIter = forward_iterator<int *>, N = 6, M = 5]\00", align 1
@__PRETTY_FUNCTION__._Z4testI19contiguous_iteratorIPiE14sized_sentinelIS2_E16forward_iteratorIS1_ELi8ELi5EEv4DataIXT2_EXT3_EE = private unnamed_addr constant [160 x i8] c"void test(Data<N, M>) [InIter = contiguous_iterator<int *>, Sent = sized_sentinel<contiguous_iterator<int *>>, OutIter = forward_iterator<int *>, N = 8, M = 5]\00", align 1
@__PRETTY_FUNCTION__._Z4testI19contiguous_iteratorIPiE14sized_sentinelIS2_E22bidirectional_iteratorIS1_ELi6ELi5EEv4DataIXT2_EXT3_EE = private unnamed_addr constant [166 x i8] c"void test(Data<N, M>) [InIter = contiguous_iterator<int *>, Sent = sized_sentinel<contiguous_iterator<int *>>, OutIter = bidirectional_iterator<int *>, N = 6, M = 5]\00", align 1
@__PRETTY_FUNCTION__._Z4testI19contiguous_iteratorIPiE14sized_sentinelIS2_E22bidirectional_iteratorIS1_ELi8ELi5EEv4DataIXT2_EXT3_EE = private unnamed_addr constant [166 x i8] c"void test(Data<N, M>) [InIter = contiguous_iterator<int *>, Sent = sized_sentinel<contiguous_iterator<int *>>, OutIter = bidirectional_iterator<int *>, N = 8, M = 5]\00", align 1
@__PRETTY_FUNCTION__._Z4testI19contiguous_iteratorIPiE14sized_sentinelIS2_E22random_access_iteratorIS1_ELi6ELi5EEv4DataIXT2_EXT3_EE = private unnamed_addr constant [166 x i8] c"void test(Data<N, M>) [InIter = contiguous_iterator<int *>, Sent = sized_sentinel<contiguous_iterator<int *>>, OutIter = random_access_iterator<int *>, N = 6, M = 5]\00", align 1
@__PRETTY_FUNCTION__._Z4testI19contiguous_iteratorIPiE14sized_sentinelIS2_E22random_access_iteratorIS1_ELi8ELi5EEv4DataIXT2_EXT3_EE = private unnamed_addr constant [166 x i8] c"void test(Data<N, M>) [InIter = contiguous_iterator<int *>, Sent = sized_sentinel<contiguous_iterator<int *>>, OutIter = random_access_iterator<int *>, N = 8, M = 5]\00", align 1
@__PRETTY_FUNCTION__._Z4testI19contiguous_iteratorIPiE14sized_sentinelIS2_ES2_Li6ELi5EEv4DataIXT2_EXT3_EE = private unnamed_addr constant [163 x i8] c"void test(Data<N, M>) [InIter = contiguous_iterator<int *>, Sent = sized_sentinel<contiguous_iterator<int *>>, OutIter = contiguous_iterator<int *>, N = 6, M = 5]\00", align 1
@__PRETTY_FUNCTION__._Z4testI19contiguous_iteratorIPiE14sized_sentinelIS2_ES2_Li8ELi5EEv4DataIXT2_EXT3_EE = private unnamed_addr constant [163 x i8] c"void test(Data<N, M>) [InIter = contiguous_iterator<int *>, Sent = sized_sentinel<contiguous_iterator<int *>>, OutIter = contiguous_iterator<int *>, N = 8, M = 5]\00", align 1
@__PRETTY_FUNCTION__._Z4testI19contiguous_iteratorIPiE14sized_sentinelIS2_ES1_Li6ELi5EEv4DataIXT2_EXT3_EE = private unnamed_addr constant [142 x i8] c"void test(Data<N, M>) [InIter = contiguous_iterator<int *>, Sent = sized_sentinel<contiguous_iterator<int *>>, OutIter = int *, N = 6, M = 5]\00", align 1
@__PRETTY_FUNCTION__._Z4testI19contiguous_iteratorIPiE14sized_sentinelIS2_ES1_Li8ELi5EEv4DataIXT2_EXT3_EE = private unnamed_addr constant [142 x i8] c"void test(Data<N, M>) [InIter = contiguous_iterator<int *>, Sent = sized_sentinel<contiguous_iterator<int *>>, OutIter = int *, N = 8, M = 5]\00", align 1
@__PRETTY_FUNCTION__._Z4testIPiS0_21cpp17_output_iteratorIS0_ELi6ELi5EEv4DataIXT2_EXT3_EE = private unnamed_addr constant [107 x i8] c"void test(Data<N, M>) [InIter = int *, Sent = int *, OutIter = cpp17_output_iterator<int *>, N = 6, M = 5]\00", align 1
@__PRETTY_FUNCTION__._Z4testIPiS0_21cpp17_output_iteratorIS0_ELi8ELi5EEv4DataIXT2_EXT3_EE = private unnamed_addr constant [107 x i8] c"void test(Data<N, M>) [InIter = int *, Sent = int *, OutIter = cpp17_output_iterator<int *>, N = 8, M = 5]\00", align 1
@__PRETTY_FUNCTION__._Z4testIPiS0_16forward_iteratorIS0_ELi6ELi5EEv4DataIXT2_EXT3_EE = private unnamed_addr constant [102 x i8] c"void test(Data<N, M>) [InIter = int *, Sent = int *, OutIter = forward_iterator<int *>, N = 6, M = 5]\00", align 1
@__PRETTY_FUNCTION__._Z4testIPiS0_16forward_iteratorIS0_ELi8ELi5EEv4DataIXT2_EXT3_EE = private unnamed_addr constant [102 x i8] c"void test(Data<N, M>) [InIter = int *, Sent = int *, OutIter = forward_iterator<int *>, N = 8, M = 5]\00", align 1
@__PRETTY_FUNCTION__._Z4testIPiS0_22bidirectional_iteratorIS0_ELi6ELi5EEv4DataIXT2_EXT3_EE = private unnamed_addr constant [108 x i8] c"void test(Data<N, M>) [InIter = int *, Sent = int *, OutIter = bidirectional_iterator<int *>, N = 6, M = 5]\00", align 1
@__PRETTY_FUNCTION__._Z4testIPiS0_22bidirectional_iteratorIS0_ELi8ELi5EEv4DataIXT2_EXT3_EE = private unnamed_addr constant [108 x i8] c"void test(Data<N, M>) [InIter = int *, Sent = int *, OutIter = bidirectional_iterator<int *>, N = 8, M = 5]\00", align 1
@__PRETTY_FUNCTION__._Z4testIPiS0_22random_access_iteratorIS0_ELi6ELi5EEv4DataIXT2_EXT3_EE = private unnamed_addr constant [108 x i8] c"void test(Data<N, M>) [InIter = int *, Sent = int *, OutIter = random_access_iterator<int *>, N = 6, M = 5]\00", align 1
@__PRETTY_FUNCTION__._Z4testIPiS0_22random_access_iteratorIS0_ELi8ELi5EEv4DataIXT2_EXT3_EE = private unnamed_addr constant [108 x i8] c"void test(Data<N, M>) [InIter = int *, Sent = int *, OutIter = random_access_iterator<int *>, N = 8, M = 5]\00", align 1
@__PRETTY_FUNCTION__._Z4testIPiS0_19contiguous_iteratorIS0_ELi6ELi5EEv4DataIXT2_EXT3_EE = private unnamed_addr constant [105 x i8] c"void test(Data<N, M>) [InIter = int *, Sent = int *, OutIter = contiguous_iterator<int *>, N = 6, M = 5]\00", align 1
@__PRETTY_FUNCTION__._Z4testIPiS0_19contiguous_iteratorIS0_ELi8ELi5EEv4DataIXT2_EXT3_EE = private unnamed_addr constant [105 x i8] c"void test(Data<N, M>) [InIter = int *, Sent = int *, OutIter = contiguous_iterator<int *>, N = 8, M = 5]\00", align 1
@__PRETTY_FUNCTION__._Z4testIPiS0_S0_Li6ELi5EEv4DataIXT2_EXT3_EE = private unnamed_addr constant [84 x i8] c"void test(Data<N, M>) [InIter = int *, Sent = int *, OutIter = int *, N = 6, M = 5]\00", align 1
@__PRETTY_FUNCTION__._Z4testIPiS0_S0_Li8ELi5EEv4DataIXT2_EXT3_EE = private unnamed_addr constant [84 x i8] c"void test(Data<N, M>) [InIter = int *, Sent = int *, OutIter = int *, N = 8, M = 5]\00", align 1
@__PRETTY_FUNCTION__._Z4testIPi16sentinel_wrapperIS0_E21cpp17_output_iteratorIS0_ELi6ELi5EEv4DataIXT2_EXT3_EE = private unnamed_addr constant [125 x i8] c"void test(Data<N, M>) [InIter = int *, Sent = sentinel_wrapper<int *>, OutIter = cpp17_output_iterator<int *>, N = 6, M = 5]\00", align 1
@__PRETTY_FUNCTION__._Z4testIPi16sentinel_wrapperIS0_E21cpp17_output_iteratorIS0_ELi8ELi5EEv4DataIXT2_EXT3_EE = private unnamed_addr constant [125 x i8] c"void test(Data<N, M>) [InIter = int *, Sent = sentinel_wrapper<int *>, OutIter = cpp17_output_iterator<int *>, N = 8, M = 5]\00", align 1
@__PRETTY_FUNCTION__._Z4testIPi16sentinel_wrapperIS0_E16forward_iteratorIS0_ELi6ELi5EEv4DataIXT2_EXT3_EE = private unnamed_addr constant [120 x i8] c"void test(Data<N, M>) [InIter = int *, Sent = sentinel_wrapper<int *>, OutIter = forward_iterator<int *>, N = 6, M = 5]\00", align 1
@__PRETTY_FUNCTION__._Z4testIPi16sentinel_wrapperIS0_E16forward_iteratorIS0_ELi8ELi5EEv4DataIXT2_EXT3_EE = private unnamed_addr constant [120 x i8] c"void test(Data<N, M>) [InIter = int *, Sent = sentinel_wrapper<int *>, OutIter = forward_iterator<int *>, N = 8, M = 5]\00", align 1
@__PRETTY_FUNCTION__._Z4testIPi16sentinel_wrapperIS0_E22bidirectional_iteratorIS0_ELi6ELi5EEv4DataIXT2_EXT3_EE = private unnamed_addr constant [126 x i8] c"void test(Data<N, M>) [InIter = int *, Sent = sentinel_wrapper<int *>, OutIter = bidirectional_iterator<int *>, N = 6, M = 5]\00", align 1
@__PRETTY_FUNCTION__._Z4testIPi16sentinel_wrapperIS0_E22bidirectional_iteratorIS0_ELi8ELi5EEv4DataIXT2_EXT3_EE = private unnamed_addr constant [126 x i8] c"void test(Data<N, M>) [InIter = int *, Sent = sentinel_wrapper<int *>, OutIter = bidirectional_iterator<int *>, N = 8, M = 5]\00", align 1
@__PRETTY_FUNCTION__._Z4testIPi16sentinel_wrapperIS0_E22random_access_iteratorIS0_ELi6ELi5EEv4DataIXT2_EXT3_EE = private unnamed_addr constant [126 x i8] c"void test(Data<N, M>) [InIter = int *, Sent = sentinel_wrapper<int *>, OutIter = random_access_iterator<int *>, N = 6, M = 5]\00", align 1
@__PRETTY_FUNCTION__._Z4testIPi16sentinel_wrapperIS0_E22random_access_iteratorIS0_ELi8ELi5EEv4DataIXT2_EXT3_EE = private unnamed_addr constant [126 x i8] c"void test(Data<N, M>) [InIter = int *, Sent = sentinel_wrapper<int *>, OutIter = random_access_iterator<int *>, N = 8, M = 5]\00", align 1
@__PRETTY_FUNCTION__._Z4testIPi16sentinel_wrapperIS0_E19contiguous_iteratorIS0_ELi6ELi5EEv4DataIXT2_EXT3_EE = private unnamed_addr constant [123 x i8] c"void test(Data<N, M>) [InIter = int *, Sent = sentinel_wrapper<int *>, OutIter = contiguous_iterator<int *>, N = 6, M = 5]\00", align 1
@__PRETTY_FUNCTION__._Z4testIPi16sentinel_wrapperIS0_E19contiguous_iteratorIS0_ELi8ELi5EEv4DataIXT2_EXT3_EE = private unnamed_addr constant [123 x i8] c"void test(Data<N, M>) [InIter = int *, Sent = sentinel_wrapper<int *>, OutIter = contiguous_iterator<int *>, N = 8, M = 5]\00", align 1
@__PRETTY_FUNCTION__._Z4testIPi16sentinel_wrapperIS0_ES0_Li6ELi5EEv4DataIXT2_EXT3_EE = private unnamed_addr constant [102 x i8] c"void test(Data<N, M>) [InIter = int *, Sent = sentinel_wrapper<int *>, OutIter = int *, N = 6, M = 5]\00", align 1
@__PRETTY_FUNCTION__._Z4testIPi16sentinel_wrapperIS0_ES0_Li8ELi5EEv4DataIXT2_EXT3_EE = private unnamed_addr constant [102 x i8] c"void test(Data<N, M>) [InIter = int *, Sent = sentinel_wrapper<int *>, OutIter = int *, N = 8, M = 5]\00", align 1
@__PRETTY_FUNCTION__._Z4testIPi14sized_sentinelIS0_E21cpp17_output_iteratorIS0_ELi6ELi5EEv4DataIXT2_EXT3_EE = private unnamed_addr constant [123 x i8] c"void test(Data<N, M>) [InIter = int *, Sent = sized_sentinel<int *>, OutIter = cpp17_output_iterator<int *>, N = 6, M = 5]\00", align 1
@__PRETTY_FUNCTION__._Z4testIPi14sized_sentinelIS0_E21cpp17_output_iteratorIS0_ELi8ELi5EEv4DataIXT2_EXT3_EE = private unnamed_addr constant [123 x i8] c"void test(Data<N, M>) [InIter = int *, Sent = sized_sentinel<int *>, OutIter = cpp17_output_iterator<int *>, N = 8, M = 5]\00", align 1
@__PRETTY_FUNCTION__._Z4testIPi14sized_sentinelIS0_E16forward_iteratorIS0_ELi6ELi5EEv4DataIXT2_EXT3_EE = private unnamed_addr constant [118 x i8] c"void test(Data<N, M>) [InIter = int *, Sent = sized_sentinel<int *>, OutIter = forward_iterator<int *>, N = 6, M = 5]\00", align 1
@__PRETTY_FUNCTION__._Z4testIPi14sized_sentinelIS0_E16forward_iteratorIS0_ELi8ELi5EEv4DataIXT2_EXT3_EE = private unnamed_addr constant [118 x i8] c"void test(Data<N, M>) [InIter = int *, Sent = sized_sentinel<int *>, OutIter = forward_iterator<int *>, N = 8, M = 5]\00", align 1
@__PRETTY_FUNCTION__._Z4testIPi14sized_sentinelIS0_E22bidirectional_iteratorIS0_ELi6ELi5EEv4DataIXT2_EXT3_EE = private unnamed_addr constant [124 x i8] c"void test(Data<N, M>) [InIter = int *, Sent = sized_sentinel<int *>, OutIter = bidirectional_iterator<int *>, N = 6, M = 5]\00", align 1
@__PRETTY_FUNCTION__._Z4testIPi14sized_sentinelIS0_E22bidirectional_iteratorIS0_ELi8ELi5EEv4DataIXT2_EXT3_EE = private unnamed_addr constant [124 x i8] c"void test(Data<N, M>) [InIter = int *, Sent = sized_sentinel<int *>, OutIter = bidirectional_iterator<int *>, N = 8, M = 5]\00", align 1
@__PRETTY_FUNCTION__._Z4testIPi14sized_sentinelIS0_E22random_access_iteratorIS0_ELi6ELi5EEv4DataIXT2_EXT3_EE = private unnamed_addr constant [124 x i8] c"void test(Data<N, M>) [InIter = int *, Sent = sized_sentinel<int *>, OutIter = random_access_iterator<int *>, N = 6, M = 5]\00", align 1
@__PRETTY_FUNCTION__._Z4testIPi14sized_sentinelIS0_E22random_access_iteratorIS0_ELi8ELi5EEv4DataIXT2_EXT3_EE = private unnamed_addr constant [124 x i8] c"void test(Data<N, M>) [InIter = int *, Sent = sized_sentinel<int *>, OutIter = random_access_iterator<int *>, N = 8, M = 5]\00", align 1
@__PRETTY_FUNCTION__._Z4testIPi14sized_sentinelIS0_E19contiguous_iteratorIS0_ELi6ELi5EEv4DataIXT2_EXT3_EE = private unnamed_addr constant [121 x i8] c"void test(Data<N, M>) [InIter = int *, Sent = sized_sentinel<int *>, OutIter = contiguous_iterator<int *>, N = 6, M = 5]\00", align 1
@__PRETTY_FUNCTION__._Z4testIPi14sized_sentinelIS0_E19contiguous_iteratorIS0_ELi8ELi5EEv4DataIXT2_EXT3_EE = private unnamed_addr constant [121 x i8] c"void test(Data<N, M>) [InIter = int *, Sent = sized_sentinel<int *>, OutIter = contiguous_iterator<int *>, N = 8, M = 5]\00", align 1
@constinit.575 = private unnamed_addr constant [6 x i32] [i32 1, i32 2, i32 3, i32 4, i32 5, i32 6], align 4
@constinit.576 = private unnamed_addr constant [5 x i32] [i32 1, i32 2, i32 3, i32 4, i32 6], align 4
@constinit.578 = private unnamed_addr constant [8 x i32] [i32 1, i32 2, i32 3, i32 2, i32 3, i32 4, i32 2, i32 5], align 4
@constinit.579 = private unnamed_addr constant [5 x i32] [i32 1, i32 3, i32 3, i32 4, i32 5], align 4
@__PRETTY_FUNCTION__._Z4testIPi14sized_sentinelIS0_ES0_Li6ELi5EEv4DataIXT2_EXT3_EE = private unnamed_addr constant [100 x i8] c"void test(Data<N, M>) [InIter = int *, Sent = sized_sentinel<int *>, OutIter = int *, N = 6, M = 5]\00", align 1
@__PRETTY_FUNCTION__._Z4testIPi14sized_sentinelIS0_ES0_Li8ELi5EEv4DataIXT2_EXT3_EE = private unnamed_addr constant [100 x i8] c"void test(Data<N, M>) [InIter = int *, Sent = sized_sentinel<int *>, OutIter = int *, N = 8, M = 5]\00", align 1

; Function Attrs: mustprogress norecurse uwtable
define dso_local noundef i32 @main(i32 noundef %0, ptr noundef readnone captures(none) %1) local_unnamed_addr #0 {
  %3 = tail call noundef zeroext i1 @_Z4testv()
  ret i32 0
}

; Function Attrs: mustprogress uwtable
define linkonce_odr dso_local noundef zeroext i1 @_Z4testv() local_unnamed_addr #1 comdat personality ptr @__gxx_personality_v0 {
  %1 = alloca %"struct.std::array.1", align 8
  %2 = alloca %"struct.std::array.1", align 4
  %3 = alloca %"struct.std::array.1", align 4
  tail call void @_Z21test_output_iteratorsI20cpp17_input_iteratorIPiS1_E16sentinel_wrapperIS2_EEvv()
  tail call void @_Z21test_output_iteratorsI20cpp17_input_iteratorIPiS1_E14sized_sentinelIS2_EEvv()
  tail call void @_Z21test_output_iteratorsI20cpp20_input_iteratorIPiE16sentinel_wrapperIS2_EEvv()
  tail call void @_Z21test_output_iteratorsI20cpp20_input_iteratorIPiE14sized_sentinelIS2_EEvv()
  tail call void @_Z21test_output_iteratorsI16forward_iteratorIPiES2_Evv()
  tail call void @_Z21test_output_iteratorsI16forward_iteratorIPiE16sentinel_wrapperIS2_EEvv()
  tail call void @_Z21test_output_iteratorsI16forward_iteratorIPiE14sized_sentinelIS2_EEvv()
  tail call void @_Z21test_output_iteratorsI22bidirectional_iteratorIPiES2_Evv()
  tail call void @_Z21test_output_iteratorsI22bidirectional_iteratorIPiE16sentinel_wrapperIS2_EEvv()
  tail call void @_Z21test_output_iteratorsI22bidirectional_iteratorIPiE14sized_sentinelIS2_EEvv()
  tail call void @_Z21test_output_iteratorsI22random_access_iteratorIPiES2_Evv()
  tail call void @_Z21test_output_iteratorsI22random_access_iteratorIPiE16sentinel_wrapperIS2_EEvv()
  tail call void @_Z21test_output_iteratorsI22random_access_iteratorIPiE14sized_sentinelIS2_EEvv()
  tail call void @_Z21test_output_iteratorsI19contiguous_iteratorIPiES2_Evv()
  tail call void @_Z21test_output_iteratorsI19contiguous_iteratorIPiE16sentinel_wrapperIS2_EEvv()
  tail call void @_Z21test_output_iteratorsI19contiguous_iteratorIPiE14sized_sentinelIS2_EEvv()
  tail call void @_Z21test_output_iteratorsIPiS0_Evv()
  tail call void @_Z21test_output_iteratorsIPi16sentinel_wrapperIS0_EEvv()
  tail call void @_Z21test_output_iteratorsIPi14sized_sentinelIS0_EEvv()
  call void @llvm.lifetime.start.p0(ptr nonnull %1) #6
  store i64 25769803781, ptr %1, align 8
  call void @llvm.lifetime.start.p0(ptr nonnull %2) #6
  store i32 5, ptr %2, align 4, !tbaa !5
  %4 = getelementptr inbounds nuw i8, ptr %2, i64 4
  store i32 6, ptr %4, align 4, !tbaa !5
  %5 = call i32 @bcmp(ptr noundef nonnull align 4 dereferenceable(8) %2, ptr noundef nonnull align 4 dereferenceable(8) %1, i64 8)
  %6 = icmp eq i32 %5, 0
  br i1 %6, label %8, label %7

7:                                                ; preds = %0
  tail call void @__assert_fail(ptr noundef nonnull @.str.5, ptr noundef nonnull @.str.4, i32 noundef 237, ptr noundef nonnull @__PRETTY_FUNCTION__._Z4testv) #7
  unreachable

8:                                                ; preds = %0
  call void @llvm.lifetime.end.p0(ptr nonnull %2) #6
  call void @llvm.lifetime.start.p0(ptr nonnull %3) #6
  store i32 5, ptr %3, align 4, !tbaa !5
  %9 = getelementptr inbounds nuw i8, ptr %3, i64 4
  store i32 6, ptr %9, align 4, !tbaa !5
  %10 = call i32 @bcmp(ptr noundef nonnull align 4 dereferenceable(8) %3, ptr noundef nonnull align 4 dereferenceable(8) %1, i64 8)
  %11 = icmp eq i32 %10, 0
  br i1 %11, label %13, label %12

12:                                               ; preds = %8
  tail call void @__assert_fail(ptr noundef nonnull @.str.5, ptr noundef nonnull @.str.4, i32 noundef 247, ptr noundef nonnull @__PRETTY_FUNCTION__._Z4testv) #7
  unreachable

13:                                               ; preds = %8
  call void @llvm.lifetime.end.p0(ptr nonnull %3) #6
  call void @llvm.lifetime.end.p0(ptr nonnull %1) #6
  ret i1 true
}

; Function Attrs: mustprogress uwtable
define linkonce_odr dso_local void @_Z21test_output_iteratorsI20cpp17_input_iteratorIPiS1_E16sentinel_wrapperIS2_EEvv() local_unnamed_addr #1 comdat personality ptr @__gxx_personality_v0 {
  %1 = alloca %struct.Data, align 8
  %2 = alloca %struct.Data.11, align 8
  %3 = alloca %struct.Data, align 8
  %4 = alloca %struct.Data.11, align 8
  %5 = alloca %struct.Data, align 8
  %6 = alloca %struct.Data.11, align 8
  %7 = alloca %struct.Data, align 8
  %8 = alloca %struct.Data.11, align 8
  %9 = alloca %struct.Data, align 8
  %10 = alloca %struct.Data.11, align 8
  %11 = alloca %struct.Data, align 8
  %12 = alloca %struct.Data.11, align 8
  call void @llvm.lifetime.start.p0(ptr nonnull %11)
  call void @llvm.lifetime.start.p0(ptr nonnull %12)
  call void @llvm.memcpy.p0.p0.i64(ptr noundef nonnull align 8 dereferenceable(24) %11, ptr noundef nonnull align 4 dereferenceable(24) @constinit.575, i64 24, i1 false), !tbaa.struct !9
  %13 = getelementptr inbounds nuw i8, ptr %11, i64 24
  call void @llvm.memcpy.p0.p0.i64(ptr noundef nonnull align 8 dereferenceable(20) %13, ptr noundef nonnull align 4 dereferenceable(20) @constinit.576, i64 20, i1 false), !tbaa.struct !11
  %14 = getelementptr inbounds nuw i8, ptr %11, i64 44
  store i32 5, ptr %14, align 4, !tbaa !12
  tail call void @_Z4testI20cpp17_input_iteratorIPiS1_E16sentinel_wrapperIS2_E21cpp17_output_iteratorIS1_ELi6ELi5EEv4DataIXT2_EXT3_EE(ptr noundef nonnull byval(%struct.Data) align 8 %11)
  call void @llvm.memcpy.p0.p0.i64(ptr noundef nonnull align 8 dereferenceable(32) %12, ptr noundef nonnull align 4 dereferenceable(32) @constinit.578, i64 32, i1 false), !tbaa.struct !16
  %15 = getelementptr inbounds nuw i8, ptr %12, i64 32
  call void @llvm.memcpy.p0.p0.i64(ptr noundef nonnull align 8 dereferenceable(20) %15, ptr noundef nonnull align 4 dereferenceable(20) @constinit.579, i64 20, i1 false), !tbaa.struct !11
  %16 = getelementptr inbounds nuw i8, ptr %12, i64 52
  store i32 2, ptr %16, align 4, !tbaa !17
  tail call void @_Z4testI20cpp17_input_iteratorIPiS1_E16sentinel_wrapperIS2_E21cpp17_output_iteratorIS1_ELi8ELi5EEv4DataIXT2_EXT3_EE(ptr noundef nonnull byval(%struct.Data.11) align 8 %12)
  call void @llvm.lifetime.end.p0(ptr nonnull %11)
  call void @llvm.lifetime.end.p0(ptr nonnull %12)
  call void @llvm.lifetime.start.p0(ptr nonnull %9)
  call void @llvm.lifetime.start.p0(ptr nonnull %10)
  call void @llvm.memcpy.p0.p0.i64(ptr noundef nonnull align 8 dereferenceable(24) %9, ptr noundef nonnull align 4 dereferenceable(24) @constinit.575, i64 24, i1 false), !tbaa.struct !9
  %17 = getelementptr inbounds nuw i8, ptr %9, i64 24
  call void @llvm.memcpy.p0.p0.i64(ptr noundef nonnull align 8 dereferenceable(20) %17, ptr noundef nonnull align 4 dereferenceable(20) @constinit.576, i64 20, i1 false), !tbaa.struct !11
  %18 = getelementptr inbounds nuw i8, ptr %9, i64 44
  store i32 5, ptr %18, align 4, !tbaa !12
  tail call void @_Z4testI20cpp17_input_iteratorIPiS1_E16sentinel_wrapperIS2_E16forward_iteratorIS1_ELi6ELi5EEv4DataIXT2_EXT3_EE(ptr noundef nonnull byval(%struct.Data) align 8 %9)
  call void @llvm.memcpy.p0.p0.i64(ptr noundef nonnull align 8 dereferenceable(32) %10, ptr noundef nonnull align 4 dereferenceable(32) @constinit.578, i64 32, i1 false), !tbaa.struct !16
  %19 = getelementptr inbounds nuw i8, ptr %10, i64 32
  call void @llvm.memcpy.p0.p0.i64(ptr noundef nonnull align 8 dereferenceable(20) %19, ptr noundef nonnull align 4 dereferenceable(20) @constinit.579, i64 20, i1 false), !tbaa.struct !11
  %20 = getelementptr inbounds nuw i8, ptr %10, i64 52
  store i32 2, ptr %20, align 4, !tbaa !17
  tail call void @_Z4testI20cpp17_input_iteratorIPiS1_E16sentinel_wrapperIS2_E16forward_iteratorIS1_ELi8ELi5EEv4DataIXT2_EXT3_EE(ptr noundef nonnull byval(%struct.Data.11) align 8 %10)
  call void @llvm.lifetime.end.p0(ptr nonnull %9)
  call void @llvm.lifetime.end.p0(ptr nonnull %10)
  call void @llvm.lifetime.start.p0(ptr nonnull %7)
  call void @llvm.lifetime.start.p0(ptr nonnull %8)
  call void @llvm.memcpy.p0.p0.i64(ptr noundef nonnull align 8 dereferenceable(24) %7, ptr noundef nonnull align 4 dereferenceable(24) @constinit.575, i64 24, i1 false), !tbaa.struct !9
  %21 = getelementptr inbounds nuw i8, ptr %7, i64 24
  call void @llvm.memcpy.p0.p0.i64(ptr noundef nonnull align 8 dereferenceable(20) %21, ptr noundef nonnull align 4 dereferenceable(20) @constinit.576, i64 20, i1 false), !tbaa.struct !11
  %22 = getelementptr inbounds nuw i8, ptr %7, i64 44
  store i32 5, ptr %22, align 4, !tbaa !12
  tail call void @_Z4testI20cpp17_input_iteratorIPiS1_E16sentinel_wrapperIS2_E22bidirectional_iteratorIS1_ELi6ELi5EEv4DataIXT2_EXT3_EE(ptr noundef nonnull byval(%struct.Data) align 8 %7)
  call void @llvm.memcpy.p0.p0.i64(ptr noundef nonnull align 8 dereferenceable(32) %8, ptr noundef nonnull align 4 dereferenceable(32) @constinit.578, i64 32, i1 false), !tbaa.struct !16
  %23 = getelementptr inbounds nuw i8, ptr %8, i64 32
  call void @llvm.memcpy.p0.p0.i64(ptr noundef nonnull align 8 dereferenceable(20) %23, ptr noundef nonnull align 4 dereferenceable(20) @constinit.579, i64 20, i1 false), !tbaa.struct !11
  %24 = getelementptr inbounds nuw i8, ptr %8, i64 52
  store i32 2, ptr %24, align 4, !tbaa !17
  tail call void @_Z4testI20cpp17_input_iteratorIPiS1_E16sentinel_wrapperIS2_E22bidirectional_iteratorIS1_ELi8ELi5EEv4DataIXT2_EXT3_EE(ptr noundef nonnull byval(%struct.Data.11) align 8 %8)
  call void @llvm.lifetime.end.p0(ptr nonnull %7)
  call void @llvm.lifetime.end.p0(ptr nonnull %8)
  call void @llvm.lifetime.start.p0(ptr nonnull %5)
  call void @llvm.lifetime.start.p0(ptr nonnull %6)
  call void @llvm.memcpy.p0.p0.i64(ptr noundef nonnull align 8 dereferenceable(24) %5, ptr noundef nonnull align 4 dereferenceable(24) @constinit.575, i64 24, i1 false), !tbaa.struct !9
  %25 = getelementptr inbounds nuw i8, ptr %5, i64 24
  call void @llvm.memcpy.p0.p0.i64(ptr noundef nonnull align 8 dereferenceable(20) %25, ptr noundef nonnull align 4 dereferenceable(20) @constinit.576, i64 20, i1 false), !tbaa.struct !11
  %26 = getelementptr inbounds nuw i8, ptr %5, i64 44
  store i32 5, ptr %26, align 4, !tbaa !12
  tail call void @_Z4testI20cpp17_input_iteratorIPiS1_E16sentinel_wrapperIS2_E22random_access_iteratorIS1_ELi6ELi5EEv4DataIXT2_EXT3_EE(ptr noundef nonnull byval(%struct.Data) align 8 %5)
  call void @llvm.memcpy.p0.p0.i64(ptr noundef nonnull align 8 dereferenceable(32) %6, ptr noundef nonnull align 4 dereferenceable(32) @constinit.578, i64 32, i1 false), !tbaa.struct !16
  %27 = getelementptr inbounds nuw i8, ptr %6, i64 32
  call void @llvm.memcpy.p0.p0.i64(ptr noundef nonnull align 8 dereferenceable(20) %27, ptr noundef nonnull align 4 dereferenceable(20) @constinit.579, i64 20, i1 false), !tbaa.struct !11
  %28 = getelementptr inbounds nuw i8, ptr %6, i64 52
  store i32 2, ptr %28, align 4, !tbaa !17
  tail call void @_Z4testI20cpp17_input_iteratorIPiS1_E16sentinel_wrapperIS2_E22random_access_iteratorIS1_ELi8ELi5EEv4DataIXT2_EXT3_EE(ptr noundef nonnull byval(%struct.Data.11) align 8 %6)
  call void @llvm.lifetime.end.p0(ptr nonnull %5)
  call void @llvm.lifetime.end.p0(ptr nonnull %6)
  call void @llvm.lifetime.start.p0(ptr nonnull %3)
  call void @llvm.lifetime.start.p0(ptr nonnull %4)
  call void @llvm.memcpy.p0.p0.i64(ptr noundef nonnull align 8 dereferenceable(24) %3, ptr noundef nonnull align 4 dereferenceable(24) @constinit.575, i64 24, i1 false), !tbaa.struct !9
  %29 = getelementptr inbounds nuw i8, ptr %3, i64 24
  call void @llvm.memcpy.p0.p0.i64(ptr noundef nonnull align 8 dereferenceable(20) %29, ptr noundef nonnull align 4 dereferenceable(20) @constinit.576, i64 20, i1 false), !tbaa.struct !11
  %30 = getelementptr inbounds nuw i8, ptr %3, i64 44
  store i32 5, ptr %30, align 4, !tbaa !12
  tail call void @_Z4testI20cpp17_input_iteratorIPiS1_E16sentinel_wrapperIS2_E19contiguous_iteratorIS1_ELi6ELi5EEv4DataIXT2_EXT3_EE(ptr noundef nonnull byval(%struct.Data) align 8 %3)
  call void @llvm.memcpy.p0.p0.i64(ptr noundef nonnull align 8 dereferenceable(32) %4, ptr noundef nonnull align 4 dereferenceable(32) @constinit.578, i64 32, i1 false), !tbaa.struct !16
  %31 = getelementptr inbounds nuw i8, ptr %4, i64 32
  call void @llvm.memcpy.p0.p0.i64(ptr noundef nonnull align 8 dereferenceable(20) %31, ptr noundef nonnull align 4 dereferenceable(20) @constinit.579, i64 20, i1 false), !tbaa.struct !11
  %32 = getelementptr inbounds nuw i8, ptr %4, i64 52
  store i32 2, ptr %32, align 4, !tbaa !17
  tail call void @_Z4testI20cpp17_input_iteratorIPiS1_E16sentinel_wrapperIS2_E19contiguous_iteratorIS1_ELi8ELi5EEv4DataIXT2_EXT3_EE(ptr noundef nonnull byval(%struct.Data.11) align 8 %4)
  call void @llvm.lifetime.end.p0(ptr nonnull %3)
  call void @llvm.lifetime.end.p0(ptr nonnull %4)
  call void @llvm.lifetime.start.p0(ptr nonnull %1)
  call void @llvm.lifetime.start.p0(ptr nonnull %2)
  call void @llvm.memcpy.p0.p0.i64(ptr noundef nonnull align 8 dereferenceable(24) %1, ptr noundef nonnull align 4 dereferenceable(24) @constinit.575, i64 24, i1 false), !tbaa.struct !9
  %33 = getelementptr inbounds nuw i8, ptr %1, i64 24
  call void @llvm.memcpy.p0.p0.i64(ptr noundef nonnull align 8 dereferenceable(20) %33, ptr noundef nonnull align 4 dereferenceable(20) @constinit.576, i64 20, i1 false), !tbaa.struct !11
  %34 = getelementptr inbounds nuw i8, ptr %1, i64 44
  store i32 5, ptr %34, align 4, !tbaa !12
  tail call void @_Z4testI20cpp17_input_iteratorIPiS1_E16sentinel_wrapperIS2_ES1_Li6ELi5EEv4DataIXT2_EXT3_EE(ptr noundef nonnull byval(%struct.Data) align 8 %1)
  call void @llvm.memcpy.p0.p0.i64(ptr noundef nonnull align 8 dereferenceable(32) %2, ptr noundef nonnull align 4 dereferenceable(32) @constinit.578, i64 32, i1 false), !tbaa.struct !16
  %35 = getelementptr inbounds nuw i8, ptr %2, i64 32
  call void @llvm.memcpy.p0.p0.i64(ptr noundef nonnull align 8 dereferenceable(20) %35, ptr noundef nonnull align 4 dereferenceable(20) @constinit.579, i64 20, i1 false), !tbaa.struct !11
  %36 = getelementptr inbounds nuw i8, ptr %2, i64 52
  store i32 2, ptr %36, align 4, !tbaa !17
  tail call void @_Z4testI20cpp17_input_iteratorIPiS1_E16sentinel_wrapperIS2_ES1_Li8ELi5EEv4DataIXT2_EXT3_EE(ptr noundef nonnull byval(%struct.Data.11) align 8 %2)
  call void @llvm.lifetime.end.p0(ptr nonnull %1)
  call void @llvm.lifetime.end.p0(ptr nonnull %2)
  ret void
}

; Function Attrs: mustprogress uwtable
define linkonce_odr dso_local void @_Z21test_output_iteratorsI20cpp17_input_iteratorIPiS1_E14sized_sentinelIS2_EEvv() local_unnamed_addr #1 comdat personality ptr @__gxx_personality_v0 {
  %1 = alloca %struct.Data, align 8
  %2 = alloca %struct.Data.11, align 8
  %3 = alloca %struct.Data, align 8
  %4 = alloca %struct.Data.11, align 8
  %5 = alloca %struct.Data, align 8
  %6 = alloca %struct.Data.11, align 8
  %7 = alloca %struct.Data, align 8
  %8 = alloca %struct.Data.11, align 8
  %9 = alloca %struct.Data, align 8
  %10 = alloca %struct.Data.11, align 8
  %11 = alloca %struct.Data, align 8
  %12 = alloca %struct.Data.11, align 8
  call void @llvm.lifetime.start.p0(ptr nonnull %11)
  call void @llvm.lifetime.start.p0(ptr nonnull %12)
  call void @llvm.memcpy.p0.p0.i64(ptr noundef nonnull align 8 dereferenceable(24) %11, ptr noundef nonnull align 4 dereferenceable(24) @constinit.575, i64 24, i1 false), !tbaa.struct !9
  %13 = getelementptr inbounds nuw i8, ptr %11, i64 24
  call void @llvm.memcpy.p0.p0.i64(ptr noundef nonnull align 8 dereferenceable(20) %13, ptr noundef nonnull align 4 dereferenceable(20) @constinit.576, i64 20, i1 false), !tbaa.struct !11
  %14 = getelementptr inbounds nuw i8, ptr %11, i64 44
  store i32 5, ptr %14, align 4, !tbaa !12
  tail call void @_Z4testI20cpp17_input_iteratorIPiS1_E14sized_sentinelIS2_E21cpp17_output_iteratorIS1_ELi6ELi5EEv4DataIXT2_EXT3_EE(ptr noundef nonnull byval(%struct.Data) align 8 %11)
  call void @llvm.memcpy.p0.p0.i64(ptr noundef nonnull align 8 dereferenceable(32) %12, ptr noundef nonnull align 4 dereferenceable(32) @constinit.578, i64 32, i1 false), !tbaa.struct !16
  %15 = getelementptr inbounds nuw i8, ptr %12, i64 32
  call void @llvm.memcpy.p0.p0.i64(ptr noundef nonnull align 8 dereferenceable(20) %15, ptr noundef nonnull align 4 dereferenceable(20) @constinit.579, i64 20, i1 false), !tbaa.struct !11
  %16 = getelementptr inbounds nuw i8, ptr %12, i64 52
  store i32 2, ptr %16, align 4, !tbaa !17
  tail call void @_Z4testI20cpp17_input_iteratorIPiS1_E14sized_sentinelIS2_E21cpp17_output_iteratorIS1_ELi8ELi5EEv4DataIXT2_EXT3_EE(ptr noundef nonnull byval(%struct.Data.11) align 8 %12)
  call void @llvm.lifetime.end.p0(ptr nonnull %11)
  call void @llvm.lifetime.end.p0(ptr nonnull %12)
  call void @llvm.lifetime.start.p0(ptr nonnull %9)
  call void @llvm.lifetime.start.p0(ptr nonnull %10)
  call void @llvm.memcpy.p0.p0.i64(ptr noundef nonnull align 8 dereferenceable(24) %9, ptr noundef nonnull align 4 dereferenceable(24) @constinit.575, i64 24, i1 false), !tbaa.struct !9
  %17 = getelementptr inbounds nuw i8, ptr %9, i64 24
  call void @llvm.memcpy.p0.p0.i64(ptr noundef nonnull align 8 dereferenceable(20) %17, ptr noundef nonnull align 4 dereferenceable(20) @constinit.576, i64 20, i1 false), !tbaa.struct !11
  %18 = getelementptr inbounds nuw i8, ptr %9, i64 44
  store i32 5, ptr %18, align 4, !tbaa !12
  tail call void @_Z4testI20cpp17_input_iteratorIPiS1_E14sized_sentinelIS2_E16forward_iteratorIS1_ELi6ELi5EEv4DataIXT2_EXT3_EE(ptr noundef nonnull byval(%struct.Data) align 8 %9)
  call void @llvm.memcpy.p0.p0.i64(ptr noundef nonnull align 8 dereferenceable(32) %10, ptr noundef nonnull align 4 dereferenceable(32) @constinit.578, i64 32, i1 false), !tbaa.struct !16
  %19 = getelementptr inbounds nuw i8, ptr %10, i64 32
  call void @llvm.memcpy.p0.p0.i64(ptr noundef nonnull align 8 dereferenceable(20) %19, ptr noundef nonnull align 4 dereferenceable(20) @constinit.579, i64 20, i1 false), !tbaa.struct !11
  %20 = getelementptr inbounds nuw i8, ptr %10, i64 52
  store i32 2, ptr %20, align 4, !tbaa !17
  tail call void @_Z4testI20cpp17_input_iteratorIPiS1_E14sized_sentinelIS2_E16forward_iteratorIS1_ELi8ELi5EEv4DataIXT2_EXT3_EE(ptr noundef nonnull byval(%struct.Data.11) align 8 %10)
  call void @llvm.lifetime.end.p0(ptr nonnull %9)
  call void @llvm.lifetime.end.p0(ptr nonnull %10)
  call void @llvm.lifetime.start.p0(ptr nonnull %7)
  call void @llvm.lifetime.start.p0(ptr nonnull %8)
  call void @llvm.memcpy.p0.p0.i64(ptr noundef nonnull align 8 dereferenceable(24) %7, ptr noundef nonnull align 4 dereferenceable(24) @constinit.575, i64 24, i1 false), !tbaa.struct !9
  %21 = getelementptr inbounds nuw i8, ptr %7, i64 24
  call void @llvm.memcpy.p0.p0.i64(ptr noundef nonnull align 8 dereferenceable(20) %21, ptr noundef nonnull align 4 dereferenceable(20) @constinit.576, i64 20, i1 false), !tbaa.struct !11
  %22 = getelementptr inbounds nuw i8, ptr %7, i64 44
  store i32 5, ptr %22, align 4, !tbaa !12
  tail call void @_Z4testI20cpp17_input_iteratorIPiS1_E14sized_sentinelIS2_E22bidirectional_iteratorIS1_ELi6ELi5EEv4DataIXT2_EXT3_EE(ptr noundef nonnull byval(%struct.Data) align 8 %7)
  call void @llvm.memcpy.p0.p0.i64(ptr noundef nonnull align 8 dereferenceable(32) %8, ptr noundef nonnull align 4 dereferenceable(32) @constinit.578, i64 32, i1 false), !tbaa.struct !16
  %23 = getelementptr inbounds nuw i8, ptr %8, i64 32
  call void @llvm.memcpy.p0.p0.i64(ptr noundef nonnull align 8 dereferenceable(20) %23, ptr noundef nonnull align 4 dereferenceable(20) @constinit.579, i64 20, i1 false), !tbaa.struct !11
  %24 = getelementptr inbounds nuw i8, ptr %8, i64 52
  store i32 2, ptr %24, align 4, !tbaa !17
  tail call void @_Z4testI20cpp17_input_iteratorIPiS1_E14sized_sentinelIS2_E22bidirectional_iteratorIS1_ELi8ELi5EEv4DataIXT2_EXT3_EE(ptr noundef nonnull byval(%struct.Data.11) align 8 %8)
  call void @llvm.lifetime.end.p0(ptr nonnull %7)
  call void @llvm.lifetime.end.p0(ptr nonnull %8)
  call void @llvm.lifetime.start.p0(ptr nonnull %5)
  call void @llvm.lifetime.start.p0(ptr nonnull %6)
  call void @llvm.memcpy.p0.p0.i64(ptr noundef nonnull align 8 dereferenceable(24) %5, ptr noundef nonnull align 4 dereferenceable(24) @constinit.575, i64 24, i1 false), !tbaa.struct !9
  %25 = getelementptr inbounds nuw i8, ptr %5, i64 24
  call void @llvm.memcpy.p0.p0.i64(ptr noundef nonnull align 8 dereferenceable(20) %25, ptr noundef nonnull align 4 dereferenceable(20) @constinit.576, i64 20, i1 false), !tbaa.struct !11
  %26 = getelementptr inbounds nuw i8, ptr %5, i64 44
  store i32 5, ptr %26, align 4, !tbaa !12
  tail call void @_Z4testI20cpp17_input_iteratorIPiS1_E14sized_sentinelIS2_E22random_access_iteratorIS1_ELi6ELi5EEv4DataIXT2_EXT3_EE(ptr noundef nonnull byval(%struct.Data) align 8 %5)
  call void @llvm.memcpy.p0.p0.i64(ptr noundef nonnull align 8 dereferenceable(32) %6, ptr noundef nonnull align 4 dereferenceable(32) @constinit.578, i64 32, i1 false), !tbaa.struct !16
  %27 = getelementptr inbounds nuw i8, ptr %6, i64 32
  call void @llvm.memcpy.p0.p0.i64(ptr noundef nonnull align 8 dereferenceable(20) %27, ptr noundef nonnull align 4 dereferenceable(20) @constinit.579, i64 20, i1 false), !tbaa.struct !11
  %28 = getelementptr inbounds nuw i8, ptr %6, i64 52
  store i32 2, ptr %28, align 4, !tbaa !17
  tail call void @_Z4testI20cpp17_input_iteratorIPiS1_E14sized_sentinelIS2_E22random_access_iteratorIS1_ELi8ELi5EEv4DataIXT2_EXT3_EE(ptr noundef nonnull byval(%struct.Data.11) align 8 %6)
  call void @llvm.lifetime.end.p0(ptr nonnull %5)
  call void @llvm.lifetime.end.p0(ptr nonnull %6)
  call void @llvm.lifetime.start.p0(ptr nonnull %3)
  call void @llvm.lifetime.start.p0(ptr nonnull %4)
  call void @llvm.memcpy.p0.p0.i64(ptr noundef nonnull align 8 dereferenceable(24) %3, ptr noundef nonnull align 4 dereferenceable(24) @constinit.575, i64 24, i1 false), !tbaa.struct !9
  %29 = getelementptr inbounds nuw i8, ptr %3, i64 24
  call void @llvm.memcpy.p0.p0.i64(ptr noundef nonnull align 8 dereferenceable(20) %29, ptr noundef nonnull align 4 dereferenceable(20) @constinit.576, i64 20, i1 false), !tbaa.struct !11
  %30 = getelementptr inbounds nuw i8, ptr %3, i64 44
  store i32 5, ptr %30, align 4, !tbaa !12
  tail call void @_Z4testI20cpp17_input_iteratorIPiS1_E14sized_sentinelIS2_E19contiguous_iteratorIS1_ELi6ELi5EEv4DataIXT2_EXT3_EE(ptr noundef nonnull byval(%struct.Data) align 8 %3)
  call void @llvm.memcpy.p0.p0.i64(ptr noundef nonnull align 8 dereferenceable(32) %4, ptr noundef nonnull align 4 dereferenceable(32) @constinit.578, i64 32, i1 false), !tbaa.struct !16
  %31 = getelementptr inbounds nuw i8, ptr %4, i64 32
  call void @llvm.memcpy.p0.p0.i64(ptr noundef nonnull align 8 dereferenceable(20) %31, ptr noundef nonnull align 4 dereferenceable(20) @constinit.579, i64 20, i1 false), !tbaa.struct !11
  %32 = getelementptr inbounds nuw i8, ptr %4, i64 52
  store i32 2, ptr %32, align 4, !tbaa !17
  tail call void @_Z4testI20cpp17_input_iteratorIPiS1_E14sized_sentinelIS2_E19contiguous_iteratorIS1_ELi8ELi5EEv4DataIXT2_EXT3_EE(ptr noundef nonnull byval(%struct.Data.11) align 8 %4)
  call void @llvm.lifetime.end.p0(ptr nonnull %3)
  call void @llvm.lifetime.end.p0(ptr nonnull %4)
  call void @llvm.lifetime.start.p0(ptr nonnull %1)
  call void @llvm.lifetime.start.p0(ptr nonnull %2)
  call void @llvm.memcpy.p0.p0.i64(ptr noundef nonnull align 8 dereferenceable(24) %1, ptr noundef nonnull align 4 dereferenceable(24) @constinit.575, i64 24, i1 false), !tbaa.struct !9
  %33 = getelementptr inbounds nuw i8, ptr %1, i64 24
  call void @llvm.memcpy.p0.p0.i64(ptr noundef nonnull align 8 dereferenceable(20) %33, ptr noundef nonnull align 4 dereferenceable(20) @constinit.576, i64 20, i1 false), !tbaa.struct !11
  %34 = getelementptr inbounds nuw i8, ptr %1, i64 44
  store i32 5, ptr %34, align 4, !tbaa !12
  tail call void @_Z4testI20cpp17_input_iteratorIPiS1_E14sized_sentinelIS2_ES1_Li6ELi5EEv4DataIXT2_EXT3_EE(ptr noundef nonnull byval(%struct.Data) align 8 %1)
  call void @llvm.memcpy.p0.p0.i64(ptr noundef nonnull align 8 dereferenceable(32) %2, ptr noundef nonnull align 4 dereferenceable(32) @constinit.578, i64 32, i1 false), !tbaa.struct !16
  %35 = getelementptr inbounds nuw i8, ptr %2, i64 32
  call void @llvm.memcpy.p0.p0.i64(ptr noundef nonnull align 8 dereferenceable(20) %35, ptr noundef nonnull align 4 dereferenceable(20) @constinit.579, i64 20, i1 false), !tbaa.struct !11
  %36 = getelementptr inbounds nuw i8, ptr %2, i64 52
  store i32 2, ptr %36, align 4, !tbaa !17
  tail call void @_Z4testI20cpp17_input_iteratorIPiS1_E14sized_sentinelIS2_ES1_Li8ELi5EEv4DataIXT2_EXT3_EE(ptr noundef nonnull byval(%struct.Data.11) align 8 %2)
  call void @llvm.lifetime.end.p0(ptr nonnull %1)
  call void @llvm.lifetime.end.p0(ptr nonnull %2)
  ret void
}

; Function Attrs: mustprogress uwtable
define linkonce_odr dso_local void @_Z21test_output_iteratorsI20cpp20_input_iteratorIPiE16sentinel_wrapperIS2_EEvv() local_unnamed_addr #1 comdat personality ptr @__gxx_personality_v0 {
  %1 = alloca %struct.Data, align 8
  %2 = alloca %struct.Data.11, align 8
  %3 = alloca %struct.Data, align 8
  %4 = alloca %struct.Data.11, align 8
  %5 = alloca %struct.Data, align 8
  %6 = alloca %struct.Data.11, align 8
  %7 = alloca %struct.Data, align 8
  %8 = alloca %struct.Data.11, align 8
  %9 = alloca %struct.Data, align 8
  %10 = alloca %struct.Data.11, align 8
  %11 = alloca %struct.Data, align 8
  %12 = alloca %struct.Data.11, align 8
  call void @llvm.lifetime.start.p0(ptr nonnull %11)
  call void @llvm.lifetime.start.p0(ptr nonnull %12)
  call void @llvm.memcpy.p0.p0.i64(ptr noundef nonnull align 8 dereferenceable(24) %11, ptr noundef nonnull align 4 dereferenceable(24) @constinit.575, i64 24, i1 false), !tbaa.struct !9
  %13 = getelementptr inbounds nuw i8, ptr %11, i64 24
  call void @llvm.memcpy.p0.p0.i64(ptr noundef nonnull align 8 dereferenceable(20) %13, ptr noundef nonnull align 4 dereferenceable(20) @constinit.576, i64 20, i1 false), !tbaa.struct !11
  %14 = getelementptr inbounds nuw i8, ptr %11, i64 44
  store i32 5, ptr %14, align 4, !tbaa !12
  tail call void @_Z4testI20cpp20_input_iteratorIPiE16sentinel_wrapperIS2_E21cpp17_output_iteratorIS1_ELi6ELi5EEv4DataIXT2_EXT3_EE(ptr noundef nonnull byval(%struct.Data) align 8 %11)
  call void @llvm.memcpy.p0.p0.i64(ptr noundef nonnull align 8 dereferenceable(32) %12, ptr noundef nonnull align 4 dereferenceable(32) @constinit.578, i64 32, i1 false), !tbaa.struct !16
  %15 = getelementptr inbounds nuw i8, ptr %12, i64 32
  call void @llvm.memcpy.p0.p0.i64(ptr noundef nonnull align 8 dereferenceable(20) %15, ptr noundef nonnull align 4 dereferenceable(20) @constinit.579, i64 20, i1 false), !tbaa.struct !11
  %16 = getelementptr inbounds nuw i8, ptr %12, i64 52
  store i32 2, ptr %16, align 4, !tbaa !17
  tail call void @_Z4testI20cpp20_input_iteratorIPiE16sentinel_wrapperIS2_E21cpp17_output_iteratorIS1_ELi8ELi5EEv4DataIXT2_EXT3_EE(ptr noundef nonnull byval(%struct.Data.11) align 8 %12)
  call void @llvm.lifetime.end.p0(ptr nonnull %11)
  call void @llvm.lifetime.end.p0(ptr nonnull %12)
  call void @llvm.lifetime.start.p0(ptr nonnull %9)
  call void @llvm.lifetime.start.p0(ptr nonnull %10)
  call void @llvm.memcpy.p0.p0.i64(ptr noundef nonnull align 8 dereferenceable(24) %9, ptr noundef nonnull align 4 dereferenceable(24) @constinit.575, i64 24, i1 false), !tbaa.struct !9
  %17 = getelementptr inbounds nuw i8, ptr %9, i64 24
  call void @llvm.memcpy.p0.p0.i64(ptr noundef nonnull align 8 dereferenceable(20) %17, ptr noundef nonnull align 4 dereferenceable(20) @constinit.576, i64 20, i1 false), !tbaa.struct !11
  %18 = getelementptr inbounds nuw i8, ptr %9, i64 44
  store i32 5, ptr %18, align 4, !tbaa !12
  tail call void @_Z4testI20cpp20_input_iteratorIPiE16sentinel_wrapperIS2_E16forward_iteratorIS1_ELi6ELi5EEv4DataIXT2_EXT3_EE(ptr noundef nonnull byval(%struct.Data) align 8 %9)
  call void @llvm.memcpy.p0.p0.i64(ptr noundef nonnull align 8 dereferenceable(32) %10, ptr noundef nonnull align 4 dereferenceable(32) @constinit.578, i64 32, i1 false), !tbaa.struct !16
  %19 = getelementptr inbounds nuw i8, ptr %10, i64 32
  call void @llvm.memcpy.p0.p0.i64(ptr noundef nonnull align 8 dereferenceable(20) %19, ptr noundef nonnull align 4 dereferenceable(20) @constinit.579, i64 20, i1 false), !tbaa.struct !11
  %20 = getelementptr inbounds nuw i8, ptr %10, i64 52
  store i32 2, ptr %20, align 4, !tbaa !17
  tail call void @_Z4testI20cpp20_input_iteratorIPiE16sentinel_wrapperIS2_E16forward_iteratorIS1_ELi8ELi5EEv4DataIXT2_EXT3_EE(ptr noundef nonnull byval(%struct.Data.11) align 8 %10)
  call void @llvm.lifetime.end.p0(ptr nonnull %9)
  call void @llvm.lifetime.end.p0(ptr nonnull %10)
  call void @llvm.lifetime.start.p0(ptr nonnull %7)
  call void @llvm.lifetime.start.p0(ptr nonnull %8)
  call void @llvm.memcpy.p0.p0.i64(ptr noundef nonnull align 8 dereferenceable(24) %7, ptr noundef nonnull align 4 dereferenceable(24) @constinit.575, i64 24, i1 false), !tbaa.struct !9
  %21 = getelementptr inbounds nuw i8, ptr %7, i64 24
  call void @llvm.memcpy.p0.p0.i64(ptr noundef nonnull align 8 dereferenceable(20) %21, ptr noundef nonnull align 4 dereferenceable(20) @constinit.576, i64 20, i1 false), !tbaa.struct !11
  %22 = getelementptr inbounds nuw i8, ptr %7, i64 44
  store i32 5, ptr %22, align 4, !tbaa !12
  tail call void @_Z4testI20cpp20_input_iteratorIPiE16sentinel_wrapperIS2_E22bidirectional_iteratorIS1_ELi6ELi5EEv4DataIXT2_EXT3_EE(ptr noundef nonnull byval(%struct.Data) align 8 %7)
  call void @llvm.memcpy.p0.p0.i64(ptr noundef nonnull align 8 dereferenceable(32) %8, ptr noundef nonnull align 4 dereferenceable(32) @constinit.578, i64 32, i1 false), !tbaa.struct !16
  %23 = getelementptr inbounds nuw i8, ptr %8, i64 32
  call void @llvm.memcpy.p0.p0.i64(ptr noundef nonnull align 8 dereferenceable(20) %23, ptr noundef nonnull align 4 dereferenceable(20) @constinit.579, i64 20, i1 false), !tbaa.struct !11
  %24 = getelementptr inbounds nuw i8, ptr %8, i64 52
  store i32 2, ptr %24, align 4, !tbaa !17
  tail call void @_Z4testI20cpp20_input_iteratorIPiE16sentinel_wrapperIS2_E22bidirectional_iteratorIS1_ELi8ELi5EEv4DataIXT2_EXT3_EE(ptr noundef nonnull byval(%struct.Data.11) align 8 %8)
  call void @llvm.lifetime.end.p0(ptr nonnull %7)
  call void @llvm.lifetime.end.p0(ptr nonnull %8)
  call void @llvm.lifetime.start.p0(ptr nonnull %5)
  call void @llvm.lifetime.start.p0(ptr nonnull %6)
  call void @llvm.memcpy.p0.p0.i64(ptr noundef nonnull align 8 dereferenceable(24) %5, ptr noundef nonnull align 4 dereferenceable(24) @constinit.575, i64 24, i1 false), !tbaa.struct !9
  %25 = getelementptr inbounds nuw i8, ptr %5, i64 24
  call void @llvm.memcpy.p0.p0.i64(ptr noundef nonnull align 8 dereferenceable(20) %25, ptr noundef nonnull align 4 dereferenceable(20) @constinit.576, i64 20, i1 false), !tbaa.struct !11
  %26 = getelementptr inbounds nuw i8, ptr %5, i64 44
  store i32 5, ptr %26, align 4, !tbaa !12
  tail call void @_Z4testI20cpp20_input_iteratorIPiE16sentinel_wrapperIS2_E22random_access_iteratorIS1_ELi6ELi5EEv4DataIXT2_EXT3_EE(ptr noundef nonnull byval(%struct.Data) align 8 %5)
  call void @llvm.memcpy.p0.p0.i64(ptr noundef nonnull align 8 dereferenceable(32) %6, ptr noundef nonnull align 4 dereferenceable(32) @constinit.578, i64 32, i1 false), !tbaa.struct !16
  %27 = getelementptr inbounds nuw i8, ptr %6, i64 32
  call void @llvm.memcpy.p0.p0.i64(ptr noundef nonnull align 8 dereferenceable(20) %27, ptr noundef nonnull align 4 dereferenceable(20) @constinit.579, i64 20, i1 false), !tbaa.struct !11
  %28 = getelementptr inbounds nuw i8, ptr %6, i64 52
  store i32 2, ptr %28, align 4, !tbaa !17
  tail call void @_Z4testI20cpp20_input_iteratorIPiE16sentinel_wrapperIS2_E22random_access_iteratorIS1_ELi8ELi5EEv4DataIXT2_EXT3_EE(ptr noundef nonnull byval(%struct.Data.11) align 8 %6)
  call void @llvm.lifetime.end.p0(ptr nonnull %5)
  call void @llvm.lifetime.end.p0(ptr nonnull %6)
  call void @llvm.lifetime.start.p0(ptr nonnull %3)
  call void @llvm.lifetime.start.p0(ptr nonnull %4)
  call void @llvm.memcpy.p0.p0.i64(ptr noundef nonnull align 8 dereferenceable(24) %3, ptr noundef nonnull align 4 dereferenceable(24) @constinit.575, i64 24, i1 false), !tbaa.struct !9
  %29 = getelementptr inbounds nuw i8, ptr %3, i64 24
  call void @llvm.memcpy.p0.p0.i64(ptr noundef nonnull align 8 dereferenceable(20) %29, ptr noundef nonnull align 4 dereferenceable(20) @constinit.576, i64 20, i1 false), !tbaa.struct !11
  %30 = getelementptr inbounds nuw i8, ptr %3, i64 44
  store i32 5, ptr %30, align 4, !tbaa !12
  tail call void @_Z4testI20cpp20_input_iteratorIPiE16sentinel_wrapperIS2_E19contiguous_iteratorIS1_ELi6ELi5EEv4DataIXT2_EXT3_EE(ptr noundef nonnull byval(%struct.Data) align 8 %3)
  call void @llvm.memcpy.p0.p0.i64(ptr noundef nonnull align 8 dereferenceable(32) %4, ptr noundef nonnull align 4 dereferenceable(32) @constinit.578, i64 32, i1 false), !tbaa.struct !16
  %31 = getelementptr inbounds nuw i8, ptr %4, i64 32
  call void @llvm.memcpy.p0.p0.i64(ptr noundef nonnull align 8 dereferenceable(20) %31, ptr noundef nonnull align 4 dereferenceable(20) @constinit.579, i64 20, i1 false), !tbaa.struct !11
  %32 = getelementptr inbounds nuw i8, ptr %4, i64 52
  store i32 2, ptr %32, align 4, !tbaa !17
  tail call void @_Z4testI20cpp20_input_iteratorIPiE16sentinel_wrapperIS2_E19contiguous_iteratorIS1_ELi8ELi5EEv4DataIXT2_EXT3_EE(ptr noundef nonnull byval(%struct.Data.11) align 8 %4)
  call void @llvm.lifetime.end.p0(ptr nonnull %3)
  call void @llvm.lifetime.end.p0(ptr nonnull %4)
  call void @llvm.lifetime.start.p0(ptr nonnull %1)
  call void @llvm.lifetime.start.p0(ptr nonnull %2)
  call void @llvm.memcpy.p0.p0.i64(ptr noundef nonnull align 8 dereferenceable(24) %1, ptr noundef nonnull align 4 dereferenceable(24) @constinit.575, i64 24, i1 false), !tbaa.struct !9
  %33 = getelementptr inbounds nuw i8, ptr %1, i64 24
  call void @llvm.memcpy.p0.p0.i64(ptr noundef nonnull align 8 dereferenceable(20) %33, ptr noundef nonnull align 4 dereferenceable(20) @constinit.576, i64 20, i1 false), !tbaa.struct !11
  %34 = getelementptr inbounds nuw i8, ptr %1, i64 44
  store i32 5, ptr %34, align 4, !tbaa !12
  tail call void @_Z4testI20cpp20_input_iteratorIPiE16sentinel_wrapperIS2_ES1_Li6ELi5EEv4DataIXT2_EXT3_EE(ptr noundef nonnull byval(%struct.Data) align 8 %1)
  call void @llvm.memcpy.p0.p0.i64(ptr noundef nonnull align 8 dereferenceable(32) %2, ptr noundef nonnull align 4 dereferenceable(32) @constinit.578, i64 32, i1 false), !tbaa.struct !16
  %35 = getelementptr inbounds nuw i8, ptr %2, i64 32
  call void @llvm.memcpy.p0.p0.i64(ptr noundef nonnull align 8 dereferenceable(20) %35, ptr noundef nonnull align 4 dereferenceable(20) @constinit.579, i64 20, i1 false), !tbaa.struct !11
  %36 = getelementptr inbounds nuw i8, ptr %2, i64 52
  store i32 2, ptr %36, align 4, !tbaa !17
  tail call void @_Z4testI20cpp20_input_iteratorIPiE16sentinel_wrapperIS2_ES1_Li8ELi5EEv4DataIXT2_EXT3_EE(ptr noundef nonnull byval(%struct.Data.11) align 8 %2)
  call void @llvm.lifetime.end.p0(ptr nonnull %1)
  call void @llvm.lifetime.end.p0(ptr nonnull %2)
  ret void
}

; Function Attrs: mustprogress uwtable
define linkonce_odr dso_local void @_Z21test_output_iteratorsI20cpp20_input_iteratorIPiE14sized_sentinelIS2_EEvv() local_unnamed_addr #1 comdat personality ptr @__gxx_personality_v0 {
  %1 = alloca %struct.Data, align 8
  %2 = alloca %struct.Data.11, align 8
  %3 = alloca %struct.Data, align 8
  %4 = alloca %struct.Data.11, align 8
  %5 = alloca %struct.Data, align 8
  %6 = alloca %struct.Data.11, align 8
  %7 = alloca %struct.Data, align 8
  %8 = alloca %struct.Data.11, align 8
  %9 = alloca %struct.Data, align 8
  %10 = alloca %struct.Data.11, align 8
  %11 = alloca %struct.Data, align 8
  %12 = alloca %struct.Data.11, align 8
  call void @llvm.lifetime.start.p0(ptr nonnull %11)
  call void @llvm.lifetime.start.p0(ptr nonnull %12)
  call void @llvm.memcpy.p0.p0.i64(ptr noundef nonnull align 8 dereferenceable(24) %11, ptr noundef nonnull align 4 dereferenceable(24) @constinit.575, i64 24, i1 false), !tbaa.struct !9
  %13 = getelementptr inbounds nuw i8, ptr %11, i64 24
  call void @llvm.memcpy.p0.p0.i64(ptr noundef nonnull align 8 dereferenceable(20) %13, ptr noundef nonnull align 4 dereferenceable(20) @constinit.576, i64 20, i1 false), !tbaa.struct !11
  %14 = getelementptr inbounds nuw i8, ptr %11, i64 44
  store i32 5, ptr %14, align 4, !tbaa !12
  tail call void @_Z4testI20cpp20_input_iteratorIPiE14sized_sentinelIS2_E21cpp17_output_iteratorIS1_ELi6ELi5EEv4DataIXT2_EXT3_EE(ptr noundef nonnull byval(%struct.Data) align 8 %11)
  call void @llvm.memcpy.p0.p0.i64(ptr noundef nonnull align 8 dereferenceable(32) %12, ptr noundef nonnull align 4 dereferenceable(32) @constinit.578, i64 32, i1 false), !tbaa.struct !16
  %15 = getelementptr inbounds nuw i8, ptr %12, i64 32
  call void @llvm.memcpy.p0.p0.i64(ptr noundef nonnull align 8 dereferenceable(20) %15, ptr noundef nonnull align 4 dereferenceable(20) @constinit.579, i64 20, i1 false), !tbaa.struct !11
  %16 = getelementptr inbounds nuw i8, ptr %12, i64 52
  store i32 2, ptr %16, align 4, !tbaa !17
  tail call void @_Z4testI20cpp20_input_iteratorIPiE14sized_sentinelIS2_E21cpp17_output_iteratorIS1_ELi8ELi5EEv4DataIXT2_EXT3_EE(ptr noundef nonnull byval(%struct.Data.11) align 8 %12)
  call void @llvm.lifetime.end.p0(ptr nonnull %11)
  call void @llvm.lifetime.end.p0(ptr nonnull %12)
  call void @llvm.lifetime.start.p0(ptr nonnull %9)
  call void @llvm.lifetime.start.p0(ptr nonnull %10)
  call void @llvm.memcpy.p0.p0.i64(ptr noundef nonnull align 8 dereferenceable(24) %9, ptr noundef nonnull align 4 dereferenceable(24) @constinit.575, i64 24, i1 false), !tbaa.struct !9
  %17 = getelementptr inbounds nuw i8, ptr %9, i64 24
  call void @llvm.memcpy.p0.p0.i64(ptr noundef nonnull align 8 dereferenceable(20) %17, ptr noundef nonnull align 4 dereferenceable(20) @constinit.576, i64 20, i1 false), !tbaa.struct !11
  %18 = getelementptr inbounds nuw i8, ptr %9, i64 44
  store i32 5, ptr %18, align 4, !tbaa !12
  tail call void @_Z4testI20cpp20_input_iteratorIPiE14sized_sentinelIS2_E16forward_iteratorIS1_ELi6ELi5EEv4DataIXT2_EXT3_EE(ptr noundef nonnull byval(%struct.Data) align 8 %9)
  call void @llvm.memcpy.p0.p0.i64(ptr noundef nonnull align 8 dereferenceable(32) %10, ptr noundef nonnull align 4 dereferenceable(32) @constinit.578, i64 32, i1 false), !tbaa.struct !16
  %19 = getelementptr inbounds nuw i8, ptr %10, i64 32
  call void @llvm.memcpy.p0.p0.i64(ptr noundef nonnull align 8 dereferenceable(20) %19, ptr noundef nonnull align 4 dereferenceable(20) @constinit.579, i64 20, i1 false), !tbaa.struct !11
  %20 = getelementptr inbounds nuw i8, ptr %10, i64 52
  store i32 2, ptr %20, align 4, !tbaa !17
  tail call void @_Z4testI20cpp20_input_iteratorIPiE14sized_sentinelIS2_E16forward_iteratorIS1_ELi8ELi5EEv4DataIXT2_EXT3_EE(ptr noundef nonnull byval(%struct.Data.11) align 8 %10)
  call void @llvm.lifetime.end.p0(ptr nonnull %9)
  call void @llvm.lifetime.end.p0(ptr nonnull %10)
  call void @llvm.lifetime.start.p0(ptr nonnull %7)
  call void @llvm.lifetime.start.p0(ptr nonnull %8)
  call void @llvm.memcpy.p0.p0.i64(ptr noundef nonnull align 8 dereferenceable(24) %7, ptr noundef nonnull align 4 dereferenceable(24) @constinit.575, i64 24, i1 false), !tbaa.struct !9
  %21 = getelementptr inbounds nuw i8, ptr %7, i64 24
  call void @llvm.memcpy.p0.p0.i64(ptr noundef nonnull align 8 dereferenceable(20) %21, ptr noundef nonnull align 4 dereferenceable(20) @constinit.576, i64 20, i1 false), !tbaa.struct !11
  %22 = getelementptr inbounds nuw i8, ptr %7, i64 44
  store i32 5, ptr %22, align 4, !tbaa !12
  tail call void @_Z4testI20cpp20_input_iteratorIPiE14sized_sentinelIS2_E22bidirectional_iteratorIS1_ELi6ELi5EEv4DataIXT2_EXT3_EE(ptr noundef nonnull byval(%struct.Data) align 8 %7)
  call void @llvm.memcpy.p0.p0.i64(ptr noundef nonnull align 8 dereferenceable(32) %8, ptr noundef nonnull align 4 dereferenceable(32) @constinit.578, i64 32, i1 false), !tbaa.struct !16
  %23 = getelementptr inbounds nuw i8, ptr %8, i64 32
  call void @llvm.memcpy.p0.p0.i64(ptr noundef nonnull align 8 dereferenceable(20) %23, ptr noundef nonnull align 4 dereferenceable(20) @constinit.579, i64 20, i1 false), !tbaa.struct !11
  %24 = getelementptr inbounds nuw i8, ptr %8, i64 52
  store i32 2, ptr %24, align 4, !tbaa !17
  tail call void @_Z4testI20cpp20_input_iteratorIPiE14sized_sentinelIS2_E22bidirectional_iteratorIS1_ELi8ELi5EEv4DataIXT2_EXT3_EE(ptr noundef nonnull byval(%struct.Data.11) align 8 %8)
  call void @llvm.lifetime.end.p0(ptr nonnull %7)
  call void @llvm.lifetime.end.p0(ptr nonnull %8)
  call void @llvm.lifetime.start.p0(ptr nonnull %5)
  call void @llvm.lifetime.start.p0(ptr nonnull %6)
  call void @llvm.memcpy.p0.p0.i64(ptr noundef nonnull align 8 dereferenceable(24) %5, ptr noundef nonnull align 4 dereferenceable(24) @constinit.575, i64 24, i1 false), !tbaa.struct !9
  %25 = getelementptr inbounds nuw i8, ptr %5, i64 24
  call void @llvm.memcpy.p0.p0.i64(ptr noundef nonnull align 8 dereferenceable(20) %25, ptr noundef nonnull align 4 dereferenceable(20) @constinit.576, i64 20, i1 false), !tbaa.struct !11
  %26 = getelementptr inbounds nuw i8, ptr %5, i64 44
  store i32 5, ptr %26, align 4, !tbaa !12
  tail call void @_Z4testI20cpp20_input_iteratorIPiE14sized_sentinelIS2_E22random_access_iteratorIS1_ELi6ELi5EEv4DataIXT2_EXT3_EE(ptr noundef nonnull byval(%struct.Data) align 8 %5)
  call void @llvm.memcpy.p0.p0.i64(ptr noundef nonnull align 8 dereferenceable(32) %6, ptr noundef nonnull align 4 dereferenceable(32) @constinit.578, i64 32, i1 false), !tbaa.struct !16
  %27 = getelementptr inbounds nuw i8, ptr %6, i64 32
  call void @llvm.memcpy.p0.p0.i64(ptr noundef nonnull align 8 dereferenceable(20) %27, ptr noundef nonnull align 4 dereferenceable(20) @constinit.579, i64 20, i1 false), !tbaa.struct !11
  %28 = getelementptr inbounds nuw i8, ptr %6, i64 52
  store i32 2, ptr %28, align 4, !tbaa !17
  tail call void @_Z4testI20cpp20_input_iteratorIPiE14sized_sentinelIS2_E22random_access_iteratorIS1_ELi8ELi5EEv4DataIXT2_EXT3_EE(ptr noundef nonnull byval(%struct.Data.11) align 8 %6)
  call void @llvm.lifetime.end.p0(ptr nonnull %5)
  call void @llvm.lifetime.end.p0(ptr nonnull %6)
  call void @llvm.lifetime.start.p0(ptr nonnull %3)
  call void @llvm.lifetime.start.p0(ptr nonnull %4)
  call void @llvm.memcpy.p0.p0.i64(ptr noundef nonnull align 8 dereferenceable(24) %3, ptr noundef nonnull align 4 dereferenceable(24) @constinit.575, i64 24, i1 false), !tbaa.struct !9
  %29 = getelementptr inbounds nuw i8, ptr %3, i64 24
  call void @llvm.memcpy.p0.p0.i64(ptr noundef nonnull align 8 dereferenceable(20) %29, ptr noundef nonnull align 4 dereferenceable(20) @constinit.576, i64 20, i1 false), !tbaa.struct !11
  %30 = getelementptr inbounds nuw i8, ptr %3, i64 44
  store i32 5, ptr %30, align 4, !tbaa !12
  tail call void @_Z4testI20cpp20_input_iteratorIPiE14sized_sentinelIS2_E19contiguous_iteratorIS1_ELi6ELi5EEv4DataIXT2_EXT3_EE(ptr noundef nonnull byval(%struct.Data) align 8 %3)
  call void @llvm.memcpy.p0.p0.i64(ptr noundef nonnull align 8 dereferenceable(32) %4, ptr noundef nonnull align 4 dereferenceable(32) @constinit.578, i64 32, i1 false), !tbaa.struct !16
  %31 = getelementptr inbounds nuw i8, ptr %4, i64 32
  call void @llvm.memcpy.p0.p0.i64(ptr noundef nonnull align 8 dereferenceable(20) %31, ptr noundef nonnull align 4 dereferenceable(20) @constinit.579, i64 20, i1 false), !tbaa.struct !11
  %32 = getelementptr inbounds nuw i8, ptr %4, i64 52
  store i32 2, ptr %32, align 4, !tbaa !17
  tail call void @_Z4testI20cpp20_input_iteratorIPiE14sized_sentinelIS2_E19contiguous_iteratorIS1_ELi8ELi5EEv4DataIXT2_EXT3_EE(ptr noundef nonnull byval(%struct.Data.11) align 8 %4)
  call void @llvm.lifetime.end.p0(ptr nonnull %3)
  call void @llvm.lifetime.end.p0(ptr nonnull %4)
  call void @llvm.lifetime.start.p0(ptr nonnull %1)
  call void @llvm.lifetime.start.p0(ptr nonnull %2)
  call void @llvm.memcpy.p0.p0.i64(ptr noundef nonnull align 8 dereferenceable(24) %1, ptr noundef nonnull align 4 dereferenceable(24) @constinit.575, i64 24, i1 false), !tbaa.struct !9
  %33 = getelementptr inbounds nuw i8, ptr %1, i64 24
  call void @llvm.memcpy.p0.p0.i64(ptr noundef nonnull align 8 dereferenceable(20) %33, ptr noundef nonnull align 4 dereferenceable(20) @constinit.576, i64 20, i1 false), !tbaa.struct !11
  %34 = getelementptr inbounds nuw i8, ptr %1, i64 44
  store i32 5, ptr %34, align 4, !tbaa !12
  tail call void @_Z4testI20cpp20_input_iteratorIPiE14sized_sentinelIS2_ES1_Li6ELi5EEv4DataIXT2_EXT3_EE(ptr noundef nonnull byval(%struct.Data) align 8 %1)
  call void @llvm.memcpy.p0.p0.i64(ptr noundef nonnull align 8 dereferenceable(32) %2, ptr noundef nonnull align 4 dereferenceable(32) @constinit.578, i64 32, i1 false), !tbaa.struct !16
  %35 = getelementptr inbounds nuw i8, ptr %2, i64 32
  call void @llvm.memcpy.p0.p0.i64(ptr noundef nonnull align 8 dereferenceable(20) %35, ptr noundef nonnull align 4 dereferenceable(20) @constinit.579, i64 20, i1 false), !tbaa.struct !11
  %36 = getelementptr inbounds nuw i8, ptr %2, i64 52
  store i32 2, ptr %36, align 4, !tbaa !17
  tail call void @_Z4testI20cpp20_input_iteratorIPiE14sized_sentinelIS2_ES1_Li8ELi5EEv4DataIXT2_EXT3_EE(ptr noundef nonnull byval(%struct.Data.11) align 8 %2)
  call void @llvm.lifetime.end.p0(ptr nonnull %1)
  call void @llvm.lifetime.end.p0(ptr nonnull %2)
  ret void
}

; Function Attrs: mustprogress nocallback nofree nosync nounwind willreturn memory(argmem: readwrite)
declare void @llvm.lifetime.start.p0(ptr captures(none)) #2

; Function Attrs: mustprogress nocallback nofree nounwind willreturn memory(argmem: readwrite)
declare void @llvm.memcpy.p0.p0.i64(ptr noalias writeonly captures(none), ptr noalias readonly captures(none), i64, i1 immarg) #3

; Function Attrs: mustprogress nocallback nofree nosync nounwind willreturn memory(argmem: readwrite)
declare void @llvm.lifetime.end.p0(ptr captures(none)) #2

; Function Attrs: noreturn nounwind
declare void @__assert_fail(ptr noundef, ptr noundef, i32 noundef, ptr noundef) local_unnamed_addr #4

; Function Attrs: mustprogress uwtable
define linkonce_odr dso_local void @_Z4testI20cpp17_input_iteratorIPiS1_E16sentinel_wrapperIS2_E21cpp17_output_iteratorIS1_ELi6ELi5EEv4DataIXT2_EXT3_EE(ptr noundef byval(%struct.Data) align 8 %0) local_unnamed_addr #1 comdat personality ptr @__gxx_personality_v0 {
  %2 = alloca %"struct.std::array.3", align 4
  %3 = alloca %"struct.std::array.3", align 4
  call void @llvm.lifetime.start.p0(ptr nonnull %2) #6
  %4 = getelementptr inbounds nuw i8, ptr %0, i64 44
  %5 = load i32, ptr %4, align 4, !tbaa !5, !noalias !20
  %6 = getelementptr inbounds nuw i8, ptr %3, i64 4
  %7 = load i32, ptr %0, align 8, !tbaa !5, !noalias !20
  %8 = icmp eq i32 %7, %5
  br i1 %8, label %11, label %9

9:                                                ; preds = %1
  %10 = getelementptr inbounds nuw i8, ptr %2, i64 4
  store i32 %7, ptr %2, align 4, !tbaa !5, !noalias !20
  br label %11

11:                                               ; preds = %9, %1
  %12 = phi ptr [ %2, %1 ], [ %10, %9 ]
  %13 = phi i64 [ 0, %1 ], [ 4, %9 ]
  %14 = getelementptr inbounds nuw i8, ptr %0, i64 4
  %15 = load i32, ptr %14, align 4, !tbaa !5, !noalias !20
  %16 = icmp eq i32 %15, %5
  br i1 %16, label %19, label %17

17:                                               ; preds = %11
  store i32 %15, ptr %12, align 4, !tbaa !5, !noalias !20
  %18 = add nuw nsw i64 %13, 4
  br label %19

19:                                               ; preds = %17, %11
  %20 = phi i64 [ %13, %11 ], [ %18, %17 ]
  %21 = getelementptr inbounds nuw i8, ptr %0, i64 8
  %22 = load i32, ptr %21, align 8, !tbaa !5, !noalias !20
  %23 = icmp eq i32 %22, %5
  br i1 %23, label %27, label %24

24:                                               ; preds = %19
  %25 = getelementptr inbounds nuw i8, ptr %2, i64 %20
  store i32 %22, ptr %25, align 4, !tbaa !5, !noalias !20
  %26 = add nuw nsw i64 %20, 4
  br label %27

27:                                               ; preds = %24, %19
  %28 = phi i64 [ %20, %19 ], [ %26, %24 ]
  %29 = getelementptr inbounds nuw i8, ptr %0, i64 12
  %30 = load i32, ptr %29, align 4, !tbaa !5, !noalias !20
  %31 = icmp eq i32 %30, %5
  br i1 %31, label %35, label %32

32:                                               ; preds = %27
  %33 = getelementptr inbounds nuw i8, ptr %2, i64 %28
  store i32 %30, ptr %33, align 4, !tbaa !5, !noalias !20
  %34 = add nuw nsw i64 %28, 4
  br label %35

35:                                               ; preds = %32, %27
  %36 = phi i64 [ %28, %27 ], [ %34, %32 ]
  %37 = getelementptr inbounds nuw i8, ptr %0, i64 16
  %38 = load i32, ptr %37, align 8, !tbaa !5, !noalias !20
  %39 = icmp eq i32 %38, %5
  br i1 %39, label %43, label %40

40:                                               ; preds = %35
  %41 = getelementptr inbounds nuw i8, ptr %2, i64 %36
  store i32 %38, ptr %41, align 4, !tbaa !5, !noalias !20
  %42 = add nuw nsw i64 %36, 4
  br label %43

43:                                               ; preds = %40, %35
  %44 = phi i64 [ %36, %35 ], [ %42, %40 ]
  %45 = getelementptr inbounds nuw i8, ptr %0, i64 20
  %46 = load i32, ptr %45, align 4, !tbaa !5, !noalias !20
  %47 = icmp eq i32 %46, %5
  br i1 %47, label %51, label %48

48:                                               ; preds = %43
  %49 = getelementptr inbounds nuw i8, ptr %2, i64 %44
  store i32 %46, ptr %49, align 4, !tbaa !5, !noalias !20
  %50 = add nuw nsw i64 %44, 4
  br label %51

51:                                               ; preds = %48, %43
  %52 = phi i64 [ %44, %43 ], [ %50, %48 ]
  %53 = getelementptr inbounds nuw i8, ptr %0, i64 24
  %54 = icmp eq i64 %52, 20
  br i1 %54, label %56, label %55

55:                                               ; preds = %51
  tail call void @__assert_fail(ptr noundef nonnull @.str.11, ptr noundef nonnull @.str.4, i32 noundef 117, ptr noundef nonnull @__PRETTY_FUNCTION__._Z4testI20cpp17_input_iteratorIPiS1_E16sentinel_wrapperIS2_E21cpp17_output_iteratorIS1_ELi6ELi5EEv4DataIXT2_EXT3_EE) #7
  unreachable

56:                                               ; preds = %51
  %57 = call i32 @bcmp(ptr noundef nonnull align 4 dereferenceable(20) %53, ptr noundef nonnull align 4 dereferenceable(20) %2, i64 20)
  %58 = icmp eq i32 %57, 0
  br i1 %58, label %60, label %59

59:                                               ; preds = %56
  tail call void @__assert_fail(ptr noundef nonnull @.str.12, ptr noundef nonnull @.str.4, i32 noundef 118, ptr noundef nonnull @__PRETTY_FUNCTION__._Z4testI20cpp17_input_iteratorIPiS1_E16sentinel_wrapperIS2_E21cpp17_output_iteratorIS1_ELi6ELi5EEv4DataIXT2_EXT3_EE) #7
  unreachable

60:                                               ; preds = %56
  call void @llvm.lifetime.end.p0(ptr nonnull %2) #6
  call void @llvm.lifetime.start.p0(ptr nonnull %3) #6
  br i1 %8, label %62, label %61

61:                                               ; preds = %60
  store i32 %7, ptr %3, align 4, !tbaa !5, !noalias !23
  br label %62

62:                                               ; preds = %61, %60
  %63 = phi ptr [ %3, %60 ], [ %6, %61 ]
  %64 = phi i64 [ 0, %60 ], [ 4, %61 ]
  br i1 %16, label %67, label %65

65:                                               ; preds = %62
  store i32 %15, ptr %63, align 4, !tbaa !5, !noalias !23
  %66 = add nuw nsw i64 %64, 4
  br label %67

67:                                               ; preds = %65, %62
  %68 = phi i64 [ %64, %62 ], [ %66, %65 ]
  br i1 %23, label %72, label %69

69:                                               ; preds = %67
  %70 = getelementptr inbounds nuw i8, ptr %3, i64 %68
  store i32 %22, ptr %70, align 4, !tbaa !5, !noalias !23
  %71 = add nuw nsw i64 %68, 4
  br label %72

72:                                               ; preds = %69, %67
  %73 = phi i64 [ %68, %67 ], [ %71, %69 ]
  br i1 %31, label %77, label %74

74:                                               ; preds = %72
  %75 = getelementptr inbounds nuw i8, ptr %3, i64 %73
  store i32 %30, ptr %75, align 4, !tbaa !5, !noalias !23
  %76 = add nuw nsw i64 %73, 4
  br label %77

77:                                               ; preds = %74, %72
  %78 = phi i64 [ %73, %72 ], [ %76, %74 ]
  br i1 %39, label %82, label %79

79:                                               ; preds = %77
  %80 = getelementptr inbounds nuw i8, ptr %3, i64 %78
  store i32 %38, ptr %80, align 4, !tbaa !5, !noalias !23
  %81 = add nuw nsw i64 %78, 4
  br label %82

82:                                               ; preds = %79, %77
  %83 = phi i64 [ %78, %77 ], [ %81, %79 ]
  br i1 %47, label %87, label %84

84:                                               ; preds = %82
  %85 = getelementptr inbounds nuw i8, ptr %3, i64 %83
  store i32 %46, ptr %85, align 4, !tbaa !5, !noalias !23
  %86 = add nuw nsw i64 %83, 4
  br label %87

87:                                               ; preds = %84, %82
  %88 = phi i64 [ %83, %82 ], [ %86, %84 ]
  %89 = icmp eq i64 %88, 20
  br i1 %89, label %91, label %90

90:                                               ; preds = %87
  tail call void @__assert_fail(ptr noundef nonnull @.str.11, ptr noundef nonnull @.str.4, i32 noundef 129, ptr noundef nonnull @__PRETTY_FUNCTION__._Z4testI20cpp17_input_iteratorIPiS1_E16sentinel_wrapperIS2_E21cpp17_output_iteratorIS1_ELi6ELi5EEv4DataIXT2_EXT3_EE) #7
  unreachable

91:                                               ; preds = %87
  %92 = call i32 @bcmp(ptr noundef nonnull align 4 dereferenceable(20) %53, ptr noundef nonnull align 4 dereferenceable(20) %3, i64 20)
  %93 = icmp eq i32 %92, 0
  br i1 %93, label %95, label %94

94:                                               ; preds = %91
  tail call void @__assert_fail(ptr noundef nonnull @.str.12, ptr noundef nonnull @.str.4, i32 noundef 130, ptr noundef nonnull @__PRETTY_FUNCTION__._Z4testI20cpp17_input_iteratorIPiS1_E16sentinel_wrapperIS2_E21cpp17_output_iteratorIS1_ELi6ELi5EEv4DataIXT2_EXT3_EE) #7
  unreachable

95:                                               ; preds = %91
  call void @llvm.lifetime.end.p0(ptr nonnull %3) #6
  ret void
}

; Function Attrs: mustprogress uwtable
define linkonce_odr dso_local void @_Z4testI20cpp17_input_iteratorIPiS1_E16sentinel_wrapperIS2_E21cpp17_output_iteratorIS1_ELi8ELi5EEv4DataIXT2_EXT3_EE(ptr noundef byval(%struct.Data.11) align 8 %0) local_unnamed_addr #1 comdat personality ptr @__gxx_personality_v0 {
  %2 = alloca %"struct.std::array.3", align 4
  %3 = alloca %"struct.std::array.3", align 4
  call void @llvm.lifetime.start.p0(ptr nonnull %2) #6
  %4 = getelementptr inbounds nuw i8, ptr %0, i64 52
  %5 = load i32, ptr %4, align 4, !tbaa !5, !noalias !28
  %6 = getelementptr inbounds nuw i8, ptr %3, i64 4
  %7 = load i32, ptr %0, align 8, !tbaa !5, !noalias !28
  %8 = icmp eq i32 %7, %5
  br i1 %8, label %11, label %9

9:                                                ; preds = %1
  %10 = getelementptr inbounds nuw i8, ptr %2, i64 4
  store i32 %7, ptr %2, align 4, !tbaa !5, !noalias !28
  br label %11

11:                                               ; preds = %9, %1
  %12 = phi ptr [ %2, %1 ], [ %10, %9 ]
  %13 = phi i64 [ 0, %1 ], [ 4, %9 ]
  %14 = getelementptr inbounds nuw i8, ptr %0, i64 4
  %15 = load i32, ptr %14, align 4, !tbaa !5, !noalias !28
  %16 = icmp eq i32 %15, %5
  br i1 %16, label %19, label %17

17:                                               ; preds = %11
  store i32 %15, ptr %12, align 4, !tbaa !5, !noalias !28
  %18 = add nuw nsw i64 %13, 4
  br label %19

19:                                               ; preds = %17, %11
  %20 = phi i64 [ %13, %11 ], [ %18, %17 ]
  %21 = getelementptr inbounds nuw i8, ptr %0, i64 8
  %22 = load i32, ptr %21, align 8, !tbaa !5, !noalias !28
  %23 = icmp eq i32 %22, %5
  br i1 %23, label %27, label %24

24:                                               ; preds = %19
  %25 = getelementptr inbounds nuw i8, ptr %2, i64 %20
  store i32 %22, ptr %25, align 4, !tbaa !5, !noalias !28
  %26 = add nuw nsw i64 %20, 4
  br label %27

27:                                               ; preds = %24, %19
  %28 = phi i64 [ %20, %19 ], [ %26, %24 ]
  %29 = getelementptr inbounds nuw i8, ptr %0, i64 12
  %30 = load i32, ptr %29, align 4, !tbaa !5, !noalias !28
  %31 = icmp eq i32 %30, %5
  br i1 %31, label %35, label %32

32:                                               ; preds = %27
  %33 = getelementptr inbounds nuw i8, ptr %2, i64 %28
  store i32 %30, ptr %33, align 4, !tbaa !5, !noalias !28
  %34 = add nuw nsw i64 %28, 4
  br label %35

35:                                               ; preds = %32, %27
  %36 = phi i64 [ %28, %27 ], [ %34, %32 ]
  %37 = getelementptr inbounds nuw i8, ptr %0, i64 16
  %38 = load i32, ptr %37, align 8, !tbaa !5, !noalias !28
  %39 = icmp eq i32 %38, %5
  br i1 %39, label %43, label %40

40:                                               ; preds = %35
  %41 = getelementptr inbounds nuw i8, ptr %2, i64 %36
  store i32 %38, ptr %41, align 4, !tbaa !5, !noalias !28
  %42 = add nuw nsw i64 %36, 4
  br label %43

43:                                               ; preds = %40, %35
  %44 = phi i64 [ %36, %35 ], [ %42, %40 ]
  %45 = getelementptr inbounds nuw i8, ptr %0, i64 20
  %46 = load i32, ptr %45, align 4, !tbaa !5, !noalias !28
  %47 = icmp eq i32 %46, %5
  br i1 %47, label %51, label %48

48:                                               ; preds = %43
  %49 = getelementptr inbounds nuw i8, ptr %2, i64 %44
  store i32 %46, ptr %49, align 4, !tbaa !5, !noalias !28
  %50 = add nuw nsw i64 %44, 4
  br label %51

51:                                               ; preds = %48, %43
  %52 = phi i64 [ %44, %43 ], [ %50, %48 ]
  %53 = getelementptr inbounds nuw i8, ptr %0, i64 24
  %54 = load i32, ptr %53, align 8, !tbaa !5, !noalias !28
  %55 = icmp eq i32 %54, %5
  br i1 %55, label %59, label %56

56:                                               ; preds = %51
  %57 = getelementptr inbounds nuw i8, ptr %2, i64 %52
  store i32 %54, ptr %57, align 4, !tbaa !5, !noalias !28
  %58 = add nuw nsw i64 %52, 4
  br label %59

59:                                               ; preds = %56, %51
  %60 = phi i64 [ %52, %51 ], [ %58, %56 ]
  %61 = getelementptr inbounds nuw i8, ptr %0, i64 28
  %62 = load i32, ptr %61, align 4, !tbaa !5, !noalias !28
  %63 = icmp eq i32 %62, %5
  br i1 %63, label %67, label %64

64:                                               ; preds = %59
  %65 = getelementptr inbounds nuw i8, ptr %2, i64 %60
  store i32 %62, ptr %65, align 4, !tbaa !5, !noalias !28
  %66 = add nuw nsw i64 %60, 4
  br label %67

67:                                               ; preds = %64, %59
  %68 = phi i64 [ %60, %59 ], [ %66, %64 ]
  %69 = getelementptr inbounds nuw i8, ptr %0, i64 32
  %70 = icmp eq i64 %68, 20
  br i1 %70, label %72, label %71

71:                                               ; preds = %67
  tail call void @__assert_fail(ptr noundef nonnull @.str.11, ptr noundef nonnull @.str.4, i32 noundef 117, ptr noundef nonnull @__PRETTY_FUNCTION__._Z4testI20cpp17_input_iteratorIPiS1_E16sentinel_wrapperIS2_E21cpp17_output_iteratorIS1_ELi8ELi5EEv4DataIXT2_EXT3_EE) #7
  unreachable

72:                                               ; preds = %67
  %73 = call i32 @bcmp(ptr noundef nonnull align 4 dereferenceable(20) %69, ptr noundef nonnull align 4 dereferenceable(20) %2, i64 20)
  %74 = icmp eq i32 %73, 0
  br i1 %74, label %76, label %75

75:                                               ; preds = %72
  tail call void @__assert_fail(ptr noundef nonnull @.str.12, ptr noundef nonnull @.str.4, i32 noundef 118, ptr noundef nonnull @__PRETTY_FUNCTION__._Z4testI20cpp17_input_iteratorIPiS1_E16sentinel_wrapperIS2_E21cpp17_output_iteratorIS1_ELi8ELi5EEv4DataIXT2_EXT3_EE) #7
  unreachable

76:                                               ; preds = %72
  call void @llvm.lifetime.end.p0(ptr nonnull %2) #6
  call void @llvm.lifetime.start.p0(ptr nonnull %3) #6
  br i1 %8, label %78, label %77

77:                                               ; preds = %76
  store i32 %7, ptr %3, align 4, !tbaa !5, !noalias !31
  br label %78

78:                                               ; preds = %77, %76
  %79 = phi ptr [ %3, %76 ], [ %6, %77 ]
  %80 = phi i64 [ 0, %76 ], [ 4, %77 ]
  br i1 %16, label %83, label %81

81:                                               ; preds = %78
  store i32 %15, ptr %79, align 4, !tbaa !5, !noalias !31
  %82 = add nuw nsw i64 %80, 4
  br label %83

83:                                               ; preds = %81, %78
  %84 = phi i64 [ %80, %78 ], [ %82, %81 ]
  br i1 %23, label %88, label %85

85:                                               ; preds = %83
  %86 = getelementptr inbounds nuw i8, ptr %3, i64 %84
  store i32 %22, ptr %86, align 4, !tbaa !5, !noalias !31
  %87 = add nuw nsw i64 %84, 4
  br label %88

88:                                               ; preds = %85, %83
  %89 = phi i64 [ %84, %83 ], [ %87, %85 ]
  br i1 %31, label %93, label %90

90:                                               ; preds = %88
  %91 = getelementptr inbounds nuw i8, ptr %3, i64 %89
  store i32 %30, ptr %91, align 4, !tbaa !5, !noalias !31
  %92 = add nuw nsw i64 %89, 4
  br label %93

93:                                               ; preds = %90, %88
  %94 = phi i64 [ %89, %88 ], [ %92, %90 ]
  br i1 %39, label %98, label %95

95:                                               ; preds = %93
  %96 = getelementptr inbounds nuw i8, ptr %3, i64 %94
  store i32 %38, ptr %96, align 4, !tbaa !5, !noalias !31
  %97 = add nuw nsw i64 %94, 4
  br label %98

98:                                               ; preds = %95, %93
  %99 = phi i64 [ %94, %93 ], [ %97, %95 ]
  br i1 %47, label %103, label %100

100:                                              ; preds = %98
  %101 = getelementptr inbounds nuw i8, ptr %3, i64 %99
  store i32 %46, ptr %101, align 4, !tbaa !5, !noalias !31
  %102 = add nuw nsw i64 %99, 4
  br label %103

103:                                              ; preds = %100, %98
  %104 = phi i64 [ %99, %98 ], [ %102, %100 ]
  br i1 %55, label %108, label %105

105:                                              ; preds = %103
  %106 = getelementptr inbounds nuw i8, ptr %3, i64 %104
  store i32 %54, ptr %106, align 4, !tbaa !5, !noalias !31
  %107 = add nuw nsw i64 %104, 4
  br label %108

108:                                              ; preds = %105, %103
  %109 = phi i64 [ %104, %103 ], [ %107, %105 ]
  br i1 %63, label %113, label %110

110:                                              ; preds = %108
  %111 = getelementptr inbounds nuw i8, ptr %3, i64 %109
  store i32 %62, ptr %111, align 4, !tbaa !5, !noalias !31
  %112 = add nuw nsw i64 %109, 4
  br label %113

113:                                              ; preds = %110, %108
  %114 = phi i64 [ %109, %108 ], [ %112, %110 ]
  %115 = icmp eq i64 %114, 20
  br i1 %115, label %117, label %116

116:                                              ; preds = %113
  tail call void @__assert_fail(ptr noundef nonnull @.str.11, ptr noundef nonnull @.str.4, i32 noundef 129, ptr noundef nonnull @__PRETTY_FUNCTION__._Z4testI20cpp17_input_iteratorIPiS1_E16sentinel_wrapperIS2_E21cpp17_output_iteratorIS1_ELi8ELi5EEv4DataIXT2_EXT3_EE) #7
  unreachable

117:                                              ; preds = %113
  %118 = call i32 @bcmp(ptr noundef nonnull align 4 dereferenceable(20) %69, ptr noundef nonnull align 4 dereferenceable(20) %3, i64 20)
  %119 = icmp eq i32 %118, 0
  br i1 %119, label %121, label %120

120:                                              ; preds = %117
  tail call void @__assert_fail(ptr noundef nonnull @.str.12, ptr noundef nonnull @.str.4, i32 noundef 130, ptr noundef nonnull @__PRETTY_FUNCTION__._Z4testI20cpp17_input_iteratorIPiS1_E16sentinel_wrapperIS2_E21cpp17_output_iteratorIS1_ELi8ELi5EEv4DataIXT2_EXT3_EE) #7
  unreachable

121:                                              ; preds = %117
  call void @llvm.lifetime.end.p0(ptr nonnull %3) #6
  ret void
}

declare i32 @__gxx_personality_v0(...)

; Function Attrs: mustprogress uwtable
define linkonce_odr dso_local void @_Z4testI20cpp17_input_iteratorIPiS1_E16sentinel_wrapperIS2_E16forward_iteratorIS1_ELi6ELi5EEv4DataIXT2_EXT3_EE(ptr noundef byval(%struct.Data) align 8 %0) local_unnamed_addr #1 comdat personality ptr @__gxx_personality_v0 {
  %2 = alloca %"struct.std::array.3", align 4
  %3 = alloca %"struct.std::array.3", align 4
  call void @llvm.lifetime.start.p0(ptr nonnull %2) #6
  %4 = getelementptr inbounds nuw i8, ptr %0, i64 44
  %5 = load i32, ptr %4, align 4, !tbaa !5, !noalias !36
  %6 = getelementptr inbounds nuw i8, ptr %3, i64 4
  %7 = load i32, ptr %0, align 8, !tbaa !5, !noalias !36
  %8 = icmp eq i32 %7, %5
  br i1 %8, label %11, label %9

9:                                                ; preds = %1
  %10 = getelementptr inbounds nuw i8, ptr %2, i64 4
  store i32 %7, ptr %2, align 4, !tbaa !5, !noalias !36
  br label %11

11:                                               ; preds = %9, %1
  %12 = phi ptr [ %2, %1 ], [ %10, %9 ]
  %13 = phi i64 [ 0, %1 ], [ 4, %9 ]
  %14 = getelementptr inbounds nuw i8, ptr %0, i64 4
  %15 = load i32, ptr %14, align 4, !tbaa !5, !noalias !36
  %16 = icmp eq i32 %15, %5
  br i1 %16, label %19, label %17

17:                                               ; preds = %11
  store i32 %15, ptr %12, align 4, !tbaa !5, !noalias !36
  %18 = add nuw nsw i64 %13, 4
  br label %19

19:                                               ; preds = %17, %11
  %20 = phi i64 [ %13, %11 ], [ %18, %17 ]
  %21 = getelementptr inbounds nuw i8, ptr %0, i64 8
  %22 = load i32, ptr %21, align 8, !tbaa !5, !noalias !36
  %23 = icmp eq i32 %22, %5
  br i1 %23, label %27, label %24

24:                                               ; preds = %19
  %25 = getelementptr inbounds nuw i8, ptr %2, i64 %20
  store i32 %22, ptr %25, align 4, !tbaa !5, !noalias !36
  %26 = add nuw nsw i64 %20, 4
  br label %27

27:                                               ; preds = %24, %19
  %28 = phi i64 [ %20, %19 ], [ %26, %24 ]
  %29 = getelementptr inbounds nuw i8, ptr %0, i64 12
  %30 = load i32, ptr %29, align 4, !tbaa !5, !noalias !36
  %31 = icmp eq i32 %30, %5
  br i1 %31, label %35, label %32

32:                                               ; preds = %27
  %33 = getelementptr inbounds nuw i8, ptr %2, i64 %28
  store i32 %30, ptr %33, align 4, !tbaa !5, !noalias !36
  %34 = add nuw nsw i64 %28, 4
  br label %35

35:                                               ; preds = %32, %27
  %36 = phi i64 [ %28, %27 ], [ %34, %32 ]
  %37 = getelementptr inbounds nuw i8, ptr %0, i64 16
  %38 = load i32, ptr %37, align 8, !tbaa !5, !noalias !36
  %39 = icmp eq i32 %38, %5
  br i1 %39, label %43, label %40

40:                                               ; preds = %35
  %41 = getelementptr inbounds nuw i8, ptr %2, i64 %36
  store i32 %38, ptr %41, align 4, !tbaa !5, !noalias !36
  %42 = add nuw nsw i64 %36, 4
  br label %43

43:                                               ; preds = %40, %35
  %44 = phi i64 [ %36, %35 ], [ %42, %40 ]
  %45 = getelementptr inbounds nuw i8, ptr %0, i64 20
  %46 = load i32, ptr %45, align 4, !tbaa !5, !noalias !36
  %47 = icmp eq i32 %46, %5
  br i1 %47, label %51, label %48

48:                                               ; preds = %43
  %49 = getelementptr inbounds nuw i8, ptr %2, i64 %44
  store i32 %46, ptr %49, align 4, !tbaa !5, !noalias !36
  %50 = add nuw nsw i64 %44, 4
  br label %51

51:                                               ; preds = %48, %43
  %52 = phi i64 [ %44, %43 ], [ %50, %48 ]
  %53 = getelementptr inbounds nuw i8, ptr %0, i64 24
  %54 = icmp eq i64 %52, 20
  br i1 %54, label %56, label %55

55:                                               ; preds = %51
  tail call void @__assert_fail(ptr noundef nonnull @.str.11, ptr noundef nonnull @.str.4, i32 noundef 117, ptr noundef nonnull @__PRETTY_FUNCTION__._Z4testI20cpp17_input_iteratorIPiS1_E16sentinel_wrapperIS2_E16forward_iteratorIS1_ELi6ELi5EEv4DataIXT2_EXT3_EE) #7
  unreachable

56:                                               ; preds = %51
  %57 = call i32 @bcmp(ptr noundef nonnull align 4 dereferenceable(20) %53, ptr noundef nonnull align 4 dereferenceable(20) %2, i64 20)
  %58 = icmp eq i32 %57, 0
  br i1 %58, label %60, label %59

59:                                               ; preds = %56
  tail call void @__assert_fail(ptr noundef nonnull @.str.12, ptr noundef nonnull @.str.4, i32 noundef 118, ptr noundef nonnull @__PRETTY_FUNCTION__._Z4testI20cpp17_input_iteratorIPiS1_E16sentinel_wrapperIS2_E16forward_iteratorIS1_ELi6ELi5EEv4DataIXT2_EXT3_EE) #7
  unreachable

60:                                               ; preds = %56
  call void @llvm.lifetime.end.p0(ptr nonnull %2) #6
  call void @llvm.lifetime.start.p0(ptr nonnull %3) #6
  br i1 %8, label %62, label %61

61:                                               ; preds = %60
  store i32 %7, ptr %3, align 4, !tbaa !5, !noalias !39
  br label %62

62:                                               ; preds = %61, %60
  %63 = phi ptr [ %3, %60 ], [ %6, %61 ]
  %64 = phi i64 [ 0, %60 ], [ 4, %61 ]
  br i1 %16, label %67, label %65

65:                                               ; preds = %62
  store i32 %15, ptr %63, align 4, !tbaa !5, !noalias !39
  %66 = add nuw nsw i64 %64, 4
  br label %67

67:                                               ; preds = %65, %62
  %68 = phi i64 [ %64, %62 ], [ %66, %65 ]
  br i1 %23, label %72, label %69

69:                                               ; preds = %67
  %70 = getelementptr inbounds nuw i8, ptr %3, i64 %68
  store i32 %22, ptr %70, align 4, !tbaa !5, !noalias !39
  %71 = add nuw nsw i64 %68, 4
  br label %72

72:                                               ; preds = %69, %67
  %73 = phi i64 [ %68, %67 ], [ %71, %69 ]
  br i1 %31, label %77, label %74

74:                                               ; preds = %72
  %75 = getelementptr inbounds nuw i8, ptr %3, i64 %73
  store i32 %30, ptr %75, align 4, !tbaa !5, !noalias !39
  %76 = add nuw nsw i64 %73, 4
  br label %77

77:                                               ; preds = %74, %72
  %78 = phi i64 [ %73, %72 ], [ %76, %74 ]
  br i1 %39, label %82, label %79

79:                                               ; preds = %77
  %80 = getelementptr inbounds nuw i8, ptr %3, i64 %78
  store i32 %38, ptr %80, align 4, !tbaa !5, !noalias !39
  %81 = add nuw nsw i64 %78, 4
  br label %82

82:                                               ; preds = %79, %77
  %83 = phi i64 [ %78, %77 ], [ %81, %79 ]
  br i1 %47, label %87, label %84

84:                                               ; preds = %82
  %85 = getelementptr inbounds nuw i8, ptr %3, i64 %83
  store i32 %46, ptr %85, align 4, !tbaa !5, !noalias !39
  %86 = add nuw nsw i64 %83, 4
  br label %87

87:                                               ; preds = %84, %82
  %88 = phi i64 [ %83, %82 ], [ %86, %84 ]
  %89 = icmp eq i64 %88, 20
  br i1 %89, label %91, label %90

90:                                               ; preds = %87
  tail call void @__assert_fail(ptr noundef nonnull @.str.11, ptr noundef nonnull @.str.4, i32 noundef 129, ptr noundef nonnull @__PRETTY_FUNCTION__._Z4testI20cpp17_input_iteratorIPiS1_E16sentinel_wrapperIS2_E16forward_iteratorIS1_ELi6ELi5EEv4DataIXT2_EXT3_EE) #7
  unreachable

91:                                               ; preds = %87
  %92 = call i32 @bcmp(ptr noundef nonnull align 4 dereferenceable(20) %53, ptr noundef nonnull align 4 dereferenceable(20) %3, i64 20)
  %93 = icmp eq i32 %92, 0
  br i1 %93, label %95, label %94

94:                                               ; preds = %91
  tail call void @__assert_fail(ptr noundef nonnull @.str.12, ptr noundef nonnull @.str.4, i32 noundef 130, ptr noundef nonnull @__PRETTY_FUNCTION__._Z4testI20cpp17_input_iteratorIPiS1_E16sentinel_wrapperIS2_E16forward_iteratorIS1_ELi6ELi5EEv4DataIXT2_EXT3_EE) #7
  unreachable

95:                                               ; preds = %91
  call void @llvm.lifetime.end.p0(ptr nonnull %3) #6
  ret void
}

; Function Attrs: mustprogress uwtable
define linkonce_odr dso_local void @_Z4testI20cpp17_input_iteratorIPiS1_E16sentinel_wrapperIS2_E16forward_iteratorIS1_ELi8ELi5EEv4DataIXT2_EXT3_EE(ptr noundef byval(%struct.Data.11) align 8 %0) local_unnamed_addr #1 comdat personality ptr @__gxx_personality_v0 {
  %2 = alloca %"struct.std::array.3", align 4
  %3 = alloca %"struct.std::array.3", align 4
  call void @llvm.lifetime.start.p0(ptr nonnull %2) #6
  %4 = getelementptr inbounds nuw i8, ptr %0, i64 52
  %5 = load i32, ptr %4, align 4, !tbaa !5, !noalias !44
  %6 = getelementptr inbounds nuw i8, ptr %3, i64 4
  %7 = load i32, ptr %0, align 8, !tbaa !5, !noalias !44
  %8 = icmp eq i32 %7, %5
  br i1 %8, label %11, label %9

9:                                                ; preds = %1
  %10 = getelementptr inbounds nuw i8, ptr %2, i64 4
  store i32 %7, ptr %2, align 4, !tbaa !5, !noalias !44
  br label %11

11:                                               ; preds = %9, %1
  %12 = phi ptr [ %2, %1 ], [ %10, %9 ]
  %13 = phi i64 [ 0, %1 ], [ 4, %9 ]
  %14 = getelementptr inbounds nuw i8, ptr %0, i64 4
  %15 = load i32, ptr %14, align 4, !tbaa !5, !noalias !44
  %16 = icmp eq i32 %15, %5
  br i1 %16, label %19, label %17

17:                                               ; preds = %11
  store i32 %15, ptr %12, align 4, !tbaa !5, !noalias !44
  %18 = add nuw nsw i64 %13, 4
  br label %19

19:                                               ; preds = %17, %11
  %20 = phi i64 [ %13, %11 ], [ %18, %17 ]
  %21 = getelementptr inbounds nuw i8, ptr %0, i64 8
  %22 = load i32, ptr %21, align 8, !tbaa !5, !noalias !44
  %23 = icmp eq i32 %22, %5
  br i1 %23, label %27, label %24

24:                                               ; preds = %19
  %25 = getelementptr inbounds nuw i8, ptr %2, i64 %20
  store i32 %22, ptr %25, align 4, !tbaa !5, !noalias !44
  %26 = add nuw nsw i64 %20, 4
  br label %27

27:                                               ; preds = %24, %19
  %28 = phi i64 [ %20, %19 ], [ %26, %24 ]
  %29 = getelementptr inbounds nuw i8, ptr %0, i64 12
  %30 = load i32, ptr %29, align 4, !tbaa !5, !noalias !44
  %31 = icmp eq i32 %30, %5
  br i1 %31, label %35, label %32

32:                                               ; preds = %27
  %33 = getelementptr inbounds nuw i8, ptr %2, i64 %28
  store i32 %30, ptr %33, align 4, !tbaa !5, !noalias !44
  %34 = add nuw nsw i64 %28, 4
  br label %35

35:                                               ; preds = %32, %27
  %36 = phi i64 [ %28, %27 ], [ %34, %32 ]
  %37 = getelementptr inbounds nuw i8, ptr %0, i64 16
  %38 = load i32, ptr %37, align 8, !tbaa !5, !noalias !44
  %39 = icmp eq i32 %38, %5
  br i1 %39, label %43, label %40

40:                                               ; preds = %35
  %41 = getelementptr inbounds nuw i8, ptr %2, i64 %36
  store i32 %38, ptr %41, align 4, !tbaa !5, !noalias !44
  %42 = add nuw nsw i64 %36, 4
  br label %43

43:                                               ; preds = %40, %35
  %44 = phi i64 [ %36, %35 ], [ %42, %40 ]
  %45 = getelementptr inbounds nuw i8, ptr %0, i64 20
  %46 = load i32, ptr %45, align 4, !tbaa !5, !noalias !44
  %47 = icmp eq i32 %46, %5
  br i1 %47, label %51, label %48

48:                                               ; preds = %43
  %49 = getelementptr inbounds nuw i8, ptr %2, i64 %44
  store i32 %46, ptr %49, align 4, !tbaa !5, !noalias !44
  %50 = add nuw nsw i64 %44, 4
  br label %51

51:                                               ; preds = %48, %43
  %52 = phi i64 [ %44, %43 ], [ %50, %48 ]
  %53 = getelementptr inbounds nuw i8, ptr %0, i64 24
  %54 = load i32, ptr %53, align 8, !tbaa !5, !noalias !44
  %55 = icmp eq i32 %54, %5
  br i1 %55, label %59, label %56

56:                                               ; preds = %51
  %57 = getelementptr inbounds nuw i8, ptr %2, i64 %52
  store i32 %54, ptr %57, align 4, !tbaa !5, !noalias !44
  %58 = add nuw nsw i64 %52, 4
  br label %59

59:                                               ; preds = %56, %51
  %60 = phi i64 [ %52, %51 ], [ %58, %56 ]
  %61 = getelementptr inbounds nuw i8, ptr %0, i64 28
  %62 = load i32, ptr %61, align 4, !tbaa !5, !noalias !44
  %63 = icmp eq i32 %62, %5
  br i1 %63, label %67, label %64

64:                                               ; preds = %59
  %65 = getelementptr inbounds nuw i8, ptr %2, i64 %60
  store i32 %62, ptr %65, align 4, !tbaa !5, !noalias !44
  %66 = add nuw nsw i64 %60, 4
  br label %67

67:                                               ; preds = %64, %59
  %68 = phi i64 [ %60, %59 ], [ %66, %64 ]
  %69 = getelementptr inbounds nuw i8, ptr %0, i64 32
  %70 = icmp eq i64 %68, 20
  br i1 %70, label %72, label %71

71:                                               ; preds = %67
  tail call void @__assert_fail(ptr noundef nonnull @.str.11, ptr noundef nonnull @.str.4, i32 noundef 117, ptr noundef nonnull @__PRETTY_FUNCTION__._Z4testI20cpp17_input_iteratorIPiS1_E16sentinel_wrapperIS2_E16forward_iteratorIS1_ELi8ELi5EEv4DataIXT2_EXT3_EE) #7
  unreachable

72:                                               ; preds = %67
  %73 = call i32 @bcmp(ptr noundef nonnull align 4 dereferenceable(20) %69, ptr noundef nonnull align 4 dereferenceable(20) %2, i64 20)
  %74 = icmp eq i32 %73, 0
  br i1 %74, label %76, label %75

75:                                               ; preds = %72
  tail call void @__assert_fail(ptr noundef nonnull @.str.12, ptr noundef nonnull @.str.4, i32 noundef 118, ptr noundef nonnull @__PRETTY_FUNCTION__._Z4testI20cpp17_input_iteratorIPiS1_E16sentinel_wrapperIS2_E16forward_iteratorIS1_ELi8ELi5EEv4DataIXT2_EXT3_EE) #7
  unreachable

76:                                               ; preds = %72
  call void @llvm.lifetime.end.p0(ptr nonnull %2) #6
  call void @llvm.lifetime.start.p0(ptr nonnull %3) #6
  br i1 %8, label %78, label %77

77:                                               ; preds = %76
  store i32 %7, ptr %3, align 4, !tbaa !5, !noalias !47
  br label %78

78:                                               ; preds = %77, %76
  %79 = phi ptr [ %3, %76 ], [ %6, %77 ]
  %80 = phi i64 [ 0, %76 ], [ 4, %77 ]
  br i1 %16, label %83, label %81

81:                                               ; preds = %78
  store i32 %15, ptr %79, align 4, !tbaa !5, !noalias !47
  %82 = add nuw nsw i64 %80, 4
  br label %83

83:                                               ; preds = %81, %78
  %84 = phi i64 [ %80, %78 ], [ %82, %81 ]
  br i1 %23, label %88, label %85

85:                                               ; preds = %83
  %86 = getelementptr inbounds nuw i8, ptr %3, i64 %84
  store i32 %22, ptr %86, align 4, !tbaa !5, !noalias !47
  %87 = add nuw nsw i64 %84, 4
  br label %88

88:                                               ; preds = %85, %83
  %89 = phi i64 [ %84, %83 ], [ %87, %85 ]
  br i1 %31, label %93, label %90

90:                                               ; preds = %88
  %91 = getelementptr inbounds nuw i8, ptr %3, i64 %89
  store i32 %30, ptr %91, align 4, !tbaa !5, !noalias !47
  %92 = add nuw nsw i64 %89, 4
  br label %93

93:                                               ; preds = %90, %88
  %94 = phi i64 [ %89, %88 ], [ %92, %90 ]
  br i1 %39, label %98, label %95

95:                                               ; preds = %93
  %96 = getelementptr inbounds nuw i8, ptr %3, i64 %94
  store i32 %38, ptr %96, align 4, !tbaa !5, !noalias !47
  %97 = add nuw nsw i64 %94, 4
  br label %98

98:                                               ; preds = %95, %93
  %99 = phi i64 [ %94, %93 ], [ %97, %95 ]
  br i1 %47, label %103, label %100

100:                                              ; preds = %98
  %101 = getelementptr inbounds nuw i8, ptr %3, i64 %99
  store i32 %46, ptr %101, align 4, !tbaa !5, !noalias !47
  %102 = add nuw nsw i64 %99, 4
  br label %103

103:                                              ; preds = %100, %98
  %104 = phi i64 [ %99, %98 ], [ %102, %100 ]
  br i1 %55, label %108, label %105

105:                                              ; preds = %103
  %106 = getelementptr inbounds nuw i8, ptr %3, i64 %104
  store i32 %54, ptr %106, align 4, !tbaa !5, !noalias !47
  %107 = add nuw nsw i64 %104, 4
  br label %108

108:                                              ; preds = %105, %103
  %109 = phi i64 [ %104, %103 ], [ %107, %105 ]
  br i1 %63, label %113, label %110

110:                                              ; preds = %108
  %111 = getelementptr inbounds nuw i8, ptr %3, i64 %109
  store i32 %62, ptr %111, align 4, !tbaa !5, !noalias !47
  %112 = add nuw nsw i64 %109, 4
  br label %113

113:                                              ; preds = %110, %108
  %114 = phi i64 [ %109, %108 ], [ %112, %110 ]
  %115 = icmp eq i64 %114, 20
  br i1 %115, label %117, label %116

116:                                              ; preds = %113
  tail call void @__assert_fail(ptr noundef nonnull @.str.11, ptr noundef nonnull @.str.4, i32 noundef 129, ptr noundef nonnull @__PRETTY_FUNCTION__._Z4testI20cpp17_input_iteratorIPiS1_E16sentinel_wrapperIS2_E16forward_iteratorIS1_ELi8ELi5EEv4DataIXT2_EXT3_EE) #7
  unreachable

117:                                              ; preds = %113
  %118 = call i32 @bcmp(ptr noundef nonnull align 4 dereferenceable(20) %69, ptr noundef nonnull align 4 dereferenceable(20) %3, i64 20)
  %119 = icmp eq i32 %118, 0
  br i1 %119, label %121, label %120

120:                                              ; preds = %117
  tail call void @__assert_fail(ptr noundef nonnull @.str.12, ptr noundef nonnull @.str.4, i32 noundef 130, ptr noundef nonnull @__PRETTY_FUNCTION__._Z4testI20cpp17_input_iteratorIPiS1_E16sentinel_wrapperIS2_E16forward_iteratorIS1_ELi8ELi5EEv4DataIXT2_EXT3_EE) #7
  unreachable

121:                                              ; preds = %117
  call void @llvm.lifetime.end.p0(ptr nonnull %3) #6
  ret void
}

; Function Attrs: mustprogress uwtable
define linkonce_odr dso_local void @_Z4testI20cpp17_input_iteratorIPiS1_E16sentinel_wrapperIS2_E22bidirectional_iteratorIS1_ELi6ELi5EEv4DataIXT2_EXT3_EE(ptr noundef byval(%struct.Data) align 8 %0) local_unnamed_addr #1 comdat personality ptr @__gxx_personality_v0 {
  %2 = alloca %"struct.std::array.3", align 4
  %3 = alloca %"struct.std::array.3", align 4
  call void @llvm.lifetime.start.p0(ptr nonnull %2) #6
  %4 = getelementptr inbounds nuw i8, ptr %0, i64 44
  %5 = load i32, ptr %4, align 4, !tbaa !5, !noalias !52
  %6 = getelementptr inbounds nuw i8, ptr %3, i64 4
  %7 = load i32, ptr %0, align 8, !tbaa !5, !noalias !52
  %8 = icmp eq i32 %7, %5
  br i1 %8, label %11, label %9

9:                                                ; preds = %1
  %10 = getelementptr inbounds nuw i8, ptr %2, i64 4
  store i32 %7, ptr %2, align 4, !tbaa !5, !noalias !52
  br label %11

11:                                               ; preds = %9, %1
  %12 = phi ptr [ %2, %1 ], [ %10, %9 ]
  %13 = phi i64 [ 0, %1 ], [ 4, %9 ]
  %14 = getelementptr inbounds nuw i8, ptr %0, i64 4
  %15 = load i32, ptr %14, align 4, !tbaa !5, !noalias !52
  %16 = icmp eq i32 %15, %5
  br i1 %16, label %19, label %17

17:                                               ; preds = %11
  store i32 %15, ptr %12, align 4, !tbaa !5, !noalias !52
  %18 = add nuw nsw i64 %13, 4
  br label %19

19:                                               ; preds = %17, %11
  %20 = phi i64 [ %13, %11 ], [ %18, %17 ]
  %21 = getelementptr inbounds nuw i8, ptr %0, i64 8
  %22 = load i32, ptr %21, align 8, !tbaa !5, !noalias !52
  %23 = icmp eq i32 %22, %5
  br i1 %23, label %27, label %24

24:                                               ; preds = %19
  %25 = getelementptr inbounds nuw i8, ptr %2, i64 %20
  store i32 %22, ptr %25, align 4, !tbaa !5, !noalias !52
  %26 = add nuw nsw i64 %20, 4
  br label %27

27:                                               ; preds = %24, %19
  %28 = phi i64 [ %20, %19 ], [ %26, %24 ]
  %29 = getelementptr inbounds nuw i8, ptr %0, i64 12
  %30 = load i32, ptr %29, align 4, !tbaa !5, !noalias !52
  %31 = icmp eq i32 %30, %5
  br i1 %31, label %35, label %32

32:                                               ; preds = %27
  %33 = getelementptr inbounds nuw i8, ptr %2, i64 %28
  store i32 %30, ptr %33, align 4, !tbaa !5, !noalias !52
  %34 = add nuw nsw i64 %28, 4
  br label %35

35:                                               ; preds = %32, %27
  %36 = phi i64 [ %28, %27 ], [ %34, %32 ]
  %37 = getelementptr inbounds nuw i8, ptr %0, i64 16
  %38 = load i32, ptr %37, align 8, !tbaa !5, !noalias !52
  %39 = icmp eq i32 %38, %5
  br i1 %39, label %43, label %40

40:                                               ; preds = %35
  %41 = getelementptr inbounds nuw i8, ptr %2, i64 %36
  store i32 %38, ptr %41, align 4, !tbaa !5, !noalias !52
  %42 = add nuw nsw i64 %36, 4
  br label %43

43:                                               ; preds = %40, %35
  %44 = phi i64 [ %36, %35 ], [ %42, %40 ]
  %45 = getelementptr inbounds nuw i8, ptr %0, i64 20
  %46 = load i32, ptr %45, align 4, !tbaa !5, !noalias !52
  %47 = icmp eq i32 %46, %5
  br i1 %47, label %51, label %48

48:                                               ; preds = %43
  %49 = getelementptr inbounds nuw i8, ptr %2, i64 %44
  store i32 %46, ptr %49, align 4, !tbaa !5, !noalias !52
  %50 = add nuw nsw i64 %44, 4
  br label %51

51:                                               ; preds = %48, %43
  %52 = phi i64 [ %44, %43 ], [ %50, %48 ]
  %53 = getelementptr inbounds nuw i8, ptr %0, i64 24
  %54 = icmp eq i64 %52, 20
  br i1 %54, label %56, label %55

55:                                               ; preds = %51
  tail call void @__assert_fail(ptr noundef nonnull @.str.11, ptr noundef nonnull @.str.4, i32 noundef 117, ptr noundef nonnull @__PRETTY_FUNCTION__._Z4testI20cpp17_input_iteratorIPiS1_E16sentinel_wrapperIS2_E22bidirectional_iteratorIS1_ELi6ELi5EEv4DataIXT2_EXT3_EE) #7
  unreachable

56:                                               ; preds = %51
  %57 = call i32 @bcmp(ptr noundef nonnull align 4 dereferenceable(20) %53, ptr noundef nonnull align 4 dereferenceable(20) %2, i64 20)
  %58 = icmp eq i32 %57, 0
  br i1 %58, label %60, label %59

59:                                               ; preds = %56
  tail call void @__assert_fail(ptr noundef nonnull @.str.12, ptr noundef nonnull @.str.4, i32 noundef 118, ptr noundef nonnull @__PRETTY_FUNCTION__._Z4testI20cpp17_input_iteratorIPiS1_E16sentinel_wrapperIS2_E22bidirectional_iteratorIS1_ELi6ELi5EEv4DataIXT2_EXT3_EE) #7
  unreachable

60:                                               ; preds = %56
  call void @llvm.lifetime.end.p0(ptr nonnull %2) #6
  call void @llvm.lifetime.start.p0(ptr nonnull %3) #6
  br i1 %8, label %62, label %61

61:                                               ; preds = %60
  store i32 %7, ptr %3, align 4, !tbaa !5, !noalias !55
  br label %62

62:                                               ; preds = %61, %60
  %63 = phi ptr [ %3, %60 ], [ %6, %61 ]
  %64 = phi i64 [ 0, %60 ], [ 4, %61 ]
  br i1 %16, label %67, label %65

65:                                               ; preds = %62
  store i32 %15, ptr %63, align 4, !tbaa !5, !noalias !55
  %66 = add nuw nsw i64 %64, 4
  br label %67

67:                                               ; preds = %65, %62
  %68 = phi i64 [ %64, %62 ], [ %66, %65 ]
  br i1 %23, label %72, label %69

69:                                               ; preds = %67
  %70 = getelementptr inbounds nuw i8, ptr %3, i64 %68
  store i32 %22, ptr %70, align 4, !tbaa !5, !noalias !55
  %71 = add nuw nsw i64 %68, 4
  br label %72

72:                                               ; preds = %69, %67
  %73 = phi i64 [ %68, %67 ], [ %71, %69 ]
  br i1 %31, label %77, label %74

74:                                               ; preds = %72
  %75 = getelementptr inbounds nuw i8, ptr %3, i64 %73
  store i32 %30, ptr %75, align 4, !tbaa !5, !noalias !55
  %76 = add nuw nsw i64 %73, 4
  br label %77

77:                                               ; preds = %74, %72
  %78 = phi i64 [ %73, %72 ], [ %76, %74 ]
  br i1 %39, label %82, label %79

79:                                               ; preds = %77
  %80 = getelementptr inbounds nuw i8, ptr %3, i64 %78
  store i32 %38, ptr %80, align 4, !tbaa !5, !noalias !55
  %81 = add nuw nsw i64 %78, 4
  br label %82

82:                                               ; preds = %79, %77
  %83 = phi i64 [ %78, %77 ], [ %81, %79 ]
  br i1 %47, label %87, label %84

84:                                               ; preds = %82
  %85 = getelementptr inbounds nuw i8, ptr %3, i64 %83
  store i32 %46, ptr %85, align 4, !tbaa !5, !noalias !55
  %86 = add nuw nsw i64 %83, 4
  br label %87

87:                                               ; preds = %84, %82
  %88 = phi i64 [ %83, %82 ], [ %86, %84 ]
  %89 = icmp eq i64 %88, 20
  br i1 %89, label %91, label %90

90:                                               ; preds = %87
  tail call void @__assert_fail(ptr noundef nonnull @.str.11, ptr noundef nonnull @.str.4, i32 noundef 129, ptr noundef nonnull @__PRETTY_FUNCTION__._Z4testI20cpp17_input_iteratorIPiS1_E16sentinel_wrapperIS2_E22bidirectional_iteratorIS1_ELi6ELi5EEv4DataIXT2_EXT3_EE) #7
  unreachable

91:                                               ; preds = %87
  %92 = call i32 @bcmp(ptr noundef nonnull align 4 dereferenceable(20) %53, ptr noundef nonnull align 4 dereferenceable(20) %3, i64 20)
  %93 = icmp eq i32 %92, 0
  br i1 %93, label %95, label %94

94:                                               ; preds = %91
  tail call void @__assert_fail(ptr noundef nonnull @.str.12, ptr noundef nonnull @.str.4, i32 noundef 130, ptr noundef nonnull @__PRETTY_FUNCTION__._Z4testI20cpp17_input_iteratorIPiS1_E16sentinel_wrapperIS2_E22bidirectional_iteratorIS1_ELi6ELi5EEv4DataIXT2_EXT3_EE) #7
  unreachable

95:                                               ; preds = %91
  call void @llvm.lifetime.end.p0(ptr nonnull %3) #6
  ret void
}

; Function Attrs: mustprogress uwtable
define linkonce_odr dso_local void @_Z4testI20cpp17_input_iteratorIPiS1_E16sentinel_wrapperIS2_E22bidirectional_iteratorIS1_ELi8ELi5EEv4DataIXT2_EXT3_EE(ptr noundef byval(%struct.Data.11) align 8 %0) local_unnamed_addr #1 comdat personality ptr @__gxx_personality_v0 {
  %2 = alloca %"struct.std::array.3", align 4
  %3 = alloca %"struct.std::array.3", align 4
  call void @llvm.lifetime.start.p0(ptr nonnull %2) #6
  %4 = getelementptr inbounds nuw i8, ptr %0, i64 52
  %5 = load i32, ptr %4, align 4, !tbaa !5, !noalias !60
  %6 = getelementptr inbounds nuw i8, ptr %3, i64 4
  %7 = load i32, ptr %0, align 8, !tbaa !5, !noalias !60
  %8 = icmp eq i32 %7, %5
  br i1 %8, label %11, label %9

9:                                                ; preds = %1
  %10 = getelementptr inbounds nuw i8, ptr %2, i64 4
  store i32 %7, ptr %2, align 4, !tbaa !5, !noalias !60
  br label %11

11:                                               ; preds = %9, %1
  %12 = phi ptr [ %2, %1 ], [ %10, %9 ]
  %13 = phi i64 [ 0, %1 ], [ 4, %9 ]
  %14 = getelementptr inbounds nuw i8, ptr %0, i64 4
  %15 = load i32, ptr %14, align 4, !tbaa !5, !noalias !60
  %16 = icmp eq i32 %15, %5
  br i1 %16, label %19, label %17

17:                                               ; preds = %11
  store i32 %15, ptr %12, align 4, !tbaa !5, !noalias !60
  %18 = add nuw nsw i64 %13, 4
  br label %19

19:                                               ; preds = %17, %11
  %20 = phi i64 [ %13, %11 ], [ %18, %17 ]
  %21 = getelementptr inbounds nuw i8, ptr %0, i64 8
  %22 = load i32, ptr %21, align 8, !tbaa !5, !noalias !60
  %23 = icmp eq i32 %22, %5
  br i1 %23, label %27, label %24

24:                                               ; preds = %19
  %25 = getelementptr inbounds nuw i8, ptr %2, i64 %20
  store i32 %22, ptr %25, align 4, !tbaa !5, !noalias !60
  %26 = add nuw nsw i64 %20, 4
  br label %27

27:                                               ; preds = %24, %19
  %28 = phi i64 [ %20, %19 ], [ %26, %24 ]
  %29 = getelementptr inbounds nuw i8, ptr %0, i64 12
  %30 = load i32, ptr %29, align 4, !tbaa !5, !noalias !60
  %31 = icmp eq i32 %30, %5
  br i1 %31, label %35, label %32

32:                                               ; preds = %27
  %33 = getelementptr inbounds nuw i8, ptr %2, i64 %28
  store i32 %30, ptr %33, align 4, !tbaa !5, !noalias !60
  %34 = add nuw nsw i64 %28, 4
  br label %35

35:                                               ; preds = %32, %27
  %36 = phi i64 [ %28, %27 ], [ %34, %32 ]
  %37 = getelementptr inbounds nuw i8, ptr %0, i64 16
  %38 = load i32, ptr %37, align 8, !tbaa !5, !noalias !60
  %39 = icmp eq i32 %38, %5
  br i1 %39, label %43, label %40

40:                                               ; preds = %35
  %41 = getelementptr inbounds nuw i8, ptr %2, i64 %36
  store i32 %38, ptr %41, align 4, !tbaa !5, !noalias !60
  %42 = add nuw nsw i64 %36, 4
  br label %43

43:                                               ; preds = %40, %35
  %44 = phi i64 [ %36, %35 ], [ %42, %40 ]
  %45 = getelementptr inbounds nuw i8, ptr %0, i64 20
  %46 = load i32, ptr %45, align 4, !tbaa !5, !noalias !60
  %47 = icmp eq i32 %46, %5
  br i1 %47, label %51, label %48

48:                                               ; preds = %43
  %49 = getelementptr inbounds nuw i8, ptr %2, i64 %44
  store i32 %46, ptr %49, align 4, !tbaa !5, !noalias !60
  %50 = add nuw nsw i64 %44, 4
  br label %51

51:                                               ; preds = %48, %43
  %52 = phi i64 [ %44, %43 ], [ %50, %48 ]
  %53 = getelementptr inbounds nuw i8, ptr %0, i64 24
  %54 = load i32, ptr %53, align 8, !tbaa !5, !noalias !60
  %55 = icmp eq i32 %54, %5
  br i1 %55, label %59, label %56

56:                                               ; preds = %51
  %57 = getelementptr inbounds nuw i8, ptr %2, i64 %52
  store i32 %54, ptr %57, align 4, !tbaa !5, !noalias !60
  %58 = add nuw nsw i64 %52, 4
  br label %59

59:                                               ; preds = %56, %51
  %60 = phi i64 [ %52, %51 ], [ %58, %56 ]
  %61 = getelementptr inbounds nuw i8, ptr %0, i64 28
  %62 = load i32, ptr %61, align 4, !tbaa !5, !noalias !60
  %63 = icmp eq i32 %62, %5
  br i1 %63, label %67, label %64

64:                                               ; preds = %59
  %65 = getelementptr inbounds nuw i8, ptr %2, i64 %60
  store i32 %62, ptr %65, align 4, !tbaa !5, !noalias !60
  %66 = add nuw nsw i64 %60, 4
  br label %67

67:                                               ; preds = %64, %59
  %68 = phi i64 [ %60, %59 ], [ %66, %64 ]
  %69 = getelementptr inbounds nuw i8, ptr %0, i64 32
  %70 = icmp eq i64 %68, 20
  br i1 %70, label %72, label %71

71:                                               ; preds = %67
  tail call void @__assert_fail(ptr noundef nonnull @.str.11, ptr noundef nonnull @.str.4, i32 noundef 117, ptr noundef nonnull @__PRETTY_FUNCTION__._Z4testI20cpp17_input_iteratorIPiS1_E16sentinel_wrapperIS2_E22bidirectional_iteratorIS1_ELi8ELi5EEv4DataIXT2_EXT3_EE) #7
  unreachable

72:                                               ; preds = %67
  %73 = call i32 @bcmp(ptr noundef nonnull align 4 dereferenceable(20) %69, ptr noundef nonnull align 4 dereferenceable(20) %2, i64 20)
  %74 = icmp eq i32 %73, 0
  br i1 %74, label %76, label %75

75:                                               ; preds = %72
  tail call void @__assert_fail(ptr noundef nonnull @.str.12, ptr noundef nonnull @.str.4, i32 noundef 118, ptr noundef nonnull @__PRETTY_FUNCTION__._Z4testI20cpp17_input_iteratorIPiS1_E16sentinel_wrapperIS2_E22bidirectional_iteratorIS1_ELi8ELi5EEv4DataIXT2_EXT3_EE) #7
  unreachable

76:                                               ; preds = %72
  call void @llvm.lifetime.end.p0(ptr nonnull %2) #6
  call void @llvm.lifetime.start.p0(ptr nonnull %3) #6
  br i1 %8, label %78, label %77

77:                                               ; preds = %76
  store i32 %7, ptr %3, align 4, !tbaa !5, !noalias !63
  br label %78

78:                                               ; preds = %77, %76
  %79 = phi ptr [ %3, %76 ], [ %6, %77 ]
  %80 = phi i64 [ 0, %76 ], [ 4, %77 ]
  br i1 %16, label %83, label %81

81:                                               ; preds = %78
  store i32 %15, ptr %79, align 4, !tbaa !5, !noalias !63
  %82 = add nuw nsw i64 %80, 4
  br label %83

83:                                               ; preds = %81, %78
  %84 = phi i64 [ %80, %78 ], [ %82, %81 ]
  br i1 %23, label %88, label %85

85:                                               ; preds = %83
  %86 = getelementptr inbounds nuw i8, ptr %3, i64 %84
  store i32 %22, ptr %86, align 4, !tbaa !5, !noalias !63
  %87 = add nuw nsw i64 %84, 4
  br label %88

88:                                               ; preds = %85, %83
  %89 = phi i64 [ %84, %83 ], [ %87, %85 ]
  br i1 %31, label %93, label %90

90:                                               ; preds = %88
  %91 = getelementptr inbounds nuw i8, ptr %3, i64 %89
  store i32 %30, ptr %91, align 4, !tbaa !5, !noalias !63
  %92 = add nuw nsw i64 %89, 4
  br label %93

93:                                               ; preds = %90, %88
  %94 = phi i64 [ %89, %88 ], [ %92, %90 ]
  br i1 %39, label %98, label %95

95:                                               ; preds = %93
  %96 = getelementptr inbounds nuw i8, ptr %3, i64 %94
  store i32 %38, ptr %96, align 4, !tbaa !5, !noalias !63
  %97 = add nuw nsw i64 %94, 4
  br label %98

98:                                               ; preds = %95, %93
  %99 = phi i64 [ %94, %93 ], [ %97, %95 ]
  br i1 %47, label %103, label %100

100:                                              ; preds = %98
  %101 = getelementptr inbounds nuw i8, ptr %3, i64 %99
  store i32 %46, ptr %101, align 4, !tbaa !5, !noalias !63
  %102 = add nuw nsw i64 %99, 4
  br label %103

103:                                              ; preds = %100, %98
  %104 = phi i64 [ %99, %98 ], [ %102, %100 ]
  br i1 %55, label %108, label %105

105:                                              ; preds = %103
  %106 = getelementptr inbounds nuw i8, ptr %3, i64 %104
  store i32 %54, ptr %106, align 4, !tbaa !5, !noalias !63
  %107 = add nuw nsw i64 %104, 4
  br label %108

108:                                              ; preds = %105, %103
  %109 = phi i64 [ %104, %103 ], [ %107, %105 ]
  br i1 %63, label %113, label %110

110:                                              ; preds = %108
  %111 = getelementptr inbounds nuw i8, ptr %3, i64 %109
  store i32 %62, ptr %111, align 4, !tbaa !5, !noalias !63
  %112 = add nuw nsw i64 %109, 4
  br label %113

113:                                              ; preds = %110, %108
  %114 = phi i64 [ %109, %108 ], [ %112, %110 ]
  %115 = icmp eq i64 %114, 20
  br i1 %115, label %117, label %116

116:                                              ; preds = %113
  tail call void @__assert_fail(ptr noundef nonnull @.str.11, ptr noundef nonnull @.str.4, i32 noundef 129, ptr noundef nonnull @__PRETTY_FUNCTION__._Z4testI20cpp17_input_iteratorIPiS1_E16sentinel_wrapperIS2_E22bidirectional_iteratorIS1_ELi8ELi5EEv4DataIXT2_EXT3_EE) #7
  unreachable

117:                                              ; preds = %113
  %118 = call i32 @bcmp(ptr noundef nonnull align 4 dereferenceable(20) %69, ptr noundef nonnull align 4 dereferenceable(20) %3, i64 20)
  %119 = icmp eq i32 %118, 0
  br i1 %119, label %121, label %120

120:                                              ; preds = %117
  tail call void @__assert_fail(ptr noundef nonnull @.str.12, ptr noundef nonnull @.str.4, i32 noundef 130, ptr noundef nonnull @__PRETTY_FUNCTION__._Z4testI20cpp17_input_iteratorIPiS1_E16sentinel_wrapperIS2_E22bidirectional_iteratorIS1_ELi8ELi5EEv4DataIXT2_EXT3_EE) #7
  unreachable

121:                                              ; preds = %117
  call void @llvm.lifetime.end.p0(ptr nonnull %3) #6
  ret void
}

; Function Attrs: mustprogress uwtable
define linkonce_odr dso_local void @_Z4testI20cpp17_input_iteratorIPiS1_E16sentinel_wrapperIS2_E22random_access_iteratorIS1_ELi6ELi5EEv4DataIXT2_EXT3_EE(ptr noundef byval(%struct.Data) align 8 %0) local_unnamed_addr #1 comdat personality ptr @__gxx_personality_v0 {
  %2 = alloca %"struct.std::array.3", align 4
  %3 = alloca %"struct.std::array.3", align 4
  call void @llvm.lifetime.start.p0(ptr nonnull %2) #6
  %4 = getelementptr inbounds nuw i8, ptr %0, i64 44
  %5 = load i32, ptr %4, align 4, !tbaa !5, !noalias !68
  %6 = getelementptr inbounds nuw i8, ptr %3, i64 4
  %7 = load i32, ptr %0, align 8, !tbaa !5, !noalias !68
  %8 = icmp eq i32 %7, %5
  br i1 %8, label %11, label %9

9:                                                ; preds = %1
  %10 = getelementptr inbounds nuw i8, ptr %2, i64 4
  store i32 %7, ptr %2, align 4, !tbaa !5, !noalias !68
  br label %11

11:                                               ; preds = %9, %1
  %12 = phi ptr [ %2, %1 ], [ %10, %9 ]
  %13 = phi i64 [ 0, %1 ], [ 4, %9 ]
  %14 = getelementptr inbounds nuw i8, ptr %0, i64 4
  %15 = load i32, ptr %14, align 4, !tbaa !5, !noalias !68
  %16 = icmp eq i32 %15, %5
  br i1 %16, label %19, label %17

17:                                               ; preds = %11
  store i32 %15, ptr %12, align 4, !tbaa !5, !noalias !68
  %18 = add nuw nsw i64 %13, 4
  br label %19

19:                                               ; preds = %17, %11
  %20 = phi i64 [ %13, %11 ], [ %18, %17 ]
  %21 = getelementptr inbounds nuw i8, ptr %0, i64 8
  %22 = load i32, ptr %21, align 8, !tbaa !5, !noalias !68
  %23 = icmp eq i32 %22, %5
  br i1 %23, label %27, label %24

24:                                               ; preds = %19
  %25 = getelementptr inbounds nuw i8, ptr %2, i64 %20
  store i32 %22, ptr %25, align 4, !tbaa !5, !noalias !68
  %26 = add nuw nsw i64 %20, 4
  br label %27

27:                                               ; preds = %24, %19
  %28 = phi i64 [ %20, %19 ], [ %26, %24 ]
  %29 = getelementptr inbounds nuw i8, ptr %0, i64 12
  %30 = load i32, ptr %29, align 4, !tbaa !5, !noalias !68
  %31 = icmp eq i32 %30, %5
  br i1 %31, label %35, label %32

32:                                               ; preds = %27
  %33 = getelementptr inbounds nuw i8, ptr %2, i64 %28
  store i32 %30, ptr %33, align 4, !tbaa !5, !noalias !68
  %34 = add nuw nsw i64 %28, 4
  br label %35

35:                                               ; preds = %32, %27
  %36 = phi i64 [ %28, %27 ], [ %34, %32 ]
  %37 = getelementptr inbounds nuw i8, ptr %0, i64 16
  %38 = load i32, ptr %37, align 8, !tbaa !5, !noalias !68
  %39 = icmp eq i32 %38, %5
  br i1 %39, label %43, label %40

40:                                               ; preds = %35
  %41 = getelementptr inbounds nuw i8, ptr %2, i64 %36
  store i32 %38, ptr %41, align 4, !tbaa !5, !noalias !68
  %42 = add nuw nsw i64 %36, 4
  br label %43

43:                                               ; preds = %40, %35
  %44 = phi i64 [ %36, %35 ], [ %42, %40 ]
  %45 = getelementptr inbounds nuw i8, ptr %0, i64 20
  %46 = load i32, ptr %45, align 4, !tbaa !5, !noalias !68
  %47 = icmp eq i32 %46, %5
  br i1 %47, label %51, label %48

48:                                               ; preds = %43
  %49 = getelementptr inbounds nuw i8, ptr %2, i64 %44
  store i32 %46, ptr %49, align 4, !tbaa !5, !noalias !68
  %50 = add nuw nsw i64 %44, 4
  br label %51

51:                                               ; preds = %48, %43
  %52 = phi i64 [ %44, %43 ], [ %50, %48 ]
  %53 = getelementptr inbounds nuw i8, ptr %0, i64 24
  %54 = icmp eq i64 %52, 20
  br i1 %54, label %56, label %55

55:                                               ; preds = %51
  tail call void @__assert_fail(ptr noundef nonnull @.str.11, ptr noundef nonnull @.str.4, i32 noundef 117, ptr noundef nonnull @__PRETTY_FUNCTION__._Z4testI20cpp17_input_iteratorIPiS1_E16sentinel_wrapperIS2_E22random_access_iteratorIS1_ELi6ELi5EEv4DataIXT2_EXT3_EE) #7
  unreachable

56:                                               ; preds = %51
  %57 = call i32 @bcmp(ptr noundef nonnull align 4 dereferenceable(20) %53, ptr noundef nonnull align 4 dereferenceable(20) %2, i64 20)
  %58 = icmp eq i32 %57, 0
  br i1 %58, label %60, label %59

59:                                               ; preds = %56
  tail call void @__assert_fail(ptr noundef nonnull @.str.12, ptr noundef nonnull @.str.4, i32 noundef 118, ptr noundef nonnull @__PRETTY_FUNCTION__._Z4testI20cpp17_input_iteratorIPiS1_E16sentinel_wrapperIS2_E22random_access_iteratorIS1_ELi6ELi5EEv4DataIXT2_EXT3_EE) #7
  unreachable

60:                                               ; preds = %56
  call void @llvm.lifetime.end.p0(ptr nonnull %2) #6
  call void @llvm.lifetime.start.p0(ptr nonnull %3) #6
  br i1 %8, label %62, label %61

61:                                               ; preds = %60
  store i32 %7, ptr %3, align 4, !tbaa !5, !noalias !71
  br label %62

62:                                               ; preds = %61, %60
  %63 = phi ptr [ %3, %60 ], [ %6, %61 ]
  %64 = phi i64 [ 0, %60 ], [ 4, %61 ]
  br i1 %16, label %67, label %65

65:                                               ; preds = %62
  store i32 %15, ptr %63, align 4, !tbaa !5, !noalias !71
  %66 = add nuw nsw i64 %64, 4
  br label %67

67:                                               ; preds = %65, %62
  %68 = phi i64 [ %64, %62 ], [ %66, %65 ]
  br i1 %23, label %72, label %69

69:                                               ; preds = %67
  %70 = getelementptr inbounds nuw i8, ptr %3, i64 %68
  store i32 %22, ptr %70, align 4, !tbaa !5, !noalias !71
  %71 = add nuw nsw i64 %68, 4
  br label %72

72:                                               ; preds = %69, %67
  %73 = phi i64 [ %68, %67 ], [ %71, %69 ]
  br i1 %31, label %77, label %74

74:                                               ; preds = %72
  %75 = getelementptr inbounds nuw i8, ptr %3, i64 %73
  store i32 %30, ptr %75, align 4, !tbaa !5, !noalias !71
  %76 = add nuw nsw i64 %73, 4
  br label %77

77:                                               ; preds = %74, %72
  %78 = phi i64 [ %73, %72 ], [ %76, %74 ]
  br i1 %39, label %82, label %79

79:                                               ; preds = %77
  %80 = getelementptr inbounds nuw i8, ptr %3, i64 %78
  store i32 %38, ptr %80, align 4, !tbaa !5, !noalias !71
  %81 = add nuw nsw i64 %78, 4
  br label %82

82:                                               ; preds = %79, %77
  %83 = phi i64 [ %78, %77 ], [ %81, %79 ]
  br i1 %47, label %87, label %84

84:                                               ; preds = %82
  %85 = getelementptr inbounds nuw i8, ptr %3, i64 %83
  store i32 %46, ptr %85, align 4, !tbaa !5, !noalias !71
  %86 = add nuw nsw i64 %83, 4
  br label %87

87:                                               ; preds = %84, %82
  %88 = phi i64 [ %83, %82 ], [ %86, %84 ]
  %89 = icmp eq i64 %88, 20
  br i1 %89, label %91, label %90

90:                                               ; preds = %87
  tail call void @__assert_fail(ptr noundef nonnull @.str.11, ptr noundef nonnull @.str.4, i32 noundef 129, ptr noundef nonnull @__PRETTY_FUNCTION__._Z4testI20cpp17_input_iteratorIPiS1_E16sentinel_wrapperIS2_E22random_access_iteratorIS1_ELi6ELi5EEv4DataIXT2_EXT3_EE) #7
  unreachable

91:                                               ; preds = %87
  %92 = call i32 @bcmp(ptr noundef nonnull align 4 dereferenceable(20) %53, ptr noundef nonnull align 4 dereferenceable(20) %3, i64 20)
  %93 = icmp eq i32 %92, 0
  br i1 %93, label %95, label %94

94:                                               ; preds = %91
  tail call void @__assert_fail(ptr noundef nonnull @.str.12, ptr noundef nonnull @.str.4, i32 noundef 130, ptr noundef nonnull @__PRETTY_FUNCTION__._Z4testI20cpp17_input_iteratorIPiS1_E16sentinel_wrapperIS2_E22random_access_iteratorIS1_ELi6ELi5EEv4DataIXT2_EXT3_EE) #7
  unreachable

95:                                               ; preds = %91
  call void @llvm.lifetime.end.p0(ptr nonnull %3) #6
  ret void
}

; Function Attrs: mustprogress uwtable
define linkonce_odr dso_local void @_Z4testI20cpp17_input_iteratorIPiS1_E16sentinel_wrapperIS2_E22random_access_iteratorIS1_ELi8ELi5EEv4DataIXT2_EXT3_EE(ptr noundef byval(%struct.Data.11) align 8 %0) local_unnamed_addr #1 comdat personality ptr @__gxx_personality_v0 {
  %2 = alloca %"struct.std::array.3", align 4
  %3 = alloca %"struct.std::array.3", align 4
  call void @llvm.lifetime.start.p0(ptr nonnull %2) #6
  %4 = getelementptr inbounds nuw i8, ptr %0, i64 52
  %5 = load i32, ptr %4, align 4, !tbaa !5, !noalias !76
  %6 = getelementptr inbounds nuw i8, ptr %3, i64 4
  %7 = load i32, ptr %0, align 8, !tbaa !5, !noalias !76
  %8 = icmp eq i32 %7, %5
  br i1 %8, label %11, label %9

9:                                                ; preds = %1
  %10 = getelementptr inbounds nuw i8, ptr %2, i64 4
  store i32 %7, ptr %2, align 4, !tbaa !5, !noalias !76
  br label %11

11:                                               ; preds = %9, %1
  %12 = phi ptr [ %2, %1 ], [ %10, %9 ]
  %13 = phi i64 [ 0, %1 ], [ 4, %9 ]
  %14 = getelementptr inbounds nuw i8, ptr %0, i64 4
  %15 = load i32, ptr %14, align 4, !tbaa !5, !noalias !76
  %16 = icmp eq i32 %15, %5
  br i1 %16, label %19, label %17

17:                                               ; preds = %11
  store i32 %15, ptr %12, align 4, !tbaa !5, !noalias !76
  %18 = add nuw nsw i64 %13, 4
  br label %19

19:                                               ; preds = %17, %11
  %20 = phi i64 [ %13, %11 ], [ %18, %17 ]
  %21 = getelementptr inbounds nuw i8, ptr %0, i64 8
  %22 = load i32, ptr %21, align 8, !tbaa !5, !noalias !76
  %23 = icmp eq i32 %22, %5
  br i1 %23, label %27, label %24

24:                                               ; preds = %19
  %25 = getelementptr inbounds nuw i8, ptr %2, i64 %20
  store i32 %22, ptr %25, align 4, !tbaa !5, !noalias !76
  %26 = add nuw nsw i64 %20, 4
  br label %27

27:                                               ; preds = %24, %19
  %28 = phi i64 [ %20, %19 ], [ %26, %24 ]
  %29 = getelementptr inbounds nuw i8, ptr %0, i64 12
  %30 = load i32, ptr %29, align 4, !tbaa !5, !noalias !76
  %31 = icmp eq i32 %30, %5
  br i1 %31, label %35, label %32

32:                                               ; preds = %27
  %33 = getelementptr inbounds nuw i8, ptr %2, i64 %28
  store i32 %30, ptr %33, align 4, !tbaa !5, !noalias !76
  %34 = add nuw nsw i64 %28, 4
  br label %35

35:                                               ; preds = %32, %27
  %36 = phi i64 [ %28, %27 ], [ %34, %32 ]
  %37 = getelementptr inbounds nuw i8, ptr %0, i64 16
  %38 = load i32, ptr %37, align 8, !tbaa !5, !noalias !76
  %39 = icmp eq i32 %38, %5
  br i1 %39, label %43, label %40

40:                                               ; preds = %35
  %41 = getelementptr inbounds nuw i8, ptr %2, i64 %36
  store i32 %38, ptr %41, align 4, !tbaa !5, !noalias !76
  %42 = add nuw nsw i64 %36, 4
  br label %43

43:                                               ; preds = %40, %35
  %44 = phi i64 [ %36, %35 ], [ %42, %40 ]
  %45 = getelementptr inbounds nuw i8, ptr %0, i64 20
  %46 = load i32, ptr %45, align 4, !tbaa !5, !noalias !76
  %47 = icmp eq i32 %46, %5
  br i1 %47, label %51, label %48

48:                                               ; preds = %43
  %49 = getelementptr inbounds nuw i8, ptr %2, i64 %44
  store i32 %46, ptr %49, align 4, !tbaa !5, !noalias !76
  %50 = add nuw nsw i64 %44, 4
  br label %51

51:                                               ; preds = %48, %43
  %52 = phi i64 [ %44, %43 ], [ %50, %48 ]
  %53 = getelementptr inbounds nuw i8, ptr %0, i64 24
  %54 = load i32, ptr %53, align 8, !tbaa !5, !noalias !76
  %55 = icmp eq i32 %54, %5
  br i1 %55, label %59, label %56

56:                                               ; preds = %51
  %57 = getelementptr inbounds nuw i8, ptr %2, i64 %52
  store i32 %54, ptr %57, align 4, !tbaa !5, !noalias !76
  %58 = add nuw nsw i64 %52, 4
  br label %59

59:                                               ; preds = %56, %51
  %60 = phi i64 [ %52, %51 ], [ %58, %56 ]
  %61 = getelementptr inbounds nuw i8, ptr %0, i64 28
  %62 = load i32, ptr %61, align 4, !tbaa !5, !noalias !76
  %63 = icmp eq i32 %62, %5
  br i1 %63, label %67, label %64

64:                                               ; preds = %59
  %65 = getelementptr inbounds nuw i8, ptr %2, i64 %60
  store i32 %62, ptr %65, align 4, !tbaa !5, !noalias !76
  %66 = add nuw nsw i64 %60, 4
  br label %67

67:                                               ; preds = %64, %59
  %68 = phi i64 [ %60, %59 ], [ %66, %64 ]
  %69 = getelementptr inbounds nuw i8, ptr %0, i64 32
  %70 = icmp eq i64 %68, 20
  br i1 %70, label %72, label %71

71:                                               ; preds = %67
  tail call void @__assert_fail(ptr noundef nonnull @.str.11, ptr noundef nonnull @.str.4, i32 noundef 117, ptr noundef nonnull @__PRETTY_FUNCTION__._Z4testI20cpp17_input_iteratorIPiS1_E16sentinel_wrapperIS2_E22random_access_iteratorIS1_ELi8ELi5EEv4DataIXT2_EXT3_EE) #7
  unreachable

72:                                               ; preds = %67
  %73 = call i32 @bcmp(ptr noundef nonnull align 4 dereferenceable(20) %69, ptr noundef nonnull align 4 dereferenceable(20) %2, i64 20)
  %74 = icmp eq i32 %73, 0
  br i1 %74, label %76, label %75

75:                                               ; preds = %72
  tail call void @__assert_fail(ptr noundef nonnull @.str.12, ptr noundef nonnull @.str.4, i32 noundef 118, ptr noundef nonnull @__PRETTY_FUNCTION__._Z4testI20cpp17_input_iteratorIPiS1_E16sentinel_wrapperIS2_E22random_access_iteratorIS1_ELi8ELi5EEv4DataIXT2_EXT3_EE) #7
  unreachable

76:                                               ; preds = %72
  call void @llvm.lifetime.end.p0(ptr nonnull %2) #6
  call void @llvm.lifetime.start.p0(ptr nonnull %3) #6
  br i1 %8, label %78, label %77

77:                                               ; preds = %76
  store i32 %7, ptr %3, align 4, !tbaa !5, !noalias !79
  br label %78

78:                                               ; preds = %77, %76
  %79 = phi ptr [ %3, %76 ], [ %6, %77 ]
  %80 = phi i64 [ 0, %76 ], [ 4, %77 ]
  br i1 %16, label %83, label %81

81:                                               ; preds = %78
  store i32 %15, ptr %79, align 4, !tbaa !5, !noalias !79
  %82 = add nuw nsw i64 %80, 4
  br label %83

83:                                               ; preds = %81, %78
  %84 = phi i64 [ %80, %78 ], [ %82, %81 ]
  br i1 %23, label %88, label %85

85:                                               ; preds = %83
  %86 = getelementptr inbounds nuw i8, ptr %3, i64 %84
  store i32 %22, ptr %86, align 4, !tbaa !5, !noalias !79
  %87 = add nuw nsw i64 %84, 4
  br label %88

88:                                               ; preds = %85, %83
  %89 = phi i64 [ %84, %83 ], [ %87, %85 ]
  br i1 %31, label %93, label %90

90:                                               ; preds = %88
  %91 = getelementptr inbounds nuw i8, ptr %3, i64 %89
  store i32 %30, ptr %91, align 4, !tbaa !5, !noalias !79
  %92 = add nuw nsw i64 %89, 4
  br label %93

93:                                               ; preds = %90, %88
  %94 = phi i64 [ %89, %88 ], [ %92, %90 ]
  br i1 %39, label %98, label %95

95:                                               ; preds = %93
  %96 = getelementptr inbounds nuw i8, ptr %3, i64 %94
  store i32 %38, ptr %96, align 4, !tbaa !5, !noalias !79
  %97 = add nuw nsw i64 %94, 4
  br label %98

98:                                               ; preds = %95, %93
  %99 = phi i64 [ %94, %93 ], [ %97, %95 ]
  br i1 %47, label %103, label %100

100:                                              ; preds = %98
  %101 = getelementptr inbounds nuw i8, ptr %3, i64 %99
  store i32 %46, ptr %101, align 4, !tbaa !5, !noalias !79
  %102 = add nuw nsw i64 %99, 4
  br label %103

103:                                              ; preds = %100, %98
  %104 = phi i64 [ %99, %98 ], [ %102, %100 ]
  br i1 %55, label %108, label %105

105:                                              ; preds = %103
  %106 = getelementptr inbounds nuw i8, ptr %3, i64 %104
  store i32 %54, ptr %106, align 4, !tbaa !5, !noalias !79
  %107 = add nuw nsw i64 %104, 4
  br label %108

108:                                              ; preds = %105, %103
  %109 = phi i64 [ %104, %103 ], [ %107, %105 ]
  br i1 %63, label %113, label %110

110:                                              ; preds = %108
  %111 = getelementptr inbounds nuw i8, ptr %3, i64 %109
  store i32 %62, ptr %111, align 4, !tbaa !5, !noalias !79
  %112 = add nuw nsw i64 %109, 4
  br label %113

113:                                              ; preds = %110, %108
  %114 = phi i64 [ %109, %108 ], [ %112, %110 ]
  %115 = icmp eq i64 %114, 20
  br i1 %115, label %117, label %116

116:                                              ; preds = %113
  tail call void @__assert_fail(ptr noundef nonnull @.str.11, ptr noundef nonnull @.str.4, i32 noundef 129, ptr noundef nonnull @__PRETTY_FUNCTION__._Z4testI20cpp17_input_iteratorIPiS1_E16sentinel_wrapperIS2_E22random_access_iteratorIS1_ELi8ELi5EEv4DataIXT2_EXT3_EE) #7
  unreachable

117:                                              ; preds = %113
  %118 = call i32 @bcmp(ptr noundef nonnull align 4 dereferenceable(20) %69, ptr noundef nonnull align 4 dereferenceable(20) %3, i64 20)
  %119 = icmp eq i32 %118, 0
  br i1 %119, label %121, label %120

120:                                              ; preds = %117
  tail call void @__assert_fail(ptr noundef nonnull @.str.12, ptr noundef nonnull @.str.4, i32 noundef 130, ptr noundef nonnull @__PRETTY_FUNCTION__._Z4testI20cpp17_input_iteratorIPiS1_E16sentinel_wrapperIS2_E22random_access_iteratorIS1_ELi8ELi5EEv4DataIXT2_EXT3_EE) #7
  unreachable

121:                                              ; preds = %117
  call void @llvm.lifetime.end.p0(ptr nonnull %3) #6
  ret void
}

; Function Attrs: mustprogress uwtable
define linkonce_odr dso_local void @_Z4testI20cpp17_input_iteratorIPiS1_E16sentinel_wrapperIS2_E19contiguous_iteratorIS1_ELi6ELi5EEv4DataIXT2_EXT3_EE(ptr noundef byval(%struct.Data) align 8 %0) local_unnamed_addr #1 comdat personality ptr @__gxx_personality_v0 {
  %2 = alloca %"struct.std::array.3", align 4
  %3 = alloca %"struct.std::array.3", align 4
  call void @llvm.lifetime.start.p0(ptr nonnull %2) #6
  %4 = getelementptr inbounds nuw i8, ptr %0, i64 44
  %5 = load i32, ptr %4, align 4, !tbaa !5, !noalias !84
  %6 = getelementptr inbounds nuw i8, ptr %3, i64 4
  %7 = load i32, ptr %0, align 8, !tbaa !5, !noalias !84
  %8 = icmp eq i32 %7, %5
  br i1 %8, label %11, label %9

9:                                                ; preds = %1
  %10 = getelementptr inbounds nuw i8, ptr %2, i64 4
  store i32 %7, ptr %2, align 4, !tbaa !5, !noalias !84
  br label %11

11:                                               ; preds = %9, %1
  %12 = phi ptr [ %2, %1 ], [ %10, %9 ]
  %13 = phi i64 [ 0, %1 ], [ 4, %9 ]
  %14 = getelementptr inbounds nuw i8, ptr %0, i64 4
  %15 = load i32, ptr %14, align 4, !tbaa !5, !noalias !84
  %16 = icmp eq i32 %15, %5
  br i1 %16, label %19, label %17

17:                                               ; preds = %11
  store i32 %15, ptr %12, align 4, !tbaa !5, !noalias !84
  %18 = add nuw nsw i64 %13, 4
  br label %19

19:                                               ; preds = %17, %11
  %20 = phi i64 [ %13, %11 ], [ %18, %17 ]
  %21 = getelementptr inbounds nuw i8, ptr %0, i64 8
  %22 = load i32, ptr %21, align 8, !tbaa !5, !noalias !84
  %23 = icmp eq i32 %22, %5
  br i1 %23, label %27, label %24

24:                                               ; preds = %19
  %25 = getelementptr inbounds nuw i8, ptr %2, i64 %20
  store i32 %22, ptr %25, align 4, !tbaa !5, !noalias !84
  %26 = add nuw nsw i64 %20, 4
  br label %27

27:                                               ; preds = %24, %19
  %28 = phi i64 [ %20, %19 ], [ %26, %24 ]
  %29 = getelementptr inbounds nuw i8, ptr %0, i64 12
  %30 = load i32, ptr %29, align 4, !tbaa !5, !noalias !84
  %31 = icmp eq i32 %30, %5
  br i1 %31, label %35, label %32

32:                                               ; preds = %27
  %33 = getelementptr inbounds nuw i8, ptr %2, i64 %28
  store i32 %30, ptr %33, align 4, !tbaa !5, !noalias !84
  %34 = add nuw nsw i64 %28, 4
  br label %35

35:                                               ; preds = %32, %27
  %36 = phi i64 [ %28, %27 ], [ %34, %32 ]
  %37 = getelementptr inbounds nuw i8, ptr %0, i64 16
  %38 = load i32, ptr %37, align 8, !tbaa !5, !noalias !84
  %39 = icmp eq i32 %38, %5
  br i1 %39, label %43, label %40

40:                                               ; preds = %35
  %41 = getelementptr inbounds nuw i8, ptr %2, i64 %36
  store i32 %38, ptr %41, align 4, !tbaa !5, !noalias !84
  %42 = add nuw nsw i64 %36, 4
  br label %43

43:                                               ; preds = %40, %35
  %44 = phi i64 [ %36, %35 ], [ %42, %40 ]
  %45 = getelementptr inbounds nuw i8, ptr %0, i64 20
  %46 = load i32, ptr %45, align 4, !tbaa !5, !noalias !84
  %47 = icmp eq i32 %46, %5
  br i1 %47, label %51, label %48

48:                                               ; preds = %43
  %49 = getelementptr inbounds nuw i8, ptr %2, i64 %44
  store i32 %46, ptr %49, align 4, !tbaa !5, !noalias !84
  %50 = add nuw nsw i64 %44, 4
  br label %51

51:                                               ; preds = %48, %43
  %52 = phi i64 [ %44, %43 ], [ %50, %48 ]
  %53 = getelementptr inbounds nuw i8, ptr %0, i64 24
  %54 = icmp eq i64 %52, 20
  br i1 %54, label %56, label %55

55:                                               ; preds = %51
  tail call void @__assert_fail(ptr noundef nonnull @.str.11, ptr noundef nonnull @.str.4, i32 noundef 117, ptr noundef nonnull @__PRETTY_FUNCTION__._Z4testI20cpp17_input_iteratorIPiS1_E16sentinel_wrapperIS2_E19contiguous_iteratorIS1_ELi6ELi5EEv4DataIXT2_EXT3_EE) #7
  unreachable

56:                                               ; preds = %51
  %57 = call i32 @bcmp(ptr noundef nonnull align 4 dereferenceable(20) %53, ptr noundef nonnull align 4 dereferenceable(20) %2, i64 20)
  %58 = icmp eq i32 %57, 0
  br i1 %58, label %60, label %59

59:                                               ; preds = %56
  tail call void @__assert_fail(ptr noundef nonnull @.str.12, ptr noundef nonnull @.str.4, i32 noundef 118, ptr noundef nonnull @__PRETTY_FUNCTION__._Z4testI20cpp17_input_iteratorIPiS1_E16sentinel_wrapperIS2_E19contiguous_iteratorIS1_ELi6ELi5EEv4DataIXT2_EXT3_EE) #7
  unreachable

60:                                               ; preds = %56
  call void @llvm.lifetime.end.p0(ptr nonnull %2) #6
  call void @llvm.lifetime.start.p0(ptr nonnull %3) #6
  br i1 %8, label %62, label %61

61:                                               ; preds = %60
  store i32 %7, ptr %3, align 4, !tbaa !5, !noalias !87
  br label %62

62:                                               ; preds = %61, %60
  %63 = phi ptr [ %3, %60 ], [ %6, %61 ]
  %64 = phi i64 [ 0, %60 ], [ 4, %61 ]
  br i1 %16, label %67, label %65

65:                                               ; preds = %62
  store i32 %15, ptr %63, align 4, !tbaa !5, !noalias !87
  %66 = add nuw nsw i64 %64, 4
  br label %67

67:                                               ; preds = %65, %62
  %68 = phi i64 [ %64, %62 ], [ %66, %65 ]
  br i1 %23, label %72, label %69

69:                                               ; preds = %67
  %70 = getelementptr inbounds nuw i8, ptr %3, i64 %68
  store i32 %22, ptr %70, align 4, !tbaa !5, !noalias !87
  %71 = add nuw nsw i64 %68, 4
  br label %72

72:                                               ; preds = %69, %67
  %73 = phi i64 [ %68, %67 ], [ %71, %69 ]
  br i1 %31, label %77, label %74

74:                                               ; preds = %72
  %75 = getelementptr inbounds nuw i8, ptr %3, i64 %73
  store i32 %30, ptr %75, align 4, !tbaa !5, !noalias !87
  %76 = add nuw nsw i64 %73, 4
  br label %77

77:                                               ; preds = %74, %72
  %78 = phi i64 [ %73, %72 ], [ %76, %74 ]
  br i1 %39, label %82, label %79

79:                                               ; preds = %77
  %80 = getelementptr inbounds nuw i8, ptr %3, i64 %78
  store i32 %38, ptr %80, align 4, !tbaa !5, !noalias !87
  %81 = add nuw nsw i64 %78, 4
  br label %82

82:                                               ; preds = %79, %77
  %83 = phi i64 [ %78, %77 ], [ %81, %79 ]
  br i1 %47, label %87, label %84

84:                                               ; preds = %82
  %85 = getelementptr inbounds nuw i8, ptr %3, i64 %83
  store i32 %46, ptr %85, align 4, !tbaa !5, !noalias !87
  %86 = add nuw nsw i64 %83, 4
  br label %87

87:                                               ; preds = %84, %82
  %88 = phi i64 [ %83, %82 ], [ %86, %84 ]
  %89 = icmp eq i64 %88, 20
  br i1 %89, label %91, label %90

90:                                               ; preds = %87
  tail call void @__assert_fail(ptr noundef nonnull @.str.11, ptr noundef nonnull @.str.4, i32 noundef 129, ptr noundef nonnull @__PRETTY_FUNCTION__._Z4testI20cpp17_input_iteratorIPiS1_E16sentinel_wrapperIS2_E19contiguous_iteratorIS1_ELi6ELi5EEv4DataIXT2_EXT3_EE) #7
  unreachable

91:                                               ; preds = %87
  %92 = call i32 @bcmp(ptr noundef nonnull align 4 dereferenceable(20) %53, ptr noundef nonnull align 4 dereferenceable(20) %3, i64 20)
  %93 = icmp eq i32 %92, 0
  br i1 %93, label %95, label %94

94:                                               ; preds = %91
  tail call void @__assert_fail(ptr noundef nonnull @.str.12, ptr noundef nonnull @.str.4, i32 noundef 130, ptr noundef nonnull @__PRETTY_FUNCTION__._Z4testI20cpp17_input_iteratorIPiS1_E16sentinel_wrapperIS2_E19contiguous_iteratorIS1_ELi6ELi5EEv4DataIXT2_EXT3_EE) #7
  unreachable

95:                                               ; preds = %91
  call void @llvm.lifetime.end.p0(ptr nonnull %3) #6
  ret void
}

; Function Attrs: mustprogress uwtable
define linkonce_odr dso_local void @_Z4testI20cpp17_input_iteratorIPiS1_E16sentinel_wrapperIS2_E19contiguous_iteratorIS1_ELi8ELi5EEv4DataIXT2_EXT3_EE(ptr noundef byval(%struct.Data.11) align 8 %0) local_unnamed_addr #1 comdat personality ptr @__gxx_personality_v0 {
  %2 = alloca %"struct.std::array.3", align 4
  %3 = alloca %"struct.std::array.3", align 4
  call void @llvm.lifetime.start.p0(ptr nonnull %2) #6
  %4 = getelementptr inbounds nuw i8, ptr %0, i64 52
  %5 = load i32, ptr %4, align 4, !tbaa !5, !noalias !92
  %6 = getelementptr inbounds nuw i8, ptr %3, i64 4
  %7 = load i32, ptr %0, align 8, !tbaa !5, !noalias !92
  %8 = icmp eq i32 %7, %5
  br i1 %8, label %11, label %9

9:                                                ; preds = %1
  %10 = getelementptr inbounds nuw i8, ptr %2, i64 4
  store i32 %7, ptr %2, align 4, !tbaa !5, !noalias !92
  br label %11

11:                                               ; preds = %9, %1
  %12 = phi ptr [ %2, %1 ], [ %10, %9 ]
  %13 = phi i64 [ 0, %1 ], [ 4, %9 ]
  %14 = getelementptr inbounds nuw i8, ptr %0, i64 4
  %15 = load i32, ptr %14, align 4, !tbaa !5, !noalias !92
  %16 = icmp eq i32 %15, %5
  br i1 %16, label %19, label %17

17:                                               ; preds = %11
  store i32 %15, ptr %12, align 4, !tbaa !5, !noalias !92
  %18 = add nuw nsw i64 %13, 4
  br label %19

19:                                               ; preds = %17, %11
  %20 = phi i64 [ %13, %11 ], [ %18, %17 ]
  %21 = getelementptr inbounds nuw i8, ptr %0, i64 8
  %22 = load i32, ptr %21, align 8, !tbaa !5, !noalias !92
  %23 = icmp eq i32 %22, %5
  br i1 %23, label %27, label %24

24:                                               ; preds = %19
  %25 = getelementptr inbounds nuw i8, ptr %2, i64 %20
  store i32 %22, ptr %25, align 4, !tbaa !5, !noalias !92
  %26 = add nuw nsw i64 %20, 4
  br label %27

27:                                               ; preds = %24, %19
  %28 = phi i64 [ %20, %19 ], [ %26, %24 ]
  %29 = getelementptr inbounds nuw i8, ptr %0, i64 12
  %30 = load i32, ptr %29, align 4, !tbaa !5, !noalias !92
  %31 = icmp eq i32 %30, %5
  br i1 %31, label %35, label %32

32:                                               ; preds = %27
  %33 = getelementptr inbounds nuw i8, ptr %2, i64 %28
  store i32 %30, ptr %33, align 4, !tbaa !5, !noalias !92
  %34 = add nuw nsw i64 %28, 4
  br label %35

35:                                               ; preds = %32, %27
  %36 = phi i64 [ %28, %27 ], [ %34, %32 ]
  %37 = getelementptr inbounds nuw i8, ptr %0, i64 16
  %38 = load i32, ptr %37, align 8, !tbaa !5, !noalias !92
  %39 = icmp eq i32 %38, %5
  br i1 %39, label %43, label %40

40:                                               ; preds = %35
  %41 = getelementptr inbounds nuw i8, ptr %2, i64 %36
  store i32 %38, ptr %41, align 4, !tbaa !5, !noalias !92
  %42 = add nuw nsw i64 %36, 4
  br label %43

43:                                               ; preds = %40, %35
  %44 = phi i64 [ %36, %35 ], [ %42, %40 ]
  %45 = getelementptr inbounds nuw i8, ptr %0, i64 20
  %46 = load i32, ptr %45, align 4, !tbaa !5, !noalias !92
  %47 = icmp eq i32 %46, %5
  br i1 %47, label %51, label %48

48:                                               ; preds = %43
  %49 = getelementptr inbounds nuw i8, ptr %2, i64 %44
  store i32 %46, ptr %49, align 4, !tbaa !5, !noalias !92
  %50 = add nuw nsw i64 %44, 4
  br label %51

51:                                               ; preds = %48, %43
  %52 = phi i64 [ %44, %43 ], [ %50, %48 ]
  %53 = getelementptr inbounds nuw i8, ptr %0, i64 24
  %54 = load i32, ptr %53, align 8, !tbaa !5, !noalias !92
  %55 = icmp eq i32 %54, %5
  br i1 %55, label %59, label %56

56:                                               ; preds = %51
  %57 = getelementptr inbounds nuw i8, ptr %2, i64 %52
  store i32 %54, ptr %57, align 4, !tbaa !5, !noalias !92
  %58 = add nuw nsw i64 %52, 4
  br label %59

59:                                               ; preds = %56, %51
  %60 = phi i64 [ %52, %51 ], [ %58, %56 ]
  %61 = getelementptr inbounds nuw i8, ptr %0, i64 28
  %62 = load i32, ptr %61, align 4, !tbaa !5, !noalias !92
  %63 = icmp eq i32 %62, %5
  br i1 %63, label %67, label %64

64:                                               ; preds = %59
  %65 = getelementptr inbounds nuw i8, ptr %2, i64 %60
  store i32 %62, ptr %65, align 4, !tbaa !5, !noalias !92
  %66 = add nuw nsw i64 %60, 4
  br label %67

67:                                               ; preds = %64, %59
  %68 = phi i64 [ %60, %59 ], [ %66, %64 ]
  %69 = getelementptr inbounds nuw i8, ptr %0, i64 32
  %70 = icmp eq i64 %68, 20
  br i1 %70, label %72, label %71

71:                                               ; preds = %67
  tail call void @__assert_fail(ptr noundef nonnull @.str.11, ptr noundef nonnull @.str.4, i32 noundef 117, ptr noundef nonnull @__PRETTY_FUNCTION__._Z4testI20cpp17_input_iteratorIPiS1_E16sentinel_wrapperIS2_E19contiguous_iteratorIS1_ELi8ELi5EEv4DataIXT2_EXT3_EE) #7
  unreachable

72:                                               ; preds = %67
  %73 = call i32 @bcmp(ptr noundef nonnull align 4 dereferenceable(20) %69, ptr noundef nonnull align 4 dereferenceable(20) %2, i64 20)
  %74 = icmp eq i32 %73, 0
  br i1 %74, label %76, label %75

75:                                               ; preds = %72
  tail call void @__assert_fail(ptr noundef nonnull @.str.12, ptr noundef nonnull @.str.4, i32 noundef 118, ptr noundef nonnull @__PRETTY_FUNCTION__._Z4testI20cpp17_input_iteratorIPiS1_E16sentinel_wrapperIS2_E19contiguous_iteratorIS1_ELi8ELi5EEv4DataIXT2_EXT3_EE) #7
  unreachable

76:                                               ; preds = %72
  call void @llvm.lifetime.end.p0(ptr nonnull %2) #6
  call void @llvm.lifetime.start.p0(ptr nonnull %3) #6
  br i1 %8, label %78, label %77

77:                                               ; preds = %76
  store i32 %7, ptr %3, align 4, !tbaa !5, !noalias !95
  br label %78

78:                                               ; preds = %77, %76
  %79 = phi ptr [ %3, %76 ], [ %6, %77 ]
  %80 = phi i64 [ 0, %76 ], [ 4, %77 ]
  br i1 %16, label %83, label %81

81:                                               ; preds = %78
  store i32 %15, ptr %79, align 4, !tbaa !5, !noalias !95
  %82 = add nuw nsw i64 %80, 4
  br label %83

83:                                               ; preds = %81, %78
  %84 = phi i64 [ %80, %78 ], [ %82, %81 ]
  br i1 %23, label %88, label %85

85:                                               ; preds = %83
  %86 = getelementptr inbounds nuw i8, ptr %3, i64 %84
  store i32 %22, ptr %86, align 4, !tbaa !5, !noalias !95
  %87 = add nuw nsw i64 %84, 4
  br label %88

88:                                               ; preds = %85, %83
  %89 = phi i64 [ %84, %83 ], [ %87, %85 ]
  br i1 %31, label %93, label %90

90:                                               ; preds = %88
  %91 = getelementptr inbounds nuw i8, ptr %3, i64 %89
  store i32 %30, ptr %91, align 4, !tbaa !5, !noalias !95
  %92 = add nuw nsw i64 %89, 4
  br label %93

93:                                               ; preds = %90, %88
  %94 = phi i64 [ %89, %88 ], [ %92, %90 ]
  br i1 %39, label %98, label %95

95:                                               ; preds = %93
  %96 = getelementptr inbounds nuw i8, ptr %3, i64 %94
  store i32 %38, ptr %96, align 4, !tbaa !5, !noalias !95
  %97 = add nuw nsw i64 %94, 4
  br label %98

98:                                               ; preds = %95, %93
  %99 = phi i64 [ %94, %93 ], [ %97, %95 ]
  br i1 %47, label %103, label %100

100:                                              ; preds = %98
  %101 = getelementptr inbounds nuw i8, ptr %3, i64 %99
  store i32 %46, ptr %101, align 4, !tbaa !5, !noalias !95
  %102 = add nuw nsw i64 %99, 4
  br label %103

103:                                              ; preds = %100, %98
  %104 = phi i64 [ %99, %98 ], [ %102, %100 ]
  br i1 %55, label %108, label %105

105:                                              ; preds = %103
  %106 = getelementptr inbounds nuw i8, ptr %3, i64 %104
  store i32 %54, ptr %106, align 4, !tbaa !5, !noalias !95
  %107 = add nuw nsw i64 %104, 4
  br label %108

108:                                              ; preds = %105, %103
  %109 = phi i64 [ %104, %103 ], [ %107, %105 ]
  br i1 %63, label %113, label %110

110:                                              ; preds = %108
  %111 = getelementptr inbounds nuw i8, ptr %3, i64 %109
  store i32 %62, ptr %111, align 4, !tbaa !5, !noalias !95
  %112 = add nuw nsw i64 %109, 4
  br label %113

113:                                              ; preds = %110, %108
  %114 = phi i64 [ %109, %108 ], [ %112, %110 ]
  %115 = icmp eq i64 %114, 20
  br i1 %115, label %117, label %116

116:                                              ; preds = %113
  tail call void @__assert_fail(ptr noundef nonnull @.str.11, ptr noundef nonnull @.str.4, i32 noundef 129, ptr noundef nonnull @__PRETTY_FUNCTION__._Z4testI20cpp17_input_iteratorIPiS1_E16sentinel_wrapperIS2_E19contiguous_iteratorIS1_ELi8ELi5EEv4DataIXT2_EXT3_EE) #7
  unreachable

117:                                              ; preds = %113
  %118 = call i32 @bcmp(ptr noundef nonnull align 4 dereferenceable(20) %69, ptr noundef nonnull align 4 dereferenceable(20) %3, i64 20)
  %119 = icmp eq i32 %118, 0
  br i1 %119, label %121, label %120

120:                                              ; preds = %117
  tail call void @__assert_fail(ptr noundef nonnull @.str.12, ptr noundef nonnull @.str.4, i32 noundef 130, ptr noundef nonnull @__PRETTY_FUNCTION__._Z4testI20cpp17_input_iteratorIPiS1_E16sentinel_wrapperIS2_E19contiguous_iteratorIS1_ELi8ELi5EEv4DataIXT2_EXT3_EE) #7
  unreachable

121:                                              ; preds = %117
  call void @llvm.lifetime.end.p0(ptr nonnull %3) #6
  ret void
}

; Function Attrs: mustprogress uwtable
define linkonce_odr dso_local void @_Z4testI20cpp17_input_iteratorIPiS1_E16sentinel_wrapperIS2_ES1_Li6ELi5EEv4DataIXT2_EXT3_EE(ptr noundef byval(%struct.Data) align 8 %0) local_unnamed_addr #1 comdat personality ptr @__gxx_personality_v0 {
  %2 = alloca %"struct.std::array.3", align 4
  %3 = alloca %"struct.std::array.3", align 4
  call void @llvm.lifetime.start.p0(ptr nonnull %2) #6
  %4 = getelementptr inbounds nuw i8, ptr %0, i64 44
  %5 = load i32, ptr %4, align 4, !tbaa !5, !noalias !100
  %6 = getelementptr inbounds nuw i8, ptr %3, i64 4
  %7 = load i32, ptr %0, align 8, !tbaa !5, !noalias !100
  %8 = icmp eq i32 %7, %5
  br i1 %8, label %11, label %9

9:                                                ; preds = %1
  %10 = getelementptr inbounds nuw i8, ptr %2, i64 4
  store i32 %7, ptr %2, align 4, !tbaa !5, !noalias !100
  br label %11

11:                                               ; preds = %9, %1
  %12 = phi ptr [ %2, %1 ], [ %10, %9 ]
  %13 = phi i64 [ 0, %1 ], [ 4, %9 ]
  %14 = getelementptr inbounds nuw i8, ptr %0, i64 4
  %15 = load i32, ptr %14, align 4, !tbaa !5, !noalias !100
  %16 = icmp eq i32 %15, %5
  br i1 %16, label %19, label %17

17:                                               ; preds = %11
  store i32 %15, ptr %12, align 4, !tbaa !5, !noalias !100
  %18 = add nuw nsw i64 %13, 4
  br label %19

19:                                               ; preds = %17, %11
  %20 = phi i64 [ %13, %11 ], [ %18, %17 ]
  %21 = getelementptr inbounds nuw i8, ptr %0, i64 8
  %22 = load i32, ptr %21, align 8, !tbaa !5, !noalias !100
  %23 = icmp eq i32 %22, %5
  br i1 %23, label %27, label %24

24:                                               ; preds = %19
  %25 = getelementptr inbounds nuw i8, ptr %2, i64 %20
  store i32 %22, ptr %25, align 4, !tbaa !5, !noalias !100
  %26 = add nuw nsw i64 %20, 4
  br label %27

27:                                               ; preds = %24, %19
  %28 = phi i64 [ %20, %19 ], [ %26, %24 ]
  %29 = getelementptr inbounds nuw i8, ptr %0, i64 12
  %30 = load i32, ptr %29, align 4, !tbaa !5, !noalias !100
  %31 = icmp eq i32 %30, %5
  br i1 %31, label %35, label %32

32:                                               ; preds = %27
  %33 = getelementptr inbounds nuw i8, ptr %2, i64 %28
  store i32 %30, ptr %33, align 4, !tbaa !5, !noalias !100
  %34 = add nuw nsw i64 %28, 4
  br label %35

35:                                               ; preds = %32, %27
  %36 = phi i64 [ %28, %27 ], [ %34, %32 ]
  %37 = getelementptr inbounds nuw i8, ptr %0, i64 16
  %38 = load i32, ptr %37, align 8, !tbaa !5, !noalias !100
  %39 = icmp eq i32 %38, %5
  br i1 %39, label %43, label %40

40:                                               ; preds = %35
  %41 = getelementptr inbounds nuw i8, ptr %2, i64 %36
  store i32 %38, ptr %41, align 4, !tbaa !5, !noalias !100
  %42 = add nuw nsw i64 %36, 4
  br label %43

43:                                               ; preds = %40, %35
  %44 = phi i64 [ %36, %35 ], [ %42, %40 ]
  %45 = getelementptr inbounds nuw i8, ptr %0, i64 20
  %46 = load i32, ptr %45, align 4, !tbaa !5, !noalias !100
  %47 = icmp eq i32 %46, %5
  br i1 %47, label %51, label %48

48:                                               ; preds = %43
  %49 = getelementptr inbounds nuw i8, ptr %2, i64 %44
  store i32 %46, ptr %49, align 4, !tbaa !5, !noalias !100
  %50 = add nuw nsw i64 %44, 4
  br label %51

51:                                               ; preds = %48, %43
  %52 = phi i64 [ %44, %43 ], [ %50, %48 ]
  %53 = getelementptr inbounds nuw i8, ptr %0, i64 24
  %54 = icmp eq i64 %52, 20
  br i1 %54, label %56, label %55

55:                                               ; preds = %51
  tail call void @__assert_fail(ptr noundef nonnull @.str.11, ptr noundef nonnull @.str.4, i32 noundef 117, ptr noundef nonnull @__PRETTY_FUNCTION__._Z4testI20cpp17_input_iteratorIPiS1_E16sentinel_wrapperIS2_ES1_Li6ELi5EEv4DataIXT2_EXT3_EE) #7
  unreachable

56:                                               ; preds = %51
  %57 = call i32 @bcmp(ptr noundef nonnull align 4 dereferenceable(20) %53, ptr noundef nonnull align 4 dereferenceable(20) %2, i64 20)
  %58 = icmp eq i32 %57, 0
  br i1 %58, label %60, label %59

59:                                               ; preds = %56
  tail call void @__assert_fail(ptr noundef nonnull @.str.12, ptr noundef nonnull @.str.4, i32 noundef 118, ptr noundef nonnull @__PRETTY_FUNCTION__._Z4testI20cpp17_input_iteratorIPiS1_E16sentinel_wrapperIS2_ES1_Li6ELi5EEv4DataIXT2_EXT3_EE) #7
  unreachable

60:                                               ; preds = %56
  call void @llvm.lifetime.end.p0(ptr nonnull %2) #6
  call void @llvm.lifetime.start.p0(ptr nonnull %3) #6
  br i1 %8, label %62, label %61

61:                                               ; preds = %60
  store i32 %7, ptr %3, align 4, !tbaa !5, !noalias !103
  br label %62

62:                                               ; preds = %61, %60
  %63 = phi ptr [ %3, %60 ], [ %6, %61 ]
  %64 = phi i64 [ 0, %60 ], [ 4, %61 ]
  br i1 %16, label %67, label %65

65:                                               ; preds = %62
  store i32 %15, ptr %63, align 4, !tbaa !5, !noalias !103
  %66 = add nuw nsw i64 %64, 4
  br label %67

67:                                               ; preds = %65, %62
  %68 = phi i64 [ %64, %62 ], [ %66, %65 ]
  br i1 %23, label %72, label %69

69:                                               ; preds = %67
  %70 = getelementptr inbounds nuw i8, ptr %3, i64 %68
  store i32 %22, ptr %70, align 4, !tbaa !5, !noalias !103
  %71 = add nuw nsw i64 %68, 4
  br label %72

72:                                               ; preds = %69, %67
  %73 = phi i64 [ %68, %67 ], [ %71, %69 ]
  br i1 %31, label %77, label %74

74:                                               ; preds = %72
  %75 = getelementptr inbounds nuw i8, ptr %3, i64 %73
  store i32 %30, ptr %75, align 4, !tbaa !5, !noalias !103
  %76 = add nuw nsw i64 %73, 4
  br label %77

77:                                               ; preds = %74, %72
  %78 = phi i64 [ %73, %72 ], [ %76, %74 ]
  br i1 %39, label %82, label %79

79:                                               ; preds = %77
  %80 = getelementptr inbounds nuw i8, ptr %3, i64 %78
  store i32 %38, ptr %80, align 4, !tbaa !5, !noalias !103
  %81 = add nuw nsw i64 %78, 4
  br label %82

82:                                               ; preds = %79, %77
  %83 = phi i64 [ %78, %77 ], [ %81, %79 ]
  br i1 %47, label %87, label %84

84:                                               ; preds = %82
  %85 = getelementptr inbounds nuw i8, ptr %3, i64 %83
  store i32 %46, ptr %85, align 4, !tbaa !5, !noalias !103
  %86 = add nuw nsw i64 %83, 4
  br label %87

87:                                               ; preds = %84, %82
  %88 = phi i64 [ %83, %82 ], [ %86, %84 ]
  %89 = icmp eq i64 %88, 20
  br i1 %89, label %91, label %90

90:                                               ; preds = %87
  tail call void @__assert_fail(ptr noundef nonnull @.str.11, ptr noundef nonnull @.str.4, i32 noundef 129, ptr noundef nonnull @__PRETTY_FUNCTION__._Z4testI20cpp17_input_iteratorIPiS1_E16sentinel_wrapperIS2_ES1_Li6ELi5EEv4DataIXT2_EXT3_EE) #7
  unreachable

91:                                               ; preds = %87
  %92 = call i32 @bcmp(ptr noundef nonnull align 4 dereferenceable(20) %53, ptr noundef nonnull align 4 dereferenceable(20) %3, i64 20)
  %93 = icmp eq i32 %92, 0
  br i1 %93, label %95, label %94

94:                                               ; preds = %91
  tail call void @__assert_fail(ptr noundef nonnull @.str.12, ptr noundef nonnull @.str.4, i32 noundef 130, ptr noundef nonnull @__PRETTY_FUNCTION__._Z4testI20cpp17_input_iteratorIPiS1_E16sentinel_wrapperIS2_ES1_Li6ELi5EEv4DataIXT2_EXT3_EE) #7
  unreachable

95:                                               ; preds = %91
  call void @llvm.lifetime.end.p0(ptr nonnull %3) #6
  ret void
}

; Function Attrs: mustprogress uwtable
define linkonce_odr dso_local void @_Z4testI20cpp17_input_iteratorIPiS1_E16sentinel_wrapperIS2_ES1_Li8ELi5EEv4DataIXT2_EXT3_EE(ptr noundef byval(%struct.Data.11) align 8 %0) local_unnamed_addr #1 comdat personality ptr @__gxx_personality_v0 {
  %2 = alloca %"struct.std::array.3", align 4
  %3 = alloca %"struct.std::array.3", align 4
  call void @llvm.lifetime.start.p0(ptr nonnull %2) #6
  %4 = getelementptr inbounds nuw i8, ptr %0, i64 52
  %5 = load i32, ptr %4, align 4, !tbaa !5, !noalias !108
  %6 = getelementptr inbounds nuw i8, ptr %3, i64 4
  %7 = load i32, ptr %0, align 8, !tbaa !5, !noalias !108
  %8 = icmp eq i32 %7, %5
  br i1 %8, label %11, label %9

9:                                                ; preds = %1
  %10 = getelementptr inbounds nuw i8, ptr %2, i64 4
  store i32 %7, ptr %2, align 4, !tbaa !5, !noalias !108
  br label %11

11:                                               ; preds = %9, %1
  %12 = phi ptr [ %2, %1 ], [ %10, %9 ]
  %13 = phi i64 [ 0, %1 ], [ 4, %9 ]
  %14 = getelementptr inbounds nuw i8, ptr %0, i64 4
  %15 = load i32, ptr %14, align 4, !tbaa !5, !noalias !108
  %16 = icmp eq i32 %15, %5
  br i1 %16, label %19, label %17

17:                                               ; preds = %11
  store i32 %15, ptr %12, align 4, !tbaa !5, !noalias !108
  %18 = add nuw nsw i64 %13, 4
  br label %19

19:                                               ; preds = %17, %11
  %20 = phi i64 [ %13, %11 ], [ %18, %17 ]
  %21 = getelementptr inbounds nuw i8, ptr %0, i64 8
  %22 = load i32, ptr %21, align 8, !tbaa !5, !noalias !108
  %23 = icmp eq i32 %22, %5
  br i1 %23, label %27, label %24

24:                                               ; preds = %19
  %25 = getelementptr inbounds nuw i8, ptr %2, i64 %20
  store i32 %22, ptr %25, align 4, !tbaa !5, !noalias !108
  %26 = add nuw nsw i64 %20, 4
  br label %27

27:                                               ; preds = %24, %19
  %28 = phi i64 [ %20, %19 ], [ %26, %24 ]
  %29 = getelementptr inbounds nuw i8, ptr %0, i64 12
  %30 = load i32, ptr %29, align 4, !tbaa !5, !noalias !108
  %31 = icmp eq i32 %30, %5
  br i1 %31, label %35, label %32

32:                                               ; preds = %27
  %33 = getelementptr inbounds nuw i8, ptr %2, i64 %28
  store i32 %30, ptr %33, align 4, !tbaa !5, !noalias !108
  %34 = add nuw nsw i64 %28, 4
  br label %35

35:                                               ; preds = %32, %27
  %36 = phi i64 [ %28, %27 ], [ %34, %32 ]
  %37 = getelementptr inbounds nuw i8, ptr %0, i64 16
  %38 = load i32, ptr %37, align 8, !tbaa !5, !noalias !108
  %39 = icmp eq i32 %38, %5
  br i1 %39, label %43, label %40

40:                                               ; preds = %35
  %41 = getelementptr inbounds nuw i8, ptr %2, i64 %36
  store i32 %38, ptr %41, align 4, !tbaa !5, !noalias !108
  %42 = add nuw nsw i64 %36, 4
  br label %43

43:                                               ; preds = %40, %35
  %44 = phi i64 [ %36, %35 ], [ %42, %40 ]
  %45 = getelementptr inbounds nuw i8, ptr %0, i64 20
  %46 = load i32, ptr %45, align 4, !tbaa !5, !noalias !108
  %47 = icmp eq i32 %46, %5
  br i1 %47, label %51, label %48

48:                                               ; preds = %43
  %49 = getelementptr inbounds nuw i8, ptr %2, i64 %44
  store i32 %46, ptr %49, align 4, !tbaa !5, !noalias !108
  %50 = add nuw nsw i64 %44, 4
  br label %51

51:                                               ; preds = %48, %43
  %52 = phi i64 [ %44, %43 ], [ %50, %48 ]
  %53 = getelementptr inbounds nuw i8, ptr %0, i64 24
  %54 = load i32, ptr %53, align 8, !tbaa !5, !noalias !108
  %55 = icmp eq i32 %54, %5
  br i1 %55, label %59, label %56

56:                                               ; preds = %51
  %57 = getelementptr inbounds nuw i8, ptr %2, i64 %52
  store i32 %54, ptr %57, align 4, !tbaa !5, !noalias !108
  %58 = add nuw nsw i64 %52, 4
  br label %59

59:                                               ; preds = %56, %51
  %60 = phi i64 [ %52, %51 ], [ %58, %56 ]
  %61 = getelementptr inbounds nuw i8, ptr %0, i64 28
  %62 = load i32, ptr %61, align 4, !tbaa !5, !noalias !108
  %63 = icmp eq i32 %62, %5
  br i1 %63, label %67, label %64

64:                                               ; preds = %59
  %65 = getelementptr inbounds nuw i8, ptr %2, i64 %60
  store i32 %62, ptr %65, align 4, !tbaa !5, !noalias !108
  %66 = add nuw nsw i64 %60, 4
  br label %67

67:                                               ; preds = %64, %59
  %68 = phi i64 [ %60, %59 ], [ %66, %64 ]
  %69 = getelementptr inbounds nuw i8, ptr %0, i64 32
  %70 = icmp eq i64 %68, 20
  br i1 %70, label %72, label %71

71:                                               ; preds = %67
  tail call void @__assert_fail(ptr noundef nonnull @.str.11, ptr noundef nonnull @.str.4, i32 noundef 117, ptr noundef nonnull @__PRETTY_FUNCTION__._Z4testI20cpp17_input_iteratorIPiS1_E16sentinel_wrapperIS2_ES1_Li8ELi5EEv4DataIXT2_EXT3_EE) #7
  unreachable

72:                                               ; preds = %67
  %73 = call i32 @bcmp(ptr noundef nonnull align 4 dereferenceable(20) %69, ptr noundef nonnull align 4 dereferenceable(20) %2, i64 20)
  %74 = icmp eq i32 %73, 0
  br i1 %74, label %76, label %75

75:                                               ; preds = %72
  tail call void @__assert_fail(ptr noundef nonnull @.str.12, ptr noundef nonnull @.str.4, i32 noundef 118, ptr noundef nonnull @__PRETTY_FUNCTION__._Z4testI20cpp17_input_iteratorIPiS1_E16sentinel_wrapperIS2_ES1_Li8ELi5EEv4DataIXT2_EXT3_EE) #7
  unreachable

76:                                               ; preds = %72
  call void @llvm.lifetime.end.p0(ptr nonnull %2) #6
  call void @llvm.lifetime.start.p0(ptr nonnull %3) #6
  br i1 %8, label %78, label %77

77:                                               ; preds = %76
  store i32 %7, ptr %3, align 4, !tbaa !5, !noalias !111
  br label %78

78:                                               ; preds = %77, %76
  %79 = phi ptr [ %3, %76 ], [ %6, %77 ]
  %80 = phi i64 [ 0, %76 ], [ 4, %77 ]
  br i1 %16, label %83, label %81

81:                                               ; preds = %78
  store i32 %15, ptr %79, align 4, !tbaa !5, !noalias !111
  %82 = add nuw nsw i64 %80, 4
  br label %83

83:                                               ; preds = %81, %78
  %84 = phi i64 [ %80, %78 ], [ %82, %81 ]
  br i1 %23, label %88, label %85

85:                                               ; preds = %83
  %86 = getelementptr inbounds nuw i8, ptr %3, i64 %84
  store i32 %22, ptr %86, align 4, !tbaa !5, !noalias !111
  %87 = add nuw nsw i64 %84, 4
  br label %88

88:                                               ; preds = %85, %83
  %89 = phi i64 [ %84, %83 ], [ %87, %85 ]
  br i1 %31, label %93, label %90

90:                                               ; preds = %88
  %91 = getelementptr inbounds nuw i8, ptr %3, i64 %89
  store i32 %30, ptr %91, align 4, !tbaa !5, !noalias !111
  %92 = add nuw nsw i64 %89, 4
  br label %93

93:                                               ; preds = %90, %88
  %94 = phi i64 [ %89, %88 ], [ %92, %90 ]
  br i1 %39, label %98, label %95

95:                                               ; preds = %93
  %96 = getelementptr inbounds nuw i8, ptr %3, i64 %94
  store i32 %38, ptr %96, align 4, !tbaa !5, !noalias !111
  %97 = add nuw nsw i64 %94, 4
  br label %98

98:                                               ; preds = %95, %93
  %99 = phi i64 [ %94, %93 ], [ %97, %95 ]
  br i1 %47, label %103, label %100

100:                                              ; preds = %98
  %101 = getelementptr inbounds nuw i8, ptr %3, i64 %99
  store i32 %46, ptr %101, align 4, !tbaa !5, !noalias !111
  %102 = add nuw nsw i64 %99, 4
  br label %103

103:                                              ; preds = %100, %98
  %104 = phi i64 [ %99, %98 ], [ %102, %100 ]
  br i1 %55, label %108, label %105

105:                                              ; preds = %103
  %106 = getelementptr inbounds nuw i8, ptr %3, i64 %104
  store i32 %54, ptr %106, align 4, !tbaa !5, !noalias !111
  %107 = add nuw nsw i64 %104, 4
  br label %108

108:                                              ; preds = %105, %103
  %109 = phi i64 [ %104, %103 ], [ %107, %105 ]
  br i1 %63, label %113, label %110

110:                                              ; preds = %108
  %111 = getelementptr inbounds nuw i8, ptr %3, i64 %109
  store i32 %62, ptr %111, align 4, !tbaa !5, !noalias !111
  %112 = add nuw nsw i64 %109, 4
  br label %113

113:                                              ; preds = %110, %108
  %114 = phi i64 [ %109, %108 ], [ %112, %110 ]
  %115 = icmp eq i64 %114, 20
  br i1 %115, label %117, label %116

116:                                              ; preds = %113
  tail call void @__assert_fail(ptr noundef nonnull @.str.11, ptr noundef nonnull @.str.4, i32 noundef 129, ptr noundef nonnull @__PRETTY_FUNCTION__._Z4testI20cpp17_input_iteratorIPiS1_E16sentinel_wrapperIS2_ES1_Li8ELi5EEv4DataIXT2_EXT3_EE) #7
  unreachable

117:                                              ; preds = %113
  %118 = call i32 @bcmp(ptr noundef nonnull align 4 dereferenceable(20) %69, ptr noundef nonnull align 4 dereferenceable(20) %3, i64 20)
  %119 = icmp eq i32 %118, 0
  br i1 %119, label %121, label %120

120:                                              ; preds = %117
  tail call void @__assert_fail(ptr noundef nonnull @.str.12, ptr noundef nonnull @.str.4, i32 noundef 130, ptr noundef nonnull @__PRETTY_FUNCTION__._Z4testI20cpp17_input_iteratorIPiS1_E16sentinel_wrapperIS2_ES1_Li8ELi5EEv4DataIXT2_EXT3_EE) #7
  unreachable

121:                                              ; preds = %117
  call void @llvm.lifetime.end.p0(ptr nonnull %3) #6
  ret void
}

; Function Attrs: mustprogress uwtable
define linkonce_odr dso_local void @_Z4testI20cpp17_input_iteratorIPiS1_E14sized_sentinelIS2_E21cpp17_output_iteratorIS1_ELi6ELi5EEv4DataIXT2_EXT3_EE(ptr noundef byval(%struct.Data) align 8 %0) local_unnamed_addr #1 comdat personality ptr @__gxx_personality_v0 {
  %2 = alloca %"struct.std::array.3", align 4
  %3 = alloca %"struct.std::array.3", align 4
  call void @llvm.lifetime.start.p0(ptr nonnull %2) #6
  %4 = getelementptr inbounds nuw i8, ptr %0, i64 44
  %5 = load i32, ptr %4, align 4, !tbaa !5, !noalias !116
  %6 = getelementptr inbounds nuw i8, ptr %3, i64 4
  %7 = load i32, ptr %0, align 8, !tbaa !5, !noalias !116
  %8 = icmp eq i32 %7, %5
  br i1 %8, label %11, label %9

9:                                                ; preds = %1
  %10 = getelementptr inbounds nuw i8, ptr %2, i64 4
  store i32 %7, ptr %2, align 4, !tbaa !5, !noalias !116
  br label %11

11:                                               ; preds = %9, %1
  %12 = phi ptr [ %2, %1 ], [ %10, %9 ]
  %13 = phi i64 [ 0, %1 ], [ 4, %9 ]
  %14 = getelementptr inbounds nuw i8, ptr %0, i64 4
  %15 = load i32, ptr %14, align 4, !tbaa !5, !noalias !116
  %16 = icmp eq i32 %15, %5
  br i1 %16, label %19, label %17

17:                                               ; preds = %11
  store i32 %15, ptr %12, align 4, !tbaa !5, !noalias !116
  %18 = add nuw nsw i64 %13, 4
  br label %19

19:                                               ; preds = %17, %11
  %20 = phi i64 [ %13, %11 ], [ %18, %17 ]
  %21 = getelementptr inbounds nuw i8, ptr %0, i64 8
  %22 = load i32, ptr %21, align 8, !tbaa !5, !noalias !116
  %23 = icmp eq i32 %22, %5
  br i1 %23, label %27, label %24

24:                                               ; preds = %19
  %25 = getelementptr inbounds nuw i8, ptr %2, i64 %20
  store i32 %22, ptr %25, align 4, !tbaa !5, !noalias !116
  %26 = add nuw nsw i64 %20, 4
  br label %27

27:                                               ; preds = %24, %19
  %28 = phi i64 [ %20, %19 ], [ %26, %24 ]
  %29 = getelementptr inbounds nuw i8, ptr %0, i64 12
  %30 = load i32, ptr %29, align 4, !tbaa !5, !noalias !116
  %31 = icmp eq i32 %30, %5
  br i1 %31, label %35, label %32

32:                                               ; preds = %27
  %33 = getelementptr inbounds nuw i8, ptr %2, i64 %28
  store i32 %30, ptr %33, align 4, !tbaa !5, !noalias !116
  %34 = add nuw nsw i64 %28, 4
  br label %35

35:                                               ; preds = %32, %27
  %36 = phi i64 [ %28, %27 ], [ %34, %32 ]
  %37 = getelementptr inbounds nuw i8, ptr %0, i64 16
  %38 = load i32, ptr %37, align 8, !tbaa !5, !noalias !116
  %39 = icmp eq i32 %38, %5
  br i1 %39, label %43, label %40

40:                                               ; preds = %35
  %41 = getelementptr inbounds nuw i8, ptr %2, i64 %36
  store i32 %38, ptr %41, align 4, !tbaa !5, !noalias !116
  %42 = add nuw nsw i64 %36, 4
  br label %43

43:                                               ; preds = %40, %35
  %44 = phi i64 [ %36, %35 ], [ %42, %40 ]
  %45 = getelementptr inbounds nuw i8, ptr %0, i64 20
  %46 = load i32, ptr %45, align 4, !tbaa !5, !noalias !116
  %47 = icmp eq i32 %46, %5
  br i1 %47, label %51, label %48

48:                                               ; preds = %43
  %49 = getelementptr inbounds nuw i8, ptr %2, i64 %44
  store i32 %46, ptr %49, align 4, !tbaa !5, !noalias !116
  %50 = add nuw nsw i64 %44, 4
  br label %51

51:                                               ; preds = %48, %43
  %52 = phi i64 [ %44, %43 ], [ %50, %48 ]
  %53 = getelementptr inbounds nuw i8, ptr %0, i64 24
  %54 = icmp eq i64 %52, 20
  br i1 %54, label %56, label %55

55:                                               ; preds = %51
  tail call void @__assert_fail(ptr noundef nonnull @.str.11, ptr noundef nonnull @.str.4, i32 noundef 117, ptr noundef nonnull @__PRETTY_FUNCTION__._Z4testI20cpp17_input_iteratorIPiS1_E14sized_sentinelIS2_E21cpp17_output_iteratorIS1_ELi6ELi5EEv4DataIXT2_EXT3_EE) #7
  unreachable

56:                                               ; preds = %51
  %57 = call i32 @bcmp(ptr noundef nonnull align 4 dereferenceable(20) %53, ptr noundef nonnull align 4 dereferenceable(20) %2, i64 20)
  %58 = icmp eq i32 %57, 0
  br i1 %58, label %60, label %59

59:                                               ; preds = %56
  tail call void @__assert_fail(ptr noundef nonnull @.str.12, ptr noundef nonnull @.str.4, i32 noundef 118, ptr noundef nonnull @__PRETTY_FUNCTION__._Z4testI20cpp17_input_iteratorIPiS1_E14sized_sentinelIS2_E21cpp17_output_iteratorIS1_ELi6ELi5EEv4DataIXT2_EXT3_EE) #7
  unreachable

60:                                               ; preds = %56
  call void @llvm.lifetime.end.p0(ptr nonnull %2) #6
  call void @llvm.lifetime.start.p0(ptr nonnull %3) #6
  br i1 %8, label %62, label %61

61:                                               ; preds = %60
  store i32 %7, ptr %3, align 4, !tbaa !5, !noalias !119
  br label %62

62:                                               ; preds = %61, %60
  %63 = phi ptr [ %3, %60 ], [ %6, %61 ]
  %64 = phi i64 [ 0, %60 ], [ 4, %61 ]
  br i1 %16, label %67, label %65

65:                                               ; preds = %62
  store i32 %15, ptr %63, align 4, !tbaa !5, !noalias !119
  %66 = add nuw nsw i64 %64, 4
  br label %67

67:                                               ; preds = %65, %62
  %68 = phi i64 [ %64, %62 ], [ %66, %65 ]
  br i1 %23, label %72, label %69

69:                                               ; preds = %67
  %70 = getelementptr inbounds nuw i8, ptr %3, i64 %68
  store i32 %22, ptr %70, align 4, !tbaa !5, !noalias !119
  %71 = add nuw nsw i64 %68, 4
  br label %72

72:                                               ; preds = %69, %67
  %73 = phi i64 [ %68, %67 ], [ %71, %69 ]
  br i1 %31, label %77, label %74

74:                                               ; preds = %72
  %75 = getelementptr inbounds nuw i8, ptr %3, i64 %73
  store i32 %30, ptr %75, align 4, !tbaa !5, !noalias !119
  %76 = add nuw nsw i64 %73, 4
  br label %77

77:                                               ; preds = %74, %72
  %78 = phi i64 [ %73, %72 ], [ %76, %74 ]
  br i1 %39, label %82, label %79

79:                                               ; preds = %77
  %80 = getelementptr inbounds nuw i8, ptr %3, i64 %78
  store i32 %38, ptr %80, align 4, !tbaa !5, !noalias !119
  %81 = add nuw nsw i64 %78, 4
  br label %82

82:                                               ; preds = %79, %77
  %83 = phi i64 [ %78, %77 ], [ %81, %79 ]
  br i1 %47, label %87, label %84

84:                                               ; preds = %82
  %85 = getelementptr inbounds nuw i8, ptr %3, i64 %83
  store i32 %46, ptr %85, align 4, !tbaa !5, !noalias !119
  %86 = add nuw nsw i64 %83, 4
  br label %87

87:                                               ; preds = %84, %82
  %88 = phi i64 [ %83, %82 ], [ %86, %84 ]
  %89 = icmp eq i64 %88, 20
  br i1 %89, label %91, label %90

90:                                               ; preds = %87
  tail call void @__assert_fail(ptr noundef nonnull @.str.11, ptr noundef nonnull @.str.4, i32 noundef 129, ptr noundef nonnull @__PRETTY_FUNCTION__._Z4testI20cpp17_input_iteratorIPiS1_E14sized_sentinelIS2_E21cpp17_output_iteratorIS1_ELi6ELi5EEv4DataIXT2_EXT3_EE) #7
  unreachable

91:                                               ; preds = %87
  %92 = call i32 @bcmp(ptr noundef nonnull align 4 dereferenceable(20) %53, ptr noundef nonnull align 4 dereferenceable(20) %3, i64 20)
  %93 = icmp eq i32 %92, 0
  br i1 %93, label %95, label %94

94:                                               ; preds = %91
  tail call void @__assert_fail(ptr noundef nonnull @.str.12, ptr noundef nonnull @.str.4, i32 noundef 130, ptr noundef nonnull @__PRETTY_FUNCTION__._Z4testI20cpp17_input_iteratorIPiS1_E14sized_sentinelIS2_E21cpp17_output_iteratorIS1_ELi6ELi5EEv4DataIXT2_EXT3_EE) #7
  unreachable

95:                                               ; preds = %91
  call void @llvm.lifetime.end.p0(ptr nonnull %3) #6
  ret void
}

; Function Attrs: mustprogress uwtable
define linkonce_odr dso_local void @_Z4testI20cpp17_input_iteratorIPiS1_E14sized_sentinelIS2_E21cpp17_output_iteratorIS1_ELi8ELi5EEv4DataIXT2_EXT3_EE(ptr noundef byval(%struct.Data.11) align 8 %0) local_unnamed_addr #1 comdat personality ptr @__gxx_personality_v0 {
  %2 = alloca %"struct.std::array.3", align 4
  %3 = alloca %"struct.std::array.3", align 4
  call void @llvm.lifetime.start.p0(ptr nonnull %2) #6
  %4 = getelementptr inbounds nuw i8, ptr %0, i64 52
  %5 = load i32, ptr %4, align 4, !tbaa !5, !noalias !124
  %6 = getelementptr inbounds nuw i8, ptr %3, i64 4
  %7 = load i32, ptr %0, align 8, !tbaa !5, !noalias !124
  %8 = icmp eq i32 %7, %5
  br i1 %8, label %11, label %9

9:                                                ; preds = %1
  %10 = getelementptr inbounds nuw i8, ptr %2, i64 4
  store i32 %7, ptr %2, align 4, !tbaa !5, !noalias !124
  br label %11

11:                                               ; preds = %9, %1
  %12 = phi ptr [ %2, %1 ], [ %10, %9 ]
  %13 = phi i64 [ 0, %1 ], [ 4, %9 ]
  %14 = getelementptr inbounds nuw i8, ptr %0, i64 4
  %15 = load i32, ptr %14, align 4, !tbaa !5, !noalias !124
  %16 = icmp eq i32 %15, %5
  br i1 %16, label %19, label %17

17:                                               ; preds = %11
  store i32 %15, ptr %12, align 4, !tbaa !5, !noalias !124
  %18 = add nuw nsw i64 %13, 4
  br label %19

19:                                               ; preds = %17, %11
  %20 = phi i64 [ %13, %11 ], [ %18, %17 ]
  %21 = getelementptr inbounds nuw i8, ptr %0, i64 8
  %22 = load i32, ptr %21, align 8, !tbaa !5, !noalias !124
  %23 = icmp eq i32 %22, %5
  br i1 %23, label %27, label %24

24:                                               ; preds = %19
  %25 = getelementptr inbounds nuw i8, ptr %2, i64 %20
  store i32 %22, ptr %25, align 4, !tbaa !5, !noalias !124
  %26 = add nuw nsw i64 %20, 4
  br label %27

27:                                               ; preds = %24, %19
  %28 = phi i64 [ %20, %19 ], [ %26, %24 ]
  %29 = getelementptr inbounds nuw i8, ptr %0, i64 12
  %30 = load i32, ptr %29, align 4, !tbaa !5, !noalias !124
  %31 = icmp eq i32 %30, %5
  br i1 %31, label %35, label %32

32:                                               ; preds = %27
  %33 = getelementptr inbounds nuw i8, ptr %2, i64 %28
  store i32 %30, ptr %33, align 4, !tbaa !5, !noalias !124
  %34 = add nuw nsw i64 %28, 4
  br label %35

35:                                               ; preds = %32, %27
  %36 = phi i64 [ %28, %27 ], [ %34, %32 ]
  %37 = getelementptr inbounds nuw i8, ptr %0, i64 16
  %38 = load i32, ptr %37, align 8, !tbaa !5, !noalias !124
  %39 = icmp eq i32 %38, %5
  br i1 %39, label %43, label %40

40:                                               ; preds = %35
  %41 = getelementptr inbounds nuw i8, ptr %2, i64 %36
  store i32 %38, ptr %41, align 4, !tbaa !5, !noalias !124
  %42 = add nuw nsw i64 %36, 4
  br label %43

43:                                               ; preds = %40, %35
  %44 = phi i64 [ %36, %35 ], [ %42, %40 ]
  %45 = getelementptr inbounds nuw i8, ptr %0, i64 20
  %46 = load i32, ptr %45, align 4, !tbaa !5, !noalias !124
  %47 = icmp eq i32 %46, %5
  br i1 %47, label %51, label %48

48:                                               ; preds = %43
  %49 = getelementptr inbounds nuw i8, ptr %2, i64 %44
  store i32 %46, ptr %49, align 4, !tbaa !5, !noalias !124
  %50 = add nuw nsw i64 %44, 4
  br label %51

51:                                               ; preds = %48, %43
  %52 = phi i64 [ %44, %43 ], [ %50, %48 ]
  %53 = getelementptr inbounds nuw i8, ptr %0, i64 24
  %54 = load i32, ptr %53, align 8, !tbaa !5, !noalias !124
  %55 = icmp eq i32 %54, %5
  br i1 %55, label %59, label %56

56:                                               ; preds = %51
  %57 = getelementptr inbounds nuw i8, ptr %2, i64 %52
  store i32 %54, ptr %57, align 4, !tbaa !5, !noalias !124
  %58 = add nuw nsw i64 %52, 4
  br label %59

59:                                               ; preds = %56, %51
  %60 = phi i64 [ %52, %51 ], [ %58, %56 ]
  %61 = getelementptr inbounds nuw i8, ptr %0, i64 28
  %62 = load i32, ptr %61, align 4, !tbaa !5, !noalias !124
  %63 = icmp eq i32 %62, %5
  br i1 %63, label %67, label %64

64:                                               ; preds = %59
  %65 = getelementptr inbounds nuw i8, ptr %2, i64 %60
  store i32 %62, ptr %65, align 4, !tbaa !5, !noalias !124
  %66 = add nuw nsw i64 %60, 4
  br label %67

67:                                               ; preds = %64, %59
  %68 = phi i64 [ %60, %59 ], [ %66, %64 ]
  %69 = getelementptr inbounds nuw i8, ptr %0, i64 32
  %70 = icmp eq i64 %68, 20
  br i1 %70, label %72, label %71

71:                                               ; preds = %67
  tail call void @__assert_fail(ptr noundef nonnull @.str.11, ptr noundef nonnull @.str.4, i32 noundef 117, ptr noundef nonnull @__PRETTY_FUNCTION__._Z4testI20cpp17_input_iteratorIPiS1_E14sized_sentinelIS2_E21cpp17_output_iteratorIS1_ELi8ELi5EEv4DataIXT2_EXT3_EE) #7
  unreachable

72:                                               ; preds = %67
  %73 = call i32 @bcmp(ptr noundef nonnull align 4 dereferenceable(20) %69, ptr noundef nonnull align 4 dereferenceable(20) %2, i64 20)
  %74 = icmp eq i32 %73, 0
  br i1 %74, label %76, label %75

75:                                               ; preds = %72
  tail call void @__assert_fail(ptr noundef nonnull @.str.12, ptr noundef nonnull @.str.4, i32 noundef 118, ptr noundef nonnull @__PRETTY_FUNCTION__._Z4testI20cpp17_input_iteratorIPiS1_E14sized_sentinelIS2_E21cpp17_output_iteratorIS1_ELi8ELi5EEv4DataIXT2_EXT3_EE) #7
  unreachable

76:                                               ; preds = %72
  call void @llvm.lifetime.end.p0(ptr nonnull %2) #6
  call void @llvm.lifetime.start.p0(ptr nonnull %3) #6
  br i1 %8, label %78, label %77

77:                                               ; preds = %76
  store i32 %7, ptr %3, align 4, !tbaa !5, !noalias !127
  br label %78

78:                                               ; preds = %77, %76
  %79 = phi ptr [ %3, %76 ], [ %6, %77 ]
  %80 = phi i64 [ 0, %76 ], [ 4, %77 ]
  br i1 %16, label %83, label %81

81:                                               ; preds = %78
  store i32 %15, ptr %79, align 4, !tbaa !5, !noalias !127
  %82 = add nuw nsw i64 %80, 4
  br label %83

83:                                               ; preds = %81, %78
  %84 = phi i64 [ %80, %78 ], [ %82, %81 ]
  br i1 %23, label %88, label %85

85:                                               ; preds = %83
  %86 = getelementptr inbounds nuw i8, ptr %3, i64 %84
  store i32 %22, ptr %86, align 4, !tbaa !5, !noalias !127
  %87 = add nuw nsw i64 %84, 4
  br label %88

88:                                               ; preds = %85, %83
  %89 = phi i64 [ %84, %83 ], [ %87, %85 ]
  br i1 %31, label %93, label %90

90:                                               ; preds = %88
  %91 = getelementptr inbounds nuw i8, ptr %3, i64 %89
  store i32 %30, ptr %91, align 4, !tbaa !5, !noalias !127
  %92 = add nuw nsw i64 %89, 4
  br label %93

93:                                               ; preds = %90, %88
  %94 = phi i64 [ %89, %88 ], [ %92, %90 ]
  br i1 %39, label %98, label %95

95:                                               ; preds = %93
  %96 = getelementptr inbounds nuw i8, ptr %3, i64 %94
  store i32 %38, ptr %96, align 4, !tbaa !5, !noalias !127
  %97 = add nuw nsw i64 %94, 4
  br label %98

98:                                               ; preds = %95, %93
  %99 = phi i64 [ %94, %93 ], [ %97, %95 ]
  br i1 %47, label %103, label %100

100:                                              ; preds = %98
  %101 = getelementptr inbounds nuw i8, ptr %3, i64 %99
  store i32 %46, ptr %101, align 4, !tbaa !5, !noalias !127
  %102 = add nuw nsw i64 %99, 4
  br label %103

103:                                              ; preds = %100, %98
  %104 = phi i64 [ %99, %98 ], [ %102, %100 ]
  br i1 %55, label %108, label %105

105:                                              ; preds = %103
  %106 = getelementptr inbounds nuw i8, ptr %3, i64 %104
  store i32 %54, ptr %106, align 4, !tbaa !5, !noalias !127
  %107 = add nuw nsw i64 %104, 4
  br label %108

108:                                              ; preds = %105, %103
  %109 = phi i64 [ %104, %103 ], [ %107, %105 ]
  br i1 %63, label %113, label %110

110:                                              ; preds = %108
  %111 = getelementptr inbounds nuw i8, ptr %3, i64 %109
  store i32 %62, ptr %111, align 4, !tbaa !5, !noalias !127
  %112 = add nuw nsw i64 %109, 4
  br label %113

113:                                              ; preds = %110, %108
  %114 = phi i64 [ %109, %108 ], [ %112, %110 ]
  %115 = icmp eq i64 %114, 20
  br i1 %115, label %117, label %116

116:                                              ; preds = %113
  tail call void @__assert_fail(ptr noundef nonnull @.str.11, ptr noundef nonnull @.str.4, i32 noundef 129, ptr noundef nonnull @__PRETTY_FUNCTION__._Z4testI20cpp17_input_iteratorIPiS1_E14sized_sentinelIS2_E21cpp17_output_iteratorIS1_ELi8ELi5EEv4DataIXT2_EXT3_EE) #7
  unreachable

117:                                              ; preds = %113
  %118 = call i32 @bcmp(ptr noundef nonnull align 4 dereferenceable(20) %69, ptr noundef nonnull align 4 dereferenceable(20) %3, i64 20)
  %119 = icmp eq i32 %118, 0
  br i1 %119, label %121, label %120

120:                                              ; preds = %117
  tail call void @__assert_fail(ptr noundef nonnull @.str.12, ptr noundef nonnull @.str.4, i32 noundef 130, ptr noundef nonnull @__PRETTY_FUNCTION__._Z4testI20cpp17_input_iteratorIPiS1_E14sized_sentinelIS2_E21cpp17_output_iteratorIS1_ELi8ELi5EEv4DataIXT2_EXT3_EE) #7
  unreachable

121:                                              ; preds = %117
  call void @llvm.lifetime.end.p0(ptr nonnull %3) #6
  ret void
}

; Function Attrs: mustprogress uwtable
define linkonce_odr dso_local void @_Z4testI20cpp17_input_iteratorIPiS1_E14sized_sentinelIS2_E16forward_iteratorIS1_ELi6ELi5EEv4DataIXT2_EXT3_EE(ptr noundef byval(%struct.Data) align 8 %0) local_unnamed_addr #1 comdat personality ptr @__gxx_personality_v0 {
  %2 = alloca %"struct.std::array.3", align 4
  %3 = alloca %"struct.std::array.3", align 4
  call void @llvm.lifetime.start.p0(ptr nonnull %2) #6
  %4 = getelementptr inbounds nuw i8, ptr %0, i64 44
  %5 = load i32, ptr %4, align 4, !tbaa !5, !noalias !132
  %6 = getelementptr inbounds nuw i8, ptr %3, i64 4
  %7 = load i32, ptr %0, align 8, !tbaa !5, !noalias !132
  %8 = icmp eq i32 %7, %5
  br i1 %8, label %11, label %9

9:                                                ; preds = %1
  %10 = getelementptr inbounds nuw i8, ptr %2, i64 4
  store i32 %7, ptr %2, align 4, !tbaa !5, !noalias !132
  br label %11

11:                                               ; preds = %9, %1
  %12 = phi ptr [ %2, %1 ], [ %10, %9 ]
  %13 = phi i64 [ 0, %1 ], [ 4, %9 ]
  %14 = getelementptr inbounds nuw i8, ptr %0, i64 4
  %15 = load i32, ptr %14, align 4, !tbaa !5, !noalias !132
  %16 = icmp eq i32 %15, %5
  br i1 %16, label %19, label %17

17:                                               ; preds = %11
  store i32 %15, ptr %12, align 4, !tbaa !5, !noalias !132
  %18 = add nuw nsw i64 %13, 4
  br label %19

19:                                               ; preds = %17, %11
  %20 = phi i64 [ %13, %11 ], [ %18, %17 ]
  %21 = getelementptr inbounds nuw i8, ptr %0, i64 8
  %22 = load i32, ptr %21, align 8, !tbaa !5, !noalias !132
  %23 = icmp eq i32 %22, %5
  br i1 %23, label %27, label %24

24:                                               ; preds = %19
  %25 = getelementptr inbounds nuw i8, ptr %2, i64 %20
  store i32 %22, ptr %25, align 4, !tbaa !5, !noalias !132
  %26 = add nuw nsw i64 %20, 4
  br label %27

27:                                               ; preds = %24, %19
  %28 = phi i64 [ %20, %19 ], [ %26, %24 ]
  %29 = getelementptr inbounds nuw i8, ptr %0, i64 12
  %30 = load i32, ptr %29, align 4, !tbaa !5, !noalias !132
  %31 = icmp eq i32 %30, %5
  br i1 %31, label %35, label %32

32:                                               ; preds = %27
  %33 = getelementptr inbounds nuw i8, ptr %2, i64 %28
  store i32 %30, ptr %33, align 4, !tbaa !5, !noalias !132
  %34 = add nuw nsw i64 %28, 4
  br label %35

35:                                               ; preds = %32, %27
  %36 = phi i64 [ %28, %27 ], [ %34, %32 ]
  %37 = getelementptr inbounds nuw i8, ptr %0, i64 16
  %38 = load i32, ptr %37, align 8, !tbaa !5, !noalias !132
  %39 = icmp eq i32 %38, %5
  br i1 %39, label %43, label %40

40:                                               ; preds = %35
  %41 = getelementptr inbounds nuw i8, ptr %2, i64 %36
  store i32 %38, ptr %41, align 4, !tbaa !5, !noalias !132
  %42 = add nuw nsw i64 %36, 4
  br label %43

43:                                               ; preds = %40, %35
  %44 = phi i64 [ %36, %35 ], [ %42, %40 ]
  %45 = getelementptr inbounds nuw i8, ptr %0, i64 20
  %46 = load i32, ptr %45, align 4, !tbaa !5, !noalias !132
  %47 = icmp eq i32 %46, %5
  br i1 %47, label %51, label %48

48:                                               ; preds = %43
  %49 = getelementptr inbounds nuw i8, ptr %2, i64 %44
  store i32 %46, ptr %49, align 4, !tbaa !5, !noalias !132
  %50 = add nuw nsw i64 %44, 4
  br label %51

51:                                               ; preds = %48, %43
  %52 = phi i64 [ %44, %43 ], [ %50, %48 ]
  %53 = getelementptr inbounds nuw i8, ptr %0, i64 24
  %54 = icmp eq i64 %52, 20
  br i1 %54, label %56, label %55

55:                                               ; preds = %51
  tail call void @__assert_fail(ptr noundef nonnull @.str.11, ptr noundef nonnull @.str.4, i32 noundef 117, ptr noundef nonnull @__PRETTY_FUNCTION__._Z4testI20cpp17_input_iteratorIPiS1_E14sized_sentinelIS2_E16forward_iteratorIS1_ELi6ELi5EEv4DataIXT2_EXT3_EE) #7
  unreachable

56:                                               ; preds = %51
  %57 = call i32 @bcmp(ptr noundef nonnull align 4 dereferenceable(20) %53, ptr noundef nonnull align 4 dereferenceable(20) %2, i64 20)
  %58 = icmp eq i32 %57, 0
  br i1 %58, label %60, label %59

59:                                               ; preds = %56
  tail call void @__assert_fail(ptr noundef nonnull @.str.12, ptr noundef nonnull @.str.4, i32 noundef 118, ptr noundef nonnull @__PRETTY_FUNCTION__._Z4testI20cpp17_input_iteratorIPiS1_E14sized_sentinelIS2_E16forward_iteratorIS1_ELi6ELi5EEv4DataIXT2_EXT3_EE) #7
  unreachable

60:                                               ; preds = %56
  call void @llvm.lifetime.end.p0(ptr nonnull %2) #6
  call void @llvm.lifetime.start.p0(ptr nonnull %3) #6
  br i1 %8, label %62, label %61

61:                                               ; preds = %60
  store i32 %7, ptr %3, align 4, !tbaa !5, !noalias !135
  br label %62

62:                                               ; preds = %61, %60
  %63 = phi ptr [ %3, %60 ], [ %6, %61 ]
  %64 = phi i64 [ 0, %60 ], [ 4, %61 ]
  br i1 %16, label %67, label %65

65:                                               ; preds = %62
  store i32 %15, ptr %63, align 4, !tbaa !5, !noalias !135
  %66 = add nuw nsw i64 %64, 4
  br label %67

67:                                               ; preds = %65, %62
  %68 = phi i64 [ %64, %62 ], [ %66, %65 ]
  br i1 %23, label %72, label %69

69:                                               ; preds = %67
  %70 = getelementptr inbounds nuw i8, ptr %3, i64 %68
  store i32 %22, ptr %70, align 4, !tbaa !5, !noalias !135
  %71 = add nuw nsw i64 %68, 4
  br label %72

72:                                               ; preds = %69, %67
  %73 = phi i64 [ %68, %67 ], [ %71, %69 ]
  br i1 %31, label %77, label %74

74:                                               ; preds = %72
  %75 = getelementptr inbounds nuw i8, ptr %3, i64 %73
  store i32 %30, ptr %75, align 4, !tbaa !5, !noalias !135
  %76 = add nuw nsw i64 %73, 4
  br label %77

77:                                               ; preds = %74, %72
  %78 = phi i64 [ %73, %72 ], [ %76, %74 ]
  br i1 %39, label %82, label %79

79:                                               ; preds = %77
  %80 = getelementptr inbounds nuw i8, ptr %3, i64 %78
  store i32 %38, ptr %80, align 4, !tbaa !5, !noalias !135
  %81 = add nuw nsw i64 %78, 4
  br label %82

82:                                               ; preds = %79, %77
  %83 = phi i64 [ %78, %77 ], [ %81, %79 ]
  br i1 %47, label %87, label %84

84:                                               ; preds = %82
  %85 = getelementptr inbounds nuw i8, ptr %3, i64 %83
  store i32 %46, ptr %85, align 4, !tbaa !5, !noalias !135
  %86 = add nuw nsw i64 %83, 4
  br label %87

87:                                               ; preds = %84, %82
  %88 = phi i64 [ %83, %82 ], [ %86, %84 ]
  %89 = icmp eq i64 %88, 20
  br i1 %89, label %91, label %90

90:                                               ; preds = %87
  tail call void @__assert_fail(ptr noundef nonnull @.str.11, ptr noundef nonnull @.str.4, i32 noundef 129, ptr noundef nonnull @__PRETTY_FUNCTION__._Z4testI20cpp17_input_iteratorIPiS1_E14sized_sentinelIS2_E16forward_iteratorIS1_ELi6ELi5EEv4DataIXT2_EXT3_EE) #7
  unreachable

91:                                               ; preds = %87
  %92 = call i32 @bcmp(ptr noundef nonnull align 4 dereferenceable(20) %53, ptr noundef nonnull align 4 dereferenceable(20) %3, i64 20)
  %93 = icmp eq i32 %92, 0
  br i1 %93, label %95, label %94

94:                                               ; preds = %91
  tail call void @__assert_fail(ptr noundef nonnull @.str.12, ptr noundef nonnull @.str.4, i32 noundef 130, ptr noundef nonnull @__PRETTY_FUNCTION__._Z4testI20cpp17_input_iteratorIPiS1_E14sized_sentinelIS2_E16forward_iteratorIS1_ELi6ELi5EEv4DataIXT2_EXT3_EE) #7
  unreachable

95:                                               ; preds = %91
  call void @llvm.lifetime.end.p0(ptr nonnull %3) #6
  ret void
}

; Function Attrs: mustprogress uwtable
define linkonce_odr dso_local void @_Z4testI20cpp17_input_iteratorIPiS1_E14sized_sentinelIS2_E16forward_iteratorIS1_ELi8ELi5EEv4DataIXT2_EXT3_EE(ptr noundef byval(%struct.Data.11) align 8 %0) local_unnamed_addr #1 comdat personality ptr @__gxx_personality_v0 {
  %2 = alloca %"struct.std::array.3", align 4
  %3 = alloca %"struct.std::array.3", align 4
  call void @llvm.lifetime.start.p0(ptr nonnull %2) #6
  %4 = getelementptr inbounds nuw i8, ptr %0, i64 52
  %5 = load i32, ptr %4, align 4, !tbaa !5, !noalias !140
  %6 = getelementptr inbounds nuw i8, ptr %3, i64 4
  %7 = load i32, ptr %0, align 8, !tbaa !5, !noalias !140
  %8 = icmp eq i32 %7, %5
  br i1 %8, label %11, label %9

9:                                                ; preds = %1
  %10 = getelementptr inbounds nuw i8, ptr %2, i64 4
  store i32 %7, ptr %2, align 4, !tbaa !5, !noalias !140
  br label %11

11:                                               ; preds = %9, %1
  %12 = phi ptr [ %2, %1 ], [ %10, %9 ]
  %13 = phi i64 [ 0, %1 ], [ 4, %9 ]
  %14 = getelementptr inbounds nuw i8, ptr %0, i64 4
  %15 = load i32, ptr %14, align 4, !tbaa !5, !noalias !140
  %16 = icmp eq i32 %15, %5
  br i1 %16, label %19, label %17

17:                                               ; preds = %11
  store i32 %15, ptr %12, align 4, !tbaa !5, !noalias !140
  %18 = add nuw nsw i64 %13, 4
  br label %19

19:                                               ; preds = %17, %11
  %20 = phi i64 [ %13, %11 ], [ %18, %17 ]
  %21 = getelementptr inbounds nuw i8, ptr %0, i64 8
  %22 = load i32, ptr %21, align 8, !tbaa !5, !noalias !140
  %23 = icmp eq i32 %22, %5
  br i1 %23, label %27, label %24

24:                                               ; preds = %19
  %25 = getelementptr inbounds nuw i8, ptr %2, i64 %20
  store i32 %22, ptr %25, align 4, !tbaa !5, !noalias !140
  %26 = add nuw nsw i64 %20, 4
  br label %27

27:                                               ; preds = %24, %19
  %28 = phi i64 [ %20, %19 ], [ %26, %24 ]
  %29 = getelementptr inbounds nuw i8, ptr %0, i64 12
  %30 = load i32, ptr %29, align 4, !tbaa !5, !noalias !140
  %31 = icmp eq i32 %30, %5
  br i1 %31, label %35, label %32

32:                                               ; preds = %27
  %33 = getelementptr inbounds nuw i8, ptr %2, i64 %28
  store i32 %30, ptr %33, align 4, !tbaa !5, !noalias !140
  %34 = add nuw nsw i64 %28, 4
  br label %35

35:                                               ; preds = %32, %27
  %36 = phi i64 [ %28, %27 ], [ %34, %32 ]
  %37 = getelementptr inbounds nuw i8, ptr %0, i64 16
  %38 = load i32, ptr %37, align 8, !tbaa !5, !noalias !140
  %39 = icmp eq i32 %38, %5
  br i1 %39, label %43, label %40

40:                                               ; preds = %35
  %41 = getelementptr inbounds nuw i8, ptr %2, i64 %36
  store i32 %38, ptr %41, align 4, !tbaa !5, !noalias !140
  %42 = add nuw nsw i64 %36, 4
  br label %43

43:                                               ; preds = %40, %35
  %44 = phi i64 [ %36, %35 ], [ %42, %40 ]
  %45 = getelementptr inbounds nuw i8, ptr %0, i64 20
  %46 = load i32, ptr %45, align 4, !tbaa !5, !noalias !140
  %47 = icmp eq i32 %46, %5
  br i1 %47, label %51, label %48

48:                                               ; preds = %43
  %49 = getelementptr inbounds nuw i8, ptr %2, i64 %44
  store i32 %46, ptr %49, align 4, !tbaa !5, !noalias !140
  %50 = add nuw nsw i64 %44, 4
  br label %51

51:                                               ; preds = %48, %43
  %52 = phi i64 [ %44, %43 ], [ %50, %48 ]
  %53 = getelementptr inbounds nuw i8, ptr %0, i64 24
  %54 = load i32, ptr %53, align 8, !tbaa !5, !noalias !140
  %55 = icmp eq i32 %54, %5
  br i1 %55, label %59, label %56

56:                                               ; preds = %51
  %57 = getelementptr inbounds nuw i8, ptr %2, i64 %52
  store i32 %54, ptr %57, align 4, !tbaa !5, !noalias !140
  %58 = add nuw nsw i64 %52, 4
  br label %59

59:                                               ; preds = %56, %51
  %60 = phi i64 [ %52, %51 ], [ %58, %56 ]
  %61 = getelementptr inbounds nuw i8, ptr %0, i64 28
  %62 = load i32, ptr %61, align 4, !tbaa !5, !noalias !140
  %63 = icmp eq i32 %62, %5
  br i1 %63, label %67, label %64

64:                                               ; preds = %59
  %65 = getelementptr inbounds nuw i8, ptr %2, i64 %60
  store i32 %62, ptr %65, align 4, !tbaa !5, !noalias !140
  %66 = add nuw nsw i64 %60, 4
  br label %67

67:                                               ; preds = %64, %59
  %68 = phi i64 [ %60, %59 ], [ %66, %64 ]
  %69 = getelementptr inbounds nuw i8, ptr %0, i64 32
  %70 = icmp eq i64 %68, 20
  br i1 %70, label %72, label %71

71:                                               ; preds = %67
  tail call void @__assert_fail(ptr noundef nonnull @.str.11, ptr noundef nonnull @.str.4, i32 noundef 117, ptr noundef nonnull @__PRETTY_FUNCTION__._Z4testI20cpp17_input_iteratorIPiS1_E14sized_sentinelIS2_E16forward_iteratorIS1_ELi8ELi5EEv4DataIXT2_EXT3_EE) #7
  unreachable

72:                                               ; preds = %67
  %73 = call i32 @bcmp(ptr noundef nonnull align 4 dereferenceable(20) %69, ptr noundef nonnull align 4 dereferenceable(20) %2, i64 20)
  %74 = icmp eq i32 %73, 0
  br i1 %74, label %76, label %75

75:                                               ; preds = %72
  tail call void @__assert_fail(ptr noundef nonnull @.str.12, ptr noundef nonnull @.str.4, i32 noundef 118, ptr noundef nonnull @__PRETTY_FUNCTION__._Z4testI20cpp17_input_iteratorIPiS1_E14sized_sentinelIS2_E16forward_iteratorIS1_ELi8ELi5EEv4DataIXT2_EXT3_EE) #7
  unreachable

76:                                               ; preds = %72
  call void @llvm.lifetime.end.p0(ptr nonnull %2) #6
  call void @llvm.lifetime.start.p0(ptr nonnull %3) #6
  br i1 %8, label %78, label %77

77:                                               ; preds = %76
  store i32 %7, ptr %3, align 4, !tbaa !5, !noalias !143
  br label %78

78:                                               ; preds = %77, %76
  %79 = phi ptr [ %3, %76 ], [ %6, %77 ]
  %80 = phi i64 [ 0, %76 ], [ 4, %77 ]
  br i1 %16, label %83, label %81

81:                                               ; preds = %78
  store i32 %15, ptr %79, align 4, !tbaa !5, !noalias !143
  %82 = add nuw nsw i64 %80, 4
  br label %83

83:                                               ; preds = %81, %78
  %84 = phi i64 [ %80, %78 ], [ %82, %81 ]
  br i1 %23, label %88, label %85

85:                                               ; preds = %83
  %86 = getelementptr inbounds nuw i8, ptr %3, i64 %84
  store i32 %22, ptr %86, align 4, !tbaa !5, !noalias !143
  %87 = add nuw nsw i64 %84, 4
  br label %88

88:                                               ; preds = %85, %83
  %89 = phi i64 [ %84, %83 ], [ %87, %85 ]
  br i1 %31, label %93, label %90

90:                                               ; preds = %88
  %91 = getelementptr inbounds nuw i8, ptr %3, i64 %89
  store i32 %30, ptr %91, align 4, !tbaa !5, !noalias !143
  %92 = add nuw nsw i64 %89, 4
  br label %93

93:                                               ; preds = %90, %88
  %94 = phi i64 [ %89, %88 ], [ %92, %90 ]
  br i1 %39, label %98, label %95

95:                                               ; preds = %93
  %96 = getelementptr inbounds nuw i8, ptr %3, i64 %94
  store i32 %38, ptr %96, align 4, !tbaa !5, !noalias !143
  %97 = add nuw nsw i64 %94, 4
  br label %98

98:                                               ; preds = %95, %93
  %99 = phi i64 [ %94, %93 ], [ %97, %95 ]
  br i1 %47, label %103, label %100

100:                                              ; preds = %98
  %101 = getelementptr inbounds nuw i8, ptr %3, i64 %99
  store i32 %46, ptr %101, align 4, !tbaa !5, !noalias !143
  %102 = add nuw nsw i64 %99, 4
  br label %103

103:                                              ; preds = %100, %98
  %104 = phi i64 [ %99, %98 ], [ %102, %100 ]
  br i1 %55, label %108, label %105

105:                                              ; preds = %103
  %106 = getelementptr inbounds nuw i8, ptr %3, i64 %104
  store i32 %54, ptr %106, align 4, !tbaa !5, !noalias !143
  %107 = add nuw nsw i64 %104, 4
  br label %108

108:                                              ; preds = %105, %103
  %109 = phi i64 [ %104, %103 ], [ %107, %105 ]
  br i1 %63, label %113, label %110

110:                                              ; preds = %108
  %111 = getelementptr inbounds nuw i8, ptr %3, i64 %109
  store i32 %62, ptr %111, align 4, !tbaa !5, !noalias !143
  %112 = add nuw nsw i64 %109, 4
  br label %113

113:                                              ; preds = %110, %108
  %114 = phi i64 [ %109, %108 ], [ %112, %110 ]
  %115 = icmp eq i64 %114, 20
  br i1 %115, label %117, label %116

116:                                              ; preds = %113
  tail call void @__assert_fail(ptr noundef nonnull @.str.11, ptr noundef nonnull @.str.4, i32 noundef 129, ptr noundef nonnull @__PRETTY_FUNCTION__._Z4testI20cpp17_input_iteratorIPiS1_E14sized_sentinelIS2_E16forward_iteratorIS1_ELi8ELi5EEv4DataIXT2_EXT3_EE) #7
  unreachable

117:                                              ; preds = %113
  %118 = call i32 @bcmp(ptr noundef nonnull align 4 dereferenceable(20) %69, ptr noundef nonnull align 4 dereferenceable(20) %3, i64 20)
  %119 = icmp eq i32 %118, 0
  br i1 %119, label %121, label %120

120:                                              ; preds = %117
  tail call void @__assert_fail(ptr noundef nonnull @.str.12, ptr noundef nonnull @.str.4, i32 noundef 130, ptr noundef nonnull @__PRETTY_FUNCTION__._Z4testI20cpp17_input_iteratorIPiS1_E14sized_sentinelIS2_E16forward_iteratorIS1_ELi8ELi5EEv4DataIXT2_EXT3_EE) #7
  unreachable

121:                                              ; preds = %117
  call void @llvm.lifetime.end.p0(ptr nonnull %3) #6
  ret void
}

; Function Attrs: mustprogress uwtable
define linkonce_odr dso_local void @_Z4testI20cpp17_input_iteratorIPiS1_E14sized_sentinelIS2_E22bidirectional_iteratorIS1_ELi6ELi5EEv4DataIXT2_EXT3_EE(ptr noundef byval(%struct.Data) align 8 %0) local_unnamed_addr #1 comdat personality ptr @__gxx_personality_v0 {
  %2 = alloca %"struct.std::array.3", align 4
  %3 = alloca %"struct.std::array.3", align 4
  call void @llvm.lifetime.start.p0(ptr nonnull %2) #6
  %4 = getelementptr inbounds nuw i8, ptr %0, i64 44
  %5 = load i32, ptr %4, align 4, !tbaa !5, !noalias !148
  %6 = getelementptr inbounds nuw i8, ptr %3, i64 4
  %7 = load i32, ptr %0, align 8, !tbaa !5, !noalias !148
  %8 = icmp eq i32 %7, %5
  br i1 %8, label %11, label %9

9:                                                ; preds = %1
  %10 = getelementptr inbounds nuw i8, ptr %2, i64 4
  store i32 %7, ptr %2, align 4, !tbaa !5, !noalias !148
  br label %11

11:                                               ; preds = %9, %1
  %12 = phi ptr [ %2, %1 ], [ %10, %9 ]
  %13 = phi i64 [ 0, %1 ], [ 4, %9 ]
  %14 = getelementptr inbounds nuw i8, ptr %0, i64 4
  %15 = load i32, ptr %14, align 4, !tbaa !5, !noalias !148
  %16 = icmp eq i32 %15, %5
  br i1 %16, label %19, label %17

17:                                               ; preds = %11
  store i32 %15, ptr %12, align 4, !tbaa !5, !noalias !148
  %18 = add nuw nsw i64 %13, 4
  br label %19

19:                                               ; preds = %17, %11
  %20 = phi i64 [ %13, %11 ], [ %18, %17 ]
  %21 = getelementptr inbounds nuw i8, ptr %0, i64 8
  %22 = load i32, ptr %21, align 8, !tbaa !5, !noalias !148
  %23 = icmp eq i32 %22, %5
  br i1 %23, label %27, label %24

24:                                               ; preds = %19
  %25 = getelementptr inbounds nuw i8, ptr %2, i64 %20
  store i32 %22, ptr %25, align 4, !tbaa !5, !noalias !148
  %26 = add nuw nsw i64 %20, 4
  br label %27

27:                                               ; preds = %24, %19
  %28 = phi i64 [ %20, %19 ], [ %26, %24 ]
  %29 = getelementptr inbounds nuw i8, ptr %0, i64 12
  %30 = load i32, ptr %29, align 4, !tbaa !5, !noalias !148
  %31 = icmp eq i32 %30, %5
  br i1 %31, label %35, label %32

32:                                               ; preds = %27
  %33 = getelementptr inbounds nuw i8, ptr %2, i64 %28
  store i32 %30, ptr %33, align 4, !tbaa !5, !noalias !148
  %34 = add nuw nsw i64 %28, 4
  br label %35

35:                                               ; preds = %32, %27
  %36 = phi i64 [ %28, %27 ], [ %34, %32 ]
  %37 = getelementptr inbounds nuw i8, ptr %0, i64 16
  %38 = load i32, ptr %37, align 8, !tbaa !5, !noalias !148
  %39 = icmp eq i32 %38, %5
  br i1 %39, label %43, label %40

40:                                               ; preds = %35
  %41 = getelementptr inbounds nuw i8, ptr %2, i64 %36
  store i32 %38, ptr %41, align 4, !tbaa !5, !noalias !148
  %42 = add nuw nsw i64 %36, 4
  br label %43

43:                                               ; preds = %40, %35
  %44 = phi i64 [ %36, %35 ], [ %42, %40 ]
  %45 = getelementptr inbounds nuw i8, ptr %0, i64 20
  %46 = load i32, ptr %45, align 4, !tbaa !5, !noalias !148
  %47 = icmp eq i32 %46, %5
  br i1 %47, label %51, label %48

48:                                               ; preds = %43
  %49 = getelementptr inbounds nuw i8, ptr %2, i64 %44
  store i32 %46, ptr %49, align 4, !tbaa !5, !noalias !148
  %50 = add nuw nsw i64 %44, 4
  br label %51

51:                                               ; preds = %48, %43
  %52 = phi i64 [ %44, %43 ], [ %50, %48 ]
  %53 = getelementptr inbounds nuw i8, ptr %0, i64 24
  %54 = icmp eq i64 %52, 20
  br i1 %54, label %56, label %55

55:                                               ; preds = %51
  tail call void @__assert_fail(ptr noundef nonnull @.str.11, ptr noundef nonnull @.str.4, i32 noundef 117, ptr noundef nonnull @__PRETTY_FUNCTION__._Z4testI20cpp17_input_iteratorIPiS1_E14sized_sentinelIS2_E22bidirectional_iteratorIS1_ELi6ELi5EEv4DataIXT2_EXT3_EE) #7
  unreachable

56:                                               ; preds = %51
  %57 = call i32 @bcmp(ptr noundef nonnull align 4 dereferenceable(20) %53, ptr noundef nonnull align 4 dereferenceable(20) %2, i64 20)
  %58 = icmp eq i32 %57, 0
  br i1 %58, label %60, label %59

59:                                               ; preds = %56
  tail call void @__assert_fail(ptr noundef nonnull @.str.12, ptr noundef nonnull @.str.4, i32 noundef 118, ptr noundef nonnull @__PRETTY_FUNCTION__._Z4testI20cpp17_input_iteratorIPiS1_E14sized_sentinelIS2_E22bidirectional_iteratorIS1_ELi6ELi5EEv4DataIXT2_EXT3_EE) #7
  unreachable

60:                                               ; preds = %56
  call void @llvm.lifetime.end.p0(ptr nonnull %2) #6
  call void @llvm.lifetime.start.p0(ptr nonnull %3) #6
  br i1 %8, label %62, label %61

61:                                               ; preds = %60
  store i32 %7, ptr %3, align 4, !tbaa !5, !noalias !151
  br label %62

62:                                               ; preds = %61, %60
  %63 = phi ptr [ %3, %60 ], [ %6, %61 ]
  %64 = phi i64 [ 0, %60 ], [ 4, %61 ]
  br i1 %16, label %67, label %65

65:                                               ; preds = %62
  store i32 %15, ptr %63, align 4, !tbaa !5, !noalias !151
  %66 = add nuw nsw i64 %64, 4
  br label %67

67:                                               ; preds = %65, %62
  %68 = phi i64 [ %64, %62 ], [ %66, %65 ]
  br i1 %23, label %72, label %69

69:                                               ; preds = %67
  %70 = getelementptr inbounds nuw i8, ptr %3, i64 %68
  store i32 %22, ptr %70, align 4, !tbaa !5, !noalias !151
  %71 = add nuw nsw i64 %68, 4
  br label %72

72:                                               ; preds = %69, %67
  %73 = phi i64 [ %68, %67 ], [ %71, %69 ]
  br i1 %31, label %77, label %74

74:                                               ; preds = %72
  %75 = getelementptr inbounds nuw i8, ptr %3, i64 %73
  store i32 %30, ptr %75, align 4, !tbaa !5, !noalias !151
  %76 = add nuw nsw i64 %73, 4
  br label %77

77:                                               ; preds = %74, %72
  %78 = phi i64 [ %73, %72 ], [ %76, %74 ]
  br i1 %39, label %82, label %79

79:                                               ; preds = %77
  %80 = getelementptr inbounds nuw i8, ptr %3, i64 %78
  store i32 %38, ptr %80, align 4, !tbaa !5, !noalias !151
  %81 = add nuw nsw i64 %78, 4
  br label %82

82:                                               ; preds = %79, %77
  %83 = phi i64 [ %78, %77 ], [ %81, %79 ]
  br i1 %47, label %87, label %84

84:                                               ; preds = %82
  %85 = getelementptr inbounds nuw i8, ptr %3, i64 %83
  store i32 %46, ptr %85, align 4, !tbaa !5, !noalias !151
  %86 = add nuw nsw i64 %83, 4
  br label %87

87:                                               ; preds = %84, %82
  %88 = phi i64 [ %83, %82 ], [ %86, %84 ]
  %89 = icmp eq i64 %88, 20
  br i1 %89, label %91, label %90

90:                                               ; preds = %87
  tail call void @__assert_fail(ptr noundef nonnull @.str.11, ptr noundef nonnull @.str.4, i32 noundef 129, ptr noundef nonnull @__PRETTY_FUNCTION__._Z4testI20cpp17_input_iteratorIPiS1_E14sized_sentinelIS2_E22bidirectional_iteratorIS1_ELi6ELi5EEv4DataIXT2_EXT3_EE) #7
  unreachable

91:                                               ; preds = %87
  %92 = call i32 @bcmp(ptr noundef nonnull align 4 dereferenceable(20) %53, ptr noundef nonnull align 4 dereferenceable(20) %3, i64 20)
  %93 = icmp eq i32 %92, 0
  br i1 %93, label %95, label %94

94:                                               ; preds = %91
  tail call void @__assert_fail(ptr noundef nonnull @.str.12, ptr noundef nonnull @.str.4, i32 noundef 130, ptr noundef nonnull @__PRETTY_FUNCTION__._Z4testI20cpp17_input_iteratorIPiS1_E14sized_sentinelIS2_E22bidirectional_iteratorIS1_ELi6ELi5EEv4DataIXT2_EXT3_EE) #7
  unreachable

95:                                               ; preds = %91
  call void @llvm.lifetime.end.p0(ptr nonnull %3) #6
  ret void
}

; Function Attrs: mustprogress uwtable
define linkonce_odr dso_local void @_Z4testI20cpp17_input_iteratorIPiS1_E14sized_sentinelIS2_E22bidirectional_iteratorIS1_ELi8ELi5EEv4DataIXT2_EXT3_EE(ptr noundef byval(%struct.Data.11) align 8 %0) local_unnamed_addr #1 comdat personality ptr @__gxx_personality_v0 {
  %2 = alloca %"struct.std::array.3", align 4
  %3 = alloca %"struct.std::array.3", align 4
  call void @llvm.lifetime.start.p0(ptr nonnull %2) #6
  %4 = getelementptr inbounds nuw i8, ptr %0, i64 52
  %5 = load i32, ptr %4, align 4, !tbaa !5, !noalias !156
  %6 = getelementptr inbounds nuw i8, ptr %3, i64 4
  %7 = load i32, ptr %0, align 8, !tbaa !5, !noalias !156
  %8 = icmp eq i32 %7, %5
  br i1 %8, label %11, label %9

9:                                                ; preds = %1
  %10 = getelementptr inbounds nuw i8, ptr %2, i64 4
  store i32 %7, ptr %2, align 4, !tbaa !5, !noalias !156
  br label %11

11:                                               ; preds = %9, %1
  %12 = phi ptr [ %2, %1 ], [ %10, %9 ]
  %13 = phi i64 [ 0, %1 ], [ 4, %9 ]
  %14 = getelementptr inbounds nuw i8, ptr %0, i64 4
  %15 = load i32, ptr %14, align 4, !tbaa !5, !noalias !156
  %16 = icmp eq i32 %15, %5
  br i1 %16, label %19, label %17

17:                                               ; preds = %11
  store i32 %15, ptr %12, align 4, !tbaa !5, !noalias !156
  %18 = add nuw nsw i64 %13, 4
  br label %19

19:                                               ; preds = %17, %11
  %20 = phi i64 [ %13, %11 ], [ %18, %17 ]
  %21 = getelementptr inbounds nuw i8, ptr %0, i64 8
  %22 = load i32, ptr %21, align 8, !tbaa !5, !noalias !156
  %23 = icmp eq i32 %22, %5
  br i1 %23, label %27, label %24

24:                                               ; preds = %19
  %25 = getelementptr inbounds nuw i8, ptr %2, i64 %20
  store i32 %22, ptr %25, align 4, !tbaa !5, !noalias !156
  %26 = add nuw nsw i64 %20, 4
  br label %27

27:                                               ; preds = %24, %19
  %28 = phi i64 [ %20, %19 ], [ %26, %24 ]
  %29 = getelementptr inbounds nuw i8, ptr %0, i64 12
  %30 = load i32, ptr %29, align 4, !tbaa !5, !noalias !156
  %31 = icmp eq i32 %30, %5
  br i1 %31, label %35, label %32

32:                                               ; preds = %27
  %33 = getelementptr inbounds nuw i8, ptr %2, i64 %28
  store i32 %30, ptr %33, align 4, !tbaa !5, !noalias !156
  %34 = add nuw nsw i64 %28, 4
  br label %35

35:                                               ; preds = %32, %27
  %36 = phi i64 [ %28, %27 ], [ %34, %32 ]
  %37 = getelementptr inbounds nuw i8, ptr %0, i64 16
  %38 = load i32, ptr %37, align 8, !tbaa !5, !noalias !156
  %39 = icmp eq i32 %38, %5
  br i1 %39, label %43, label %40

40:                                               ; preds = %35
  %41 = getelementptr inbounds nuw i8, ptr %2, i64 %36
  store i32 %38, ptr %41, align 4, !tbaa !5, !noalias !156
  %42 = add nuw nsw i64 %36, 4
  br label %43

43:                                               ; preds = %40, %35
  %44 = phi i64 [ %36, %35 ], [ %42, %40 ]
  %45 = getelementptr inbounds nuw i8, ptr %0, i64 20
  %46 = load i32, ptr %45, align 4, !tbaa !5, !noalias !156
  %47 = icmp eq i32 %46, %5
  br i1 %47, label %51, label %48

48:                                               ; preds = %43
  %49 = getelementptr inbounds nuw i8, ptr %2, i64 %44
  store i32 %46, ptr %49, align 4, !tbaa !5, !noalias !156
  %50 = add nuw nsw i64 %44, 4
  br label %51

51:                                               ; preds = %48, %43
  %52 = phi i64 [ %44, %43 ], [ %50, %48 ]
  %53 = getelementptr inbounds nuw i8, ptr %0, i64 24
  %54 = load i32, ptr %53, align 8, !tbaa !5, !noalias !156
  %55 = icmp eq i32 %54, %5
  br i1 %55, label %59, label %56

56:                                               ; preds = %51
  %57 = getelementptr inbounds nuw i8, ptr %2, i64 %52
  store i32 %54, ptr %57, align 4, !tbaa !5, !noalias !156
  %58 = add nuw nsw i64 %52, 4
  br label %59

59:                                               ; preds = %56, %51
  %60 = phi i64 [ %52, %51 ], [ %58, %56 ]
  %61 = getelementptr inbounds nuw i8, ptr %0, i64 28
  %62 = load i32, ptr %61, align 4, !tbaa !5, !noalias !156
  %63 = icmp eq i32 %62, %5
  br i1 %63, label %67, label %64

64:                                               ; preds = %59
  %65 = getelementptr inbounds nuw i8, ptr %2, i64 %60
  store i32 %62, ptr %65, align 4, !tbaa !5, !noalias !156
  %66 = add nuw nsw i64 %60, 4
  br label %67

67:                                               ; preds = %64, %59
  %68 = phi i64 [ %60, %59 ], [ %66, %64 ]
  %69 = getelementptr inbounds nuw i8, ptr %0, i64 32
  %70 = icmp eq i64 %68, 20
  br i1 %70, label %72, label %71

71:                                               ; preds = %67
  tail call void @__assert_fail(ptr noundef nonnull @.str.11, ptr noundef nonnull @.str.4, i32 noundef 117, ptr noundef nonnull @__PRETTY_FUNCTION__._Z4testI20cpp17_input_iteratorIPiS1_E14sized_sentinelIS2_E22bidirectional_iteratorIS1_ELi8ELi5EEv4DataIXT2_EXT3_EE) #7
  unreachable

72:                                               ; preds = %67
  %73 = call i32 @bcmp(ptr noundef nonnull align 4 dereferenceable(20) %69, ptr noundef nonnull align 4 dereferenceable(20) %2, i64 20)
  %74 = icmp eq i32 %73, 0
  br i1 %74, label %76, label %75

75:                                               ; preds = %72
  tail call void @__assert_fail(ptr noundef nonnull @.str.12, ptr noundef nonnull @.str.4, i32 noundef 118, ptr noundef nonnull @__PRETTY_FUNCTION__._Z4testI20cpp17_input_iteratorIPiS1_E14sized_sentinelIS2_E22bidirectional_iteratorIS1_ELi8ELi5EEv4DataIXT2_EXT3_EE) #7
  unreachable

76:                                               ; preds = %72
  call void @llvm.lifetime.end.p0(ptr nonnull %2) #6
  call void @llvm.lifetime.start.p0(ptr nonnull %3) #6
  br i1 %8, label %78, label %77

77:                                               ; preds = %76
  store i32 %7, ptr %3, align 4, !tbaa !5, !noalias !159
  br label %78

78:                                               ; preds = %77, %76
  %79 = phi ptr [ %3, %76 ], [ %6, %77 ]
  %80 = phi i64 [ 0, %76 ], [ 4, %77 ]
  br i1 %16, label %83, label %81

81:                                               ; preds = %78
  store i32 %15, ptr %79, align 4, !tbaa !5, !noalias !159
  %82 = add nuw nsw i64 %80, 4
  br label %83

83:                                               ; preds = %81, %78
  %84 = phi i64 [ %80, %78 ], [ %82, %81 ]
  br i1 %23, label %88, label %85

85:                                               ; preds = %83
  %86 = getelementptr inbounds nuw i8, ptr %3, i64 %84
  store i32 %22, ptr %86, align 4, !tbaa !5, !noalias !159
  %87 = add nuw nsw i64 %84, 4
  br label %88

88:                                               ; preds = %85, %83
  %89 = phi i64 [ %84, %83 ], [ %87, %85 ]
  br i1 %31, label %93, label %90

90:                                               ; preds = %88
  %91 = getelementptr inbounds nuw i8, ptr %3, i64 %89
  store i32 %30, ptr %91, align 4, !tbaa !5, !noalias !159
  %92 = add nuw nsw i64 %89, 4
  br label %93

93:                                               ; preds = %90, %88
  %94 = phi i64 [ %89, %88 ], [ %92, %90 ]
  br i1 %39, label %98, label %95

95:                                               ; preds = %93
  %96 = getelementptr inbounds nuw i8, ptr %3, i64 %94
  store i32 %38, ptr %96, align 4, !tbaa !5, !noalias !159
  %97 = add nuw nsw i64 %94, 4
  br label %98

98:                                               ; preds = %95, %93
  %99 = phi i64 [ %94, %93 ], [ %97, %95 ]
  br i1 %47, label %103, label %100

100:                                              ; preds = %98
  %101 = getelementptr inbounds nuw i8, ptr %3, i64 %99
  store i32 %46, ptr %101, align 4, !tbaa !5, !noalias !159
  %102 = add nuw nsw i64 %99, 4
  br label %103

103:                                              ; preds = %100, %98
  %104 = phi i64 [ %99, %98 ], [ %102, %100 ]
  br i1 %55, label %108, label %105

105:                                              ; preds = %103
  %106 = getelementptr inbounds nuw i8, ptr %3, i64 %104
  store i32 %54, ptr %106, align 4, !tbaa !5, !noalias !159
  %107 = add nuw nsw i64 %104, 4
  br label %108

108:                                              ; preds = %105, %103
  %109 = phi i64 [ %104, %103 ], [ %107, %105 ]
  br i1 %63, label %113, label %110

110:                                              ; preds = %108
  %111 = getelementptr inbounds nuw i8, ptr %3, i64 %109
  store i32 %62, ptr %111, align 4, !tbaa !5, !noalias !159
  %112 = add nuw nsw i64 %109, 4
  br label %113

113:                                              ; preds = %110, %108
  %114 = phi i64 [ %109, %108 ], [ %112, %110 ]
  %115 = icmp eq i64 %114, 20
  br i1 %115, label %117, label %116

116:                                              ; preds = %113
  tail call void @__assert_fail(ptr noundef nonnull @.str.11, ptr noundef nonnull @.str.4, i32 noundef 129, ptr noundef nonnull @__PRETTY_FUNCTION__._Z4testI20cpp17_input_iteratorIPiS1_E14sized_sentinelIS2_E22bidirectional_iteratorIS1_ELi8ELi5EEv4DataIXT2_EXT3_EE) #7
  unreachable

117:                                              ; preds = %113
  %118 = call i32 @bcmp(ptr noundef nonnull align 4 dereferenceable(20) %69, ptr noundef nonnull align 4 dereferenceable(20) %3, i64 20)
  %119 = icmp eq i32 %118, 0
  br i1 %119, label %121, label %120

120:                                              ; preds = %117
  tail call void @__assert_fail(ptr noundef nonnull @.str.12, ptr noundef nonnull @.str.4, i32 noundef 130, ptr noundef nonnull @__PRETTY_FUNCTION__._Z4testI20cpp17_input_iteratorIPiS1_E14sized_sentinelIS2_E22bidirectional_iteratorIS1_ELi8ELi5EEv4DataIXT2_EXT3_EE) #7
  unreachable

121:                                              ; preds = %117
  call void @llvm.lifetime.end.p0(ptr nonnull %3) #6
  ret void
}

; Function Attrs: mustprogress uwtable
define linkonce_odr dso_local void @_Z4testI20cpp17_input_iteratorIPiS1_E14sized_sentinelIS2_E22random_access_iteratorIS1_ELi6ELi5EEv4DataIXT2_EXT3_EE(ptr noundef byval(%struct.Data) align 8 %0) local_unnamed_addr #1 comdat personality ptr @__gxx_personality_v0 {
  %2 = alloca %"struct.std::array.3", align 4
  %3 = alloca %"struct.std::array.3", align 4
  call void @llvm.lifetime.start.p0(ptr nonnull %2) #6
  %4 = getelementptr inbounds nuw i8, ptr %0, i64 44
  %5 = load i32, ptr %4, align 4, !tbaa !5, !noalias !164
  %6 = getelementptr inbounds nuw i8, ptr %3, i64 4
  %7 = load i32, ptr %0, align 8, !tbaa !5, !noalias !164
  %8 = icmp eq i32 %7, %5
  br i1 %8, label %11, label %9

9:                                                ; preds = %1
  %10 = getelementptr inbounds nuw i8, ptr %2, i64 4
  store i32 %7, ptr %2, align 4, !tbaa !5, !noalias !164
  br label %11

11:                                               ; preds = %9, %1
  %12 = phi ptr [ %2, %1 ], [ %10, %9 ]
  %13 = phi i64 [ 0, %1 ], [ 4, %9 ]
  %14 = getelementptr inbounds nuw i8, ptr %0, i64 4
  %15 = load i32, ptr %14, align 4, !tbaa !5, !noalias !164
  %16 = icmp eq i32 %15, %5
  br i1 %16, label %19, label %17

17:                                               ; preds = %11
  store i32 %15, ptr %12, align 4, !tbaa !5, !noalias !164
  %18 = add nuw nsw i64 %13, 4
  br label %19

19:                                               ; preds = %17, %11
  %20 = phi i64 [ %13, %11 ], [ %18, %17 ]
  %21 = getelementptr inbounds nuw i8, ptr %0, i64 8
  %22 = load i32, ptr %21, align 8, !tbaa !5, !noalias !164
  %23 = icmp eq i32 %22, %5
  br i1 %23, label %27, label %24

24:                                               ; preds = %19
  %25 = getelementptr inbounds nuw i8, ptr %2, i64 %20
  store i32 %22, ptr %25, align 4, !tbaa !5, !noalias !164
  %26 = add nuw nsw i64 %20, 4
  br label %27

27:                                               ; preds = %24, %19
  %28 = phi i64 [ %20, %19 ], [ %26, %24 ]
  %29 = getelementptr inbounds nuw i8, ptr %0, i64 12
  %30 = load i32, ptr %29, align 4, !tbaa !5, !noalias !164
  %31 = icmp eq i32 %30, %5
  br i1 %31, label %35, label %32

32:                                               ; preds = %27
  %33 = getelementptr inbounds nuw i8, ptr %2, i64 %28
  store i32 %30, ptr %33, align 4, !tbaa !5, !noalias !164
  %34 = add nuw nsw i64 %28, 4
  br label %35

35:                                               ; preds = %32, %27
  %36 = phi i64 [ %28, %27 ], [ %34, %32 ]
  %37 = getelementptr inbounds nuw i8, ptr %0, i64 16
  %38 = load i32, ptr %37, align 8, !tbaa !5, !noalias !164
  %39 = icmp eq i32 %38, %5
  br i1 %39, label %43, label %40

40:                                               ; preds = %35
  %41 = getelementptr inbounds nuw i8, ptr %2, i64 %36
  store i32 %38, ptr %41, align 4, !tbaa !5, !noalias !164
  %42 = add nuw nsw i64 %36, 4
  br label %43

43:                                               ; preds = %40, %35
  %44 = phi i64 [ %36, %35 ], [ %42, %40 ]
  %45 = getelementptr inbounds nuw i8, ptr %0, i64 20
  %46 = load i32, ptr %45, align 4, !tbaa !5, !noalias !164
  %47 = icmp eq i32 %46, %5
  br i1 %47, label %51, label %48

48:                                               ; preds = %43
  %49 = getelementptr inbounds nuw i8, ptr %2, i64 %44
  store i32 %46, ptr %49, align 4, !tbaa !5, !noalias !164
  %50 = add nuw nsw i64 %44, 4
  br label %51

51:                                               ; preds = %48, %43
  %52 = phi i64 [ %44, %43 ], [ %50, %48 ]
  %53 = getelementptr inbounds nuw i8, ptr %0, i64 24
  %54 = icmp eq i64 %52, 20
  br i1 %54, label %56, label %55

55:                                               ; preds = %51
  tail call void @__assert_fail(ptr noundef nonnull @.str.11, ptr noundef nonnull @.str.4, i32 noundef 117, ptr noundef nonnull @__PRETTY_FUNCTION__._Z4testI20cpp17_input_iteratorIPiS1_E14sized_sentinelIS2_E22random_access_iteratorIS1_ELi6ELi5EEv4DataIXT2_EXT3_EE) #7
  unreachable

56:                                               ; preds = %51
  %57 = call i32 @bcmp(ptr noundef nonnull align 4 dereferenceable(20) %53, ptr noundef nonnull align 4 dereferenceable(20) %2, i64 20)
  %58 = icmp eq i32 %57, 0
  br i1 %58, label %60, label %59

59:                                               ; preds = %56
  tail call void @__assert_fail(ptr noundef nonnull @.str.12, ptr noundef nonnull @.str.4, i32 noundef 118, ptr noundef nonnull @__PRETTY_FUNCTION__._Z4testI20cpp17_input_iteratorIPiS1_E14sized_sentinelIS2_E22random_access_iteratorIS1_ELi6ELi5EEv4DataIXT2_EXT3_EE) #7
  unreachable

60:                                               ; preds = %56
  call void @llvm.lifetime.end.p0(ptr nonnull %2) #6
  call void @llvm.lifetime.start.p0(ptr nonnull %3) #6
  br i1 %8, label %62, label %61

61:                                               ; preds = %60
  store i32 %7, ptr %3, align 4, !tbaa !5, !noalias !167
  br label %62

62:                                               ; preds = %61, %60
  %63 = phi ptr [ %3, %60 ], [ %6, %61 ]
  %64 = phi i64 [ 0, %60 ], [ 4, %61 ]
  br i1 %16, label %67, label %65

65:                                               ; preds = %62
  store i32 %15, ptr %63, align 4, !tbaa !5, !noalias !167
  %66 = add nuw nsw i64 %64, 4
  br label %67

67:                                               ; preds = %65, %62
  %68 = phi i64 [ %64, %62 ], [ %66, %65 ]
  br i1 %23, label %72, label %69

69:                                               ; preds = %67
  %70 = getelementptr inbounds nuw i8, ptr %3, i64 %68
  store i32 %22, ptr %70, align 4, !tbaa !5, !noalias !167
  %71 = add nuw nsw i64 %68, 4
  br label %72

72:                                               ; preds = %69, %67
  %73 = phi i64 [ %68, %67 ], [ %71, %69 ]
  br i1 %31, label %77, label %74

74:                                               ; preds = %72
  %75 = getelementptr inbounds nuw i8, ptr %3, i64 %73
  store i32 %30, ptr %75, align 4, !tbaa !5, !noalias !167
  %76 = add nuw nsw i64 %73, 4
  br label %77

77:                                               ; preds = %74, %72
  %78 = phi i64 [ %73, %72 ], [ %76, %74 ]
  br i1 %39, label %82, label %79

79:                                               ; preds = %77
  %80 = getelementptr inbounds nuw i8, ptr %3, i64 %78
  store i32 %38, ptr %80, align 4, !tbaa !5, !noalias !167
  %81 = add nuw nsw i64 %78, 4
  br label %82

82:                                               ; preds = %79, %77
  %83 = phi i64 [ %78, %77 ], [ %81, %79 ]
  br i1 %47, label %87, label %84

84:                                               ; preds = %82
  %85 = getelementptr inbounds nuw i8, ptr %3, i64 %83
  store i32 %46, ptr %85, align 4, !tbaa !5, !noalias !167
  %86 = add nuw nsw i64 %83, 4
  br label %87

87:                                               ; preds = %84, %82
  %88 = phi i64 [ %83, %82 ], [ %86, %84 ]
  %89 = icmp eq i64 %88, 20
  br i1 %89, label %91, label %90

90:                                               ; preds = %87
  tail call void @__assert_fail(ptr noundef nonnull @.str.11, ptr noundef nonnull @.str.4, i32 noundef 129, ptr noundef nonnull @__PRETTY_FUNCTION__._Z4testI20cpp17_input_iteratorIPiS1_E14sized_sentinelIS2_E22random_access_iteratorIS1_ELi6ELi5EEv4DataIXT2_EXT3_EE) #7
  unreachable

91:                                               ; preds = %87
  %92 = call i32 @bcmp(ptr noundef nonnull align 4 dereferenceable(20) %53, ptr noundef nonnull align 4 dereferenceable(20) %3, i64 20)
  %93 = icmp eq i32 %92, 0
  br i1 %93, label %95, label %94

94:                                               ; preds = %91
  tail call void @__assert_fail(ptr noundef nonnull @.str.12, ptr noundef nonnull @.str.4, i32 noundef 130, ptr noundef nonnull @__PRETTY_FUNCTION__._Z4testI20cpp17_input_iteratorIPiS1_E14sized_sentinelIS2_E22random_access_iteratorIS1_ELi6ELi5EEv4DataIXT2_EXT3_EE) #7
  unreachable

95:                                               ; preds = %91
  call void @llvm.lifetime.end.p0(ptr nonnull %3) #6
  ret void
}

; Function Attrs: mustprogress uwtable
define linkonce_odr dso_local void @_Z4testI20cpp17_input_iteratorIPiS1_E14sized_sentinelIS2_E22random_access_iteratorIS1_ELi8ELi5EEv4DataIXT2_EXT3_EE(ptr noundef byval(%struct.Data.11) align 8 %0) local_unnamed_addr #1 comdat personality ptr @__gxx_personality_v0 {
  %2 = alloca %"struct.std::array.3", align 4
  %3 = alloca %"struct.std::array.3", align 4
  call void @llvm.lifetime.start.p0(ptr nonnull %2) #6
  %4 = getelementptr inbounds nuw i8, ptr %0, i64 52
  %5 = load i32, ptr %4, align 4, !tbaa !5, !noalias !172
  %6 = getelementptr inbounds nuw i8, ptr %3, i64 4
  %7 = load i32, ptr %0, align 8, !tbaa !5, !noalias !172
  %8 = icmp eq i32 %7, %5
  br i1 %8, label %11, label %9

9:                                                ; preds = %1
  %10 = getelementptr inbounds nuw i8, ptr %2, i64 4
  store i32 %7, ptr %2, align 4, !tbaa !5, !noalias !172
  br label %11

11:                                               ; preds = %9, %1
  %12 = phi ptr [ %2, %1 ], [ %10, %9 ]
  %13 = phi i64 [ 0, %1 ], [ 4, %9 ]
  %14 = getelementptr inbounds nuw i8, ptr %0, i64 4
  %15 = load i32, ptr %14, align 4, !tbaa !5, !noalias !172
  %16 = icmp eq i32 %15, %5
  br i1 %16, label %19, label %17

17:                                               ; preds = %11
  store i32 %15, ptr %12, align 4, !tbaa !5, !noalias !172
  %18 = add nuw nsw i64 %13, 4
  br label %19

19:                                               ; preds = %17, %11
  %20 = phi i64 [ %13, %11 ], [ %18, %17 ]
  %21 = getelementptr inbounds nuw i8, ptr %0, i64 8
  %22 = load i32, ptr %21, align 8, !tbaa !5, !noalias !172
  %23 = icmp eq i32 %22, %5
  br i1 %23, label %27, label %24

24:                                               ; preds = %19
  %25 = getelementptr inbounds nuw i8, ptr %2, i64 %20
  store i32 %22, ptr %25, align 4, !tbaa !5, !noalias !172
  %26 = add nuw nsw i64 %20, 4
  br label %27

27:                                               ; preds = %24, %19
  %28 = phi i64 [ %20, %19 ], [ %26, %24 ]
  %29 = getelementptr inbounds nuw i8, ptr %0, i64 12
  %30 = load i32, ptr %29, align 4, !tbaa !5, !noalias !172
  %31 = icmp eq i32 %30, %5
  br i1 %31, label %35, label %32

32:                                               ; preds = %27
  %33 = getelementptr inbounds nuw i8, ptr %2, i64 %28
  store i32 %30, ptr %33, align 4, !tbaa !5, !noalias !172
  %34 = add nuw nsw i64 %28, 4
  br label %35

35:                                               ; preds = %32, %27
  %36 = phi i64 [ %28, %27 ], [ %34, %32 ]
  %37 = getelementptr inbounds nuw i8, ptr %0, i64 16
  %38 = load i32, ptr %37, align 8, !tbaa !5, !noalias !172
  %39 = icmp eq i32 %38, %5
  br i1 %39, label %43, label %40

40:                                               ; preds = %35
  %41 = getelementptr inbounds nuw i8, ptr %2, i64 %36
  store i32 %38, ptr %41, align 4, !tbaa !5, !noalias !172
  %42 = add nuw nsw i64 %36, 4
  br label %43

43:                                               ; preds = %40, %35
  %44 = phi i64 [ %36, %35 ], [ %42, %40 ]
  %45 = getelementptr inbounds nuw i8, ptr %0, i64 20
  %46 = load i32, ptr %45, align 4, !tbaa !5, !noalias !172
  %47 = icmp eq i32 %46, %5
  br i1 %47, label %51, label %48

48:                                               ; preds = %43
  %49 = getelementptr inbounds nuw i8, ptr %2, i64 %44
  store i32 %46, ptr %49, align 4, !tbaa !5, !noalias !172
  %50 = add nuw nsw i64 %44, 4
  br label %51

51:                                               ; preds = %48, %43
  %52 = phi i64 [ %44, %43 ], [ %50, %48 ]
  %53 = getelementptr inbounds nuw i8, ptr %0, i64 24
  %54 = load i32, ptr %53, align 8, !tbaa !5, !noalias !172
  %55 = icmp eq i32 %54, %5
  br i1 %55, label %59, label %56

56:                                               ; preds = %51
  %57 = getelementptr inbounds nuw i8, ptr %2, i64 %52
  store i32 %54, ptr %57, align 4, !tbaa !5, !noalias !172
  %58 = add nuw nsw i64 %52, 4
  br label %59

59:                                               ; preds = %56, %51
  %60 = phi i64 [ %52, %51 ], [ %58, %56 ]
  %61 = getelementptr inbounds nuw i8, ptr %0, i64 28
  %62 = load i32, ptr %61, align 4, !tbaa !5, !noalias !172
  %63 = icmp eq i32 %62, %5
  br i1 %63, label %67, label %64

64:                                               ; preds = %59
  %65 = getelementptr inbounds nuw i8, ptr %2, i64 %60
  store i32 %62, ptr %65, align 4, !tbaa !5, !noalias !172
  %66 = add nuw nsw i64 %60, 4
  br label %67

67:                                               ; preds = %64, %59
  %68 = phi i64 [ %60, %59 ], [ %66, %64 ]
  %69 = getelementptr inbounds nuw i8, ptr %0, i64 32
  %70 = icmp eq i64 %68, 20
  br i1 %70, label %72, label %71

71:                                               ; preds = %67
  tail call void @__assert_fail(ptr noundef nonnull @.str.11, ptr noundef nonnull @.str.4, i32 noundef 117, ptr noundef nonnull @__PRETTY_FUNCTION__._Z4testI20cpp17_input_iteratorIPiS1_E14sized_sentinelIS2_E22random_access_iteratorIS1_ELi8ELi5EEv4DataIXT2_EXT3_EE) #7
  unreachable

72:                                               ; preds = %67
  %73 = call i32 @bcmp(ptr noundef nonnull align 4 dereferenceable(20) %69, ptr noundef nonnull align 4 dereferenceable(20) %2, i64 20)
  %74 = icmp eq i32 %73, 0
  br i1 %74, label %76, label %75

75:                                               ; preds = %72
  tail call void @__assert_fail(ptr noundef nonnull @.str.12, ptr noundef nonnull @.str.4, i32 noundef 118, ptr noundef nonnull @__PRETTY_FUNCTION__._Z4testI20cpp17_input_iteratorIPiS1_E14sized_sentinelIS2_E22random_access_iteratorIS1_ELi8ELi5EEv4DataIXT2_EXT3_EE) #7
  unreachable

76:                                               ; preds = %72
  call void @llvm.lifetime.end.p0(ptr nonnull %2) #6
  call void @llvm.lifetime.start.p0(ptr nonnull %3) #6
  br i1 %8, label %78, label %77

77:                                               ; preds = %76
  store i32 %7, ptr %3, align 4, !tbaa !5, !noalias !175
  br label %78

78:                                               ; preds = %77, %76
  %79 = phi ptr [ %3, %76 ], [ %6, %77 ]
  %80 = phi i64 [ 0, %76 ], [ 4, %77 ]
  br i1 %16, label %83, label %81

81:                                               ; preds = %78
  store i32 %15, ptr %79, align 4, !tbaa !5, !noalias !175
  %82 = add nuw nsw i64 %80, 4
  br label %83

83:                                               ; preds = %81, %78
  %84 = phi i64 [ %80, %78 ], [ %82, %81 ]
  br i1 %23, label %88, label %85

85:                                               ; preds = %83
  %86 = getelementptr inbounds nuw i8, ptr %3, i64 %84
  store i32 %22, ptr %86, align 4, !tbaa !5, !noalias !175
  %87 = add nuw nsw i64 %84, 4
  br label %88

88:                                               ; preds = %85, %83
  %89 = phi i64 [ %84, %83 ], [ %87, %85 ]
  br i1 %31, label %93, label %90

90:                                               ; preds = %88
  %91 = getelementptr inbounds nuw i8, ptr %3, i64 %89
  store i32 %30, ptr %91, align 4, !tbaa !5, !noalias !175
  %92 = add nuw nsw i64 %89, 4
  br label %93

93:                                               ; preds = %90, %88
  %94 = phi i64 [ %89, %88 ], [ %92, %90 ]
  br i1 %39, label %98, label %95

95:                                               ; preds = %93
  %96 = getelementptr inbounds nuw i8, ptr %3, i64 %94
  store i32 %38, ptr %96, align 4, !tbaa !5, !noalias !175
  %97 = add nuw nsw i64 %94, 4
  br label %98

98:                                               ; preds = %95, %93
  %99 = phi i64 [ %94, %93 ], [ %97, %95 ]
  br i1 %47, label %103, label %100

100:                                              ; preds = %98
  %101 = getelementptr inbounds nuw i8, ptr %3, i64 %99
  store i32 %46, ptr %101, align 4, !tbaa !5, !noalias !175
  %102 = add nuw nsw i64 %99, 4
  br label %103

103:                                              ; preds = %100, %98
  %104 = phi i64 [ %99, %98 ], [ %102, %100 ]
  br i1 %55, label %108, label %105

105:                                              ; preds = %103
  %106 = getelementptr inbounds nuw i8, ptr %3, i64 %104
  store i32 %54, ptr %106, align 4, !tbaa !5, !noalias !175
  %107 = add nuw nsw i64 %104, 4
  br label %108

108:                                              ; preds = %105, %103
  %109 = phi i64 [ %104, %103 ], [ %107, %105 ]
  br i1 %63, label %113, label %110

110:                                              ; preds = %108
  %111 = getelementptr inbounds nuw i8, ptr %3, i64 %109
  store i32 %62, ptr %111, align 4, !tbaa !5, !noalias !175
  %112 = add nuw nsw i64 %109, 4
  br label %113

113:                                              ; preds = %110, %108
  %114 = phi i64 [ %109, %108 ], [ %112, %110 ]
  %115 = icmp eq i64 %114, 20
  br i1 %115, label %117, label %116

116:                                              ; preds = %113
  tail call void @__assert_fail(ptr noundef nonnull @.str.11, ptr noundef nonnull @.str.4, i32 noundef 129, ptr noundef nonnull @__PRETTY_FUNCTION__._Z4testI20cpp17_input_iteratorIPiS1_E14sized_sentinelIS2_E22random_access_iteratorIS1_ELi8ELi5EEv4DataIXT2_EXT3_EE) #7
  unreachable

117:                                              ; preds = %113
  %118 = call i32 @bcmp(ptr noundef nonnull align 4 dereferenceable(20) %69, ptr noundef nonnull align 4 dereferenceable(20) %3, i64 20)
  %119 = icmp eq i32 %118, 0
  br i1 %119, label %121, label %120

120:                                              ; preds = %117
  tail call void @__assert_fail(ptr noundef nonnull @.str.12, ptr noundef nonnull @.str.4, i32 noundef 130, ptr noundef nonnull @__PRETTY_FUNCTION__._Z4testI20cpp17_input_iteratorIPiS1_E14sized_sentinelIS2_E22random_access_iteratorIS1_ELi8ELi5EEv4DataIXT2_EXT3_EE) #7
  unreachable

121:                                              ; preds = %117
  call void @llvm.lifetime.end.p0(ptr nonnull %3) #6
  ret void
}

; Function Attrs: mustprogress uwtable
define linkonce_odr dso_local void @_Z4testI20cpp17_input_iteratorIPiS1_E14sized_sentinelIS2_E19contiguous_iteratorIS1_ELi6ELi5EEv4DataIXT2_EXT3_EE(ptr noundef byval(%struct.Data) align 8 %0) local_unnamed_addr #1 comdat personality ptr @__gxx_personality_v0 {
  %2 = alloca %"struct.std::array.3", align 4
  %3 = alloca %"struct.std::array.3", align 4
  call void @llvm.lifetime.start.p0(ptr nonnull %2) #6
  %4 = getelementptr inbounds nuw i8, ptr %0, i64 44
  %5 = load i32, ptr %4, align 4, !tbaa !5, !noalias !180
  %6 = getelementptr inbounds nuw i8, ptr %3, i64 4
  %7 = load i32, ptr %0, align 8, !tbaa !5, !noalias !180
  %8 = icmp eq i32 %7, %5
  br i1 %8, label %11, label %9

9:                                                ; preds = %1
  %10 = getelementptr inbounds nuw i8, ptr %2, i64 4
  store i32 %7, ptr %2, align 4, !tbaa !5, !noalias !180
  br label %11

11:                                               ; preds = %9, %1
  %12 = phi ptr [ %2, %1 ], [ %10, %9 ]
  %13 = phi i64 [ 0, %1 ], [ 4, %9 ]
  %14 = getelementptr inbounds nuw i8, ptr %0, i64 4
  %15 = load i32, ptr %14, align 4, !tbaa !5, !noalias !180
  %16 = icmp eq i32 %15, %5
  br i1 %16, label %19, label %17

17:                                               ; preds = %11
  store i32 %15, ptr %12, align 4, !tbaa !5, !noalias !180
  %18 = add nuw nsw i64 %13, 4
  br label %19

19:                                               ; preds = %17, %11
  %20 = phi i64 [ %13, %11 ], [ %18, %17 ]
  %21 = getelementptr inbounds nuw i8, ptr %0, i64 8
  %22 = load i32, ptr %21, align 8, !tbaa !5, !noalias !180
  %23 = icmp eq i32 %22, %5
  br i1 %23, label %27, label %24

24:                                               ; preds = %19
  %25 = getelementptr inbounds nuw i8, ptr %2, i64 %20
  store i32 %22, ptr %25, align 4, !tbaa !5, !noalias !180
  %26 = add nuw nsw i64 %20, 4
  br label %27

27:                                               ; preds = %24, %19
  %28 = phi i64 [ %20, %19 ], [ %26, %24 ]
  %29 = getelementptr inbounds nuw i8, ptr %0, i64 12
  %30 = load i32, ptr %29, align 4, !tbaa !5, !noalias !180
  %31 = icmp eq i32 %30, %5
  br i1 %31, label %35, label %32

32:                                               ; preds = %27
  %33 = getelementptr inbounds nuw i8, ptr %2, i64 %28
  store i32 %30, ptr %33, align 4, !tbaa !5, !noalias !180
  %34 = add nuw nsw i64 %28, 4
  br label %35

35:                                               ; preds = %32, %27
  %36 = phi i64 [ %28, %27 ], [ %34, %32 ]
  %37 = getelementptr inbounds nuw i8, ptr %0, i64 16
  %38 = load i32, ptr %37, align 8, !tbaa !5, !noalias !180
  %39 = icmp eq i32 %38, %5
  br i1 %39, label %43, label %40

40:                                               ; preds = %35
  %41 = getelementptr inbounds nuw i8, ptr %2, i64 %36
  store i32 %38, ptr %41, align 4, !tbaa !5, !noalias !180
  %42 = add nuw nsw i64 %36, 4
  br label %43

43:                                               ; preds = %40, %35
  %44 = phi i64 [ %36, %35 ], [ %42, %40 ]
  %45 = getelementptr inbounds nuw i8, ptr %0, i64 20
  %46 = load i32, ptr %45, align 4, !tbaa !5, !noalias !180
  %47 = icmp eq i32 %46, %5
  br i1 %47, label %51, label %48

48:                                               ; preds = %43
  %49 = getelementptr inbounds nuw i8, ptr %2, i64 %44
  store i32 %46, ptr %49, align 4, !tbaa !5, !noalias !180
  %50 = add nuw nsw i64 %44, 4
  br label %51

51:                                               ; preds = %48, %43
  %52 = phi i64 [ %44, %43 ], [ %50, %48 ]
  %53 = getelementptr inbounds nuw i8, ptr %0, i64 24
  %54 = icmp eq i64 %52, 20
  br i1 %54, label %56, label %55

55:                                               ; preds = %51
  tail call void @__assert_fail(ptr noundef nonnull @.str.11, ptr noundef nonnull @.str.4, i32 noundef 117, ptr noundef nonnull @__PRETTY_FUNCTION__._Z4testI20cpp17_input_iteratorIPiS1_E14sized_sentinelIS2_E19contiguous_iteratorIS1_ELi6ELi5EEv4DataIXT2_EXT3_EE) #7
  unreachable

56:                                               ; preds = %51
  %57 = call i32 @bcmp(ptr noundef nonnull align 4 dereferenceable(20) %53, ptr noundef nonnull align 4 dereferenceable(20) %2, i64 20)
  %58 = icmp eq i32 %57, 0
  br i1 %58, label %60, label %59

59:                                               ; preds = %56
  tail call void @__assert_fail(ptr noundef nonnull @.str.12, ptr noundef nonnull @.str.4, i32 noundef 118, ptr noundef nonnull @__PRETTY_FUNCTION__._Z4testI20cpp17_input_iteratorIPiS1_E14sized_sentinelIS2_E19contiguous_iteratorIS1_ELi6ELi5EEv4DataIXT2_EXT3_EE) #7
  unreachable

60:                                               ; preds = %56
  call void @llvm.lifetime.end.p0(ptr nonnull %2) #6
  call void @llvm.lifetime.start.p0(ptr nonnull %3) #6
  br i1 %8, label %62, label %61

61:                                               ; preds = %60
  store i32 %7, ptr %3, align 4, !tbaa !5, !noalias !183
  br label %62

62:                                               ; preds = %61, %60
  %63 = phi ptr [ %3, %60 ], [ %6, %61 ]
  %64 = phi i64 [ 0, %60 ], [ 4, %61 ]
  br i1 %16, label %67, label %65

65:                                               ; preds = %62
  store i32 %15, ptr %63, align 4, !tbaa !5, !noalias !183
  %66 = add nuw nsw i64 %64, 4
  br label %67

67:                                               ; preds = %65, %62
  %68 = phi i64 [ %64, %62 ], [ %66, %65 ]
  br i1 %23, label %72, label %69

69:                                               ; preds = %67
  %70 = getelementptr inbounds nuw i8, ptr %3, i64 %68
  store i32 %22, ptr %70, align 4, !tbaa !5, !noalias !183
  %71 = add nuw nsw i64 %68, 4
  br label %72

72:                                               ; preds = %69, %67
  %73 = phi i64 [ %68, %67 ], [ %71, %69 ]
  br i1 %31, label %77, label %74

74:                                               ; preds = %72
  %75 = getelementptr inbounds nuw i8, ptr %3, i64 %73
  store i32 %30, ptr %75, align 4, !tbaa !5, !noalias !183
  %76 = add nuw nsw i64 %73, 4
  br label %77

77:                                               ; preds = %74, %72
  %78 = phi i64 [ %73, %72 ], [ %76, %74 ]
  br i1 %39, label %82, label %79

79:                                               ; preds = %77
  %80 = getelementptr inbounds nuw i8, ptr %3, i64 %78
  store i32 %38, ptr %80, align 4, !tbaa !5, !noalias !183
  %81 = add nuw nsw i64 %78, 4
  br label %82

82:                                               ; preds = %79, %77
  %83 = phi i64 [ %78, %77 ], [ %81, %79 ]
  br i1 %47, label %87, label %84

84:                                               ; preds = %82
  %85 = getelementptr inbounds nuw i8, ptr %3, i64 %83
  store i32 %46, ptr %85, align 4, !tbaa !5, !noalias !183
  %86 = add nuw nsw i64 %83, 4
  br label %87

87:                                               ; preds = %84, %82
  %88 = phi i64 [ %83, %82 ], [ %86, %84 ]
  %89 = icmp eq i64 %88, 20
  br i1 %89, label %91, label %90

90:                                               ; preds = %87
  tail call void @__assert_fail(ptr noundef nonnull @.str.11, ptr noundef nonnull @.str.4, i32 noundef 129, ptr noundef nonnull @__PRETTY_FUNCTION__._Z4testI20cpp17_input_iteratorIPiS1_E14sized_sentinelIS2_E19contiguous_iteratorIS1_ELi6ELi5EEv4DataIXT2_EXT3_EE) #7
  unreachable

91:                                               ; preds = %87
  %92 = call i32 @bcmp(ptr noundef nonnull align 4 dereferenceable(20) %53, ptr noundef nonnull align 4 dereferenceable(20) %3, i64 20)
  %93 = icmp eq i32 %92, 0
  br i1 %93, label %95, label %94

94:                                               ; preds = %91
  tail call void @__assert_fail(ptr noundef nonnull @.str.12, ptr noundef nonnull @.str.4, i32 noundef 130, ptr noundef nonnull @__PRETTY_FUNCTION__._Z4testI20cpp17_input_iteratorIPiS1_E14sized_sentinelIS2_E19contiguous_iteratorIS1_ELi6ELi5EEv4DataIXT2_EXT3_EE) #7
  unreachable

95:                                               ; preds = %91
  call void @llvm.lifetime.end.p0(ptr nonnull %3) #6
  ret void
}

; Function Attrs: mustprogress uwtable
define linkonce_odr dso_local void @_Z4testI20cpp17_input_iteratorIPiS1_E14sized_sentinelIS2_E19contiguous_iteratorIS1_ELi8ELi5EEv4DataIXT2_EXT3_EE(ptr noundef byval(%struct.Data.11) align 8 %0) local_unnamed_addr #1 comdat personality ptr @__gxx_personality_v0 {
  %2 = alloca %"struct.std::array.3", align 4
  %3 = alloca %"struct.std::array.3", align 4
  call void @llvm.lifetime.start.p0(ptr nonnull %2) #6
  %4 = getelementptr inbounds nuw i8, ptr %0, i64 52
  %5 = load i32, ptr %4, align 4, !tbaa !5, !noalias !188
  %6 = getelementptr inbounds nuw i8, ptr %3, i64 4
  %7 = load i32, ptr %0, align 8, !tbaa !5, !noalias !188
  %8 = icmp eq i32 %7, %5
  br i1 %8, label %11, label %9

9:                                                ; preds = %1
  %10 = getelementptr inbounds nuw i8, ptr %2, i64 4
  store i32 %7, ptr %2, align 4, !tbaa !5, !noalias !188
  br label %11

11:                                               ; preds = %9, %1
  %12 = phi ptr [ %2, %1 ], [ %10, %9 ]
  %13 = phi i64 [ 0, %1 ], [ 4, %9 ]
  %14 = getelementptr inbounds nuw i8, ptr %0, i64 4
  %15 = load i32, ptr %14, align 4, !tbaa !5, !noalias !188
  %16 = icmp eq i32 %15, %5
  br i1 %16, label %19, label %17

17:                                               ; preds = %11
  store i32 %15, ptr %12, align 4, !tbaa !5, !noalias !188
  %18 = add nuw nsw i64 %13, 4
  br label %19

19:                                               ; preds = %17, %11
  %20 = phi i64 [ %13, %11 ], [ %18, %17 ]
  %21 = getelementptr inbounds nuw i8, ptr %0, i64 8
  %22 = load i32, ptr %21, align 8, !tbaa !5, !noalias !188
  %23 = icmp eq i32 %22, %5
  br i1 %23, label %27, label %24

24:                                               ; preds = %19
  %25 = getelementptr inbounds nuw i8, ptr %2, i64 %20
  store i32 %22, ptr %25, align 4, !tbaa !5, !noalias !188
  %26 = add nuw nsw i64 %20, 4
  br label %27

27:                                               ; preds = %24, %19
  %28 = phi i64 [ %20, %19 ], [ %26, %24 ]
  %29 = getelementptr inbounds nuw i8, ptr %0, i64 12
  %30 = load i32, ptr %29, align 4, !tbaa !5, !noalias !188
  %31 = icmp eq i32 %30, %5
  br i1 %31, label %35, label %32

32:                                               ; preds = %27
  %33 = getelementptr inbounds nuw i8, ptr %2, i64 %28
  store i32 %30, ptr %33, align 4, !tbaa !5, !noalias !188
  %34 = add nuw nsw i64 %28, 4
  br label %35

35:                                               ; preds = %32, %27
  %36 = phi i64 [ %28, %27 ], [ %34, %32 ]
  %37 = getelementptr inbounds nuw i8, ptr %0, i64 16
  %38 = load i32, ptr %37, align 8, !tbaa !5, !noalias !188
  %39 = icmp eq i32 %38, %5
  br i1 %39, label %43, label %40

40:                                               ; preds = %35
  %41 = getelementptr inbounds nuw i8, ptr %2, i64 %36
  store i32 %38, ptr %41, align 4, !tbaa !5, !noalias !188
  %42 = add nuw nsw i64 %36, 4
  br label %43

43:                                               ; preds = %40, %35
  %44 = phi i64 [ %36, %35 ], [ %42, %40 ]
  %45 = getelementptr inbounds nuw i8, ptr %0, i64 20
  %46 = load i32, ptr %45, align 4, !tbaa !5, !noalias !188
  %47 = icmp eq i32 %46, %5
  br i1 %47, label %51, label %48

48:                                               ; preds = %43
  %49 = getelementptr inbounds nuw i8, ptr %2, i64 %44
  store i32 %46, ptr %49, align 4, !tbaa !5, !noalias !188
  %50 = add nuw nsw i64 %44, 4
  br label %51

51:                                               ; preds = %48, %43
  %52 = phi i64 [ %44, %43 ], [ %50, %48 ]
  %53 = getelementptr inbounds nuw i8, ptr %0, i64 24
  %54 = load i32, ptr %53, align 8, !tbaa !5, !noalias !188
  %55 = icmp eq i32 %54, %5
  br i1 %55, label %59, label %56

56:                                               ; preds = %51
  %57 = getelementptr inbounds nuw i8, ptr %2, i64 %52
  store i32 %54, ptr %57, align 4, !tbaa !5, !noalias !188
  %58 = add nuw nsw i64 %52, 4
  br label %59

59:                                               ; preds = %56, %51
  %60 = phi i64 [ %52, %51 ], [ %58, %56 ]
  %61 = getelementptr inbounds nuw i8, ptr %0, i64 28
  %62 = load i32, ptr %61, align 4, !tbaa !5, !noalias !188
  %63 = icmp eq i32 %62, %5
  br i1 %63, label %67, label %64

64:                                               ; preds = %59
  %65 = getelementptr inbounds nuw i8, ptr %2, i64 %60
  store i32 %62, ptr %65, align 4, !tbaa !5, !noalias !188
  %66 = add nuw nsw i64 %60, 4
  br label %67

67:                                               ; preds = %64, %59
  %68 = phi i64 [ %60, %59 ], [ %66, %64 ]
  %69 = getelementptr inbounds nuw i8, ptr %0, i64 32
  %70 = icmp eq i64 %68, 20
  br i1 %70, label %72, label %71

71:                                               ; preds = %67
  tail call void @__assert_fail(ptr noundef nonnull @.str.11, ptr noundef nonnull @.str.4, i32 noundef 117, ptr noundef nonnull @__PRETTY_FUNCTION__._Z4testI20cpp17_input_iteratorIPiS1_E14sized_sentinelIS2_E19contiguous_iteratorIS1_ELi8ELi5EEv4DataIXT2_EXT3_EE) #7
  unreachable

72:                                               ; preds = %67
  %73 = call i32 @bcmp(ptr noundef nonnull align 4 dereferenceable(20) %69, ptr noundef nonnull align 4 dereferenceable(20) %2, i64 20)
  %74 = icmp eq i32 %73, 0
  br i1 %74, label %76, label %75

75:                                               ; preds = %72
  tail call void @__assert_fail(ptr noundef nonnull @.str.12, ptr noundef nonnull @.str.4, i32 noundef 118, ptr noundef nonnull @__PRETTY_FUNCTION__._Z4testI20cpp17_input_iteratorIPiS1_E14sized_sentinelIS2_E19contiguous_iteratorIS1_ELi8ELi5EEv4DataIXT2_EXT3_EE) #7
  unreachable

76:                                               ; preds = %72
  call void @llvm.lifetime.end.p0(ptr nonnull %2) #6
  call void @llvm.lifetime.start.p0(ptr nonnull %3) #6
  br i1 %8, label %78, label %77

77:                                               ; preds = %76
  store i32 %7, ptr %3, align 4, !tbaa !5, !noalias !191
  br label %78

78:                                               ; preds = %77, %76
  %79 = phi ptr [ %3, %76 ], [ %6, %77 ]
  %80 = phi i64 [ 0, %76 ], [ 4, %77 ]
  br i1 %16, label %83, label %81

81:                                               ; preds = %78
  store i32 %15, ptr %79, align 4, !tbaa !5, !noalias !191
  %82 = add nuw nsw i64 %80, 4
  br label %83

83:                                               ; preds = %81, %78
  %84 = phi i64 [ %80, %78 ], [ %82, %81 ]
  br i1 %23, label %88, label %85

85:                                               ; preds = %83
  %86 = getelementptr inbounds nuw i8, ptr %3, i64 %84
  store i32 %22, ptr %86, align 4, !tbaa !5, !noalias !191
  %87 = add nuw nsw i64 %84, 4
  br label %88

88:                                               ; preds = %85, %83
  %89 = phi i64 [ %84, %83 ], [ %87, %85 ]
  br i1 %31, label %93, label %90

90:                                               ; preds = %88
  %91 = getelementptr inbounds nuw i8, ptr %3, i64 %89
  store i32 %30, ptr %91, align 4, !tbaa !5, !noalias !191
  %92 = add nuw nsw i64 %89, 4
  br label %93

93:                                               ; preds = %90, %88
  %94 = phi i64 [ %89, %88 ], [ %92, %90 ]
  br i1 %39, label %98, label %95

95:                                               ; preds = %93
  %96 = getelementptr inbounds nuw i8, ptr %3, i64 %94
  store i32 %38, ptr %96, align 4, !tbaa !5, !noalias !191
  %97 = add nuw nsw i64 %94, 4
  br label %98

98:                                               ; preds = %95, %93
  %99 = phi i64 [ %94, %93 ], [ %97, %95 ]
  br i1 %47, label %103, label %100

100:                                              ; preds = %98
  %101 = getelementptr inbounds nuw i8, ptr %3, i64 %99
  store i32 %46, ptr %101, align 4, !tbaa !5, !noalias !191
  %102 = add nuw nsw i64 %99, 4
  br label %103

103:                                              ; preds = %100, %98
  %104 = phi i64 [ %99, %98 ], [ %102, %100 ]
  br i1 %55, label %108, label %105

105:                                              ; preds = %103
  %106 = getelementptr inbounds nuw i8, ptr %3, i64 %104
  store i32 %54, ptr %106, align 4, !tbaa !5, !noalias !191
  %107 = add nuw nsw i64 %104, 4
  br label %108

108:                                              ; preds = %105, %103
  %109 = phi i64 [ %104, %103 ], [ %107, %105 ]
  br i1 %63, label %113, label %110

110:                                              ; preds = %108
  %111 = getelementptr inbounds nuw i8, ptr %3, i64 %109
  store i32 %62, ptr %111, align 4, !tbaa !5, !noalias !191
  %112 = add nuw nsw i64 %109, 4
  br label %113

113:                                              ; preds = %110, %108
  %114 = phi i64 [ %109, %108 ], [ %112, %110 ]
  %115 = icmp eq i64 %114, 20
  br i1 %115, label %117, label %116

116:                                              ; preds = %113
  tail call void @__assert_fail(ptr noundef nonnull @.str.11, ptr noundef nonnull @.str.4, i32 noundef 129, ptr noundef nonnull @__PRETTY_FUNCTION__._Z4testI20cpp17_input_iteratorIPiS1_E14sized_sentinelIS2_E19contiguous_iteratorIS1_ELi8ELi5EEv4DataIXT2_EXT3_EE) #7
  unreachable

117:                                              ; preds = %113
  %118 = call i32 @bcmp(ptr noundef nonnull align 4 dereferenceable(20) %69, ptr noundef nonnull align 4 dereferenceable(20) %3, i64 20)
  %119 = icmp eq i32 %118, 0
  br i1 %119, label %121, label %120

120:                                              ; preds = %117
  tail call void @__assert_fail(ptr noundef nonnull @.str.12, ptr noundef nonnull @.str.4, i32 noundef 130, ptr noundef nonnull @__PRETTY_FUNCTION__._Z4testI20cpp17_input_iteratorIPiS1_E14sized_sentinelIS2_E19contiguous_iteratorIS1_ELi8ELi5EEv4DataIXT2_EXT3_EE) #7
  unreachable

121:                                              ; preds = %117
  call void @llvm.lifetime.end.p0(ptr nonnull %3) #6
  ret void
}

; Function Attrs: mustprogress uwtable
define linkonce_odr dso_local void @_Z4testI20cpp17_input_iteratorIPiS1_E14sized_sentinelIS2_ES1_Li6ELi5EEv4DataIXT2_EXT3_EE(ptr noundef byval(%struct.Data) align 8 %0) local_unnamed_addr #1 comdat personality ptr @__gxx_personality_v0 {
  %2 = alloca %"struct.std::array.3", align 4
  %3 = alloca %"struct.std::array.3", align 4
  call void @llvm.lifetime.start.p0(ptr nonnull %2) #6
  %4 = getelementptr inbounds nuw i8, ptr %0, i64 44
  %5 = load i32, ptr %4, align 4, !tbaa !5, !noalias !196
  %6 = getelementptr inbounds nuw i8, ptr %3, i64 4
  %7 = load i32, ptr %0, align 8, !tbaa !5, !noalias !196
  %8 = icmp eq i32 %7, %5
  br i1 %8, label %11, label %9

9:                                                ; preds = %1
  %10 = getelementptr inbounds nuw i8, ptr %2, i64 4
  store i32 %7, ptr %2, align 4, !tbaa !5, !noalias !196
  br label %11

11:                                               ; preds = %9, %1
  %12 = phi ptr [ %2, %1 ], [ %10, %9 ]
  %13 = phi i64 [ 0, %1 ], [ 4, %9 ]
  %14 = getelementptr inbounds nuw i8, ptr %0, i64 4
  %15 = load i32, ptr %14, align 4, !tbaa !5, !noalias !196
  %16 = icmp eq i32 %15, %5
  br i1 %16, label %19, label %17

17:                                               ; preds = %11
  store i32 %15, ptr %12, align 4, !tbaa !5, !noalias !196
  %18 = add nuw nsw i64 %13, 4
  br label %19

19:                                               ; preds = %17, %11
  %20 = phi i64 [ %13, %11 ], [ %18, %17 ]
  %21 = getelementptr inbounds nuw i8, ptr %0, i64 8
  %22 = load i32, ptr %21, align 8, !tbaa !5, !noalias !196
  %23 = icmp eq i32 %22, %5
  br i1 %23, label %27, label %24

24:                                               ; preds = %19
  %25 = getelementptr inbounds nuw i8, ptr %2, i64 %20
  store i32 %22, ptr %25, align 4, !tbaa !5, !noalias !196
  %26 = add nuw nsw i64 %20, 4
  br label %27

27:                                               ; preds = %24, %19
  %28 = phi i64 [ %20, %19 ], [ %26, %24 ]
  %29 = getelementptr inbounds nuw i8, ptr %0, i64 12
  %30 = load i32, ptr %29, align 4, !tbaa !5, !noalias !196
  %31 = icmp eq i32 %30, %5
  br i1 %31, label %35, label %32

32:                                               ; preds = %27
  %33 = getelementptr inbounds nuw i8, ptr %2, i64 %28
  store i32 %30, ptr %33, align 4, !tbaa !5, !noalias !196
  %34 = add nuw nsw i64 %28, 4
  br label %35

35:                                               ; preds = %32, %27
  %36 = phi i64 [ %28, %27 ], [ %34, %32 ]
  %37 = getelementptr inbounds nuw i8, ptr %0, i64 16
  %38 = load i32, ptr %37, align 8, !tbaa !5, !noalias !196
  %39 = icmp eq i32 %38, %5
  br i1 %39, label %43, label %40

40:                                               ; preds = %35
  %41 = getelementptr inbounds nuw i8, ptr %2, i64 %36
  store i32 %38, ptr %41, align 4, !tbaa !5, !noalias !196
  %42 = add nuw nsw i64 %36, 4
  br label %43

43:                                               ; preds = %40, %35
  %44 = phi i64 [ %36, %35 ], [ %42, %40 ]
  %45 = getelementptr inbounds nuw i8, ptr %0, i64 20
  %46 = load i32, ptr %45, align 4, !tbaa !5, !noalias !196
  %47 = icmp eq i32 %46, %5
  br i1 %47, label %51, label %48

48:                                               ; preds = %43
  %49 = getelementptr inbounds nuw i8, ptr %2, i64 %44
  store i32 %46, ptr %49, align 4, !tbaa !5, !noalias !196
  %50 = add nuw nsw i64 %44, 4
  br label %51

51:                                               ; preds = %48, %43
  %52 = phi i64 [ %44, %43 ], [ %50, %48 ]
  %53 = getelementptr inbounds nuw i8, ptr %0, i64 24
  %54 = icmp eq i64 %52, 20
  br i1 %54, label %56, label %55

55:                                               ; preds = %51
  tail call void @__assert_fail(ptr noundef nonnull @.str.11, ptr noundef nonnull @.str.4, i32 noundef 117, ptr noundef nonnull @__PRETTY_FUNCTION__._Z4testI20cpp17_input_iteratorIPiS1_E14sized_sentinelIS2_ES1_Li6ELi5EEv4DataIXT2_EXT3_EE) #7
  unreachable

56:                                               ; preds = %51
  %57 = call i32 @bcmp(ptr noundef nonnull align 4 dereferenceable(20) %53, ptr noundef nonnull align 4 dereferenceable(20) %2, i64 20)
  %58 = icmp eq i32 %57, 0
  br i1 %58, label %60, label %59

59:                                               ; preds = %56
  tail call void @__assert_fail(ptr noundef nonnull @.str.12, ptr noundef nonnull @.str.4, i32 noundef 118, ptr noundef nonnull @__PRETTY_FUNCTION__._Z4testI20cpp17_input_iteratorIPiS1_E14sized_sentinelIS2_ES1_Li6ELi5EEv4DataIXT2_EXT3_EE) #7
  unreachable

60:                                               ; preds = %56
  call void @llvm.lifetime.end.p0(ptr nonnull %2) #6
  call void @llvm.lifetime.start.p0(ptr nonnull %3) #6
  br i1 %8, label %62, label %61

61:                                               ; preds = %60
  store i32 %7, ptr %3, align 4, !tbaa !5, !noalias !199
  br label %62

62:                                               ; preds = %61, %60
  %63 = phi ptr [ %3, %60 ], [ %6, %61 ]
  %64 = phi i64 [ 0, %60 ], [ 4, %61 ]
  br i1 %16, label %67, label %65

65:                                               ; preds = %62
  store i32 %15, ptr %63, align 4, !tbaa !5, !noalias !199
  %66 = add nuw nsw i64 %64, 4
  br label %67

67:                                               ; preds = %65, %62
  %68 = phi i64 [ %64, %62 ], [ %66, %65 ]
  br i1 %23, label %72, label %69

69:                                               ; preds = %67
  %70 = getelementptr inbounds nuw i8, ptr %3, i64 %68
  store i32 %22, ptr %70, align 4, !tbaa !5, !noalias !199
  %71 = add nuw nsw i64 %68, 4
  br label %72

72:                                               ; preds = %69, %67
  %73 = phi i64 [ %68, %67 ], [ %71, %69 ]
  br i1 %31, label %77, label %74

74:                                               ; preds = %72
  %75 = getelementptr inbounds nuw i8, ptr %3, i64 %73
  store i32 %30, ptr %75, align 4, !tbaa !5, !noalias !199
  %76 = add nuw nsw i64 %73, 4
  br label %77

77:                                               ; preds = %74, %72
  %78 = phi i64 [ %73, %72 ], [ %76, %74 ]
  br i1 %39, label %82, label %79

79:                                               ; preds = %77
  %80 = getelementptr inbounds nuw i8, ptr %3, i64 %78
  store i32 %38, ptr %80, align 4, !tbaa !5, !noalias !199
  %81 = add nuw nsw i64 %78, 4
  br label %82

82:                                               ; preds = %79, %77
  %83 = phi i64 [ %78, %77 ], [ %81, %79 ]
  br i1 %47, label %87, label %84

84:                                               ; preds = %82
  %85 = getelementptr inbounds nuw i8, ptr %3, i64 %83
  store i32 %46, ptr %85, align 4, !tbaa !5, !noalias !199
  %86 = add nuw nsw i64 %83, 4
  br label %87

87:                                               ; preds = %84, %82
  %88 = phi i64 [ %83, %82 ], [ %86, %84 ]
  %89 = icmp eq i64 %88, 20
  br i1 %89, label %91, label %90

90:                                               ; preds = %87
  tail call void @__assert_fail(ptr noundef nonnull @.str.11, ptr noundef nonnull @.str.4, i32 noundef 129, ptr noundef nonnull @__PRETTY_FUNCTION__._Z4testI20cpp17_input_iteratorIPiS1_E14sized_sentinelIS2_ES1_Li6ELi5EEv4DataIXT2_EXT3_EE) #7
  unreachable

91:                                               ; preds = %87
  %92 = call i32 @bcmp(ptr noundef nonnull align 4 dereferenceable(20) %53, ptr noundef nonnull align 4 dereferenceable(20) %3, i64 20)
  %93 = icmp eq i32 %92, 0
  br i1 %93, label %95, label %94

94:                                               ; preds = %91
  tail call void @__assert_fail(ptr noundef nonnull @.str.12, ptr noundef nonnull @.str.4, i32 noundef 130, ptr noundef nonnull @__PRETTY_FUNCTION__._Z4testI20cpp17_input_iteratorIPiS1_E14sized_sentinelIS2_ES1_Li6ELi5EEv4DataIXT2_EXT3_EE) #7
  unreachable

95:                                               ; preds = %91
  call void @llvm.lifetime.end.p0(ptr nonnull %3) #6
  ret void
}

; Function Attrs: mustprogress uwtable
define linkonce_odr dso_local void @_Z4testI20cpp17_input_iteratorIPiS1_E14sized_sentinelIS2_ES1_Li8ELi5EEv4DataIXT2_EXT3_EE(ptr noundef byval(%struct.Data.11) align 8 %0) local_unnamed_addr #1 comdat personality ptr @__gxx_personality_v0 {
  %2 = alloca %"struct.std::array.3", align 4
  %3 = alloca %"struct.std::array.3", align 4
  call void @llvm.lifetime.start.p0(ptr nonnull %2) #6
  %4 = getelementptr inbounds nuw i8, ptr %0, i64 52
  %5 = load i32, ptr %4, align 4, !tbaa !5, !noalias !204
  %6 = getelementptr inbounds nuw i8, ptr %3, i64 4
  %7 = load i32, ptr %0, align 8, !tbaa !5, !noalias !204
  %8 = icmp eq i32 %7, %5
  br i1 %8, label %11, label %9

9:                                                ; preds = %1
  %10 = getelementptr inbounds nuw i8, ptr %2, i64 4
  store i32 %7, ptr %2, align 4, !tbaa !5, !noalias !204
  br label %11

11:                                               ; preds = %9, %1
  %12 = phi ptr [ %2, %1 ], [ %10, %9 ]
  %13 = phi i64 [ 0, %1 ], [ 4, %9 ]
  %14 = getelementptr inbounds nuw i8, ptr %0, i64 4
  %15 = load i32, ptr %14, align 4, !tbaa !5, !noalias !204
  %16 = icmp eq i32 %15, %5
  br i1 %16, label %19, label %17

17:                                               ; preds = %11
  store i32 %15, ptr %12, align 4, !tbaa !5, !noalias !204
  %18 = add nuw nsw i64 %13, 4
  br label %19

19:                                               ; preds = %17, %11
  %20 = phi i64 [ %13, %11 ], [ %18, %17 ]
  %21 = getelementptr inbounds nuw i8, ptr %0, i64 8
  %22 = load i32, ptr %21, align 8, !tbaa !5, !noalias !204
  %23 = icmp eq i32 %22, %5
  br i1 %23, label %27, label %24

24:                                               ; preds = %19
  %25 = getelementptr inbounds nuw i8, ptr %2, i64 %20
  store i32 %22, ptr %25, align 4, !tbaa !5, !noalias !204
  %26 = add nuw nsw i64 %20, 4
  br label %27

27:                                               ; preds = %24, %19
  %28 = phi i64 [ %20, %19 ], [ %26, %24 ]
  %29 = getelementptr inbounds nuw i8, ptr %0, i64 12
  %30 = load i32, ptr %29, align 4, !tbaa !5, !noalias !204
  %31 = icmp eq i32 %30, %5
  br i1 %31, label %35, label %32

32:                                               ; preds = %27
  %33 = getelementptr inbounds nuw i8, ptr %2, i64 %28
  store i32 %30, ptr %33, align 4, !tbaa !5, !noalias !204
  %34 = add nuw nsw i64 %28, 4
  br label %35

35:                                               ; preds = %32, %27
  %36 = phi i64 [ %28, %27 ], [ %34, %32 ]
  %37 = getelementptr inbounds nuw i8, ptr %0, i64 16
  %38 = load i32, ptr %37, align 8, !tbaa !5, !noalias !204
  %39 = icmp eq i32 %38, %5
  br i1 %39, label %43, label %40

40:                                               ; preds = %35
  %41 = getelementptr inbounds nuw i8, ptr %2, i64 %36
  store i32 %38, ptr %41, align 4, !tbaa !5, !noalias !204
  %42 = add nuw nsw i64 %36, 4
  br label %43

43:                                               ; preds = %40, %35
  %44 = phi i64 [ %36, %35 ], [ %42, %40 ]
  %45 = getelementptr inbounds nuw i8, ptr %0, i64 20
  %46 = load i32, ptr %45, align 4, !tbaa !5, !noalias !204
  %47 = icmp eq i32 %46, %5
  br i1 %47, label %51, label %48

48:                                               ; preds = %43
  %49 = getelementptr inbounds nuw i8, ptr %2, i64 %44
  store i32 %46, ptr %49, align 4, !tbaa !5, !noalias !204
  %50 = add nuw nsw i64 %44, 4
  br label %51

51:                                               ; preds = %48, %43
  %52 = phi i64 [ %44, %43 ], [ %50, %48 ]
  %53 = getelementptr inbounds nuw i8, ptr %0, i64 24
  %54 = load i32, ptr %53, align 8, !tbaa !5, !noalias !204
  %55 = icmp eq i32 %54, %5
  br i1 %55, label %59, label %56

56:                                               ; preds = %51
  %57 = getelementptr inbounds nuw i8, ptr %2, i64 %52
  store i32 %54, ptr %57, align 4, !tbaa !5, !noalias !204
  %58 = add nuw nsw i64 %52, 4
  br label %59

59:                                               ; preds = %56, %51
  %60 = phi i64 [ %52, %51 ], [ %58, %56 ]
  %61 = getelementptr inbounds nuw i8, ptr %0, i64 28
  %62 = load i32, ptr %61, align 4, !tbaa !5, !noalias !204
  %63 = icmp eq i32 %62, %5
  br i1 %63, label %67, label %64

64:                                               ; preds = %59
  %65 = getelementptr inbounds nuw i8, ptr %2, i64 %60
  store i32 %62, ptr %65, align 4, !tbaa !5, !noalias !204
  %66 = add nuw nsw i64 %60, 4
  br label %67

67:                                               ; preds = %64, %59
  %68 = phi i64 [ %60, %59 ], [ %66, %64 ]
  %69 = getelementptr inbounds nuw i8, ptr %0, i64 32
  %70 = icmp eq i64 %68, 20
  br i1 %70, label %72, label %71

71:                                               ; preds = %67
  tail call void @__assert_fail(ptr noundef nonnull @.str.11, ptr noundef nonnull @.str.4, i32 noundef 117, ptr noundef nonnull @__PRETTY_FUNCTION__._Z4testI20cpp17_input_iteratorIPiS1_E14sized_sentinelIS2_ES1_Li8ELi5EEv4DataIXT2_EXT3_EE) #7
  unreachable

72:                                               ; preds = %67
  %73 = call i32 @bcmp(ptr noundef nonnull align 4 dereferenceable(20) %69, ptr noundef nonnull align 4 dereferenceable(20) %2, i64 20)
  %74 = icmp eq i32 %73, 0
  br i1 %74, label %76, label %75

75:                                               ; preds = %72
  tail call void @__assert_fail(ptr noundef nonnull @.str.12, ptr noundef nonnull @.str.4, i32 noundef 118, ptr noundef nonnull @__PRETTY_FUNCTION__._Z4testI20cpp17_input_iteratorIPiS1_E14sized_sentinelIS2_ES1_Li8ELi5EEv4DataIXT2_EXT3_EE) #7
  unreachable

76:                                               ; preds = %72
  call void @llvm.lifetime.end.p0(ptr nonnull %2) #6
  call void @llvm.lifetime.start.p0(ptr nonnull %3) #6
  br i1 %8, label %78, label %77

77:                                               ; preds = %76
  store i32 %7, ptr %3, align 4, !tbaa !5, !noalias !207
  br label %78

78:                                               ; preds = %77, %76
  %79 = phi ptr [ %3, %76 ], [ %6, %77 ]
  %80 = phi i64 [ 0, %76 ], [ 4, %77 ]
  br i1 %16, label %83, label %81

81:                                               ; preds = %78
  store i32 %15, ptr %79, align 4, !tbaa !5, !noalias !207
  %82 = add nuw nsw i64 %80, 4
  br label %83

83:                                               ; preds = %81, %78
  %84 = phi i64 [ %80, %78 ], [ %82, %81 ]
  br i1 %23, label %88, label %85

85:                                               ; preds = %83
  %86 = getelementptr inbounds nuw i8, ptr %3, i64 %84
  store i32 %22, ptr %86, align 4, !tbaa !5, !noalias !207
  %87 = add nuw nsw i64 %84, 4
  br label %88

88:                                               ; preds = %85, %83
  %89 = phi i64 [ %84, %83 ], [ %87, %85 ]
  br i1 %31, label %93, label %90

90:                                               ; preds = %88
  %91 = getelementptr inbounds nuw i8, ptr %3, i64 %89
  store i32 %30, ptr %91, align 4, !tbaa !5, !noalias !207
  %92 = add nuw nsw i64 %89, 4
  br label %93

93:                                               ; preds = %90, %88
  %94 = phi i64 [ %89, %88 ], [ %92, %90 ]
  br i1 %39, label %98, label %95

95:                                               ; preds = %93
  %96 = getelementptr inbounds nuw i8, ptr %3, i64 %94
  store i32 %38, ptr %96, align 4, !tbaa !5, !noalias !207
  %97 = add nuw nsw i64 %94, 4
  br label %98

98:                                               ; preds = %95, %93
  %99 = phi i64 [ %94, %93 ], [ %97, %95 ]
  br i1 %47, label %103, label %100

100:                                              ; preds = %98
  %101 = getelementptr inbounds nuw i8, ptr %3, i64 %99
  store i32 %46, ptr %101, align 4, !tbaa !5, !noalias !207
  %102 = add nuw nsw i64 %99, 4
  br label %103

103:                                              ; preds = %100, %98
  %104 = phi i64 [ %99, %98 ], [ %102, %100 ]
  br i1 %55, label %108, label %105

105:                                              ; preds = %103
  %106 = getelementptr inbounds nuw i8, ptr %3, i64 %104
  store i32 %54, ptr %106, align 4, !tbaa !5, !noalias !207
  %107 = add nuw nsw i64 %104, 4
  br label %108

108:                                              ; preds = %105, %103
  %109 = phi i64 [ %104, %103 ], [ %107, %105 ]
  br i1 %63, label %113, label %110

110:                                              ; preds = %108
  %111 = getelementptr inbounds nuw i8, ptr %3, i64 %109
  store i32 %62, ptr %111, align 4, !tbaa !5, !noalias !207
  %112 = add nuw nsw i64 %109, 4
  br label %113

113:                                              ; preds = %110, %108
  %114 = phi i64 [ %109, %108 ], [ %112, %110 ]
  %115 = icmp eq i64 %114, 20
  br i1 %115, label %117, label %116

116:                                              ; preds = %113
  tail call void @__assert_fail(ptr noundef nonnull @.str.11, ptr noundef nonnull @.str.4, i32 noundef 129, ptr noundef nonnull @__PRETTY_FUNCTION__._Z4testI20cpp17_input_iteratorIPiS1_E14sized_sentinelIS2_ES1_Li8ELi5EEv4DataIXT2_EXT3_EE) #7
  unreachable

117:                                              ; preds = %113
  %118 = call i32 @bcmp(ptr noundef nonnull align 4 dereferenceable(20) %69, ptr noundef nonnull align 4 dereferenceable(20) %3, i64 20)
  %119 = icmp eq i32 %118, 0
  br i1 %119, label %121, label %120

120:                                              ; preds = %117
  tail call void @__assert_fail(ptr noundef nonnull @.str.12, ptr noundef nonnull @.str.4, i32 noundef 130, ptr noundef nonnull @__PRETTY_FUNCTION__._Z4testI20cpp17_input_iteratorIPiS1_E14sized_sentinelIS2_ES1_Li8ELi5EEv4DataIXT2_EXT3_EE) #7
  unreachable

121:                                              ; preds = %117
  call void @llvm.lifetime.end.p0(ptr nonnull %3) #6
  ret void
}

; Function Attrs: mustprogress uwtable
define linkonce_odr dso_local void @_Z4testI20cpp20_input_iteratorIPiE16sentinel_wrapperIS2_E21cpp17_output_iteratorIS1_ELi6ELi5EEv4DataIXT2_EXT3_EE(ptr noundef byval(%struct.Data) align 8 %0) local_unnamed_addr #1 comdat personality ptr @__gxx_personality_v0 {
  %2 = alloca %"struct.std::array.3", align 4
  %3 = alloca %"struct.std::array.3", align 4
  call void @llvm.lifetime.start.p0(ptr nonnull %2) #6
  %4 = getelementptr inbounds nuw i8, ptr %0, i64 44
  %5 = load i32, ptr %4, align 4, !tbaa !5, !noalias !212
  %6 = getelementptr inbounds nuw i8, ptr %3, i64 4
  %7 = load i32, ptr %0, align 8, !tbaa !5, !noalias !212
  %8 = icmp eq i32 %7, %5
  br i1 %8, label %11, label %9

9:                                                ; preds = %1
  %10 = getelementptr inbounds nuw i8, ptr %2, i64 4
  store i32 %7, ptr %2, align 4, !tbaa !5, !noalias !212
  br label %11

11:                                               ; preds = %9, %1
  %12 = phi ptr [ %2, %1 ], [ %10, %9 ]
  %13 = phi i64 [ 0, %1 ], [ 4, %9 ]
  %14 = getelementptr inbounds nuw i8, ptr %0, i64 4
  %15 = load i32, ptr %14, align 4, !tbaa !5, !noalias !212
  %16 = icmp eq i32 %15, %5
  br i1 %16, label %19, label %17

17:                                               ; preds = %11
  store i32 %15, ptr %12, align 4, !tbaa !5, !noalias !212
  %18 = add nuw nsw i64 %13, 4
  br label %19

19:                                               ; preds = %17, %11
  %20 = phi i64 [ %13, %11 ], [ %18, %17 ]
  %21 = getelementptr inbounds nuw i8, ptr %0, i64 8
  %22 = load i32, ptr %21, align 8, !tbaa !5, !noalias !212
  %23 = icmp eq i32 %22, %5
  br i1 %23, label %27, label %24

24:                                               ; preds = %19
  %25 = getelementptr inbounds nuw i8, ptr %2, i64 %20
  store i32 %22, ptr %25, align 4, !tbaa !5, !noalias !212
  %26 = add nuw nsw i64 %20, 4
  br label %27

27:                                               ; preds = %24, %19
  %28 = phi i64 [ %20, %19 ], [ %26, %24 ]
  %29 = getelementptr inbounds nuw i8, ptr %0, i64 12
  %30 = load i32, ptr %29, align 4, !tbaa !5, !noalias !212
  %31 = icmp eq i32 %30, %5
  br i1 %31, label %35, label %32

32:                                               ; preds = %27
  %33 = getelementptr inbounds nuw i8, ptr %2, i64 %28
  store i32 %30, ptr %33, align 4, !tbaa !5, !noalias !212
  %34 = add nuw nsw i64 %28, 4
  br label %35

35:                                               ; preds = %32, %27
  %36 = phi i64 [ %28, %27 ], [ %34, %32 ]
  %37 = getelementptr inbounds nuw i8, ptr %0, i64 16
  %38 = load i32, ptr %37, align 8, !tbaa !5, !noalias !212
  %39 = icmp eq i32 %38, %5
  br i1 %39, label %43, label %40

40:                                               ; preds = %35
  %41 = getelementptr inbounds nuw i8, ptr %2, i64 %36
  store i32 %38, ptr %41, align 4, !tbaa !5, !noalias !212
  %42 = add nuw nsw i64 %36, 4
  br label %43

43:                                               ; preds = %40, %35
  %44 = phi i64 [ %36, %35 ], [ %42, %40 ]
  %45 = getelementptr inbounds nuw i8, ptr %0, i64 20
  %46 = load i32, ptr %45, align 4, !tbaa !5, !noalias !212
  %47 = icmp eq i32 %46, %5
  br i1 %47, label %51, label %48

48:                                               ; preds = %43
  %49 = getelementptr inbounds nuw i8, ptr %2, i64 %44
  store i32 %46, ptr %49, align 4, !tbaa !5, !noalias !212
  %50 = add nuw nsw i64 %44, 4
  br label %51

51:                                               ; preds = %48, %43
  %52 = phi i64 [ %44, %43 ], [ %50, %48 ]
  %53 = getelementptr inbounds nuw i8, ptr %0, i64 24
  %54 = icmp eq i64 %52, 20
  br i1 %54, label %56, label %55

55:                                               ; preds = %51
  tail call void @__assert_fail(ptr noundef nonnull @.str.11, ptr noundef nonnull @.str.4, i32 noundef 117, ptr noundef nonnull @__PRETTY_FUNCTION__._Z4testI20cpp20_input_iteratorIPiE16sentinel_wrapperIS2_E21cpp17_output_iteratorIS1_ELi6ELi5EEv4DataIXT2_EXT3_EE) #7
  unreachable

56:                                               ; preds = %51
  %57 = call i32 @bcmp(ptr noundef nonnull align 4 dereferenceable(20) %53, ptr noundef nonnull align 4 dereferenceable(20) %2, i64 20)
  %58 = icmp eq i32 %57, 0
  br i1 %58, label %60, label %59

59:                                               ; preds = %56
  tail call void @__assert_fail(ptr noundef nonnull @.str.12, ptr noundef nonnull @.str.4, i32 noundef 118, ptr noundef nonnull @__PRETTY_FUNCTION__._Z4testI20cpp20_input_iteratorIPiE16sentinel_wrapperIS2_E21cpp17_output_iteratorIS1_ELi6ELi5EEv4DataIXT2_EXT3_EE) #7
  unreachable

60:                                               ; preds = %56
  call void @llvm.lifetime.end.p0(ptr nonnull %2) #6
  call void @llvm.lifetime.start.p0(ptr nonnull %3) #6
  br i1 %8, label %62, label %61

61:                                               ; preds = %60
  store i32 %7, ptr %3, align 4, !tbaa !5, !noalias !215
  br label %62

62:                                               ; preds = %61, %60
  %63 = phi ptr [ %3, %60 ], [ %6, %61 ]
  %64 = phi i64 [ 0, %60 ], [ 4, %61 ]
  br i1 %16, label %67, label %65

65:                                               ; preds = %62
  store i32 %15, ptr %63, align 4, !tbaa !5, !noalias !215
  %66 = add nuw nsw i64 %64, 4
  br label %67

67:                                               ; preds = %65, %62
  %68 = phi i64 [ %64, %62 ], [ %66, %65 ]
  br i1 %23, label %72, label %69

69:                                               ; preds = %67
  %70 = getelementptr inbounds nuw i8, ptr %3, i64 %68
  store i32 %22, ptr %70, align 4, !tbaa !5, !noalias !215
  %71 = add nuw nsw i64 %68, 4
  br label %72

72:                                               ; preds = %69, %67
  %73 = phi i64 [ %68, %67 ], [ %71, %69 ]
  br i1 %31, label %77, label %74

74:                                               ; preds = %72
  %75 = getelementptr inbounds nuw i8, ptr %3, i64 %73
  store i32 %30, ptr %75, align 4, !tbaa !5, !noalias !215
  %76 = add nuw nsw i64 %73, 4
  br label %77

77:                                               ; preds = %74, %72
  %78 = phi i64 [ %73, %72 ], [ %76, %74 ]
  br i1 %39, label %82, label %79

79:                                               ; preds = %77
  %80 = getelementptr inbounds nuw i8, ptr %3, i64 %78
  store i32 %38, ptr %80, align 4, !tbaa !5, !noalias !215
  %81 = add nuw nsw i64 %78, 4
  br label %82

82:                                               ; preds = %79, %77
  %83 = phi i64 [ %78, %77 ], [ %81, %79 ]
  br i1 %47, label %87, label %84

84:                                               ; preds = %82
  %85 = getelementptr inbounds nuw i8, ptr %3, i64 %83
  store i32 %46, ptr %85, align 4, !tbaa !5, !noalias !215
  %86 = add nuw nsw i64 %83, 4
  br label %87

87:                                               ; preds = %84, %82
  %88 = phi i64 [ %83, %82 ], [ %86, %84 ]
  %89 = icmp eq i64 %88, 20
  br i1 %89, label %91, label %90

90:                                               ; preds = %87
  tail call void @__assert_fail(ptr noundef nonnull @.str.11, ptr noundef nonnull @.str.4, i32 noundef 129, ptr noundef nonnull @__PRETTY_FUNCTION__._Z4testI20cpp20_input_iteratorIPiE16sentinel_wrapperIS2_E21cpp17_output_iteratorIS1_ELi6ELi5EEv4DataIXT2_EXT3_EE) #7
  unreachable

91:                                               ; preds = %87
  %92 = call i32 @bcmp(ptr noundef nonnull align 4 dereferenceable(20) %53, ptr noundef nonnull align 4 dereferenceable(20) %3, i64 20)
  %93 = icmp eq i32 %92, 0
  br i1 %93, label %95, label %94

94:                                               ; preds = %91
  tail call void @__assert_fail(ptr noundef nonnull @.str.12, ptr noundef nonnull @.str.4, i32 noundef 130, ptr noundef nonnull @__PRETTY_FUNCTION__._Z4testI20cpp20_input_iteratorIPiE16sentinel_wrapperIS2_E21cpp17_output_iteratorIS1_ELi6ELi5EEv4DataIXT2_EXT3_EE) #7
  unreachable

95:                                               ; preds = %91
  call void @llvm.lifetime.end.p0(ptr nonnull %3) #6
  ret void
}

; Function Attrs: mustprogress uwtable
define linkonce_odr dso_local void @_Z4testI20cpp20_input_iteratorIPiE16sentinel_wrapperIS2_E21cpp17_output_iteratorIS1_ELi8ELi5EEv4DataIXT2_EXT3_EE(ptr noundef byval(%struct.Data.11) align 8 %0) local_unnamed_addr #1 comdat personality ptr @__gxx_personality_v0 {
  %2 = alloca %"struct.std::array.3", align 4
  %3 = alloca %"struct.std::array.3", align 4
  call void @llvm.lifetime.start.p0(ptr nonnull %2) #6
  %4 = getelementptr inbounds nuw i8, ptr %0, i64 52
  %5 = load i32, ptr %4, align 4, !tbaa !5, !noalias !220
  %6 = getelementptr inbounds nuw i8, ptr %3, i64 4
  %7 = load i32, ptr %0, align 8, !tbaa !5, !noalias !220
  %8 = icmp eq i32 %7, %5
  br i1 %8, label %11, label %9

9:                                                ; preds = %1
  %10 = getelementptr inbounds nuw i8, ptr %2, i64 4
  store i32 %7, ptr %2, align 4, !tbaa !5, !noalias !220
  br label %11

11:                                               ; preds = %9, %1
  %12 = phi ptr [ %2, %1 ], [ %10, %9 ]
  %13 = phi i64 [ 0, %1 ], [ 4, %9 ]
  %14 = getelementptr inbounds nuw i8, ptr %0, i64 4
  %15 = load i32, ptr %14, align 4, !tbaa !5, !noalias !220
  %16 = icmp eq i32 %15, %5
  br i1 %16, label %19, label %17

17:                                               ; preds = %11
  store i32 %15, ptr %12, align 4, !tbaa !5, !noalias !220
  %18 = add nuw nsw i64 %13, 4
  br label %19

19:                                               ; preds = %17, %11
  %20 = phi i64 [ %13, %11 ], [ %18, %17 ]
  %21 = getelementptr inbounds nuw i8, ptr %0, i64 8
  %22 = load i32, ptr %21, align 8, !tbaa !5, !noalias !220
  %23 = icmp eq i32 %22, %5
  br i1 %23, label %27, label %24

24:                                               ; preds = %19
  %25 = getelementptr inbounds nuw i8, ptr %2, i64 %20
  store i32 %22, ptr %25, align 4, !tbaa !5, !noalias !220
  %26 = add nuw nsw i64 %20, 4
  br label %27

27:                                               ; preds = %24, %19
  %28 = phi i64 [ %20, %19 ], [ %26, %24 ]
  %29 = getelementptr inbounds nuw i8, ptr %0, i64 12
  %30 = load i32, ptr %29, align 4, !tbaa !5, !noalias !220
  %31 = icmp eq i32 %30, %5
  br i1 %31, label %35, label %32

32:                                               ; preds = %27
  %33 = getelementptr inbounds nuw i8, ptr %2, i64 %28
  store i32 %30, ptr %33, align 4, !tbaa !5, !noalias !220
  %34 = add nuw nsw i64 %28, 4
  br label %35

35:                                               ; preds = %32, %27
  %36 = phi i64 [ %28, %27 ], [ %34, %32 ]
  %37 = getelementptr inbounds nuw i8, ptr %0, i64 16
  %38 = load i32, ptr %37, align 8, !tbaa !5, !noalias !220
  %39 = icmp eq i32 %38, %5
  br i1 %39, label %43, label %40

40:                                               ; preds = %35
  %41 = getelementptr inbounds nuw i8, ptr %2, i64 %36
  store i32 %38, ptr %41, align 4, !tbaa !5, !noalias !220
  %42 = add nuw nsw i64 %36, 4
  br label %43

43:                                               ; preds = %40, %35
  %44 = phi i64 [ %36, %35 ], [ %42, %40 ]
  %45 = getelementptr inbounds nuw i8, ptr %0, i64 20
  %46 = load i32, ptr %45, align 4, !tbaa !5, !noalias !220
  %47 = icmp eq i32 %46, %5
  br i1 %47, label %51, label %48

48:                                               ; preds = %43
  %49 = getelementptr inbounds nuw i8, ptr %2, i64 %44
  store i32 %46, ptr %49, align 4, !tbaa !5, !noalias !220
  %50 = add nuw nsw i64 %44, 4
  br label %51

51:                                               ; preds = %48, %43
  %52 = phi i64 [ %44, %43 ], [ %50, %48 ]
  %53 = getelementptr inbounds nuw i8, ptr %0, i64 24
  %54 = load i32, ptr %53, align 8, !tbaa !5, !noalias !220
  %55 = icmp eq i32 %54, %5
  br i1 %55, label %59, label %56

56:                                               ; preds = %51
  %57 = getelementptr inbounds nuw i8, ptr %2, i64 %52
  store i32 %54, ptr %57, align 4, !tbaa !5, !noalias !220
  %58 = add nuw nsw i64 %52, 4
  br label %59

59:                                               ; preds = %56, %51
  %60 = phi i64 [ %52, %51 ], [ %58, %56 ]
  %61 = getelementptr inbounds nuw i8, ptr %0, i64 28
  %62 = load i32, ptr %61, align 4, !tbaa !5, !noalias !220
  %63 = icmp eq i32 %62, %5
  br i1 %63, label %67, label %64

64:                                               ; preds = %59
  %65 = getelementptr inbounds nuw i8, ptr %2, i64 %60
  store i32 %62, ptr %65, align 4, !tbaa !5, !noalias !220
  %66 = add nuw nsw i64 %60, 4
  br label %67

67:                                               ; preds = %64, %59
  %68 = phi i64 [ %60, %59 ], [ %66, %64 ]
  %69 = getelementptr inbounds nuw i8, ptr %0, i64 32
  %70 = icmp eq i64 %68, 20
  br i1 %70, label %72, label %71

71:                                               ; preds = %67
  tail call void @__assert_fail(ptr noundef nonnull @.str.11, ptr noundef nonnull @.str.4, i32 noundef 117, ptr noundef nonnull @__PRETTY_FUNCTION__._Z4testI20cpp20_input_iteratorIPiE16sentinel_wrapperIS2_E21cpp17_output_iteratorIS1_ELi8ELi5EEv4DataIXT2_EXT3_EE) #7
  unreachable

72:                                               ; preds = %67
  %73 = call i32 @bcmp(ptr noundef nonnull align 4 dereferenceable(20) %69, ptr noundef nonnull align 4 dereferenceable(20) %2, i64 20)
  %74 = icmp eq i32 %73, 0
  br i1 %74, label %76, label %75

75:                                               ; preds = %72
  tail call void @__assert_fail(ptr noundef nonnull @.str.12, ptr noundef nonnull @.str.4, i32 noundef 118, ptr noundef nonnull @__PRETTY_FUNCTION__._Z4testI20cpp20_input_iteratorIPiE16sentinel_wrapperIS2_E21cpp17_output_iteratorIS1_ELi8ELi5EEv4DataIXT2_EXT3_EE) #7
  unreachable

76:                                               ; preds = %72
  call void @llvm.lifetime.end.p0(ptr nonnull %2) #6
  call void @llvm.lifetime.start.p0(ptr nonnull %3) #6
  br i1 %8, label %78, label %77

77:                                               ; preds = %76
  store i32 %7, ptr %3, align 4, !tbaa !5, !noalias !223
  br label %78

78:                                               ; preds = %77, %76
  %79 = phi ptr [ %3, %76 ], [ %6, %77 ]
  %80 = phi i64 [ 0, %76 ], [ 4, %77 ]
  br i1 %16, label %83, label %81

81:                                               ; preds = %78
  store i32 %15, ptr %79, align 4, !tbaa !5, !noalias !223
  %82 = add nuw nsw i64 %80, 4
  br label %83

83:                                               ; preds = %81, %78
  %84 = phi i64 [ %80, %78 ], [ %82, %81 ]
  br i1 %23, label %88, label %85

85:                                               ; preds = %83
  %86 = getelementptr inbounds nuw i8, ptr %3, i64 %84
  store i32 %22, ptr %86, align 4, !tbaa !5, !noalias !223
  %87 = add nuw nsw i64 %84, 4
  br label %88

88:                                               ; preds = %85, %83
  %89 = phi i64 [ %84, %83 ], [ %87, %85 ]
  br i1 %31, label %93, label %90

90:                                               ; preds = %88
  %91 = getelementptr inbounds nuw i8, ptr %3, i64 %89
  store i32 %30, ptr %91, align 4, !tbaa !5, !noalias !223
  %92 = add nuw nsw i64 %89, 4
  br label %93

93:                                               ; preds = %90, %88
  %94 = phi i64 [ %89, %88 ], [ %92, %90 ]
  br i1 %39, label %98, label %95

95:                                               ; preds = %93
  %96 = getelementptr inbounds nuw i8, ptr %3, i64 %94
  store i32 %38, ptr %96, align 4, !tbaa !5, !noalias !223
  %97 = add nuw nsw i64 %94, 4
  br label %98

98:                                               ; preds = %95, %93
  %99 = phi i64 [ %94, %93 ], [ %97, %95 ]
  br i1 %47, label %103, label %100

100:                                              ; preds = %98
  %101 = getelementptr inbounds nuw i8, ptr %3, i64 %99
  store i32 %46, ptr %101, align 4, !tbaa !5, !noalias !223
  %102 = add nuw nsw i64 %99, 4
  br label %103

103:                                              ; preds = %100, %98
  %104 = phi i64 [ %99, %98 ], [ %102, %100 ]
  br i1 %55, label %108, label %105

105:                                              ; preds = %103
  %106 = getelementptr inbounds nuw i8, ptr %3, i64 %104
  store i32 %54, ptr %106, align 4, !tbaa !5, !noalias !223
  %107 = add nuw nsw i64 %104, 4
  br label %108

108:                                              ; preds = %105, %103
  %109 = phi i64 [ %104, %103 ], [ %107, %105 ]
  br i1 %63, label %113, label %110

110:                                              ; preds = %108
  %111 = getelementptr inbounds nuw i8, ptr %3, i64 %109
  store i32 %62, ptr %111, align 4, !tbaa !5, !noalias !223
  %112 = add nuw nsw i64 %109, 4
  br label %113

113:                                              ; preds = %110, %108
  %114 = phi i64 [ %109, %108 ], [ %112, %110 ]
  %115 = icmp eq i64 %114, 20
  br i1 %115, label %117, label %116

116:                                              ; preds = %113
  tail call void @__assert_fail(ptr noundef nonnull @.str.11, ptr noundef nonnull @.str.4, i32 noundef 129, ptr noundef nonnull @__PRETTY_FUNCTION__._Z4testI20cpp20_input_iteratorIPiE16sentinel_wrapperIS2_E21cpp17_output_iteratorIS1_ELi8ELi5EEv4DataIXT2_EXT3_EE) #7
  unreachable

117:                                              ; preds = %113
  %118 = call i32 @bcmp(ptr noundef nonnull align 4 dereferenceable(20) %69, ptr noundef nonnull align 4 dereferenceable(20) %3, i64 20)
  %119 = icmp eq i32 %118, 0
  br i1 %119, label %121, label %120

120:                                              ; preds = %117
  tail call void @__assert_fail(ptr noundef nonnull @.str.12, ptr noundef nonnull @.str.4, i32 noundef 130, ptr noundef nonnull @__PRETTY_FUNCTION__._Z4testI20cpp20_input_iteratorIPiE16sentinel_wrapperIS2_E21cpp17_output_iteratorIS1_ELi8ELi5EEv4DataIXT2_EXT3_EE) #7
  unreachable

121:                                              ; preds = %117
  call void @llvm.lifetime.end.p0(ptr nonnull %3) #6
  ret void
}

; Function Attrs: mustprogress uwtable
define linkonce_odr dso_local void @_Z4testI20cpp20_input_iteratorIPiE16sentinel_wrapperIS2_E16forward_iteratorIS1_ELi6ELi5EEv4DataIXT2_EXT3_EE(ptr noundef byval(%struct.Data) align 8 %0) local_unnamed_addr #1 comdat personality ptr @__gxx_personality_v0 {
  %2 = alloca %"struct.std::array.3", align 4
  %3 = alloca %"struct.std::array.3", align 4
  call void @llvm.lifetime.start.p0(ptr nonnull %2) #6
  %4 = getelementptr inbounds nuw i8, ptr %0, i64 44
  %5 = load i32, ptr %4, align 4, !tbaa !5, !noalias !228
  %6 = getelementptr inbounds nuw i8, ptr %3, i64 4
  %7 = load i32, ptr %0, align 8, !tbaa !5, !noalias !228
  %8 = icmp eq i32 %7, %5
  br i1 %8, label %11, label %9

9:                                                ; preds = %1
  %10 = getelementptr inbounds nuw i8, ptr %2, i64 4
  store i32 %7, ptr %2, align 4, !tbaa !5, !noalias !228
  br label %11

11:                                               ; preds = %9, %1
  %12 = phi ptr [ %2, %1 ], [ %10, %9 ]
  %13 = phi i64 [ 0, %1 ], [ 4, %9 ]
  %14 = getelementptr inbounds nuw i8, ptr %0, i64 4
  %15 = load i32, ptr %14, align 4, !tbaa !5, !noalias !228
  %16 = icmp eq i32 %15, %5
  br i1 %16, label %19, label %17

17:                                               ; preds = %11
  store i32 %15, ptr %12, align 4, !tbaa !5, !noalias !228
  %18 = add nuw nsw i64 %13, 4
  br label %19

19:                                               ; preds = %17, %11
  %20 = phi i64 [ %13, %11 ], [ %18, %17 ]
  %21 = getelementptr inbounds nuw i8, ptr %0, i64 8
  %22 = load i32, ptr %21, align 8, !tbaa !5, !noalias !228
  %23 = icmp eq i32 %22, %5
  br i1 %23, label %27, label %24

24:                                               ; preds = %19
  %25 = getelementptr inbounds nuw i8, ptr %2, i64 %20
  store i32 %22, ptr %25, align 4, !tbaa !5, !noalias !228
  %26 = add nuw nsw i64 %20, 4
  br label %27

27:                                               ; preds = %24, %19
  %28 = phi i64 [ %20, %19 ], [ %26, %24 ]
  %29 = getelementptr inbounds nuw i8, ptr %0, i64 12
  %30 = load i32, ptr %29, align 4, !tbaa !5, !noalias !228
  %31 = icmp eq i32 %30, %5
  br i1 %31, label %35, label %32

32:                                               ; preds = %27
  %33 = getelementptr inbounds nuw i8, ptr %2, i64 %28
  store i32 %30, ptr %33, align 4, !tbaa !5, !noalias !228
  %34 = add nuw nsw i64 %28, 4
  br label %35

35:                                               ; preds = %32, %27
  %36 = phi i64 [ %28, %27 ], [ %34, %32 ]
  %37 = getelementptr inbounds nuw i8, ptr %0, i64 16
  %38 = load i32, ptr %37, align 8, !tbaa !5, !noalias !228
  %39 = icmp eq i32 %38, %5
  br i1 %39, label %43, label %40

40:                                               ; preds = %35
  %41 = getelementptr inbounds nuw i8, ptr %2, i64 %36
  store i32 %38, ptr %41, align 4, !tbaa !5, !noalias !228
  %42 = add nuw nsw i64 %36, 4
  br label %43

43:                                               ; preds = %40, %35
  %44 = phi i64 [ %36, %35 ], [ %42, %40 ]
  %45 = getelementptr inbounds nuw i8, ptr %0, i64 20
  %46 = load i32, ptr %45, align 4, !tbaa !5, !noalias !228
  %47 = icmp eq i32 %46, %5
  br i1 %47, label %51, label %48

48:                                               ; preds = %43
  %49 = getelementptr inbounds nuw i8, ptr %2, i64 %44
  store i32 %46, ptr %49, align 4, !tbaa !5, !noalias !228
  %50 = add nuw nsw i64 %44, 4
  br label %51

51:                                               ; preds = %48, %43
  %52 = phi i64 [ %44, %43 ], [ %50, %48 ]
  %53 = getelementptr inbounds nuw i8, ptr %0, i64 24
  %54 = icmp eq i64 %52, 20
  br i1 %54, label %56, label %55

55:                                               ; preds = %51
  tail call void @__assert_fail(ptr noundef nonnull @.str.11, ptr noundef nonnull @.str.4, i32 noundef 117, ptr noundef nonnull @__PRETTY_FUNCTION__._Z4testI20cpp20_input_iteratorIPiE16sentinel_wrapperIS2_E16forward_iteratorIS1_ELi6ELi5EEv4DataIXT2_EXT3_EE) #7
  unreachable

56:                                               ; preds = %51
  %57 = call i32 @bcmp(ptr noundef nonnull align 4 dereferenceable(20) %53, ptr noundef nonnull align 4 dereferenceable(20) %2, i64 20)
  %58 = icmp eq i32 %57, 0
  br i1 %58, label %60, label %59

59:                                               ; preds = %56
  tail call void @__assert_fail(ptr noundef nonnull @.str.12, ptr noundef nonnull @.str.4, i32 noundef 118, ptr noundef nonnull @__PRETTY_FUNCTION__._Z4testI20cpp20_input_iteratorIPiE16sentinel_wrapperIS2_E16forward_iteratorIS1_ELi6ELi5EEv4DataIXT2_EXT3_EE) #7
  unreachable

60:                                               ; preds = %56
  call void @llvm.lifetime.end.p0(ptr nonnull %2) #6
  call void @llvm.lifetime.start.p0(ptr nonnull %3) #6
  br i1 %8, label %62, label %61

61:                                               ; preds = %60
  store i32 %7, ptr %3, align 4, !tbaa !5, !noalias !231
  br label %62

62:                                               ; preds = %61, %60
  %63 = phi ptr [ %3, %60 ], [ %6, %61 ]
  %64 = phi i64 [ 0, %60 ], [ 4, %61 ]
  br i1 %16, label %67, label %65

65:                                               ; preds = %62
  store i32 %15, ptr %63, align 4, !tbaa !5, !noalias !231
  %66 = add nuw nsw i64 %64, 4
  br label %67

67:                                               ; preds = %65, %62
  %68 = phi i64 [ %64, %62 ], [ %66, %65 ]
  br i1 %23, label %72, label %69

69:                                               ; preds = %67
  %70 = getelementptr inbounds nuw i8, ptr %3, i64 %68
  store i32 %22, ptr %70, align 4, !tbaa !5, !noalias !231
  %71 = add nuw nsw i64 %68, 4
  br label %72

72:                                               ; preds = %69, %67
  %73 = phi i64 [ %68, %67 ], [ %71, %69 ]
  br i1 %31, label %77, label %74

74:                                               ; preds = %72
  %75 = getelementptr inbounds nuw i8, ptr %3, i64 %73
  store i32 %30, ptr %75, align 4, !tbaa !5, !noalias !231
  %76 = add nuw nsw i64 %73, 4
  br label %77

77:                                               ; preds = %74, %72
  %78 = phi i64 [ %73, %72 ], [ %76, %74 ]
  br i1 %39, label %82, label %79

79:                                               ; preds = %77
  %80 = getelementptr inbounds nuw i8, ptr %3, i64 %78
  store i32 %38, ptr %80, align 4, !tbaa !5, !noalias !231
  %81 = add nuw nsw i64 %78, 4
  br label %82

82:                                               ; preds = %79, %77
  %83 = phi i64 [ %78, %77 ], [ %81, %79 ]
  br i1 %47, label %87, label %84

84:                                               ; preds = %82
  %85 = getelementptr inbounds nuw i8, ptr %3, i64 %83
  store i32 %46, ptr %85, align 4, !tbaa !5, !noalias !231
  %86 = add nuw nsw i64 %83, 4
  br label %87

87:                                               ; preds = %84, %82
  %88 = phi i64 [ %83, %82 ], [ %86, %84 ]
  %89 = icmp eq i64 %88, 20
  br i1 %89, label %91, label %90

90:                                               ; preds = %87
  tail call void @__assert_fail(ptr noundef nonnull @.str.11, ptr noundef nonnull @.str.4, i32 noundef 129, ptr noundef nonnull @__PRETTY_FUNCTION__._Z4testI20cpp20_input_iteratorIPiE16sentinel_wrapperIS2_E16forward_iteratorIS1_ELi6ELi5EEv4DataIXT2_EXT3_EE) #7
  unreachable

91:                                               ; preds = %87
  %92 = call i32 @bcmp(ptr noundef nonnull align 4 dereferenceable(20) %53, ptr noundef nonnull align 4 dereferenceable(20) %3, i64 20)
  %93 = icmp eq i32 %92, 0
  br i1 %93, label %95, label %94

94:                                               ; preds = %91
  tail call void @__assert_fail(ptr noundef nonnull @.str.12, ptr noundef nonnull @.str.4, i32 noundef 130, ptr noundef nonnull @__PRETTY_FUNCTION__._Z4testI20cpp20_input_iteratorIPiE16sentinel_wrapperIS2_E16forward_iteratorIS1_ELi6ELi5EEv4DataIXT2_EXT3_EE) #7
  unreachable

95:                                               ; preds = %91
  call void @llvm.lifetime.end.p0(ptr nonnull %3) #6
  ret void
}

; Function Attrs: mustprogress uwtable
define linkonce_odr dso_local void @_Z4testI20cpp20_input_iteratorIPiE16sentinel_wrapperIS2_E16forward_iteratorIS1_ELi8ELi5EEv4DataIXT2_EXT3_EE(ptr noundef byval(%struct.Data.11) align 8 %0) local_unnamed_addr #1 comdat personality ptr @__gxx_personality_v0 {
  %2 = alloca %"struct.std::array.3", align 4
  %3 = alloca %"struct.std::array.3", align 4
  call void @llvm.lifetime.start.p0(ptr nonnull %2) #6
  %4 = getelementptr inbounds nuw i8, ptr %0, i64 52
  %5 = load i32, ptr %4, align 4, !tbaa !5, !noalias !236
  %6 = getelementptr inbounds nuw i8, ptr %3, i64 4
  %7 = load i32, ptr %0, align 8, !tbaa !5, !noalias !236
  %8 = icmp eq i32 %7, %5
  br i1 %8, label %11, label %9

9:                                                ; preds = %1
  %10 = getelementptr inbounds nuw i8, ptr %2, i64 4
  store i32 %7, ptr %2, align 4, !tbaa !5, !noalias !236
  br label %11

11:                                               ; preds = %9, %1
  %12 = phi ptr [ %2, %1 ], [ %10, %9 ]
  %13 = phi i64 [ 0, %1 ], [ 4, %9 ]
  %14 = getelementptr inbounds nuw i8, ptr %0, i64 4
  %15 = load i32, ptr %14, align 4, !tbaa !5, !noalias !236
  %16 = icmp eq i32 %15, %5
  br i1 %16, label %19, label %17

17:                                               ; preds = %11
  store i32 %15, ptr %12, align 4, !tbaa !5, !noalias !236
  %18 = add nuw nsw i64 %13, 4
  br label %19

19:                                               ; preds = %17, %11
  %20 = phi i64 [ %13, %11 ], [ %18, %17 ]
  %21 = getelementptr inbounds nuw i8, ptr %0, i64 8
  %22 = load i32, ptr %21, align 8, !tbaa !5, !noalias !236
  %23 = icmp eq i32 %22, %5
  br i1 %23, label %27, label %24

24:                                               ; preds = %19
  %25 = getelementptr inbounds nuw i8, ptr %2, i64 %20
  store i32 %22, ptr %25, align 4, !tbaa !5, !noalias !236
  %26 = add nuw nsw i64 %20, 4
  br label %27

27:                                               ; preds = %24, %19
  %28 = phi i64 [ %20, %19 ], [ %26, %24 ]
  %29 = getelementptr inbounds nuw i8, ptr %0, i64 12
  %30 = load i32, ptr %29, align 4, !tbaa !5, !noalias !236
  %31 = icmp eq i32 %30, %5
  br i1 %31, label %35, label %32

32:                                               ; preds = %27
  %33 = getelementptr inbounds nuw i8, ptr %2, i64 %28
  store i32 %30, ptr %33, align 4, !tbaa !5, !noalias !236
  %34 = add nuw nsw i64 %28, 4
  br label %35

35:                                               ; preds = %32, %27
  %36 = phi i64 [ %28, %27 ], [ %34, %32 ]
  %37 = getelementptr inbounds nuw i8, ptr %0, i64 16
  %38 = load i32, ptr %37, align 8, !tbaa !5, !noalias !236
  %39 = icmp eq i32 %38, %5
  br i1 %39, label %43, label %40

40:                                               ; preds = %35
  %41 = getelementptr inbounds nuw i8, ptr %2, i64 %36
  store i32 %38, ptr %41, align 4, !tbaa !5, !noalias !236
  %42 = add nuw nsw i64 %36, 4
  br label %43

43:                                               ; preds = %40, %35
  %44 = phi i64 [ %36, %35 ], [ %42, %40 ]
  %45 = getelementptr inbounds nuw i8, ptr %0, i64 20
  %46 = load i32, ptr %45, align 4, !tbaa !5, !noalias !236
  %47 = icmp eq i32 %46, %5
  br i1 %47, label %51, label %48

48:                                               ; preds = %43
  %49 = getelementptr inbounds nuw i8, ptr %2, i64 %44
  store i32 %46, ptr %49, align 4, !tbaa !5, !noalias !236
  %50 = add nuw nsw i64 %44, 4
  br label %51

51:                                               ; preds = %48, %43
  %52 = phi i64 [ %44, %43 ], [ %50, %48 ]
  %53 = getelementptr inbounds nuw i8, ptr %0, i64 24
  %54 = load i32, ptr %53, align 8, !tbaa !5, !noalias !236
  %55 = icmp eq i32 %54, %5
  br i1 %55, label %59, label %56

56:                                               ; preds = %51
  %57 = getelementptr inbounds nuw i8, ptr %2, i64 %52
  store i32 %54, ptr %57, align 4, !tbaa !5, !noalias !236
  %58 = add nuw nsw i64 %52, 4
  br label %59

59:                                               ; preds = %56, %51
  %60 = phi i64 [ %52, %51 ], [ %58, %56 ]
  %61 = getelementptr inbounds nuw i8, ptr %0, i64 28
  %62 = load i32, ptr %61, align 4, !tbaa !5, !noalias !236
  %63 = icmp eq i32 %62, %5
  br i1 %63, label %67, label %64

64:                                               ; preds = %59
  %65 = getelementptr inbounds nuw i8, ptr %2, i64 %60
  store i32 %62, ptr %65, align 4, !tbaa !5, !noalias !236
  %66 = add nuw nsw i64 %60, 4
  br label %67

67:                                               ; preds = %64, %59
  %68 = phi i64 [ %60, %59 ], [ %66, %64 ]
  %69 = getelementptr inbounds nuw i8, ptr %0, i64 32
  %70 = icmp eq i64 %68, 20
  br i1 %70, label %72, label %71

71:                                               ; preds = %67
  tail call void @__assert_fail(ptr noundef nonnull @.str.11, ptr noundef nonnull @.str.4, i32 noundef 117, ptr noundef nonnull @__PRETTY_FUNCTION__._Z4testI20cpp20_input_iteratorIPiE16sentinel_wrapperIS2_E16forward_iteratorIS1_ELi8ELi5EEv4DataIXT2_EXT3_EE) #7
  unreachable

72:                                               ; preds = %67
  %73 = call i32 @bcmp(ptr noundef nonnull align 4 dereferenceable(20) %69, ptr noundef nonnull align 4 dereferenceable(20) %2, i64 20)
  %74 = icmp eq i32 %73, 0
  br i1 %74, label %76, label %75

75:                                               ; preds = %72
  tail call void @__assert_fail(ptr noundef nonnull @.str.12, ptr noundef nonnull @.str.4, i32 noundef 118, ptr noundef nonnull @__PRETTY_FUNCTION__._Z4testI20cpp20_input_iteratorIPiE16sentinel_wrapperIS2_E16forward_iteratorIS1_ELi8ELi5EEv4DataIXT2_EXT3_EE) #7
  unreachable

76:                                               ; preds = %72
  call void @llvm.lifetime.end.p0(ptr nonnull %2) #6
  call void @llvm.lifetime.start.p0(ptr nonnull %3) #6
  br i1 %8, label %78, label %77

77:                                               ; preds = %76
  store i32 %7, ptr %3, align 4, !tbaa !5, !noalias !239
  br label %78

78:                                               ; preds = %77, %76
  %79 = phi ptr [ %3, %76 ], [ %6, %77 ]
  %80 = phi i64 [ 0, %76 ], [ 4, %77 ]
  br i1 %16, label %83, label %81

81:                                               ; preds = %78
  store i32 %15, ptr %79, align 4, !tbaa !5, !noalias !239
  %82 = add nuw nsw i64 %80, 4
  br label %83

83:                                               ; preds = %81, %78
  %84 = phi i64 [ %80, %78 ], [ %82, %81 ]
  br i1 %23, label %88, label %85

85:                                               ; preds = %83
  %86 = getelementptr inbounds nuw i8, ptr %3, i64 %84
  store i32 %22, ptr %86, align 4, !tbaa !5, !noalias !239
  %87 = add nuw nsw i64 %84, 4
  br label %88

88:                                               ; preds = %85, %83
  %89 = phi i64 [ %84, %83 ], [ %87, %85 ]
  br i1 %31, label %93, label %90

90:                                               ; preds = %88
  %91 = getelementptr inbounds nuw i8, ptr %3, i64 %89
  store i32 %30, ptr %91, align 4, !tbaa !5, !noalias !239
  %92 = add nuw nsw i64 %89, 4
  br label %93

93:                                               ; preds = %90, %88
  %94 = phi i64 [ %89, %88 ], [ %92, %90 ]
  br i1 %39, label %98, label %95

95:                                               ; preds = %93
  %96 = getelementptr inbounds nuw i8, ptr %3, i64 %94
  store i32 %38, ptr %96, align 4, !tbaa !5, !noalias !239
  %97 = add nuw nsw i64 %94, 4
  br label %98

98:                                               ; preds = %95, %93
  %99 = phi i64 [ %94, %93 ], [ %97, %95 ]
  br i1 %47, label %103, label %100

100:                                              ; preds = %98
  %101 = getelementptr inbounds nuw i8, ptr %3, i64 %99
  store i32 %46, ptr %101, align 4, !tbaa !5, !noalias !239
  %102 = add nuw nsw i64 %99, 4
  br label %103

103:                                              ; preds = %100, %98
  %104 = phi i64 [ %99, %98 ], [ %102, %100 ]
  br i1 %55, label %108, label %105

105:                                              ; preds = %103
  %106 = getelementptr inbounds nuw i8, ptr %3, i64 %104
  store i32 %54, ptr %106, align 4, !tbaa !5, !noalias !239
  %107 = add nuw nsw i64 %104, 4
  br label %108

108:                                              ; preds = %105, %103
  %109 = phi i64 [ %104, %103 ], [ %107, %105 ]
  br i1 %63, label %113, label %110

110:                                              ; preds = %108
  %111 = getelementptr inbounds nuw i8, ptr %3, i64 %109
  store i32 %62, ptr %111, align 4, !tbaa !5, !noalias !239
  %112 = add nuw nsw i64 %109, 4
  br label %113

113:                                              ; preds = %110, %108
  %114 = phi i64 [ %109, %108 ], [ %112, %110 ]
  %115 = icmp eq i64 %114, 20
  br i1 %115, label %117, label %116

116:                                              ; preds = %113
  tail call void @__assert_fail(ptr noundef nonnull @.str.11, ptr noundef nonnull @.str.4, i32 noundef 129, ptr noundef nonnull @__PRETTY_FUNCTION__._Z4testI20cpp20_input_iteratorIPiE16sentinel_wrapperIS2_E16forward_iteratorIS1_ELi8ELi5EEv4DataIXT2_EXT3_EE) #7
  unreachable

117:                                              ; preds = %113
  %118 = call i32 @bcmp(ptr noundef nonnull align 4 dereferenceable(20) %69, ptr noundef nonnull align 4 dereferenceable(20) %3, i64 20)
  %119 = icmp eq i32 %118, 0
  br i1 %119, label %121, label %120

120:                                              ; preds = %117
  tail call void @__assert_fail(ptr noundef nonnull @.str.12, ptr noundef nonnull @.str.4, i32 noundef 130, ptr noundef nonnull @__PRETTY_FUNCTION__._Z4testI20cpp20_input_iteratorIPiE16sentinel_wrapperIS2_E16forward_iteratorIS1_ELi8ELi5EEv4DataIXT2_EXT3_EE) #7
  unreachable

121:                                              ; preds = %117
  call void @llvm.lifetime.end.p0(ptr nonnull %3) #6
  ret void
}

; Function Attrs: mustprogress uwtable
define linkonce_odr dso_local void @_Z4testI20cpp20_input_iteratorIPiE16sentinel_wrapperIS2_E22bidirectional_iteratorIS1_ELi6ELi5EEv4DataIXT2_EXT3_EE(ptr noundef byval(%struct.Data) align 8 %0) local_unnamed_addr #1 comdat personality ptr @__gxx_personality_v0 {
  %2 = alloca %"struct.std::array.3", align 4
  %3 = alloca %"struct.std::array.3", align 4
  call void @llvm.lifetime.start.p0(ptr nonnull %2) #6
  %4 = getelementptr inbounds nuw i8, ptr %0, i64 44
  %5 = load i32, ptr %4, align 4, !tbaa !5, !noalias !244
  %6 = getelementptr inbounds nuw i8, ptr %3, i64 4
  %7 = load i32, ptr %0, align 8, !tbaa !5, !noalias !244
  %8 = icmp eq i32 %7, %5
  br i1 %8, label %11, label %9

9:                                                ; preds = %1
  %10 = getelementptr inbounds nuw i8, ptr %2, i64 4
  store i32 %7, ptr %2, align 4, !tbaa !5, !noalias !244
  br label %11

11:                                               ; preds = %9, %1
  %12 = phi ptr [ %2, %1 ], [ %10, %9 ]
  %13 = phi i64 [ 0, %1 ], [ 4, %9 ]
  %14 = getelementptr inbounds nuw i8, ptr %0, i64 4
  %15 = load i32, ptr %14, align 4, !tbaa !5, !noalias !244
  %16 = icmp eq i32 %15, %5
  br i1 %16, label %19, label %17

17:                                               ; preds = %11
  store i32 %15, ptr %12, align 4, !tbaa !5, !noalias !244
  %18 = add nuw nsw i64 %13, 4
  br label %19

19:                                               ; preds = %17, %11
  %20 = phi i64 [ %13, %11 ], [ %18, %17 ]
  %21 = getelementptr inbounds nuw i8, ptr %0, i64 8
  %22 = load i32, ptr %21, align 8, !tbaa !5, !noalias !244
  %23 = icmp eq i32 %22, %5
  br i1 %23, label %27, label %24

24:                                               ; preds = %19
  %25 = getelementptr inbounds nuw i8, ptr %2, i64 %20
  store i32 %22, ptr %25, align 4, !tbaa !5, !noalias !244
  %26 = add nuw nsw i64 %20, 4
  br label %27

27:                                               ; preds = %24, %19
  %28 = phi i64 [ %20, %19 ], [ %26, %24 ]
  %29 = getelementptr inbounds nuw i8, ptr %0, i64 12
  %30 = load i32, ptr %29, align 4, !tbaa !5, !noalias !244
  %31 = icmp eq i32 %30, %5
  br i1 %31, label %35, label %32

32:                                               ; preds = %27
  %33 = getelementptr inbounds nuw i8, ptr %2, i64 %28
  store i32 %30, ptr %33, align 4, !tbaa !5, !noalias !244
  %34 = add nuw nsw i64 %28, 4
  br label %35

35:                                               ; preds = %32, %27
  %36 = phi i64 [ %28, %27 ], [ %34, %32 ]
  %37 = getelementptr inbounds nuw i8, ptr %0, i64 16
  %38 = load i32, ptr %37, align 8, !tbaa !5, !noalias !244
  %39 = icmp eq i32 %38, %5
  br i1 %39, label %43, label %40

40:                                               ; preds = %35
  %41 = getelementptr inbounds nuw i8, ptr %2, i64 %36
  store i32 %38, ptr %41, align 4, !tbaa !5, !noalias !244
  %42 = add nuw nsw i64 %36, 4
  br label %43

43:                                               ; preds = %40, %35
  %44 = phi i64 [ %36, %35 ], [ %42, %40 ]
  %45 = getelementptr inbounds nuw i8, ptr %0, i64 20
  %46 = load i32, ptr %45, align 4, !tbaa !5, !noalias !244
  %47 = icmp eq i32 %46, %5
  br i1 %47, label %51, label %48

48:                                               ; preds = %43
  %49 = getelementptr inbounds nuw i8, ptr %2, i64 %44
  store i32 %46, ptr %49, align 4, !tbaa !5, !noalias !244
  %50 = add nuw nsw i64 %44, 4
  br label %51

51:                                               ; preds = %48, %43
  %52 = phi i64 [ %44, %43 ], [ %50, %48 ]
  %53 = getelementptr inbounds nuw i8, ptr %0, i64 24
  %54 = icmp eq i64 %52, 20
  br i1 %54, label %56, label %55

55:                                               ; preds = %51
  tail call void @__assert_fail(ptr noundef nonnull @.str.11, ptr noundef nonnull @.str.4, i32 noundef 117, ptr noundef nonnull @__PRETTY_FUNCTION__._Z4testI20cpp20_input_iteratorIPiE16sentinel_wrapperIS2_E22bidirectional_iteratorIS1_ELi6ELi5EEv4DataIXT2_EXT3_EE) #7
  unreachable

56:                                               ; preds = %51
  %57 = call i32 @bcmp(ptr noundef nonnull align 4 dereferenceable(20) %53, ptr noundef nonnull align 4 dereferenceable(20) %2, i64 20)
  %58 = icmp eq i32 %57, 0
  br i1 %58, label %60, label %59

59:                                               ; preds = %56
  tail call void @__assert_fail(ptr noundef nonnull @.str.12, ptr noundef nonnull @.str.4, i32 noundef 118, ptr noundef nonnull @__PRETTY_FUNCTION__._Z4testI20cpp20_input_iteratorIPiE16sentinel_wrapperIS2_E22bidirectional_iteratorIS1_ELi6ELi5EEv4DataIXT2_EXT3_EE) #7
  unreachable

60:                                               ; preds = %56
  call void @llvm.lifetime.end.p0(ptr nonnull %2) #6
  call void @llvm.lifetime.start.p0(ptr nonnull %3) #6
  br i1 %8, label %62, label %61

61:                                               ; preds = %60
  store i32 %7, ptr %3, align 4, !tbaa !5, !noalias !247
  br label %62

62:                                               ; preds = %61, %60
  %63 = phi ptr [ %3, %60 ], [ %6, %61 ]
  %64 = phi i64 [ 0, %60 ], [ 4, %61 ]
  br i1 %16, label %67, label %65

65:                                               ; preds = %62
  store i32 %15, ptr %63, align 4, !tbaa !5, !noalias !247
  %66 = add nuw nsw i64 %64, 4
  br label %67

67:                                               ; preds = %65, %62
  %68 = phi i64 [ %64, %62 ], [ %66, %65 ]
  br i1 %23, label %72, label %69

69:                                               ; preds = %67
  %70 = getelementptr inbounds nuw i8, ptr %3, i64 %68
  store i32 %22, ptr %70, align 4, !tbaa !5, !noalias !247
  %71 = add nuw nsw i64 %68, 4
  br label %72

72:                                               ; preds = %69, %67
  %73 = phi i64 [ %68, %67 ], [ %71, %69 ]
  br i1 %31, label %77, label %74

74:                                               ; preds = %72
  %75 = getelementptr inbounds nuw i8, ptr %3, i64 %73
  store i32 %30, ptr %75, align 4, !tbaa !5, !noalias !247
  %76 = add nuw nsw i64 %73, 4
  br label %77

77:                                               ; preds = %74, %72
  %78 = phi i64 [ %73, %72 ], [ %76, %74 ]
  br i1 %39, label %82, label %79

79:                                               ; preds = %77
  %80 = getelementptr inbounds nuw i8, ptr %3, i64 %78
  store i32 %38, ptr %80, align 4, !tbaa !5, !noalias !247
  %81 = add nuw nsw i64 %78, 4
  br label %82

82:                                               ; preds = %79, %77
  %83 = phi i64 [ %78, %77 ], [ %81, %79 ]
  br i1 %47, label %87, label %84

84:                                               ; preds = %82
  %85 = getelementptr inbounds nuw i8, ptr %3, i64 %83
  store i32 %46, ptr %85, align 4, !tbaa !5, !noalias !247
  %86 = add nuw nsw i64 %83, 4
  br label %87

87:                                               ; preds = %84, %82
  %88 = phi i64 [ %83, %82 ], [ %86, %84 ]
  %89 = icmp eq i64 %88, 20
  br i1 %89, label %91, label %90

90:                                               ; preds = %87
  tail call void @__assert_fail(ptr noundef nonnull @.str.11, ptr noundef nonnull @.str.4, i32 noundef 129, ptr noundef nonnull @__PRETTY_FUNCTION__._Z4testI20cpp20_input_iteratorIPiE16sentinel_wrapperIS2_E22bidirectional_iteratorIS1_ELi6ELi5EEv4DataIXT2_EXT3_EE) #7
  unreachable

91:                                               ; preds = %87
  %92 = call i32 @bcmp(ptr noundef nonnull align 4 dereferenceable(20) %53, ptr noundef nonnull align 4 dereferenceable(20) %3, i64 20)
  %93 = icmp eq i32 %92, 0
  br i1 %93, label %95, label %94

94:                                               ; preds = %91
  tail call void @__assert_fail(ptr noundef nonnull @.str.12, ptr noundef nonnull @.str.4, i32 noundef 130, ptr noundef nonnull @__PRETTY_FUNCTION__._Z4testI20cpp20_input_iteratorIPiE16sentinel_wrapperIS2_E22bidirectional_iteratorIS1_ELi6ELi5EEv4DataIXT2_EXT3_EE) #7
  unreachable

95:                                               ; preds = %91
  call void @llvm.lifetime.end.p0(ptr nonnull %3) #6
  ret void
}

; Function Attrs: mustprogress uwtable
define linkonce_odr dso_local void @_Z4testI20cpp20_input_iteratorIPiE16sentinel_wrapperIS2_E22bidirectional_iteratorIS1_ELi8ELi5EEv4DataIXT2_EXT3_EE(ptr noundef byval(%struct.Data.11) align 8 %0) local_unnamed_addr #1 comdat personality ptr @__gxx_personality_v0 {
  %2 = alloca %"struct.std::array.3", align 4
  %3 = alloca %"struct.std::array.3", align 4
  call void @llvm.lifetime.start.p0(ptr nonnull %2) #6
  %4 = getelementptr inbounds nuw i8, ptr %0, i64 52
  %5 = load i32, ptr %4, align 4, !tbaa !5, !noalias !252
  %6 = getelementptr inbounds nuw i8, ptr %3, i64 4
  %7 = load i32, ptr %0, align 8, !tbaa !5, !noalias !252
  %8 = icmp eq i32 %7, %5
  br i1 %8, label %11, label %9

9:                                                ; preds = %1
  %10 = getelementptr inbounds nuw i8, ptr %2, i64 4
  store i32 %7, ptr %2, align 4, !tbaa !5, !noalias !252
  br label %11

11:                                               ; preds = %9, %1
  %12 = phi ptr [ %2, %1 ], [ %10, %9 ]
  %13 = phi i64 [ 0, %1 ], [ 4, %9 ]
  %14 = getelementptr inbounds nuw i8, ptr %0, i64 4
  %15 = load i32, ptr %14, align 4, !tbaa !5, !noalias !252
  %16 = icmp eq i32 %15, %5
  br i1 %16, label %19, label %17

17:                                               ; preds = %11
  store i32 %15, ptr %12, align 4, !tbaa !5, !noalias !252
  %18 = add nuw nsw i64 %13, 4
  br label %19

19:                                               ; preds = %17, %11
  %20 = phi i64 [ %13, %11 ], [ %18, %17 ]
  %21 = getelementptr inbounds nuw i8, ptr %0, i64 8
  %22 = load i32, ptr %21, align 8, !tbaa !5, !noalias !252
  %23 = icmp eq i32 %22, %5
  br i1 %23, label %27, label %24

24:                                               ; preds = %19
  %25 = getelementptr inbounds nuw i8, ptr %2, i64 %20
  store i32 %22, ptr %25, align 4, !tbaa !5, !noalias !252
  %26 = add nuw nsw i64 %20, 4
  br label %27

27:                                               ; preds = %24, %19
  %28 = phi i64 [ %20, %19 ], [ %26, %24 ]
  %29 = getelementptr inbounds nuw i8, ptr %0, i64 12
  %30 = load i32, ptr %29, align 4, !tbaa !5, !noalias !252
  %31 = icmp eq i32 %30, %5
  br i1 %31, label %35, label %32

32:                                               ; preds = %27
  %33 = getelementptr inbounds nuw i8, ptr %2, i64 %28
  store i32 %30, ptr %33, align 4, !tbaa !5, !noalias !252
  %34 = add nuw nsw i64 %28, 4
  br label %35

35:                                               ; preds = %32, %27
  %36 = phi i64 [ %28, %27 ], [ %34, %32 ]
  %37 = getelementptr inbounds nuw i8, ptr %0, i64 16
  %38 = load i32, ptr %37, align 8, !tbaa !5, !noalias !252
  %39 = icmp eq i32 %38, %5
  br i1 %39, label %43, label %40

40:                                               ; preds = %35
  %41 = getelementptr inbounds nuw i8, ptr %2, i64 %36
  store i32 %38, ptr %41, align 4, !tbaa !5, !noalias !252
  %42 = add nuw nsw i64 %36, 4
  br label %43

43:                                               ; preds = %40, %35
  %44 = phi i64 [ %36, %35 ], [ %42, %40 ]
  %45 = getelementptr inbounds nuw i8, ptr %0, i64 20
  %46 = load i32, ptr %45, align 4, !tbaa !5, !noalias !252
  %47 = icmp eq i32 %46, %5
  br i1 %47, label %51, label %48

48:                                               ; preds = %43
  %49 = getelementptr inbounds nuw i8, ptr %2, i64 %44
  store i32 %46, ptr %49, align 4, !tbaa !5, !noalias !252
  %50 = add nuw nsw i64 %44, 4
  br label %51

51:                                               ; preds = %48, %43
  %52 = phi i64 [ %44, %43 ], [ %50, %48 ]
  %53 = getelementptr inbounds nuw i8, ptr %0, i64 24
  %54 = load i32, ptr %53, align 8, !tbaa !5, !noalias !252
  %55 = icmp eq i32 %54, %5
  br i1 %55, label %59, label %56

56:                                               ; preds = %51
  %57 = getelementptr inbounds nuw i8, ptr %2, i64 %52
  store i32 %54, ptr %57, align 4, !tbaa !5, !noalias !252
  %58 = add nuw nsw i64 %52, 4
  br label %59

59:                                               ; preds = %56, %51
  %60 = phi i64 [ %52, %51 ], [ %58, %56 ]
  %61 = getelementptr inbounds nuw i8, ptr %0, i64 28
  %62 = load i32, ptr %61, align 4, !tbaa !5, !noalias !252
  %63 = icmp eq i32 %62, %5
  br i1 %63, label %67, label %64

64:                                               ; preds = %59
  %65 = getelementptr inbounds nuw i8, ptr %2, i64 %60
  store i32 %62, ptr %65, align 4, !tbaa !5, !noalias !252
  %66 = add nuw nsw i64 %60, 4
  br label %67

67:                                               ; preds = %64, %59
  %68 = phi i64 [ %60, %59 ], [ %66, %64 ]
  %69 = getelementptr inbounds nuw i8, ptr %0, i64 32
  %70 = icmp eq i64 %68, 20
  br i1 %70, label %72, label %71

71:                                               ; preds = %67
  tail call void @__assert_fail(ptr noundef nonnull @.str.11, ptr noundef nonnull @.str.4, i32 noundef 117, ptr noundef nonnull @__PRETTY_FUNCTION__._Z4testI20cpp20_input_iteratorIPiE16sentinel_wrapperIS2_E22bidirectional_iteratorIS1_ELi8ELi5EEv4DataIXT2_EXT3_EE) #7
  unreachable

72:                                               ; preds = %67
  %73 = call i32 @bcmp(ptr noundef nonnull align 4 dereferenceable(20) %69, ptr noundef nonnull align 4 dereferenceable(20) %2, i64 20)
  %74 = icmp eq i32 %73, 0
  br i1 %74, label %76, label %75

75:                                               ; preds = %72
  tail call void @__assert_fail(ptr noundef nonnull @.str.12, ptr noundef nonnull @.str.4, i32 noundef 118, ptr noundef nonnull @__PRETTY_FUNCTION__._Z4testI20cpp20_input_iteratorIPiE16sentinel_wrapperIS2_E22bidirectional_iteratorIS1_ELi8ELi5EEv4DataIXT2_EXT3_EE) #7
  unreachable

76:                                               ; preds = %72
  call void @llvm.lifetime.end.p0(ptr nonnull %2) #6
  call void @llvm.lifetime.start.p0(ptr nonnull %3) #6
  br i1 %8, label %78, label %77

77:                                               ; preds = %76
  store i32 %7, ptr %3, align 4, !tbaa !5, !noalias !255
  br label %78

78:                                               ; preds = %77, %76
  %79 = phi ptr [ %3, %76 ], [ %6, %77 ]
  %80 = phi i64 [ 0, %76 ], [ 4, %77 ]
  br i1 %16, label %83, label %81

81:                                               ; preds = %78
  store i32 %15, ptr %79, align 4, !tbaa !5, !noalias !255
  %82 = add nuw nsw i64 %80, 4
  br label %83

83:                                               ; preds = %81, %78
  %84 = phi i64 [ %80, %78 ], [ %82, %81 ]
  br i1 %23, label %88, label %85

85:                                               ; preds = %83
  %86 = getelementptr inbounds nuw i8, ptr %3, i64 %84
  store i32 %22, ptr %86, align 4, !tbaa !5, !noalias !255
  %87 = add nuw nsw i64 %84, 4
  br label %88

88:                                               ; preds = %85, %83
  %89 = phi i64 [ %84, %83 ], [ %87, %85 ]
  br i1 %31, label %93, label %90

90:                                               ; preds = %88
  %91 = getelementptr inbounds nuw i8, ptr %3, i64 %89
  store i32 %30, ptr %91, align 4, !tbaa !5, !noalias !255
  %92 = add nuw nsw i64 %89, 4
  br label %93

93:                                               ; preds = %90, %88
  %94 = phi i64 [ %89, %88 ], [ %92, %90 ]
  br i1 %39, label %98, label %95

95:                                               ; preds = %93
  %96 = getelementptr inbounds nuw i8, ptr %3, i64 %94
  store i32 %38, ptr %96, align 4, !tbaa !5, !noalias !255
  %97 = add nuw nsw i64 %94, 4
  br label %98

98:                                               ; preds = %95, %93
  %99 = phi i64 [ %94, %93 ], [ %97, %95 ]
  br i1 %47, label %103, label %100

100:                                              ; preds = %98
  %101 = getelementptr inbounds nuw i8, ptr %3, i64 %99
  store i32 %46, ptr %101, align 4, !tbaa !5, !noalias !255
  %102 = add nuw nsw i64 %99, 4
  br label %103

103:                                              ; preds = %100, %98
  %104 = phi i64 [ %99, %98 ], [ %102, %100 ]
  br i1 %55, label %108, label %105

105:                                              ; preds = %103
  %106 = getelementptr inbounds nuw i8, ptr %3, i64 %104
  store i32 %54, ptr %106, align 4, !tbaa !5, !noalias !255
  %107 = add nuw nsw i64 %104, 4
  br label %108

108:                                              ; preds = %105, %103
  %109 = phi i64 [ %104, %103 ], [ %107, %105 ]
  br i1 %63, label %113, label %110

110:                                              ; preds = %108
  %111 = getelementptr inbounds nuw i8, ptr %3, i64 %109
  store i32 %62, ptr %111, align 4, !tbaa !5, !noalias !255
  %112 = add nuw nsw i64 %109, 4
  br label %113

113:                                              ; preds = %110, %108
  %114 = phi i64 [ %109, %108 ], [ %112, %110 ]
  %115 = icmp eq i64 %114, 20
  br i1 %115, label %117, label %116

116:                                              ; preds = %113
  tail call void @__assert_fail(ptr noundef nonnull @.str.11, ptr noundef nonnull @.str.4, i32 noundef 129, ptr noundef nonnull @__PRETTY_FUNCTION__._Z4testI20cpp20_input_iteratorIPiE16sentinel_wrapperIS2_E22bidirectional_iteratorIS1_ELi8ELi5EEv4DataIXT2_EXT3_EE) #7
  unreachable

117:                                              ; preds = %113
  %118 = call i32 @bcmp(ptr noundef nonnull align 4 dereferenceable(20) %69, ptr noundef nonnull align 4 dereferenceable(20) %3, i64 20)
  %119 = icmp eq i32 %118, 0
  br i1 %119, label %121, label %120

120:                                              ; preds = %117
  tail call void @__assert_fail(ptr noundef nonnull @.str.12, ptr noundef nonnull @.str.4, i32 noundef 130, ptr noundef nonnull @__PRETTY_FUNCTION__._Z4testI20cpp20_input_iteratorIPiE16sentinel_wrapperIS2_E22bidirectional_iteratorIS1_ELi8ELi5EEv4DataIXT2_EXT3_EE) #7
  unreachable

121:                                              ; preds = %117
  call void @llvm.lifetime.end.p0(ptr nonnull %3) #6
  ret void
}

; Function Attrs: mustprogress uwtable
define linkonce_odr dso_local void @_Z4testI20cpp20_input_iteratorIPiE16sentinel_wrapperIS2_E22random_access_iteratorIS1_ELi6ELi5EEv4DataIXT2_EXT3_EE(ptr noundef byval(%struct.Data) align 8 %0) local_unnamed_addr #1 comdat personality ptr @__gxx_personality_v0 {
  %2 = alloca %"struct.std::array.3", align 4
  %3 = alloca %"struct.std::array.3", align 4
  call void @llvm.lifetime.start.p0(ptr nonnull %2) #6
  %4 = getelementptr inbounds nuw i8, ptr %0, i64 44
  %5 = load i32, ptr %4, align 4, !tbaa !5, !noalias !260
  %6 = getelementptr inbounds nuw i8, ptr %3, i64 4
  %7 = load i32, ptr %0, align 8, !tbaa !5, !noalias !260
  %8 = icmp eq i32 %7, %5
  br i1 %8, label %11, label %9

9:                                                ; preds = %1
  %10 = getelementptr inbounds nuw i8, ptr %2, i64 4
  store i32 %7, ptr %2, align 4, !tbaa !5, !noalias !260
  br label %11

11:                                               ; preds = %9, %1
  %12 = phi ptr [ %2, %1 ], [ %10, %9 ]
  %13 = phi i64 [ 0, %1 ], [ 4, %9 ]
  %14 = getelementptr inbounds nuw i8, ptr %0, i64 4
  %15 = load i32, ptr %14, align 4, !tbaa !5, !noalias !260
  %16 = icmp eq i32 %15, %5
  br i1 %16, label %19, label %17

17:                                               ; preds = %11
  store i32 %15, ptr %12, align 4, !tbaa !5, !noalias !260
  %18 = add nuw nsw i64 %13, 4
  br label %19

19:                                               ; preds = %17, %11
  %20 = phi i64 [ %13, %11 ], [ %18, %17 ]
  %21 = getelementptr inbounds nuw i8, ptr %0, i64 8
  %22 = load i32, ptr %21, align 8, !tbaa !5, !noalias !260
  %23 = icmp eq i32 %22, %5
  br i1 %23, label %27, label %24

24:                                               ; preds = %19
  %25 = getelementptr inbounds nuw i8, ptr %2, i64 %20
  store i32 %22, ptr %25, align 4, !tbaa !5, !noalias !260
  %26 = add nuw nsw i64 %20, 4
  br label %27

27:                                               ; preds = %24, %19
  %28 = phi i64 [ %20, %19 ], [ %26, %24 ]
  %29 = getelementptr inbounds nuw i8, ptr %0, i64 12
  %30 = load i32, ptr %29, align 4, !tbaa !5, !noalias !260
  %31 = icmp eq i32 %30, %5
  br i1 %31, label %35, label %32

32:                                               ; preds = %27
  %33 = getelementptr inbounds nuw i8, ptr %2, i64 %28
  store i32 %30, ptr %33, align 4, !tbaa !5, !noalias !260
  %34 = add nuw nsw i64 %28, 4
  br label %35

35:                                               ; preds = %32, %27
  %36 = phi i64 [ %28, %27 ], [ %34, %32 ]
  %37 = getelementptr inbounds nuw i8, ptr %0, i64 16
  %38 = load i32, ptr %37, align 8, !tbaa !5, !noalias !260
  %39 = icmp eq i32 %38, %5
  br i1 %39, label %43, label %40

40:                                               ; preds = %35
  %41 = getelementptr inbounds nuw i8, ptr %2, i64 %36
  store i32 %38, ptr %41, align 4, !tbaa !5, !noalias !260
  %42 = add nuw nsw i64 %36, 4
  br label %43

43:                                               ; preds = %40, %35
  %44 = phi i64 [ %36, %35 ], [ %42, %40 ]
  %45 = getelementptr inbounds nuw i8, ptr %0, i64 20
  %46 = load i32, ptr %45, align 4, !tbaa !5, !noalias !260
  %47 = icmp eq i32 %46, %5
  br i1 %47, label %51, label %48

48:                                               ; preds = %43
  %49 = getelementptr inbounds nuw i8, ptr %2, i64 %44
  store i32 %46, ptr %49, align 4, !tbaa !5, !noalias !260
  %50 = add nuw nsw i64 %44, 4
  br label %51

51:                                               ; preds = %48, %43
  %52 = phi i64 [ %44, %43 ], [ %50, %48 ]
  %53 = getelementptr inbounds nuw i8, ptr %0, i64 24
  %54 = icmp eq i64 %52, 20
  br i1 %54, label %56, label %55

55:                                               ; preds = %51
  tail call void @__assert_fail(ptr noundef nonnull @.str.11, ptr noundef nonnull @.str.4, i32 noundef 117, ptr noundef nonnull @__PRETTY_FUNCTION__._Z4testI20cpp20_input_iteratorIPiE16sentinel_wrapperIS2_E22random_access_iteratorIS1_ELi6ELi5EEv4DataIXT2_EXT3_EE) #7
  unreachable

56:                                               ; preds = %51
  %57 = call i32 @bcmp(ptr noundef nonnull align 4 dereferenceable(20) %53, ptr noundef nonnull align 4 dereferenceable(20) %2, i64 20)
  %58 = icmp eq i32 %57, 0
  br i1 %58, label %60, label %59

59:                                               ; preds = %56
  tail call void @__assert_fail(ptr noundef nonnull @.str.12, ptr noundef nonnull @.str.4, i32 noundef 118, ptr noundef nonnull @__PRETTY_FUNCTION__._Z4testI20cpp20_input_iteratorIPiE16sentinel_wrapperIS2_E22random_access_iteratorIS1_ELi6ELi5EEv4DataIXT2_EXT3_EE) #7
  unreachable

60:                                               ; preds = %56
  call void @llvm.lifetime.end.p0(ptr nonnull %2) #6
  call void @llvm.lifetime.start.p0(ptr nonnull %3) #6
  br i1 %8, label %62, label %61

61:                                               ; preds = %60
  store i32 %7, ptr %3, align 4, !tbaa !5, !noalias !263
  br label %62

62:                                               ; preds = %61, %60
  %63 = phi ptr [ %3, %60 ], [ %6, %61 ]
  %64 = phi i64 [ 0, %60 ], [ 4, %61 ]
  br i1 %16, label %67, label %65

65:                                               ; preds = %62
  store i32 %15, ptr %63, align 4, !tbaa !5, !noalias !263
  %66 = add nuw nsw i64 %64, 4
  br label %67

67:                                               ; preds = %65, %62
  %68 = phi i64 [ %64, %62 ], [ %66, %65 ]
  br i1 %23, label %72, label %69

69:                                               ; preds = %67
  %70 = getelementptr inbounds nuw i8, ptr %3, i64 %68
  store i32 %22, ptr %70, align 4, !tbaa !5, !noalias !263
  %71 = add nuw nsw i64 %68, 4
  br label %72

72:                                               ; preds = %69, %67
  %73 = phi i64 [ %68, %67 ], [ %71, %69 ]
  br i1 %31, label %77, label %74

74:                                               ; preds = %72
  %75 = getelementptr inbounds nuw i8, ptr %3, i64 %73
  store i32 %30, ptr %75, align 4, !tbaa !5, !noalias !263
  %76 = add nuw nsw i64 %73, 4
  br label %77

77:                                               ; preds = %74, %72
  %78 = phi i64 [ %73, %72 ], [ %76, %74 ]
  br i1 %39, label %82, label %79

79:                                               ; preds = %77
  %80 = getelementptr inbounds nuw i8, ptr %3, i64 %78
  store i32 %38, ptr %80, align 4, !tbaa !5, !noalias !263
  %81 = add nuw nsw i64 %78, 4
  br label %82

82:                                               ; preds = %79, %77
  %83 = phi i64 [ %78, %77 ], [ %81, %79 ]
  br i1 %47, label %87, label %84

84:                                               ; preds = %82
  %85 = getelementptr inbounds nuw i8, ptr %3, i64 %83
  store i32 %46, ptr %85, align 4, !tbaa !5, !noalias !263
  %86 = add nuw nsw i64 %83, 4
  br label %87

87:                                               ; preds = %84, %82
  %88 = phi i64 [ %83, %82 ], [ %86, %84 ]
  %89 = icmp eq i64 %88, 20
  br i1 %89, label %91, label %90

90:                                               ; preds = %87
  tail call void @__assert_fail(ptr noundef nonnull @.str.11, ptr noundef nonnull @.str.4, i32 noundef 129, ptr noundef nonnull @__PRETTY_FUNCTION__._Z4testI20cpp20_input_iteratorIPiE16sentinel_wrapperIS2_E22random_access_iteratorIS1_ELi6ELi5EEv4DataIXT2_EXT3_EE) #7
  unreachable

91:                                               ; preds = %87
  %92 = call i32 @bcmp(ptr noundef nonnull align 4 dereferenceable(20) %53, ptr noundef nonnull align 4 dereferenceable(20) %3, i64 20)
  %93 = icmp eq i32 %92, 0
  br i1 %93, label %95, label %94

94:                                               ; preds = %91
  tail call void @__assert_fail(ptr noundef nonnull @.str.12, ptr noundef nonnull @.str.4, i32 noundef 130, ptr noundef nonnull @__PRETTY_FUNCTION__._Z4testI20cpp20_input_iteratorIPiE16sentinel_wrapperIS2_E22random_access_iteratorIS1_ELi6ELi5EEv4DataIXT2_EXT3_EE) #7
  unreachable

95:                                               ; preds = %91
  call void @llvm.lifetime.end.p0(ptr nonnull %3) #6
  ret void
}

; Function Attrs: mustprogress uwtable
define linkonce_odr dso_local void @_Z4testI20cpp20_input_iteratorIPiE16sentinel_wrapperIS2_E22random_access_iteratorIS1_ELi8ELi5EEv4DataIXT2_EXT3_EE(ptr noundef byval(%struct.Data.11) align 8 %0) local_unnamed_addr #1 comdat personality ptr @__gxx_personality_v0 {
  %2 = alloca %"struct.std::array.3", align 4
  %3 = alloca %"struct.std::array.3", align 4
  call void @llvm.lifetime.start.p0(ptr nonnull %2) #6
  %4 = getelementptr inbounds nuw i8, ptr %0, i64 52
  %5 = load i32, ptr %4, align 4, !tbaa !5, !noalias !268
  %6 = getelementptr inbounds nuw i8, ptr %3, i64 4
  %7 = load i32, ptr %0, align 8, !tbaa !5, !noalias !268
  %8 = icmp eq i32 %7, %5
  br i1 %8, label %11, label %9

9:                                                ; preds = %1
  %10 = getelementptr inbounds nuw i8, ptr %2, i64 4
  store i32 %7, ptr %2, align 4, !tbaa !5, !noalias !268
  br label %11

11:                                               ; preds = %9, %1
  %12 = phi ptr [ %2, %1 ], [ %10, %9 ]
  %13 = phi i64 [ 0, %1 ], [ 4, %9 ]
  %14 = getelementptr inbounds nuw i8, ptr %0, i64 4
  %15 = load i32, ptr %14, align 4, !tbaa !5, !noalias !268
  %16 = icmp eq i32 %15, %5
  br i1 %16, label %19, label %17

17:                                               ; preds = %11
  store i32 %15, ptr %12, align 4, !tbaa !5, !noalias !268
  %18 = add nuw nsw i64 %13, 4
  br label %19

19:                                               ; preds = %17, %11
  %20 = phi i64 [ %13, %11 ], [ %18, %17 ]
  %21 = getelementptr inbounds nuw i8, ptr %0, i64 8
  %22 = load i32, ptr %21, align 8, !tbaa !5, !noalias !268
  %23 = icmp eq i32 %22, %5
  br i1 %23, label %27, label %24

24:                                               ; preds = %19
  %25 = getelementptr inbounds nuw i8, ptr %2, i64 %20
  store i32 %22, ptr %25, align 4, !tbaa !5, !noalias !268
  %26 = add nuw nsw i64 %20, 4
  br label %27

27:                                               ; preds = %24, %19
  %28 = phi i64 [ %20, %19 ], [ %26, %24 ]
  %29 = getelementptr inbounds nuw i8, ptr %0, i64 12
  %30 = load i32, ptr %29, align 4, !tbaa !5, !noalias !268
  %31 = icmp eq i32 %30, %5
  br i1 %31, label %35, label %32

32:                                               ; preds = %27
  %33 = getelementptr inbounds nuw i8, ptr %2, i64 %28
  store i32 %30, ptr %33, align 4, !tbaa !5, !noalias !268
  %34 = add nuw nsw i64 %28, 4
  br label %35

35:                                               ; preds = %32, %27
  %36 = phi i64 [ %28, %27 ], [ %34, %32 ]
  %37 = getelementptr inbounds nuw i8, ptr %0, i64 16
  %38 = load i32, ptr %37, align 8, !tbaa !5, !noalias !268
  %39 = icmp eq i32 %38, %5
  br i1 %39, label %43, label %40

40:                                               ; preds = %35
  %41 = getelementptr inbounds nuw i8, ptr %2, i64 %36
  store i32 %38, ptr %41, align 4, !tbaa !5, !noalias !268
  %42 = add nuw nsw i64 %36, 4
  br label %43

43:                                               ; preds = %40, %35
  %44 = phi i64 [ %36, %35 ], [ %42, %40 ]
  %45 = getelementptr inbounds nuw i8, ptr %0, i64 20
  %46 = load i32, ptr %45, align 4, !tbaa !5, !noalias !268
  %47 = icmp eq i32 %46, %5
  br i1 %47, label %51, label %48

48:                                               ; preds = %43
  %49 = getelementptr inbounds nuw i8, ptr %2, i64 %44
  store i32 %46, ptr %49, align 4, !tbaa !5, !noalias !268
  %50 = add nuw nsw i64 %44, 4
  br label %51

51:                                               ; preds = %48, %43
  %52 = phi i64 [ %44, %43 ], [ %50, %48 ]
  %53 = getelementptr inbounds nuw i8, ptr %0, i64 24
  %54 = load i32, ptr %53, align 8, !tbaa !5, !noalias !268
  %55 = icmp eq i32 %54, %5
  br i1 %55, label %59, label %56

56:                                               ; preds = %51
  %57 = getelementptr inbounds nuw i8, ptr %2, i64 %52
  store i32 %54, ptr %57, align 4, !tbaa !5, !noalias !268
  %58 = add nuw nsw i64 %52, 4
  br label %59

59:                                               ; preds = %56, %51
  %60 = phi i64 [ %52, %51 ], [ %58, %56 ]
  %61 = getelementptr inbounds nuw i8, ptr %0, i64 28
  %62 = load i32, ptr %61, align 4, !tbaa !5, !noalias !268
  %63 = icmp eq i32 %62, %5
  br i1 %63, label %67, label %64

64:                                               ; preds = %59
  %65 = getelementptr inbounds nuw i8, ptr %2, i64 %60
  store i32 %62, ptr %65, align 4, !tbaa !5, !noalias !268
  %66 = add nuw nsw i64 %60, 4
  br label %67

67:                                               ; preds = %64, %59
  %68 = phi i64 [ %60, %59 ], [ %66, %64 ]
  %69 = getelementptr inbounds nuw i8, ptr %0, i64 32
  %70 = icmp eq i64 %68, 20
  br i1 %70, label %72, label %71

71:                                               ; preds = %67
  tail call void @__assert_fail(ptr noundef nonnull @.str.11, ptr noundef nonnull @.str.4, i32 noundef 117, ptr noundef nonnull @__PRETTY_FUNCTION__._Z4testI20cpp20_input_iteratorIPiE16sentinel_wrapperIS2_E22random_access_iteratorIS1_ELi8ELi5EEv4DataIXT2_EXT3_EE) #7
  unreachable

72:                                               ; preds = %67
  %73 = call i32 @bcmp(ptr noundef nonnull align 4 dereferenceable(20) %69, ptr noundef nonnull align 4 dereferenceable(20) %2, i64 20)
  %74 = icmp eq i32 %73, 0
  br i1 %74, label %76, label %75

75:                                               ; preds = %72
  tail call void @__assert_fail(ptr noundef nonnull @.str.12, ptr noundef nonnull @.str.4, i32 noundef 118, ptr noundef nonnull @__PRETTY_FUNCTION__._Z4testI20cpp20_input_iteratorIPiE16sentinel_wrapperIS2_E22random_access_iteratorIS1_ELi8ELi5EEv4DataIXT2_EXT3_EE) #7
  unreachable

76:                                               ; preds = %72
  call void @llvm.lifetime.end.p0(ptr nonnull %2) #6
  call void @llvm.lifetime.start.p0(ptr nonnull %3) #6
  br i1 %8, label %78, label %77

77:                                               ; preds = %76
  store i32 %7, ptr %3, align 4, !tbaa !5, !noalias !271
  br label %78

78:                                               ; preds = %77, %76
  %79 = phi ptr [ %3, %76 ], [ %6, %77 ]
  %80 = phi i64 [ 0, %76 ], [ 4, %77 ]
  br i1 %16, label %83, label %81

81:                                               ; preds = %78
  store i32 %15, ptr %79, align 4, !tbaa !5, !noalias !271
  %82 = add nuw nsw i64 %80, 4
  br label %83

83:                                               ; preds = %81, %78
  %84 = phi i64 [ %80, %78 ], [ %82, %81 ]
  br i1 %23, label %88, label %85

85:                                               ; preds = %83
  %86 = getelementptr inbounds nuw i8, ptr %3, i64 %84
  store i32 %22, ptr %86, align 4, !tbaa !5, !noalias !271
  %87 = add nuw nsw i64 %84, 4
  br label %88

88:                                               ; preds = %85, %83
  %89 = phi i64 [ %84, %83 ], [ %87, %85 ]
  br i1 %31, label %93, label %90

90:                                               ; preds = %88
  %91 = getelementptr inbounds nuw i8, ptr %3, i64 %89
  store i32 %30, ptr %91, align 4, !tbaa !5, !noalias !271
  %92 = add nuw nsw i64 %89, 4
  br label %93

93:                                               ; preds = %90, %88
  %94 = phi i64 [ %89, %88 ], [ %92, %90 ]
  br i1 %39, label %98, label %95

95:                                               ; preds = %93
  %96 = getelementptr inbounds nuw i8, ptr %3, i64 %94
  store i32 %38, ptr %96, align 4, !tbaa !5, !noalias !271
  %97 = add nuw nsw i64 %94, 4
  br label %98

98:                                               ; preds = %95, %93
  %99 = phi i64 [ %94, %93 ], [ %97, %95 ]
  br i1 %47, label %103, label %100

100:                                              ; preds = %98
  %101 = getelementptr inbounds nuw i8, ptr %3, i64 %99
  store i32 %46, ptr %101, align 4, !tbaa !5, !noalias !271
  %102 = add nuw nsw i64 %99, 4
  br label %103

103:                                              ; preds = %100, %98
  %104 = phi i64 [ %99, %98 ], [ %102, %100 ]
  br i1 %55, label %108, label %105

105:                                              ; preds = %103
  %106 = getelementptr inbounds nuw i8, ptr %3, i64 %104
  store i32 %54, ptr %106, align 4, !tbaa !5, !noalias !271
  %107 = add nuw nsw i64 %104, 4
  br label %108

108:                                              ; preds = %105, %103
  %109 = phi i64 [ %104, %103 ], [ %107, %105 ]
  br i1 %63, label %113, label %110

110:                                              ; preds = %108
  %111 = getelementptr inbounds nuw i8, ptr %3, i64 %109
  store i32 %62, ptr %111, align 4, !tbaa !5, !noalias !271
  %112 = add nuw nsw i64 %109, 4
  br label %113

113:                                              ; preds = %110, %108
  %114 = phi i64 [ %109, %108 ], [ %112, %110 ]
  %115 = icmp eq i64 %114, 20
  br i1 %115, label %117, label %116

116:                                              ; preds = %113
  tail call void @__assert_fail(ptr noundef nonnull @.str.11, ptr noundef nonnull @.str.4, i32 noundef 129, ptr noundef nonnull @__PRETTY_FUNCTION__._Z4testI20cpp20_input_iteratorIPiE16sentinel_wrapperIS2_E22random_access_iteratorIS1_ELi8ELi5EEv4DataIXT2_EXT3_EE) #7
  unreachable

117:                                              ; preds = %113
  %118 = call i32 @bcmp(ptr noundef nonnull align 4 dereferenceable(20) %69, ptr noundef nonnull align 4 dereferenceable(20) %3, i64 20)
  %119 = icmp eq i32 %118, 0
  br i1 %119, label %121, label %120

120:                                              ; preds = %117
  tail call void @__assert_fail(ptr noundef nonnull @.str.12, ptr noundef nonnull @.str.4, i32 noundef 130, ptr noundef nonnull @__PRETTY_FUNCTION__._Z4testI20cpp20_input_iteratorIPiE16sentinel_wrapperIS2_E22random_access_iteratorIS1_ELi8ELi5EEv4DataIXT2_EXT3_EE) #7
  unreachable

121:                                              ; preds = %117
  call void @llvm.lifetime.end.p0(ptr nonnull %3) #6
  ret void
}

; Function Attrs: mustprogress uwtable
define linkonce_odr dso_local void @_Z4testI20cpp20_input_iteratorIPiE16sentinel_wrapperIS2_E19contiguous_iteratorIS1_ELi6ELi5EEv4DataIXT2_EXT3_EE(ptr noundef byval(%struct.Data) align 8 %0) local_unnamed_addr #1 comdat personality ptr @__gxx_personality_v0 {
  %2 = alloca %"struct.std::array.3", align 4
  %3 = alloca %"struct.std::array.3", align 4
  call void @llvm.lifetime.start.p0(ptr nonnull %2) #6
  %4 = getelementptr inbounds nuw i8, ptr %0, i64 44
  %5 = load i32, ptr %4, align 4, !tbaa !5, !noalias !276
  %6 = getelementptr inbounds nuw i8, ptr %3, i64 4
  %7 = load i32, ptr %0, align 8, !tbaa !5, !noalias !276
  %8 = icmp eq i32 %7, %5
  br i1 %8, label %11, label %9

9:                                                ; preds = %1
  %10 = getelementptr inbounds nuw i8, ptr %2, i64 4
  store i32 %7, ptr %2, align 4, !tbaa !5, !noalias !276
  br label %11

11:                                               ; preds = %9, %1
  %12 = phi ptr [ %2, %1 ], [ %10, %9 ]
  %13 = phi i64 [ 0, %1 ], [ 4, %9 ]
  %14 = getelementptr inbounds nuw i8, ptr %0, i64 4
  %15 = load i32, ptr %14, align 4, !tbaa !5, !noalias !276
  %16 = icmp eq i32 %15, %5
  br i1 %16, label %19, label %17

17:                                               ; preds = %11
  store i32 %15, ptr %12, align 4, !tbaa !5, !noalias !276
  %18 = add nuw nsw i64 %13, 4
  br label %19

19:                                               ; preds = %17, %11
  %20 = phi i64 [ %13, %11 ], [ %18, %17 ]
  %21 = getelementptr inbounds nuw i8, ptr %0, i64 8
  %22 = load i32, ptr %21, align 8, !tbaa !5, !noalias !276
  %23 = icmp eq i32 %22, %5
  br i1 %23, label %27, label %24

24:                                               ; preds = %19
  %25 = getelementptr inbounds nuw i8, ptr %2, i64 %20
  store i32 %22, ptr %25, align 4, !tbaa !5, !noalias !276
  %26 = add nuw nsw i64 %20, 4
  br label %27

27:                                               ; preds = %24, %19
  %28 = phi i64 [ %20, %19 ], [ %26, %24 ]
  %29 = getelementptr inbounds nuw i8, ptr %0, i64 12
  %30 = load i32, ptr %29, align 4, !tbaa !5, !noalias !276
  %31 = icmp eq i32 %30, %5
  br i1 %31, label %35, label %32

32:                                               ; preds = %27
  %33 = getelementptr inbounds nuw i8, ptr %2, i64 %28
  store i32 %30, ptr %33, align 4, !tbaa !5, !noalias !276
  %34 = add nuw nsw i64 %28, 4
  br label %35

35:                                               ; preds = %32, %27
  %36 = phi i64 [ %28, %27 ], [ %34, %32 ]
  %37 = getelementptr inbounds nuw i8, ptr %0, i64 16
  %38 = load i32, ptr %37, align 8, !tbaa !5, !noalias !276
  %39 = icmp eq i32 %38, %5
  br i1 %39, label %43, label %40

40:                                               ; preds = %35
  %41 = getelementptr inbounds nuw i8, ptr %2, i64 %36
  store i32 %38, ptr %41, align 4, !tbaa !5, !noalias !276
  %42 = add nuw nsw i64 %36, 4
  br label %43

43:                                               ; preds = %40, %35
  %44 = phi i64 [ %36, %35 ], [ %42, %40 ]
  %45 = getelementptr inbounds nuw i8, ptr %0, i64 20
  %46 = load i32, ptr %45, align 4, !tbaa !5, !noalias !276
  %47 = icmp eq i32 %46, %5
  br i1 %47, label %51, label %48

48:                                               ; preds = %43
  %49 = getelementptr inbounds nuw i8, ptr %2, i64 %44
  store i32 %46, ptr %49, align 4, !tbaa !5, !noalias !276
  %50 = add nuw nsw i64 %44, 4
  br label %51

51:                                               ; preds = %48, %43
  %52 = phi i64 [ %44, %43 ], [ %50, %48 ]
  %53 = getelementptr inbounds nuw i8, ptr %0, i64 24
  %54 = icmp eq i64 %52, 20
  br i1 %54, label %56, label %55

55:                                               ; preds = %51
  tail call void @__assert_fail(ptr noundef nonnull @.str.11, ptr noundef nonnull @.str.4, i32 noundef 117, ptr noundef nonnull @__PRETTY_FUNCTION__._Z4testI20cpp20_input_iteratorIPiE16sentinel_wrapperIS2_E19contiguous_iteratorIS1_ELi6ELi5EEv4DataIXT2_EXT3_EE) #7
  unreachable

56:                                               ; preds = %51
  %57 = call i32 @bcmp(ptr noundef nonnull align 4 dereferenceable(20) %53, ptr noundef nonnull align 4 dereferenceable(20) %2, i64 20)
  %58 = icmp eq i32 %57, 0
  br i1 %58, label %60, label %59

59:                                               ; preds = %56
  tail call void @__assert_fail(ptr noundef nonnull @.str.12, ptr noundef nonnull @.str.4, i32 noundef 118, ptr noundef nonnull @__PRETTY_FUNCTION__._Z4testI20cpp20_input_iteratorIPiE16sentinel_wrapperIS2_E19contiguous_iteratorIS1_ELi6ELi5EEv4DataIXT2_EXT3_EE) #7
  unreachable

60:                                               ; preds = %56
  call void @llvm.lifetime.end.p0(ptr nonnull %2) #6
  call void @llvm.lifetime.start.p0(ptr nonnull %3) #6
  br i1 %8, label %62, label %61

61:                                               ; preds = %60
  store i32 %7, ptr %3, align 4, !tbaa !5, !noalias !279
  br label %62

62:                                               ; preds = %61, %60
  %63 = phi ptr [ %3, %60 ], [ %6, %61 ]
  %64 = phi i64 [ 0, %60 ], [ 4, %61 ]
  br i1 %16, label %67, label %65

65:                                               ; preds = %62
  store i32 %15, ptr %63, align 4, !tbaa !5, !noalias !279
  %66 = add nuw nsw i64 %64, 4
  br label %67

67:                                               ; preds = %65, %62
  %68 = phi i64 [ %64, %62 ], [ %66, %65 ]
  br i1 %23, label %72, label %69

69:                                               ; preds = %67
  %70 = getelementptr inbounds nuw i8, ptr %3, i64 %68
  store i32 %22, ptr %70, align 4, !tbaa !5, !noalias !279
  %71 = add nuw nsw i64 %68, 4
  br label %72

72:                                               ; preds = %69, %67
  %73 = phi i64 [ %68, %67 ], [ %71, %69 ]
  br i1 %31, label %77, label %74

74:                                               ; preds = %72
  %75 = getelementptr inbounds nuw i8, ptr %3, i64 %73
  store i32 %30, ptr %75, align 4, !tbaa !5, !noalias !279
  %76 = add nuw nsw i64 %73, 4
  br label %77

77:                                               ; preds = %74, %72
  %78 = phi i64 [ %73, %72 ], [ %76, %74 ]
  br i1 %39, label %82, label %79

79:                                               ; preds = %77
  %80 = getelementptr inbounds nuw i8, ptr %3, i64 %78
  store i32 %38, ptr %80, align 4, !tbaa !5, !noalias !279
  %81 = add nuw nsw i64 %78, 4
  br label %82

82:                                               ; preds = %79, %77
  %83 = phi i64 [ %78, %77 ], [ %81, %79 ]
  br i1 %47, label %87, label %84

84:                                               ; preds = %82
  %85 = getelementptr inbounds nuw i8, ptr %3, i64 %83
  store i32 %46, ptr %85, align 4, !tbaa !5, !noalias !279
  %86 = add nuw nsw i64 %83, 4
  br label %87

87:                                               ; preds = %84, %82
  %88 = phi i64 [ %83, %82 ], [ %86, %84 ]
  %89 = icmp eq i64 %88, 20
  br i1 %89, label %91, label %90

90:                                               ; preds = %87
  tail call void @__assert_fail(ptr noundef nonnull @.str.11, ptr noundef nonnull @.str.4, i32 noundef 129, ptr noundef nonnull @__PRETTY_FUNCTION__._Z4testI20cpp20_input_iteratorIPiE16sentinel_wrapperIS2_E19contiguous_iteratorIS1_ELi6ELi5EEv4DataIXT2_EXT3_EE) #7
  unreachable

91:                                               ; preds = %87
  %92 = call i32 @bcmp(ptr noundef nonnull align 4 dereferenceable(20) %53, ptr noundef nonnull align 4 dereferenceable(20) %3, i64 20)
  %93 = icmp eq i32 %92, 0
  br i1 %93, label %95, label %94

94:                                               ; preds = %91
  tail call void @__assert_fail(ptr noundef nonnull @.str.12, ptr noundef nonnull @.str.4, i32 noundef 130, ptr noundef nonnull @__PRETTY_FUNCTION__._Z4testI20cpp20_input_iteratorIPiE16sentinel_wrapperIS2_E19contiguous_iteratorIS1_ELi6ELi5EEv4DataIXT2_EXT3_EE) #7
  unreachable

95:                                               ; preds = %91
  call void @llvm.lifetime.end.p0(ptr nonnull %3) #6
  ret void
}

; Function Attrs: mustprogress uwtable
define linkonce_odr dso_local void @_Z4testI20cpp20_input_iteratorIPiE16sentinel_wrapperIS2_E19contiguous_iteratorIS1_ELi8ELi5EEv4DataIXT2_EXT3_EE(ptr noundef byval(%struct.Data.11) align 8 %0) local_unnamed_addr #1 comdat personality ptr @__gxx_personality_v0 {
  %2 = alloca %"struct.std::array.3", align 4
  %3 = alloca %"struct.std::array.3", align 4
  call void @llvm.lifetime.start.p0(ptr nonnull %2) #6
  %4 = getelementptr inbounds nuw i8, ptr %0, i64 52
  %5 = load i32, ptr %4, align 4, !tbaa !5, !noalias !284
  %6 = getelementptr inbounds nuw i8, ptr %3, i64 4
  %7 = load i32, ptr %0, align 8, !tbaa !5, !noalias !284
  %8 = icmp eq i32 %7, %5
  br i1 %8, label %11, label %9

9:                                                ; preds = %1
  %10 = getelementptr inbounds nuw i8, ptr %2, i64 4
  store i32 %7, ptr %2, align 4, !tbaa !5, !noalias !284
  br label %11

11:                                               ; preds = %9, %1
  %12 = phi ptr [ %2, %1 ], [ %10, %9 ]
  %13 = phi i64 [ 0, %1 ], [ 4, %9 ]
  %14 = getelementptr inbounds nuw i8, ptr %0, i64 4
  %15 = load i32, ptr %14, align 4, !tbaa !5, !noalias !284
  %16 = icmp eq i32 %15, %5
  br i1 %16, label %19, label %17

17:                                               ; preds = %11
  store i32 %15, ptr %12, align 4, !tbaa !5, !noalias !284
  %18 = add nuw nsw i64 %13, 4
  br label %19

19:                                               ; preds = %17, %11
  %20 = phi i64 [ %13, %11 ], [ %18, %17 ]
  %21 = getelementptr inbounds nuw i8, ptr %0, i64 8
  %22 = load i32, ptr %21, align 8, !tbaa !5, !noalias !284
  %23 = icmp eq i32 %22, %5
  br i1 %23, label %27, label %24

24:                                               ; preds = %19
  %25 = getelementptr inbounds nuw i8, ptr %2, i64 %20
  store i32 %22, ptr %25, align 4, !tbaa !5, !noalias !284
  %26 = add nuw nsw i64 %20, 4
  br label %27

27:                                               ; preds = %24, %19
  %28 = phi i64 [ %20, %19 ], [ %26, %24 ]
  %29 = getelementptr inbounds nuw i8, ptr %0, i64 12
  %30 = load i32, ptr %29, align 4, !tbaa !5, !noalias !284
  %31 = icmp eq i32 %30, %5
  br i1 %31, label %35, label %32

32:                                               ; preds = %27
  %33 = getelementptr inbounds nuw i8, ptr %2, i64 %28
  store i32 %30, ptr %33, align 4, !tbaa !5, !noalias !284
  %34 = add nuw nsw i64 %28, 4
  br label %35

35:                                               ; preds = %32, %27
  %36 = phi i64 [ %28, %27 ], [ %34, %32 ]
  %37 = getelementptr inbounds nuw i8, ptr %0, i64 16
  %38 = load i32, ptr %37, align 8, !tbaa !5, !noalias !284
  %39 = icmp eq i32 %38, %5
  br i1 %39, label %43, label %40

40:                                               ; preds = %35
  %41 = getelementptr inbounds nuw i8, ptr %2, i64 %36
  store i32 %38, ptr %41, align 4, !tbaa !5, !noalias !284
  %42 = add nuw nsw i64 %36, 4
  br label %43

43:                                               ; preds = %40, %35
  %44 = phi i64 [ %36, %35 ], [ %42, %40 ]
  %45 = getelementptr inbounds nuw i8, ptr %0, i64 20
  %46 = load i32, ptr %45, align 4, !tbaa !5, !noalias !284
  %47 = icmp eq i32 %46, %5
  br i1 %47, label %51, label %48

48:                                               ; preds = %43
  %49 = getelementptr inbounds nuw i8, ptr %2, i64 %44
  store i32 %46, ptr %49, align 4, !tbaa !5, !noalias !284
  %50 = add nuw nsw i64 %44, 4
  br label %51

51:                                               ; preds = %48, %43
  %52 = phi i64 [ %44, %43 ], [ %50, %48 ]
  %53 = getelementptr inbounds nuw i8, ptr %0, i64 24
  %54 = load i32, ptr %53, align 8, !tbaa !5, !noalias !284
  %55 = icmp eq i32 %54, %5
  br i1 %55, label %59, label %56

56:                                               ; preds = %51
  %57 = getelementptr inbounds nuw i8, ptr %2, i64 %52
  store i32 %54, ptr %57, align 4, !tbaa !5, !noalias !284
  %58 = add nuw nsw i64 %52, 4
  br label %59

59:                                               ; preds = %56, %51
  %60 = phi i64 [ %52, %51 ], [ %58, %56 ]
  %61 = getelementptr inbounds nuw i8, ptr %0, i64 28
  %62 = load i32, ptr %61, align 4, !tbaa !5, !noalias !284
  %63 = icmp eq i32 %62, %5
  br i1 %63, label %67, label %64

64:                                               ; preds = %59
  %65 = getelementptr inbounds nuw i8, ptr %2, i64 %60
  store i32 %62, ptr %65, align 4, !tbaa !5, !noalias !284
  %66 = add nuw nsw i64 %60, 4
  br label %67

67:                                               ; preds = %64, %59
  %68 = phi i64 [ %60, %59 ], [ %66, %64 ]
  %69 = getelementptr inbounds nuw i8, ptr %0, i64 32
  %70 = icmp eq i64 %68, 20
  br i1 %70, label %72, label %71

71:                                               ; preds = %67
  tail call void @__assert_fail(ptr noundef nonnull @.str.11, ptr noundef nonnull @.str.4, i32 noundef 117, ptr noundef nonnull @__PRETTY_FUNCTION__._Z4testI20cpp20_input_iteratorIPiE16sentinel_wrapperIS2_E19contiguous_iteratorIS1_ELi8ELi5EEv4DataIXT2_EXT3_EE) #7
  unreachable

72:                                               ; preds = %67
  %73 = call i32 @bcmp(ptr noundef nonnull align 4 dereferenceable(20) %69, ptr noundef nonnull align 4 dereferenceable(20) %2, i64 20)
  %74 = icmp eq i32 %73, 0
  br i1 %74, label %76, label %75

75:                                               ; preds = %72
  tail call void @__assert_fail(ptr noundef nonnull @.str.12, ptr noundef nonnull @.str.4, i32 noundef 118, ptr noundef nonnull @__PRETTY_FUNCTION__._Z4testI20cpp20_input_iteratorIPiE16sentinel_wrapperIS2_E19contiguous_iteratorIS1_ELi8ELi5EEv4DataIXT2_EXT3_EE) #7
  unreachable

76:                                               ; preds = %72
  call void @llvm.lifetime.end.p0(ptr nonnull %2) #6
  call void @llvm.lifetime.start.p0(ptr nonnull %3) #6
  br i1 %8, label %78, label %77

77:                                               ; preds = %76
  store i32 %7, ptr %3, align 4, !tbaa !5, !noalias !287
  br label %78

78:                                               ; preds = %77, %76
  %79 = phi ptr [ %3, %76 ], [ %6, %77 ]
  %80 = phi i64 [ 0, %76 ], [ 4, %77 ]
  br i1 %16, label %83, label %81

81:                                               ; preds = %78
  store i32 %15, ptr %79, align 4, !tbaa !5, !noalias !287
  %82 = add nuw nsw i64 %80, 4
  br label %83

83:                                               ; preds = %81, %78
  %84 = phi i64 [ %80, %78 ], [ %82, %81 ]
  br i1 %23, label %88, label %85

85:                                               ; preds = %83
  %86 = getelementptr inbounds nuw i8, ptr %3, i64 %84
  store i32 %22, ptr %86, align 4, !tbaa !5, !noalias !287
  %87 = add nuw nsw i64 %84, 4
  br label %88

88:                                               ; preds = %85, %83
  %89 = phi i64 [ %84, %83 ], [ %87, %85 ]
  br i1 %31, label %93, label %90

90:                                               ; preds = %88
  %91 = getelementptr inbounds nuw i8, ptr %3, i64 %89
  store i32 %30, ptr %91, align 4, !tbaa !5, !noalias !287
  %92 = add nuw nsw i64 %89, 4
  br label %93

93:                                               ; preds = %90, %88
  %94 = phi i64 [ %89, %88 ], [ %92, %90 ]
  br i1 %39, label %98, label %95

95:                                               ; preds = %93
  %96 = getelementptr inbounds nuw i8, ptr %3, i64 %94
  store i32 %38, ptr %96, align 4, !tbaa !5, !noalias !287
  %97 = add nuw nsw i64 %94, 4
  br label %98

98:                                               ; preds = %95, %93
  %99 = phi i64 [ %94, %93 ], [ %97, %95 ]
  br i1 %47, label %103, label %100

100:                                              ; preds = %98
  %101 = getelementptr inbounds nuw i8, ptr %3, i64 %99
  store i32 %46, ptr %101, align 4, !tbaa !5, !noalias !287
  %102 = add nuw nsw i64 %99, 4
  br label %103

103:                                              ; preds = %100, %98
  %104 = phi i64 [ %99, %98 ], [ %102, %100 ]
  br i1 %55, label %108, label %105

105:                                              ; preds = %103
  %106 = getelementptr inbounds nuw i8, ptr %3, i64 %104
  store i32 %54, ptr %106, align 4, !tbaa !5, !noalias !287
  %107 = add nuw nsw i64 %104, 4
  br label %108

108:                                              ; preds = %105, %103
  %109 = phi i64 [ %104, %103 ], [ %107, %105 ]
  br i1 %63, label %113, label %110

110:                                              ; preds = %108
  %111 = getelementptr inbounds nuw i8, ptr %3, i64 %109
  store i32 %62, ptr %111, align 4, !tbaa !5, !noalias !287
  %112 = add nuw nsw i64 %109, 4
  br label %113

113:                                              ; preds = %110, %108
  %114 = phi i64 [ %109, %108 ], [ %112, %110 ]
  %115 = icmp eq i64 %114, 20
  br i1 %115, label %117, label %116

116:                                              ; preds = %113
  tail call void @__assert_fail(ptr noundef nonnull @.str.11, ptr noundef nonnull @.str.4, i32 noundef 129, ptr noundef nonnull @__PRETTY_FUNCTION__._Z4testI20cpp20_input_iteratorIPiE16sentinel_wrapperIS2_E19contiguous_iteratorIS1_ELi8ELi5EEv4DataIXT2_EXT3_EE) #7
  unreachable

117:                                              ; preds = %113
  %118 = call i32 @bcmp(ptr noundef nonnull align 4 dereferenceable(20) %69, ptr noundef nonnull align 4 dereferenceable(20) %3, i64 20)
  %119 = icmp eq i32 %118, 0
  br i1 %119, label %121, label %120

120:                                              ; preds = %117
  tail call void @__assert_fail(ptr noundef nonnull @.str.12, ptr noundef nonnull @.str.4, i32 noundef 130, ptr noundef nonnull @__PRETTY_FUNCTION__._Z4testI20cpp20_input_iteratorIPiE16sentinel_wrapperIS2_E19contiguous_iteratorIS1_ELi8ELi5EEv4DataIXT2_EXT3_EE) #7
  unreachable

121:                                              ; preds = %117
  call void @llvm.lifetime.end.p0(ptr nonnull %3) #6
  ret void
}

; Function Attrs: mustprogress uwtable
define linkonce_odr dso_local void @_Z4testI20cpp20_input_iteratorIPiE16sentinel_wrapperIS2_ES1_Li6ELi5EEv4DataIXT2_EXT3_EE(ptr noundef byval(%struct.Data) align 8 %0) local_unnamed_addr #1 comdat personality ptr @__gxx_personality_v0 {
  %2 = alloca %"struct.std::array.3", align 4
  %3 = alloca %"struct.std::array.3", align 4
  call void @llvm.lifetime.start.p0(ptr nonnull %2) #6
  %4 = getelementptr inbounds nuw i8, ptr %0, i64 44
  %5 = load i32, ptr %4, align 4, !tbaa !5, !noalias !292
  %6 = getelementptr inbounds nuw i8, ptr %3, i64 4
  %7 = load i32, ptr %0, align 8, !tbaa !5, !noalias !292
  %8 = icmp eq i32 %7, %5
  br i1 %8, label %11, label %9

9:                                                ; preds = %1
  %10 = getelementptr inbounds nuw i8, ptr %2, i64 4
  store i32 %7, ptr %2, align 4, !tbaa !5, !noalias !292
  br label %11

11:                                               ; preds = %9, %1
  %12 = phi ptr [ %2, %1 ], [ %10, %9 ]
  %13 = phi i64 [ 0, %1 ], [ 4, %9 ]
  %14 = getelementptr inbounds nuw i8, ptr %0, i64 4
  %15 = load i32, ptr %14, align 4, !tbaa !5, !noalias !292
  %16 = icmp eq i32 %15, %5
  br i1 %16, label %19, label %17

17:                                               ; preds = %11
  store i32 %15, ptr %12, align 4, !tbaa !5, !noalias !292
  %18 = add nuw nsw i64 %13, 4
  br label %19

19:                                               ; preds = %17, %11
  %20 = phi i64 [ %13, %11 ], [ %18, %17 ]
  %21 = getelementptr inbounds nuw i8, ptr %0, i64 8
  %22 = load i32, ptr %21, align 8, !tbaa !5, !noalias !292
  %23 = icmp eq i32 %22, %5
  br i1 %23, label %27, label %24

24:                                               ; preds = %19
  %25 = getelementptr inbounds nuw i8, ptr %2, i64 %20
  store i32 %22, ptr %25, align 4, !tbaa !5, !noalias !292
  %26 = add nuw nsw i64 %20, 4
  br label %27

27:                                               ; preds = %24, %19
  %28 = phi i64 [ %20, %19 ], [ %26, %24 ]
  %29 = getelementptr inbounds nuw i8, ptr %0, i64 12
  %30 = load i32, ptr %29, align 4, !tbaa !5, !noalias !292
  %31 = icmp eq i32 %30, %5
  br i1 %31, label %35, label %32

32:                                               ; preds = %27
  %33 = getelementptr inbounds nuw i8, ptr %2, i64 %28
  store i32 %30, ptr %33, align 4, !tbaa !5, !noalias !292
  %34 = add nuw nsw i64 %28, 4
  br label %35

35:                                               ; preds = %32, %27
  %36 = phi i64 [ %28, %27 ], [ %34, %32 ]
  %37 = getelementptr inbounds nuw i8, ptr %0, i64 16
  %38 = load i32, ptr %37, align 8, !tbaa !5, !noalias !292
  %39 = icmp eq i32 %38, %5
  br i1 %39, label %43, label %40

40:                                               ; preds = %35
  %41 = getelementptr inbounds nuw i8, ptr %2, i64 %36
  store i32 %38, ptr %41, align 4, !tbaa !5, !noalias !292
  %42 = add nuw nsw i64 %36, 4
  br label %43

43:                                               ; preds = %40, %35
  %44 = phi i64 [ %36, %35 ], [ %42, %40 ]
  %45 = getelementptr inbounds nuw i8, ptr %0, i64 20
  %46 = load i32, ptr %45, align 4, !tbaa !5, !noalias !292
  %47 = icmp eq i32 %46, %5
  br i1 %47, label %51, label %48

48:                                               ; preds = %43
  %49 = getelementptr inbounds nuw i8, ptr %2, i64 %44
  store i32 %46, ptr %49, align 4, !tbaa !5, !noalias !292
  %50 = add nuw nsw i64 %44, 4
  br label %51

51:                                               ; preds = %48, %43
  %52 = phi i64 [ %44, %43 ], [ %50, %48 ]
  %53 = getelementptr inbounds nuw i8, ptr %0, i64 24
  %54 = icmp eq i64 %52, 20
  br i1 %54, label %56, label %55

55:                                               ; preds = %51
  tail call void @__assert_fail(ptr noundef nonnull @.str.11, ptr noundef nonnull @.str.4, i32 noundef 117, ptr noundef nonnull @__PRETTY_FUNCTION__._Z4testI20cpp20_input_iteratorIPiE16sentinel_wrapperIS2_ES1_Li6ELi5EEv4DataIXT2_EXT3_EE) #7
  unreachable

56:                                               ; preds = %51
  %57 = call i32 @bcmp(ptr noundef nonnull align 4 dereferenceable(20) %53, ptr noundef nonnull align 4 dereferenceable(20) %2, i64 20)
  %58 = icmp eq i32 %57, 0
  br i1 %58, label %60, label %59

59:                                               ; preds = %56
  tail call void @__assert_fail(ptr noundef nonnull @.str.12, ptr noundef nonnull @.str.4, i32 noundef 118, ptr noundef nonnull @__PRETTY_FUNCTION__._Z4testI20cpp20_input_iteratorIPiE16sentinel_wrapperIS2_ES1_Li6ELi5EEv4DataIXT2_EXT3_EE) #7
  unreachable

60:                                               ; preds = %56
  call void @llvm.lifetime.end.p0(ptr nonnull %2) #6
  call void @llvm.lifetime.start.p0(ptr nonnull %3) #6
  br i1 %8, label %62, label %61

61:                                               ; preds = %60
  store i32 %7, ptr %3, align 4, !tbaa !5, !noalias !295
  br label %62

62:                                               ; preds = %61, %60
  %63 = phi ptr [ %3, %60 ], [ %6, %61 ]
  %64 = phi i64 [ 0, %60 ], [ 4, %61 ]
  br i1 %16, label %67, label %65

65:                                               ; preds = %62
  store i32 %15, ptr %63, align 4, !tbaa !5, !noalias !295
  %66 = add nuw nsw i64 %64, 4
  br label %67

67:                                               ; preds = %65, %62
  %68 = phi i64 [ %64, %62 ], [ %66, %65 ]
  br i1 %23, label %72, label %69

69:                                               ; preds = %67
  %70 = getelementptr inbounds nuw i8, ptr %3, i64 %68
  store i32 %22, ptr %70, align 4, !tbaa !5, !noalias !295
  %71 = add nuw nsw i64 %68, 4
  br label %72

72:                                               ; preds = %69, %67
  %73 = phi i64 [ %68, %67 ], [ %71, %69 ]
  br i1 %31, label %77, label %74

74:                                               ; preds = %72
  %75 = getelementptr inbounds nuw i8, ptr %3, i64 %73
  store i32 %30, ptr %75, align 4, !tbaa !5, !noalias !295
  %76 = add nuw nsw i64 %73, 4
  br label %77

77:                                               ; preds = %74, %72
  %78 = phi i64 [ %73, %72 ], [ %76, %74 ]
  br i1 %39, label %82, label %79

79:                                               ; preds = %77
  %80 = getelementptr inbounds nuw i8, ptr %3, i64 %78
  store i32 %38, ptr %80, align 4, !tbaa !5, !noalias !295
  %81 = add nuw nsw i64 %78, 4
  br label %82

82:                                               ; preds = %79, %77
  %83 = phi i64 [ %78, %77 ], [ %81, %79 ]
  br i1 %47, label %87, label %84

84:                                               ; preds = %82
  %85 = getelementptr inbounds nuw i8, ptr %3, i64 %83
  store i32 %46, ptr %85, align 4, !tbaa !5, !noalias !295
  %86 = add nuw nsw i64 %83, 4
  br label %87

87:                                               ; preds = %84, %82
  %88 = phi i64 [ %83, %82 ], [ %86, %84 ]
  %89 = icmp eq i64 %88, 20
  br i1 %89, label %91, label %90

90:                                               ; preds = %87
  tail call void @__assert_fail(ptr noundef nonnull @.str.11, ptr noundef nonnull @.str.4, i32 noundef 129, ptr noundef nonnull @__PRETTY_FUNCTION__._Z4testI20cpp20_input_iteratorIPiE16sentinel_wrapperIS2_ES1_Li6ELi5EEv4DataIXT2_EXT3_EE) #7
  unreachable

91:                                               ; preds = %87
  %92 = call i32 @bcmp(ptr noundef nonnull align 4 dereferenceable(20) %53, ptr noundef nonnull align 4 dereferenceable(20) %3, i64 20)
  %93 = icmp eq i32 %92, 0
  br i1 %93, label %95, label %94

94:                                               ; preds = %91
  tail call void @__assert_fail(ptr noundef nonnull @.str.12, ptr noundef nonnull @.str.4, i32 noundef 130, ptr noundef nonnull @__PRETTY_FUNCTION__._Z4testI20cpp20_input_iteratorIPiE16sentinel_wrapperIS2_ES1_Li6ELi5EEv4DataIXT2_EXT3_EE) #7
  unreachable

95:                                               ; preds = %91
  call void @llvm.lifetime.end.p0(ptr nonnull %3) #6
  ret void
}

; Function Attrs: mustprogress uwtable
define linkonce_odr dso_local void @_Z4testI20cpp20_input_iteratorIPiE16sentinel_wrapperIS2_ES1_Li8ELi5EEv4DataIXT2_EXT3_EE(ptr noundef byval(%struct.Data.11) align 8 %0) local_unnamed_addr #1 comdat personality ptr @__gxx_personality_v0 {
  %2 = alloca %"struct.std::array.3", align 4
  %3 = alloca %"struct.std::array.3", align 4
  call void @llvm.lifetime.start.p0(ptr nonnull %2) #6
  %4 = getelementptr inbounds nuw i8, ptr %0, i64 52
  %5 = load i32, ptr %4, align 4, !tbaa !5, !noalias !300
  %6 = getelementptr inbounds nuw i8, ptr %3, i64 4
  %7 = load i32, ptr %0, align 8, !tbaa !5, !noalias !300
  %8 = icmp eq i32 %7, %5
  br i1 %8, label %11, label %9

9:                                                ; preds = %1
  %10 = getelementptr inbounds nuw i8, ptr %2, i64 4
  store i32 %7, ptr %2, align 4, !tbaa !5, !noalias !300
  br label %11

11:                                               ; preds = %9, %1
  %12 = phi ptr [ %2, %1 ], [ %10, %9 ]
  %13 = phi i64 [ 0, %1 ], [ 4, %9 ]
  %14 = getelementptr inbounds nuw i8, ptr %0, i64 4
  %15 = load i32, ptr %14, align 4, !tbaa !5, !noalias !300
  %16 = icmp eq i32 %15, %5
  br i1 %16, label %19, label %17

17:                                               ; preds = %11
  store i32 %15, ptr %12, align 4, !tbaa !5, !noalias !300
  %18 = add nuw nsw i64 %13, 4
  br label %19

19:                                               ; preds = %17, %11
  %20 = phi i64 [ %13, %11 ], [ %18, %17 ]
  %21 = getelementptr inbounds nuw i8, ptr %0, i64 8
  %22 = load i32, ptr %21, align 8, !tbaa !5, !noalias !300
  %23 = icmp eq i32 %22, %5
  br i1 %23, label %27, label %24

24:                                               ; preds = %19
  %25 = getelementptr inbounds nuw i8, ptr %2, i64 %20
  store i32 %22, ptr %25, align 4, !tbaa !5, !noalias !300
  %26 = add nuw nsw i64 %20, 4
  br label %27

27:                                               ; preds = %24, %19
  %28 = phi i64 [ %20, %19 ], [ %26, %24 ]
  %29 = getelementptr inbounds nuw i8, ptr %0, i64 12
  %30 = load i32, ptr %29, align 4, !tbaa !5, !noalias !300
  %31 = icmp eq i32 %30, %5
  br i1 %31, label %35, label %32

32:                                               ; preds = %27
  %33 = getelementptr inbounds nuw i8, ptr %2, i64 %28
  store i32 %30, ptr %33, align 4, !tbaa !5, !noalias !300
  %34 = add nuw nsw i64 %28, 4
  br label %35

35:                                               ; preds = %32, %27
  %36 = phi i64 [ %28, %27 ], [ %34, %32 ]
  %37 = getelementptr inbounds nuw i8, ptr %0, i64 16
  %38 = load i32, ptr %37, align 8, !tbaa !5, !noalias !300
  %39 = icmp eq i32 %38, %5
  br i1 %39, label %43, label %40

40:                                               ; preds = %35
  %41 = getelementptr inbounds nuw i8, ptr %2, i64 %36
  store i32 %38, ptr %41, align 4, !tbaa !5, !noalias !300
  %42 = add nuw nsw i64 %36, 4
  br label %43

43:                                               ; preds = %40, %35
  %44 = phi i64 [ %36, %35 ], [ %42, %40 ]
  %45 = getelementptr inbounds nuw i8, ptr %0, i64 20
  %46 = load i32, ptr %45, align 4, !tbaa !5, !noalias !300
  %47 = icmp eq i32 %46, %5
  br i1 %47, label %51, label %48

48:                                               ; preds = %43
  %49 = getelementptr inbounds nuw i8, ptr %2, i64 %44
  store i32 %46, ptr %49, align 4, !tbaa !5, !noalias !300
  %50 = add nuw nsw i64 %44, 4
  br label %51

51:                                               ; preds = %48, %43
  %52 = phi i64 [ %44, %43 ], [ %50, %48 ]
  %53 = getelementptr inbounds nuw i8, ptr %0, i64 24
  %54 = load i32, ptr %53, align 8, !tbaa !5, !noalias !300
  %55 = icmp eq i32 %54, %5
  br i1 %55, label %59, label %56

56:                                               ; preds = %51
  %57 = getelementptr inbounds nuw i8, ptr %2, i64 %52
  store i32 %54, ptr %57, align 4, !tbaa !5, !noalias !300
  %58 = add nuw nsw i64 %52, 4
  br label %59

59:                                               ; preds = %56, %51
  %60 = phi i64 [ %52, %51 ], [ %58, %56 ]
  %61 = getelementptr inbounds nuw i8, ptr %0, i64 28
  %62 = load i32, ptr %61, align 4, !tbaa !5, !noalias !300
  %63 = icmp eq i32 %62, %5
  br i1 %63, label %67, label %64

64:                                               ; preds = %59
  %65 = getelementptr inbounds nuw i8, ptr %2, i64 %60
  store i32 %62, ptr %65, align 4, !tbaa !5, !noalias !300
  %66 = add nuw nsw i64 %60, 4
  br label %67

67:                                               ; preds = %64, %59
  %68 = phi i64 [ %60, %59 ], [ %66, %64 ]
  %69 = getelementptr inbounds nuw i8, ptr %0, i64 32
  %70 = icmp eq i64 %68, 20
  br i1 %70, label %72, label %71

71:                                               ; preds = %67
  tail call void @__assert_fail(ptr noundef nonnull @.str.11, ptr noundef nonnull @.str.4, i32 noundef 117, ptr noundef nonnull @__PRETTY_FUNCTION__._Z4testI20cpp20_input_iteratorIPiE16sentinel_wrapperIS2_ES1_Li8ELi5EEv4DataIXT2_EXT3_EE) #7
  unreachable

72:                                               ; preds = %67
  %73 = call i32 @bcmp(ptr noundef nonnull align 4 dereferenceable(20) %69, ptr noundef nonnull align 4 dereferenceable(20) %2, i64 20)
  %74 = icmp eq i32 %73, 0
  br i1 %74, label %76, label %75

75:                                               ; preds = %72
  tail call void @__assert_fail(ptr noundef nonnull @.str.12, ptr noundef nonnull @.str.4, i32 noundef 118, ptr noundef nonnull @__PRETTY_FUNCTION__._Z4testI20cpp20_input_iteratorIPiE16sentinel_wrapperIS2_ES1_Li8ELi5EEv4DataIXT2_EXT3_EE) #7
  unreachable

76:                                               ; preds = %72
  call void @llvm.lifetime.end.p0(ptr nonnull %2) #6
  call void @llvm.lifetime.start.p0(ptr nonnull %3) #6
  br i1 %8, label %78, label %77

77:                                               ; preds = %76
  store i32 %7, ptr %3, align 4, !tbaa !5, !noalias !303
  br label %78

78:                                               ; preds = %77, %76
  %79 = phi ptr [ %3, %76 ], [ %6, %77 ]
  %80 = phi i64 [ 0, %76 ], [ 4, %77 ]
  br i1 %16, label %83, label %81

81:                                               ; preds = %78
  store i32 %15, ptr %79, align 4, !tbaa !5, !noalias !303
  %82 = add nuw nsw i64 %80, 4
  br label %83

83:                                               ; preds = %81, %78
  %84 = phi i64 [ %80, %78 ], [ %82, %81 ]
  br i1 %23, label %88, label %85

85:                                               ; preds = %83
  %86 = getelementptr inbounds nuw i8, ptr %3, i64 %84
  store i32 %22, ptr %86, align 4, !tbaa !5, !noalias !303
  %87 = add nuw nsw i64 %84, 4
  br label %88

88:                                               ; preds = %85, %83
  %89 = phi i64 [ %84, %83 ], [ %87, %85 ]
  br i1 %31, label %93, label %90

90:                                               ; preds = %88
  %91 = getelementptr inbounds nuw i8, ptr %3, i64 %89
  store i32 %30, ptr %91, align 4, !tbaa !5, !noalias !303
  %92 = add nuw nsw i64 %89, 4
  br label %93

93:                                               ; preds = %90, %88
  %94 = phi i64 [ %89, %88 ], [ %92, %90 ]
  br i1 %39, label %98, label %95

95:                                               ; preds = %93
  %96 = getelementptr inbounds nuw i8, ptr %3, i64 %94
  store i32 %38, ptr %96, align 4, !tbaa !5, !noalias !303
  %97 = add nuw nsw i64 %94, 4
  br label %98

98:                                               ; preds = %95, %93
  %99 = phi i64 [ %94, %93 ], [ %97, %95 ]
  br i1 %47, label %103, label %100

100:                                              ; preds = %98
  %101 = getelementptr inbounds nuw i8, ptr %3, i64 %99
  store i32 %46, ptr %101, align 4, !tbaa !5, !noalias !303
  %102 = add nuw nsw i64 %99, 4
  br label %103

103:                                              ; preds = %100, %98
  %104 = phi i64 [ %99, %98 ], [ %102, %100 ]
  br i1 %55, label %108, label %105

105:                                              ; preds = %103
  %106 = getelementptr inbounds nuw i8, ptr %3, i64 %104
  store i32 %54, ptr %106, align 4, !tbaa !5, !noalias !303
  %107 = add nuw nsw i64 %104, 4
  br label %108

108:                                              ; preds = %105, %103
  %109 = phi i64 [ %104, %103 ], [ %107, %105 ]
  br i1 %63, label %113, label %110

110:                                              ; preds = %108
  %111 = getelementptr inbounds nuw i8, ptr %3, i64 %109
  store i32 %62, ptr %111, align 4, !tbaa !5, !noalias !303
  %112 = add nuw nsw i64 %109, 4
  br label %113

113:                                              ; preds = %110, %108
  %114 = phi i64 [ %109, %108 ], [ %112, %110 ]
  %115 = icmp eq i64 %114, 20
  br i1 %115, label %117, label %116

116:                                              ; preds = %113
  tail call void @__assert_fail(ptr noundef nonnull @.str.11, ptr noundef nonnull @.str.4, i32 noundef 129, ptr noundef nonnull @__PRETTY_FUNCTION__._Z4testI20cpp20_input_iteratorIPiE16sentinel_wrapperIS2_ES1_Li8ELi5EEv4DataIXT2_EXT3_EE) #7
  unreachable

117:                                              ; preds = %113
  %118 = call i32 @bcmp(ptr noundef nonnull align 4 dereferenceable(20) %69, ptr noundef nonnull align 4 dereferenceable(20) %3, i64 20)
  %119 = icmp eq i32 %118, 0
  br i1 %119, label %121, label %120

120:                                              ; preds = %117
  tail call void @__assert_fail(ptr noundef nonnull @.str.12, ptr noundef nonnull @.str.4, i32 noundef 130, ptr noundef nonnull @__PRETTY_FUNCTION__._Z4testI20cpp20_input_iteratorIPiE16sentinel_wrapperIS2_ES1_Li8ELi5EEv4DataIXT2_EXT3_EE) #7
  unreachable

121:                                              ; preds = %117
  call void @llvm.lifetime.end.p0(ptr nonnull %3) #6
  ret void
}

; Function Attrs: mustprogress uwtable
define linkonce_odr dso_local void @_Z4testI20cpp20_input_iteratorIPiE14sized_sentinelIS2_E21cpp17_output_iteratorIS1_ELi6ELi5EEv4DataIXT2_EXT3_EE(ptr noundef byval(%struct.Data) align 8 %0) local_unnamed_addr #1 comdat personality ptr @__gxx_personality_v0 {
  %2 = alloca %"struct.std::array.3", align 4
  %3 = alloca %"struct.std::array.3", align 4
  call void @llvm.lifetime.start.p0(ptr nonnull %2) #6
  %4 = getelementptr inbounds nuw i8, ptr %0, i64 44
  %5 = load i32, ptr %4, align 4, !tbaa !5, !noalias !308
  %6 = getelementptr inbounds nuw i8, ptr %3, i64 4
  %7 = load i32, ptr %0, align 8, !tbaa !5, !noalias !308
  %8 = icmp eq i32 %7, %5
  br i1 %8, label %11, label %9

9:                                                ; preds = %1
  %10 = getelementptr inbounds nuw i8, ptr %2, i64 4
  store i32 %7, ptr %2, align 4, !tbaa !5, !noalias !308
  br label %11

11:                                               ; preds = %9, %1
  %12 = phi ptr [ %2, %1 ], [ %10, %9 ]
  %13 = phi i64 [ 0, %1 ], [ 4, %9 ]
  %14 = getelementptr inbounds nuw i8, ptr %0, i64 4
  %15 = load i32, ptr %14, align 4, !tbaa !5, !noalias !308
  %16 = icmp eq i32 %15, %5
  br i1 %16, label %19, label %17

17:                                               ; preds = %11
  store i32 %15, ptr %12, align 4, !tbaa !5, !noalias !308
  %18 = add nuw nsw i64 %13, 4
  br label %19

19:                                               ; preds = %17, %11
  %20 = phi i64 [ %13, %11 ], [ %18, %17 ]
  %21 = getelementptr inbounds nuw i8, ptr %0, i64 8
  %22 = load i32, ptr %21, align 8, !tbaa !5, !noalias !308
  %23 = icmp eq i32 %22, %5
  br i1 %23, label %27, label %24

24:                                               ; preds = %19
  %25 = getelementptr inbounds nuw i8, ptr %2, i64 %20
  store i32 %22, ptr %25, align 4, !tbaa !5, !noalias !308
  %26 = add nuw nsw i64 %20, 4
  br label %27

27:                                               ; preds = %24, %19
  %28 = phi i64 [ %20, %19 ], [ %26, %24 ]
  %29 = getelementptr inbounds nuw i8, ptr %0, i64 12
  %30 = load i32, ptr %29, align 4, !tbaa !5, !noalias !308
  %31 = icmp eq i32 %30, %5
  br i1 %31, label %35, label %32

32:                                               ; preds = %27
  %33 = getelementptr inbounds nuw i8, ptr %2, i64 %28
  store i32 %30, ptr %33, align 4, !tbaa !5, !noalias !308
  %34 = add nuw nsw i64 %28, 4
  br label %35

35:                                               ; preds = %32, %27
  %36 = phi i64 [ %28, %27 ], [ %34, %32 ]
  %37 = getelementptr inbounds nuw i8, ptr %0, i64 16
  %38 = load i32, ptr %37, align 8, !tbaa !5, !noalias !308
  %39 = icmp eq i32 %38, %5
  br i1 %39, label %43, label %40

40:                                               ; preds = %35
  %41 = getelementptr inbounds nuw i8, ptr %2, i64 %36
  store i32 %38, ptr %41, align 4, !tbaa !5, !noalias !308
  %42 = add nuw nsw i64 %36, 4
  br label %43

43:                                               ; preds = %40, %35
  %44 = phi i64 [ %36, %35 ], [ %42, %40 ]
  %45 = getelementptr inbounds nuw i8, ptr %0, i64 20
  %46 = load i32, ptr %45, align 4, !tbaa !5, !noalias !308
  %47 = icmp eq i32 %46, %5
  br i1 %47, label %51, label %48

48:                                               ; preds = %43
  %49 = getelementptr inbounds nuw i8, ptr %2, i64 %44
  store i32 %46, ptr %49, align 4, !tbaa !5, !noalias !308
  %50 = add nuw nsw i64 %44, 4
  br label %51

51:                                               ; preds = %48, %43
  %52 = phi i64 [ %44, %43 ], [ %50, %48 ]
  %53 = getelementptr inbounds nuw i8, ptr %0, i64 24
  %54 = icmp eq i64 %52, 20
  br i1 %54, label %56, label %55

55:                                               ; preds = %51
  tail call void @__assert_fail(ptr noundef nonnull @.str.11, ptr noundef nonnull @.str.4, i32 noundef 117, ptr noundef nonnull @__PRETTY_FUNCTION__._Z4testI20cpp20_input_iteratorIPiE14sized_sentinelIS2_E21cpp17_output_iteratorIS1_ELi6ELi5EEv4DataIXT2_EXT3_EE) #7
  unreachable

56:                                               ; preds = %51
  %57 = call i32 @bcmp(ptr noundef nonnull align 4 dereferenceable(20) %53, ptr noundef nonnull align 4 dereferenceable(20) %2, i64 20)
  %58 = icmp eq i32 %57, 0
  br i1 %58, label %60, label %59

59:                                               ; preds = %56
  tail call void @__assert_fail(ptr noundef nonnull @.str.12, ptr noundef nonnull @.str.4, i32 noundef 118, ptr noundef nonnull @__PRETTY_FUNCTION__._Z4testI20cpp20_input_iteratorIPiE14sized_sentinelIS2_E21cpp17_output_iteratorIS1_ELi6ELi5EEv4DataIXT2_EXT3_EE) #7
  unreachable

60:                                               ; preds = %56
  call void @llvm.lifetime.end.p0(ptr nonnull %2) #6
  call void @llvm.lifetime.start.p0(ptr nonnull %3) #6
  br i1 %8, label %62, label %61

61:                                               ; preds = %60
  store i32 %7, ptr %3, align 4, !tbaa !5, !noalias !311
  br label %62

62:                                               ; preds = %61, %60
  %63 = phi ptr [ %3, %60 ], [ %6, %61 ]
  %64 = phi i64 [ 0, %60 ], [ 4, %61 ]
  br i1 %16, label %67, label %65

65:                                               ; preds = %62
  store i32 %15, ptr %63, align 4, !tbaa !5, !noalias !311
  %66 = add nuw nsw i64 %64, 4
  br label %67

67:                                               ; preds = %65, %62
  %68 = phi i64 [ %64, %62 ], [ %66, %65 ]
  br i1 %23, label %72, label %69

69:                                               ; preds = %67
  %70 = getelementptr inbounds nuw i8, ptr %3, i64 %68
  store i32 %22, ptr %70, align 4, !tbaa !5, !noalias !311
  %71 = add nuw nsw i64 %68, 4
  br label %72

72:                                               ; preds = %69, %67
  %73 = phi i64 [ %68, %67 ], [ %71, %69 ]
  br i1 %31, label %77, label %74

74:                                               ; preds = %72
  %75 = getelementptr inbounds nuw i8, ptr %3, i64 %73
  store i32 %30, ptr %75, align 4, !tbaa !5, !noalias !311
  %76 = add nuw nsw i64 %73, 4
  br label %77

77:                                               ; preds = %74, %72
  %78 = phi i64 [ %73, %72 ], [ %76, %74 ]
  br i1 %39, label %82, label %79

79:                                               ; preds = %77
  %80 = getelementptr inbounds nuw i8, ptr %3, i64 %78
  store i32 %38, ptr %80, align 4, !tbaa !5, !noalias !311
  %81 = add nuw nsw i64 %78, 4
  br label %82

82:                                               ; preds = %79, %77
  %83 = phi i64 [ %78, %77 ], [ %81, %79 ]
  br i1 %47, label %87, label %84

84:                                               ; preds = %82
  %85 = getelementptr inbounds nuw i8, ptr %3, i64 %83
  store i32 %46, ptr %85, align 4, !tbaa !5, !noalias !311
  %86 = add nuw nsw i64 %83, 4
  br label %87

87:                                               ; preds = %84, %82
  %88 = phi i64 [ %83, %82 ], [ %86, %84 ]
  %89 = icmp eq i64 %88, 20
  br i1 %89, label %91, label %90

90:                                               ; preds = %87
  tail call void @__assert_fail(ptr noundef nonnull @.str.11, ptr noundef nonnull @.str.4, i32 noundef 129, ptr noundef nonnull @__PRETTY_FUNCTION__._Z4testI20cpp20_input_iteratorIPiE14sized_sentinelIS2_E21cpp17_output_iteratorIS1_ELi6ELi5EEv4DataIXT2_EXT3_EE) #7
  unreachable

91:                                               ; preds = %87
  %92 = call i32 @bcmp(ptr noundef nonnull align 4 dereferenceable(20) %53, ptr noundef nonnull align 4 dereferenceable(20) %3, i64 20)
  %93 = icmp eq i32 %92, 0
  br i1 %93, label %95, label %94

94:                                               ; preds = %91
  tail call void @__assert_fail(ptr noundef nonnull @.str.12, ptr noundef nonnull @.str.4, i32 noundef 130, ptr noundef nonnull @__PRETTY_FUNCTION__._Z4testI20cpp20_input_iteratorIPiE14sized_sentinelIS2_E21cpp17_output_iteratorIS1_ELi6ELi5EEv4DataIXT2_EXT3_EE) #7
  unreachable

95:                                               ; preds = %91
  call void @llvm.lifetime.end.p0(ptr nonnull %3) #6
  ret void
}

; Function Attrs: mustprogress uwtable
define linkonce_odr dso_local void @_Z4testI20cpp20_input_iteratorIPiE14sized_sentinelIS2_E21cpp17_output_iteratorIS1_ELi8ELi5EEv4DataIXT2_EXT3_EE(ptr noundef byval(%struct.Data.11) align 8 %0) local_unnamed_addr #1 comdat personality ptr @__gxx_personality_v0 {
  %2 = alloca %"struct.std::array.3", align 4
  %3 = alloca %"struct.std::array.3", align 4
  call void @llvm.lifetime.start.p0(ptr nonnull %2) #6
  %4 = getelementptr inbounds nuw i8, ptr %0, i64 52
  %5 = load i32, ptr %4, align 4, !tbaa !5, !noalias !316
  %6 = getelementptr inbounds nuw i8, ptr %3, i64 4
  %7 = load i32, ptr %0, align 8, !tbaa !5, !noalias !316
  %8 = icmp eq i32 %7, %5
  br i1 %8, label %11, label %9

9:                                                ; preds = %1
  %10 = getelementptr inbounds nuw i8, ptr %2, i64 4
  store i32 %7, ptr %2, align 4, !tbaa !5, !noalias !316
  br label %11

11:                                               ; preds = %9, %1
  %12 = phi ptr [ %2, %1 ], [ %10, %9 ]
  %13 = phi i64 [ 0, %1 ], [ 4, %9 ]
  %14 = getelementptr inbounds nuw i8, ptr %0, i64 4
  %15 = load i32, ptr %14, align 4, !tbaa !5, !noalias !316
  %16 = icmp eq i32 %15, %5
  br i1 %16, label %19, label %17

17:                                               ; preds = %11
  store i32 %15, ptr %12, align 4, !tbaa !5, !noalias !316
  %18 = add nuw nsw i64 %13, 4
  br label %19

19:                                               ; preds = %17, %11
  %20 = phi i64 [ %13, %11 ], [ %18, %17 ]
  %21 = getelementptr inbounds nuw i8, ptr %0, i64 8
  %22 = load i32, ptr %21, align 8, !tbaa !5, !noalias !316
  %23 = icmp eq i32 %22, %5
  br i1 %23, label %27, label %24

24:                                               ; preds = %19
  %25 = getelementptr inbounds nuw i8, ptr %2, i64 %20
  store i32 %22, ptr %25, align 4, !tbaa !5, !noalias !316
  %26 = add nuw nsw i64 %20, 4
  br label %27

27:                                               ; preds = %24, %19
  %28 = phi i64 [ %20, %19 ], [ %26, %24 ]
  %29 = getelementptr inbounds nuw i8, ptr %0, i64 12
  %30 = load i32, ptr %29, align 4, !tbaa !5, !noalias !316
  %31 = icmp eq i32 %30, %5
  br i1 %31, label %35, label %32

32:                                               ; preds = %27
  %33 = getelementptr inbounds nuw i8, ptr %2, i64 %28
  store i32 %30, ptr %33, align 4, !tbaa !5, !noalias !316
  %34 = add nuw nsw i64 %28, 4
  br label %35

35:                                               ; preds = %32, %27
  %36 = phi i64 [ %28, %27 ], [ %34, %32 ]
  %37 = getelementptr inbounds nuw i8, ptr %0, i64 16
  %38 = load i32, ptr %37, align 8, !tbaa !5, !noalias !316
  %39 = icmp eq i32 %38, %5
  br i1 %39, label %43, label %40

40:                                               ; preds = %35
  %41 = getelementptr inbounds nuw i8, ptr %2, i64 %36
  store i32 %38, ptr %41, align 4, !tbaa !5, !noalias !316
  %42 = add nuw nsw i64 %36, 4
  br label %43

43:                                               ; preds = %40, %35
  %44 = phi i64 [ %36, %35 ], [ %42, %40 ]
  %45 = getelementptr inbounds nuw i8, ptr %0, i64 20
  %46 = load i32, ptr %45, align 4, !tbaa !5, !noalias !316
  %47 = icmp eq i32 %46, %5
  br i1 %47, label %51, label %48

48:                                               ; preds = %43
  %49 = getelementptr inbounds nuw i8, ptr %2, i64 %44
  store i32 %46, ptr %49, align 4, !tbaa !5, !noalias !316
  %50 = add nuw nsw i64 %44, 4
  br label %51

51:                                               ; preds = %48, %43
  %52 = phi i64 [ %44, %43 ], [ %50, %48 ]
  %53 = getelementptr inbounds nuw i8, ptr %0, i64 24
  %54 = load i32, ptr %53, align 8, !tbaa !5, !noalias !316
  %55 = icmp eq i32 %54, %5
  br i1 %55, label %59, label %56

56:                                               ; preds = %51
  %57 = getelementptr inbounds nuw i8, ptr %2, i64 %52
  store i32 %54, ptr %57, align 4, !tbaa !5, !noalias !316
  %58 = add nuw nsw i64 %52, 4
  br label %59

59:                                               ; preds = %56, %51
  %60 = phi i64 [ %52, %51 ], [ %58, %56 ]
  %61 = getelementptr inbounds nuw i8, ptr %0, i64 28
  %62 = load i32, ptr %61, align 4, !tbaa !5, !noalias !316
  %63 = icmp eq i32 %62, %5
  br i1 %63, label %67, label %64

64:                                               ; preds = %59
  %65 = getelementptr inbounds nuw i8, ptr %2, i64 %60
  store i32 %62, ptr %65, align 4, !tbaa !5, !noalias !316
  %66 = add nuw nsw i64 %60, 4
  br label %67

67:                                               ; preds = %64, %59
  %68 = phi i64 [ %60, %59 ], [ %66, %64 ]
  %69 = getelementptr inbounds nuw i8, ptr %0, i64 32
  %70 = icmp eq i64 %68, 20
  br i1 %70, label %72, label %71

71:                                               ; preds = %67
  tail call void @__assert_fail(ptr noundef nonnull @.str.11, ptr noundef nonnull @.str.4, i32 noundef 117, ptr noundef nonnull @__PRETTY_FUNCTION__._Z4testI20cpp20_input_iteratorIPiE14sized_sentinelIS2_E21cpp17_output_iteratorIS1_ELi8ELi5EEv4DataIXT2_EXT3_EE) #7
  unreachable

72:                                               ; preds = %67
  %73 = call i32 @bcmp(ptr noundef nonnull align 4 dereferenceable(20) %69, ptr noundef nonnull align 4 dereferenceable(20) %2, i64 20)
  %74 = icmp eq i32 %73, 0
  br i1 %74, label %76, label %75

75:                                               ; preds = %72
  tail call void @__assert_fail(ptr noundef nonnull @.str.12, ptr noundef nonnull @.str.4, i32 noundef 118, ptr noundef nonnull @__PRETTY_FUNCTION__._Z4testI20cpp20_input_iteratorIPiE14sized_sentinelIS2_E21cpp17_output_iteratorIS1_ELi8ELi5EEv4DataIXT2_EXT3_EE) #7
  unreachable

76:                                               ; preds = %72
  call void @llvm.lifetime.end.p0(ptr nonnull %2) #6
  call void @llvm.lifetime.start.p0(ptr nonnull %3) #6
  br i1 %8, label %78, label %77

77:                                               ; preds = %76
  store i32 %7, ptr %3, align 4, !tbaa !5, !noalias !319
  br label %78

78:                                               ; preds = %77, %76
  %79 = phi ptr [ %3, %76 ], [ %6, %77 ]
  %80 = phi i64 [ 0, %76 ], [ 4, %77 ]
  br i1 %16, label %83, label %81

81:                                               ; preds = %78
  store i32 %15, ptr %79, align 4, !tbaa !5, !noalias !319
  %82 = add nuw nsw i64 %80, 4
  br label %83

83:                                               ; preds = %81, %78
  %84 = phi i64 [ %80, %78 ], [ %82, %81 ]
  br i1 %23, label %88, label %85

85:                                               ; preds = %83
  %86 = getelementptr inbounds nuw i8, ptr %3, i64 %84
  store i32 %22, ptr %86, align 4, !tbaa !5, !noalias !319
  %87 = add nuw nsw i64 %84, 4
  br label %88

88:                                               ; preds = %85, %83
  %89 = phi i64 [ %84, %83 ], [ %87, %85 ]
  br i1 %31, label %93, label %90

90:                                               ; preds = %88
  %91 = getelementptr inbounds nuw i8, ptr %3, i64 %89
  store i32 %30, ptr %91, align 4, !tbaa !5, !noalias !319
  %92 = add nuw nsw i64 %89, 4
  br label %93

93:                                               ; preds = %90, %88
  %94 = phi i64 [ %89, %88 ], [ %92, %90 ]
  br i1 %39, label %98, label %95

95:                                               ; preds = %93
  %96 = getelementptr inbounds nuw i8, ptr %3, i64 %94
  store i32 %38, ptr %96, align 4, !tbaa !5, !noalias !319
  %97 = add nuw nsw i64 %94, 4
  br label %98

98:                                               ; preds = %95, %93
  %99 = phi i64 [ %94, %93 ], [ %97, %95 ]
  br i1 %47, label %103, label %100

100:                                              ; preds = %98
  %101 = getelementptr inbounds nuw i8, ptr %3, i64 %99
  store i32 %46, ptr %101, align 4, !tbaa !5, !noalias !319
  %102 = add nuw nsw i64 %99, 4
  br label %103

103:                                              ; preds = %100, %98
  %104 = phi i64 [ %99, %98 ], [ %102, %100 ]
  br i1 %55, label %108, label %105

105:                                              ; preds = %103
  %106 = getelementptr inbounds nuw i8, ptr %3, i64 %104
  store i32 %54, ptr %106, align 4, !tbaa !5, !noalias !319
  %107 = add nuw nsw i64 %104, 4
  br label %108

108:                                              ; preds = %105, %103
  %109 = phi i64 [ %104, %103 ], [ %107, %105 ]
  br i1 %63, label %113, label %110

110:                                              ; preds = %108
  %111 = getelementptr inbounds nuw i8, ptr %3, i64 %109
  store i32 %62, ptr %111, align 4, !tbaa !5, !noalias !319
  %112 = add nuw nsw i64 %109, 4
  br label %113

113:                                              ; preds = %110, %108
  %114 = phi i64 [ %109, %108 ], [ %112, %110 ]
  %115 = icmp eq i64 %114, 20
  br i1 %115, label %117, label %116

116:                                              ; preds = %113
  tail call void @__assert_fail(ptr noundef nonnull @.str.11, ptr noundef nonnull @.str.4, i32 noundef 129, ptr noundef nonnull @__PRETTY_FUNCTION__._Z4testI20cpp20_input_iteratorIPiE14sized_sentinelIS2_E21cpp17_output_iteratorIS1_ELi8ELi5EEv4DataIXT2_EXT3_EE) #7
  unreachable

117:                                              ; preds = %113
  %118 = call i32 @bcmp(ptr noundef nonnull align 4 dereferenceable(20) %69, ptr noundef nonnull align 4 dereferenceable(20) %3, i64 20)
  %119 = icmp eq i32 %118, 0
  br i1 %119, label %121, label %120

120:                                              ; preds = %117
  tail call void @__assert_fail(ptr noundef nonnull @.str.12, ptr noundef nonnull @.str.4, i32 noundef 130, ptr noundef nonnull @__PRETTY_FUNCTION__._Z4testI20cpp20_input_iteratorIPiE14sized_sentinelIS2_E21cpp17_output_iteratorIS1_ELi8ELi5EEv4DataIXT2_EXT3_EE) #7
  unreachable

121:                                              ; preds = %117
  call void @llvm.lifetime.end.p0(ptr nonnull %3) #6
  ret void
}

; Function Attrs: mustprogress uwtable
define linkonce_odr dso_local void @_Z4testI20cpp20_input_iteratorIPiE14sized_sentinelIS2_E16forward_iteratorIS1_ELi6ELi5EEv4DataIXT2_EXT3_EE(ptr noundef byval(%struct.Data) align 8 %0) local_unnamed_addr #1 comdat personality ptr @__gxx_personality_v0 {
  %2 = alloca %"struct.std::array.3", align 4
  %3 = alloca %"struct.std::array.3", align 4
  call void @llvm.lifetime.start.p0(ptr nonnull %2) #6
  %4 = getelementptr inbounds nuw i8, ptr %0, i64 44
  %5 = load i32, ptr %4, align 4, !tbaa !5, !noalias !324
  %6 = getelementptr inbounds nuw i8, ptr %3, i64 4
  %7 = load i32, ptr %0, align 8, !tbaa !5, !noalias !324
  %8 = icmp eq i32 %7, %5
  br i1 %8, label %11, label %9

9:                                                ; preds = %1
  %10 = getelementptr inbounds nuw i8, ptr %2, i64 4
  store i32 %7, ptr %2, align 4, !tbaa !5, !noalias !324
  br label %11

11:                                               ; preds = %9, %1
  %12 = phi ptr [ %2, %1 ], [ %10, %9 ]
  %13 = phi i64 [ 0, %1 ], [ 4, %9 ]
  %14 = getelementptr inbounds nuw i8, ptr %0, i64 4
  %15 = load i32, ptr %14, align 4, !tbaa !5, !noalias !324
  %16 = icmp eq i32 %15, %5
  br i1 %16, label %19, label %17

17:                                               ; preds = %11
  store i32 %15, ptr %12, align 4, !tbaa !5, !noalias !324
  %18 = add nuw nsw i64 %13, 4
  br label %19

19:                                               ; preds = %17, %11
  %20 = phi i64 [ %13, %11 ], [ %18, %17 ]
  %21 = getelementptr inbounds nuw i8, ptr %0, i64 8
  %22 = load i32, ptr %21, align 8, !tbaa !5, !noalias !324
  %23 = icmp eq i32 %22, %5
  br i1 %23, label %27, label %24

24:                                               ; preds = %19
  %25 = getelementptr inbounds nuw i8, ptr %2, i64 %20
  store i32 %22, ptr %25, align 4, !tbaa !5, !noalias !324
  %26 = add nuw nsw i64 %20, 4
  br label %27

27:                                               ; preds = %24, %19
  %28 = phi i64 [ %20, %19 ], [ %26, %24 ]
  %29 = getelementptr inbounds nuw i8, ptr %0, i64 12
  %30 = load i32, ptr %29, align 4, !tbaa !5, !noalias !324
  %31 = icmp eq i32 %30, %5
  br i1 %31, label %35, label %32

32:                                               ; preds = %27
  %33 = getelementptr inbounds nuw i8, ptr %2, i64 %28
  store i32 %30, ptr %33, align 4, !tbaa !5, !noalias !324
  %34 = add nuw nsw i64 %28, 4
  br label %35

35:                                               ; preds = %32, %27
  %36 = phi i64 [ %28, %27 ], [ %34, %32 ]
  %37 = getelementptr inbounds nuw i8, ptr %0, i64 16
  %38 = load i32, ptr %37, align 8, !tbaa !5, !noalias !324
  %39 = icmp eq i32 %38, %5
  br i1 %39, label %43, label %40

40:                                               ; preds = %35
  %41 = getelementptr inbounds nuw i8, ptr %2, i64 %36
  store i32 %38, ptr %41, align 4, !tbaa !5, !noalias !324
  %42 = add nuw nsw i64 %36, 4
  br label %43

43:                                               ; preds = %40, %35
  %44 = phi i64 [ %36, %35 ], [ %42, %40 ]
  %45 = getelementptr inbounds nuw i8, ptr %0, i64 20
  %46 = load i32, ptr %45, align 4, !tbaa !5, !noalias !324
  %47 = icmp eq i32 %46, %5
  br i1 %47, label %51, label %48

48:                                               ; preds = %43
  %49 = getelementptr inbounds nuw i8, ptr %2, i64 %44
  store i32 %46, ptr %49, align 4, !tbaa !5, !noalias !324
  %50 = add nuw nsw i64 %44, 4
  br label %51

51:                                               ; preds = %48, %43
  %52 = phi i64 [ %44, %43 ], [ %50, %48 ]
  %53 = getelementptr inbounds nuw i8, ptr %0, i64 24
  %54 = icmp eq i64 %52, 20
  br i1 %54, label %56, label %55

55:                                               ; preds = %51
  tail call void @__assert_fail(ptr noundef nonnull @.str.11, ptr noundef nonnull @.str.4, i32 noundef 117, ptr noundef nonnull @__PRETTY_FUNCTION__._Z4testI20cpp20_input_iteratorIPiE14sized_sentinelIS2_E16forward_iteratorIS1_ELi6ELi5EEv4DataIXT2_EXT3_EE) #7
  unreachable

56:                                               ; preds = %51
  %57 = call i32 @bcmp(ptr noundef nonnull align 4 dereferenceable(20) %53, ptr noundef nonnull align 4 dereferenceable(20) %2, i64 20)
  %58 = icmp eq i32 %57, 0
  br i1 %58, label %60, label %59

59:                                               ; preds = %56
  tail call void @__assert_fail(ptr noundef nonnull @.str.12, ptr noundef nonnull @.str.4, i32 noundef 118, ptr noundef nonnull @__PRETTY_FUNCTION__._Z4testI20cpp20_input_iteratorIPiE14sized_sentinelIS2_E16forward_iteratorIS1_ELi6ELi5EEv4DataIXT2_EXT3_EE) #7
  unreachable

60:                                               ; preds = %56
  call void @llvm.lifetime.end.p0(ptr nonnull %2) #6
  call void @llvm.lifetime.start.p0(ptr nonnull %3) #6
  br i1 %8, label %62, label %61

61:                                               ; preds = %60
  store i32 %7, ptr %3, align 4, !tbaa !5, !noalias !327
  br label %62

62:                                               ; preds = %61, %60
  %63 = phi ptr [ %3, %60 ], [ %6, %61 ]
  %64 = phi i64 [ 0, %60 ], [ 4, %61 ]
  br i1 %16, label %67, label %65

65:                                               ; preds = %62
  store i32 %15, ptr %63, align 4, !tbaa !5, !noalias !327
  %66 = add nuw nsw i64 %64, 4
  br label %67

67:                                               ; preds = %65, %62
  %68 = phi i64 [ %64, %62 ], [ %66, %65 ]
  br i1 %23, label %72, label %69

69:                                               ; preds = %67
  %70 = getelementptr inbounds nuw i8, ptr %3, i64 %68
  store i32 %22, ptr %70, align 4, !tbaa !5, !noalias !327
  %71 = add nuw nsw i64 %68, 4
  br label %72

72:                                               ; preds = %69, %67
  %73 = phi i64 [ %68, %67 ], [ %71, %69 ]
  br i1 %31, label %77, label %74

74:                                               ; preds = %72
  %75 = getelementptr inbounds nuw i8, ptr %3, i64 %73
  store i32 %30, ptr %75, align 4, !tbaa !5, !noalias !327
  %76 = add nuw nsw i64 %73, 4
  br label %77

77:                                               ; preds = %74, %72
  %78 = phi i64 [ %73, %72 ], [ %76, %74 ]
  br i1 %39, label %82, label %79

79:                                               ; preds = %77
  %80 = getelementptr inbounds nuw i8, ptr %3, i64 %78
  store i32 %38, ptr %80, align 4, !tbaa !5, !noalias !327
  %81 = add nuw nsw i64 %78, 4
  br label %82

82:                                               ; preds = %79, %77
  %83 = phi i64 [ %78, %77 ], [ %81, %79 ]
  br i1 %47, label %87, label %84

84:                                               ; preds = %82
  %85 = getelementptr inbounds nuw i8, ptr %3, i64 %83
  store i32 %46, ptr %85, align 4, !tbaa !5, !noalias !327
  %86 = add nuw nsw i64 %83, 4
  br label %87

87:                                               ; preds = %84, %82
  %88 = phi i64 [ %83, %82 ], [ %86, %84 ]
  %89 = icmp eq i64 %88, 20
  br i1 %89, label %91, label %90

90:                                               ; preds = %87
  tail call void @__assert_fail(ptr noundef nonnull @.str.11, ptr noundef nonnull @.str.4, i32 noundef 129, ptr noundef nonnull @__PRETTY_FUNCTION__._Z4testI20cpp20_input_iteratorIPiE14sized_sentinelIS2_E16forward_iteratorIS1_ELi6ELi5EEv4DataIXT2_EXT3_EE) #7
  unreachable

91:                                               ; preds = %87
  %92 = call i32 @bcmp(ptr noundef nonnull align 4 dereferenceable(20) %53, ptr noundef nonnull align 4 dereferenceable(20) %3, i64 20)
  %93 = icmp eq i32 %92, 0
  br i1 %93, label %95, label %94

94:                                               ; preds = %91
  tail call void @__assert_fail(ptr noundef nonnull @.str.12, ptr noundef nonnull @.str.4, i32 noundef 130, ptr noundef nonnull @__PRETTY_FUNCTION__._Z4testI20cpp20_input_iteratorIPiE14sized_sentinelIS2_E16forward_iteratorIS1_ELi6ELi5EEv4DataIXT2_EXT3_EE) #7
  unreachable

95:                                               ; preds = %91
  call void @llvm.lifetime.end.p0(ptr nonnull %3) #6
  ret void
}

; Function Attrs: mustprogress uwtable
define linkonce_odr dso_local void @_Z4testI20cpp20_input_iteratorIPiE14sized_sentinelIS2_E16forward_iteratorIS1_ELi8ELi5EEv4DataIXT2_EXT3_EE(ptr noundef byval(%struct.Data.11) align 8 %0) local_unnamed_addr #1 comdat personality ptr @__gxx_personality_v0 {
  %2 = alloca %"struct.std::array.3", align 4
  %3 = alloca %"struct.std::array.3", align 4
  call void @llvm.lifetime.start.p0(ptr nonnull %2) #6
  %4 = getelementptr inbounds nuw i8, ptr %0, i64 52
  %5 = load i32, ptr %4, align 4, !tbaa !5, !noalias !332
  %6 = getelementptr inbounds nuw i8, ptr %3, i64 4
  %7 = load i32, ptr %0, align 8, !tbaa !5, !noalias !332
  %8 = icmp eq i32 %7, %5
  br i1 %8, label %11, label %9

9:                                                ; preds = %1
  %10 = getelementptr inbounds nuw i8, ptr %2, i64 4
  store i32 %7, ptr %2, align 4, !tbaa !5, !noalias !332
  br label %11

11:                                               ; preds = %9, %1
  %12 = phi ptr [ %2, %1 ], [ %10, %9 ]
  %13 = phi i64 [ 0, %1 ], [ 4, %9 ]
  %14 = getelementptr inbounds nuw i8, ptr %0, i64 4
  %15 = load i32, ptr %14, align 4, !tbaa !5, !noalias !332
  %16 = icmp eq i32 %15, %5
  br i1 %16, label %19, label %17

17:                                               ; preds = %11
  store i32 %15, ptr %12, align 4, !tbaa !5, !noalias !332
  %18 = add nuw nsw i64 %13, 4
