; ModuleID = '/root/project/RuyiTuner/third_party/train/llvm-project/libcxx/test/std/algorithms/alg.modifying.operations/alg.remove/ranges.remove.pass.cpp'
source_filename = "/root/project/RuyiTuner/third_party/train/llvm-project/libcxx/test/std/algorithms/alg.modifying.operations/alg.remove/ranges.remove.pass.cpp"
target datalayout = "e-m:e-p270:32:32-p271:32:32-p272:64:64-i64:64-i128:128-f80:128-n8:16:32:64-S128"
target triple = "x86_64-unknown-linux-gnu"

%struct.Data = type { %"struct.std::array", %"struct.std::array.3", i32 }
%"struct.std::array" = type { [6 x i32] }
%"struct.std::array.3" = type { [5 x i32] }
%struct.Data.11 = type { %"struct.std::array.3", [4 x i8], i32 }
%struct.Data.12 = type { %"struct.std::array.13", %"struct.std::array.3", i32 }
%"struct.std::array.13" = type { [8 x i32] }

$_Z14test_sentinelsI16forward_iteratorIPiEEvv = comdat any

$_Z14test_sentinelsI22bidirectional_iteratorIPiEEvv = comdat any

$_Z14test_sentinelsI22random_access_iteratorIPiEEvv = comdat any

$_Z14test_sentinelsI19contiguous_iteratorIPiEEvv = comdat any

$_Z14test_sentinelsIPiEvv = comdat any

$_Z4testI16forward_iteratorIPiES2_Li6ELi5EEv4DataIXT1_EXT2_EE = comdat any

$_Z4testI16forward_iteratorIPiES2_Li2ELi1EEv4DataIXT1_EXT2_EE = comdat any

$_Z4testI16forward_iteratorIPiES2_Li5ELi0EEv4DataIXT1_EXT2_EE = comdat any

$_Z4testI16forward_iteratorIPiES2_Li8ELi5EEv4DataIXT1_EXT2_EE = comdat any

$_Z4testI16forward_iteratorIPiE16sentinel_wrapperIS2_ELi6ELi5EEv4DataIXT1_EXT2_EE = comdat any

$_Z4testI16forward_iteratorIPiE16sentinel_wrapperIS2_ELi2ELi1EEv4DataIXT1_EXT2_EE = comdat any

$_Z4testI16forward_iteratorIPiE16sentinel_wrapperIS2_ELi5ELi0EEv4DataIXT1_EXT2_EE = comdat any

$_Z4testI16forward_iteratorIPiE16sentinel_wrapperIS2_ELi8ELi5EEv4DataIXT1_EXT2_EE = comdat any

$_Z4testI16forward_iteratorIPiE14sized_sentinelIS2_ELi6ELi5EEv4DataIXT1_EXT2_EE = comdat any

$_Z4testI16forward_iteratorIPiE14sized_sentinelIS2_ELi2ELi1EEv4DataIXT1_EXT2_EE = comdat any

$_Z4testI16forward_iteratorIPiE14sized_sentinelIS2_ELi5ELi0EEv4DataIXT1_EXT2_EE = comdat any

$_Z4testI16forward_iteratorIPiE14sized_sentinelIS2_ELi8ELi5EEv4DataIXT1_EXT2_EE = comdat any

$_Z4testI22bidirectional_iteratorIPiES2_Li6ELi5EEv4DataIXT1_EXT2_EE = comdat any

$_Z4testI22bidirectional_iteratorIPiES2_Li2ELi1EEv4DataIXT1_EXT2_EE = comdat any

$_Z4testI22bidirectional_iteratorIPiES2_Li5ELi0EEv4DataIXT1_EXT2_EE = comdat any

$_Z4testI22bidirectional_iteratorIPiES2_Li8ELi5EEv4DataIXT1_EXT2_EE = comdat any

$_Z4testI22bidirectional_iteratorIPiE16sentinel_wrapperIS2_ELi6ELi5EEv4DataIXT1_EXT2_EE = comdat any

$_Z4testI22bidirectional_iteratorIPiE16sentinel_wrapperIS2_ELi2ELi1EEv4DataIXT1_EXT2_EE = comdat any

$_Z4testI22bidirectional_iteratorIPiE16sentinel_wrapperIS2_ELi5ELi0EEv4DataIXT1_EXT2_EE = comdat any

$_Z4testI22bidirectional_iteratorIPiE16sentinel_wrapperIS2_ELi8ELi5EEv4DataIXT1_EXT2_EE = comdat any

$_Z4testI22bidirectional_iteratorIPiE14sized_sentinelIS2_ELi6ELi5EEv4DataIXT1_EXT2_EE = comdat any

$_Z4testI22bidirectional_iteratorIPiE14sized_sentinelIS2_ELi2ELi1EEv4DataIXT1_EXT2_EE = comdat any

$_Z4testI22bidirectional_iteratorIPiE14sized_sentinelIS2_ELi5ELi0EEv4DataIXT1_EXT2_EE = comdat any

$_Z4testI22bidirectional_iteratorIPiE14sized_sentinelIS2_ELi8ELi5EEv4DataIXT1_EXT2_EE = comdat any

$_Z4testI22random_access_iteratorIPiES2_Li6ELi5EEv4DataIXT1_EXT2_EE = comdat any

$_Z4testI22random_access_iteratorIPiES2_Li2ELi1EEv4DataIXT1_EXT2_EE = comdat any

$_Z4testI22random_access_iteratorIPiES2_Li5ELi0EEv4DataIXT1_EXT2_EE = comdat any

$_Z4testI22random_access_iteratorIPiES2_Li8ELi5EEv4DataIXT1_EXT2_EE = comdat any

$_Z4testI22random_access_iteratorIPiE16sentinel_wrapperIS2_ELi6ELi5EEv4DataIXT1_EXT2_EE = comdat any

$_Z4testI22random_access_iteratorIPiE16sentinel_wrapperIS2_ELi2ELi1EEv4DataIXT1_EXT2_EE = comdat any

$_Z4testI22random_access_iteratorIPiE16sentinel_wrapperIS2_ELi5ELi0EEv4DataIXT1_EXT2_EE = comdat any

$_Z4testI22random_access_iteratorIPiE16sentinel_wrapperIS2_ELi8ELi5EEv4DataIXT1_EXT2_EE = comdat any

$_Z4testI22random_access_iteratorIPiE14sized_sentinelIS2_ELi6ELi5EEv4DataIXT1_EXT2_EE = comdat any

$_Z4testI22random_access_iteratorIPiE14sized_sentinelIS2_ELi2ELi1EEv4DataIXT1_EXT2_EE = comdat any

$_Z4testI22random_access_iteratorIPiE14sized_sentinelIS2_ELi5ELi0EEv4DataIXT1_EXT2_EE = comdat any

$_Z4testI22random_access_iteratorIPiE14sized_sentinelIS2_ELi8ELi5EEv4DataIXT1_EXT2_EE = comdat any

$_Z4testI19contiguous_iteratorIPiES2_Li6ELi5EEv4DataIXT1_EXT2_EE = comdat any

$_Z4testI19contiguous_iteratorIPiES2_Li2ELi1EEv4DataIXT1_EXT2_EE = comdat any

$_Z4testI19contiguous_iteratorIPiES2_Li5ELi0EEv4DataIXT1_EXT2_EE = comdat any

$_Z4testI19contiguous_iteratorIPiES2_Li8ELi5EEv4DataIXT1_EXT2_EE = comdat any

$_Z4testI19contiguous_iteratorIPiE16sentinel_wrapperIS2_ELi6ELi5EEv4DataIXT1_EXT2_EE = comdat any

$_Z4testI19contiguous_iteratorIPiE16sentinel_wrapperIS2_ELi2ELi1EEv4DataIXT1_EXT2_EE = comdat any

$_Z4testI19contiguous_iteratorIPiE16sentinel_wrapperIS2_ELi5ELi0EEv4DataIXT1_EXT2_EE = comdat any

$_Z4testI19contiguous_iteratorIPiE16sentinel_wrapperIS2_ELi8ELi5EEv4DataIXT1_EXT2_EE = comdat any

$_Z4testI19contiguous_iteratorIPiE14sized_sentinelIS2_ELi6ELi5EEv4DataIXT1_EXT2_EE = comdat any

$_Z4testI19contiguous_iteratorIPiE14sized_sentinelIS2_ELi2ELi1EEv4DataIXT1_EXT2_EE = comdat any

$_Z4testI19contiguous_iteratorIPiE14sized_sentinelIS2_ELi5ELi0EEv4DataIXT1_EXT2_EE = comdat any

$_Z4testI19contiguous_iteratorIPiE14sized_sentinelIS2_ELi8ELi5EEv4DataIXT1_EXT2_EE = comdat any

$_Z4testIPiS0_Li6ELi5EEv4DataIXT1_EXT2_EE = comdat any

$_Z4testIPiS0_Li2ELi1EEv4DataIXT1_EXT2_EE = comdat any

$_Z4testIPiS0_Li5ELi0EEv4DataIXT1_EXT2_EE = comdat any

$_Z4testIPiS0_Li8ELi5EEv4DataIXT1_EXT2_EE = comdat any

$_Z4testIPi16sentinel_wrapperIS0_ELi6ELi5EEv4DataIXT1_EXT2_EE = comdat any

$_Z4testIPi16sentinel_wrapperIS0_ELi2ELi1EEv4DataIXT1_EXT2_EE = comdat any

$_Z4testIPi16sentinel_wrapperIS0_ELi5ELi0EEv4DataIXT1_EXT2_EE = comdat any

$_Z4testIPi16sentinel_wrapperIS0_ELi8ELi5EEv4DataIXT1_EXT2_EE = comdat any

$_Z4testIPi14sized_sentinelIS0_ELi6ELi5EEv4DataIXT1_EXT2_EE = comdat any

$_Z4testIPi14sized_sentinelIS0_ELi2ELi1EEv4DataIXT1_EXT2_EE = comdat any

$_Z4testIPi14sized_sentinelIS0_ELi5ELi0EEv4DataIXT1_EXT2_EE = comdat any

$_Z4testIPi14sized_sentinelIS0_ELi8ELi5EEv4DataIXT1_EXT2_EE = comdat any

@.str.1 = private unnamed_addr constant [141 x i8] c"/root/project/RuyiTuner/third_party/train/llvm-project/libcxx/test/std/algorithms/alg.modifying.operations/alg.remove/ranges.remove.pass.cpp\00", align 1
@.str.11 = private unnamed_addr constant [38 x i8] c"base(ret.begin()) == input.data() + M\00", align 1
@__PRETTY_FUNCTION__._Z4testI16forward_iteratorIPiES2_Li6ELi5EEv4DataIXT1_EXT2_EE = private unnamed_addr constant [101 x i8] c"void test(Data<N, M>) [Iter = forward_iterator<int *>, Sent = forward_iterator<int *>, N = 6, M = 5]\00", align 1
@.str.13 = private unnamed_addr constant [90 x i8] c"std::ranges::equal(input.data(), base(ret.begin()), d.expected.begin(), d.expected.end())\00", align 1
@__PRETTY_FUNCTION__._Z4testI16forward_iteratorIPiES2_Li2ELi1EEv4DataIXT1_EXT2_EE = private unnamed_addr constant [101 x i8] c"void test(Data<N, M>) [Iter = forward_iterator<int *>, Sent = forward_iterator<int *>, N = 2, M = 1]\00", align 1
@__PRETTY_FUNCTION__._Z4testI16forward_iteratorIPiES2_Li5ELi0EEv4DataIXT1_EXT2_EE = private unnamed_addr constant [101 x i8] c"void test(Data<N, M>) [Iter = forward_iterator<int *>, Sent = forward_iterator<int *>, N = 5, M = 0]\00", align 1
@__PRETTY_FUNCTION__._Z4testI16forward_iteratorIPiES2_Li8ELi5EEv4DataIXT1_EXT2_EE = private unnamed_addr constant [101 x i8] c"void test(Data<N, M>) [Iter = forward_iterator<int *>, Sent = forward_iterator<int *>, N = 8, M = 5]\00", align 1
@__PRETTY_FUNCTION__._Z4testI16forward_iteratorIPiE16sentinel_wrapperIS2_ELi6ELi5EEv4DataIXT1_EXT2_EE = private unnamed_addr constant [119 x i8] c"void test(Data<N, M>) [Iter = forward_iterator<int *>, Sent = sentinel_wrapper<forward_iterator<int *>>, N = 6, M = 5]\00", align 1
@__PRETTY_FUNCTION__._Z4testI16forward_iteratorIPiE16sentinel_wrapperIS2_ELi2ELi1EEv4DataIXT1_EXT2_EE = private unnamed_addr constant [119 x i8] c"void test(Data<N, M>) [Iter = forward_iterator<int *>, Sent = sentinel_wrapper<forward_iterator<int *>>, N = 2, M = 1]\00", align 1
@__PRETTY_FUNCTION__._Z4testI16forward_iteratorIPiE16sentinel_wrapperIS2_ELi5ELi0EEv4DataIXT1_EXT2_EE = private unnamed_addr constant [119 x i8] c"void test(Data<N, M>) [Iter = forward_iterator<int *>, Sent = sentinel_wrapper<forward_iterator<int *>>, N = 5, M = 0]\00", align 1
@__PRETTY_FUNCTION__._Z4testI16forward_iteratorIPiE16sentinel_wrapperIS2_ELi8ELi5EEv4DataIXT1_EXT2_EE = private unnamed_addr constant [119 x i8] c"void test(Data<N, M>) [Iter = forward_iterator<int *>, Sent = sentinel_wrapper<forward_iterator<int *>>, N = 8, M = 5]\00", align 1
@__PRETTY_FUNCTION__._Z4testI16forward_iteratorIPiE14sized_sentinelIS2_ELi6ELi5EEv4DataIXT1_EXT2_EE = private unnamed_addr constant [117 x i8] c"void test(Data<N, M>) [Iter = forward_iterator<int *>, Sent = sized_sentinel<forward_iterator<int *>>, N = 6, M = 5]\00", align 1
@__PRETTY_FUNCTION__._Z4testI16forward_iteratorIPiE14sized_sentinelIS2_ELi2ELi1EEv4DataIXT1_EXT2_EE = private unnamed_addr constant [117 x i8] c"void test(Data<N, M>) [Iter = forward_iterator<int *>, Sent = sized_sentinel<forward_iterator<int *>>, N = 2, M = 1]\00", align 1
@__PRETTY_FUNCTION__._Z4testI16forward_iteratorIPiE14sized_sentinelIS2_ELi5ELi0EEv4DataIXT1_EXT2_EE = private unnamed_addr constant [117 x i8] c"void test(Data<N, M>) [Iter = forward_iterator<int *>, Sent = sized_sentinel<forward_iterator<int *>>, N = 5, M = 0]\00", align 1
@__PRETTY_FUNCTION__._Z4testI16forward_iteratorIPiE14sized_sentinelIS2_ELi8ELi5EEv4DataIXT1_EXT2_EE = private unnamed_addr constant [117 x i8] c"void test(Data<N, M>) [Iter = forward_iterator<int *>, Sent = sized_sentinel<forward_iterator<int *>>, N = 8, M = 5]\00", align 1
@__PRETTY_FUNCTION__._Z4testI22bidirectional_iteratorIPiES2_Li6ELi5EEv4DataIXT1_EXT2_EE = private unnamed_addr constant [113 x i8] c"void test(Data<N, M>) [Iter = bidirectional_iterator<int *>, Sent = bidirectional_iterator<int *>, N = 6, M = 5]\00", align 1
@__PRETTY_FUNCTION__._Z4testI22bidirectional_iteratorIPiES2_Li2ELi1EEv4DataIXT1_EXT2_EE = private unnamed_addr constant [113 x i8] c"void test(Data<N, M>) [Iter = bidirectional_iterator<int *>, Sent = bidirectional_iterator<int *>, N = 2, M = 1]\00", align 1
@__PRETTY_FUNCTION__._Z4testI22bidirectional_iteratorIPiES2_Li5ELi0EEv4DataIXT1_EXT2_EE = private unnamed_addr constant [113 x i8] c"void test(Data<N, M>) [Iter = bidirectional_iterator<int *>, Sent = bidirectional_iterator<int *>, N = 5, M = 0]\00", align 1
@__PRETTY_FUNCTION__._Z4testI22bidirectional_iteratorIPiES2_Li8ELi5EEv4DataIXT1_EXT2_EE = private unnamed_addr constant [113 x i8] c"void test(Data<N, M>) [Iter = bidirectional_iterator<int *>, Sent = bidirectional_iterator<int *>, N = 8, M = 5]\00", align 1
@__PRETTY_FUNCTION__._Z4testI22bidirectional_iteratorIPiE16sentinel_wrapperIS2_ELi6ELi5EEv4DataIXT1_EXT2_EE = private unnamed_addr constant [131 x i8] c"void test(Data<N, M>) [Iter = bidirectional_iterator<int *>, Sent = sentinel_wrapper<bidirectional_iterator<int *>>, N = 6, M = 5]\00", align 1
@__PRETTY_FUNCTION__._Z4testI22bidirectional_iteratorIPiE16sentinel_wrapperIS2_ELi2ELi1EEv4DataIXT1_EXT2_EE = private unnamed_addr constant [131 x i8] c"void test(Data<N, M>) [Iter = bidirectional_iterator<int *>, Sent = sentinel_wrapper<bidirectional_iterator<int *>>, N = 2, M = 1]\00", align 1
@__PRETTY_FUNCTION__._Z4testI22bidirectional_iteratorIPiE16sentinel_wrapperIS2_ELi5ELi0EEv4DataIXT1_EXT2_EE = private unnamed_addr constant [131 x i8] c"void test(Data<N, M>) [Iter = bidirectional_iterator<int *>, Sent = sentinel_wrapper<bidirectional_iterator<int *>>, N = 5, M = 0]\00", align 1
@__PRETTY_FUNCTION__._Z4testI22bidirectional_iteratorIPiE16sentinel_wrapperIS2_ELi8ELi5EEv4DataIXT1_EXT2_EE = private unnamed_addr constant [131 x i8] c"void test(Data<N, M>) [Iter = bidirectional_iterator<int *>, Sent = sentinel_wrapper<bidirectional_iterator<int *>>, N = 8, M = 5]\00", align 1
@__PRETTY_FUNCTION__._Z4testI22bidirectional_iteratorIPiE14sized_sentinelIS2_ELi6ELi5EEv4DataIXT1_EXT2_EE = private unnamed_addr constant [129 x i8] c"void test(Data<N, M>) [Iter = bidirectional_iterator<int *>, Sent = sized_sentinel<bidirectional_iterator<int *>>, N = 6, M = 5]\00", align 1
@__PRETTY_FUNCTION__._Z4testI22bidirectional_iteratorIPiE14sized_sentinelIS2_ELi2ELi1EEv4DataIXT1_EXT2_EE = private unnamed_addr constant [129 x i8] c"void test(Data<N, M>) [Iter = bidirectional_iterator<int *>, Sent = sized_sentinel<bidirectional_iterator<int *>>, N = 2, M = 1]\00", align 1
@__PRETTY_FUNCTION__._Z4testI22bidirectional_iteratorIPiE14sized_sentinelIS2_ELi5ELi0EEv4DataIXT1_EXT2_EE = private unnamed_addr constant [129 x i8] c"void test(Data<N, M>) [Iter = bidirectional_iterator<int *>, Sent = sized_sentinel<bidirectional_iterator<int *>>, N = 5, M = 0]\00", align 1
@__PRETTY_FUNCTION__._Z4testI22bidirectional_iteratorIPiE14sized_sentinelIS2_ELi8ELi5EEv4DataIXT1_EXT2_EE = private unnamed_addr constant [129 x i8] c"void test(Data<N, M>) [Iter = bidirectional_iterator<int *>, Sent = sized_sentinel<bidirectional_iterator<int *>>, N = 8, M = 5]\00", align 1
@__PRETTY_FUNCTION__._Z4testI22random_access_iteratorIPiES2_Li6ELi5EEv4DataIXT1_EXT2_EE = private unnamed_addr constant [113 x i8] c"void test(Data<N, M>) [Iter = random_access_iterator<int *>, Sent = random_access_iterator<int *>, N = 6, M = 5]\00", align 1
@__PRETTY_FUNCTION__._Z4testI22random_access_iteratorIPiES2_Li2ELi1EEv4DataIXT1_EXT2_EE = private unnamed_addr constant [113 x i8] c"void test(Data<N, M>) [Iter = random_access_iterator<int *>, Sent = random_access_iterator<int *>, N = 2, M = 1]\00", align 1
@__PRETTY_FUNCTION__._Z4testI22random_access_iteratorIPiES2_Li5ELi0EEv4DataIXT1_EXT2_EE = private unnamed_addr constant [113 x i8] c"void test(Data<N, M>) [Iter = random_access_iterator<int *>, Sent = random_access_iterator<int *>, N = 5, M = 0]\00", align 1
@__PRETTY_FUNCTION__._Z4testI22random_access_iteratorIPiES2_Li8ELi5EEv4DataIXT1_EXT2_EE = private unnamed_addr constant [113 x i8] c"void test(Data<N, M>) [Iter = random_access_iterator<int *>, Sent = random_access_iterator<int *>, N = 8, M = 5]\00", align 1
@__PRETTY_FUNCTION__._Z4testI22random_access_iteratorIPiE16sentinel_wrapperIS2_ELi6ELi5EEv4DataIXT1_EXT2_EE = private unnamed_addr constant [131 x i8] c"void test(Data<N, M>) [Iter = random_access_iterator<int *>, Sent = sentinel_wrapper<random_access_iterator<int *>>, N = 6, M = 5]\00", align 1
@__PRETTY_FUNCTION__._Z4testI22random_access_iteratorIPiE16sentinel_wrapperIS2_ELi2ELi1EEv4DataIXT1_EXT2_EE = private unnamed_addr constant [131 x i8] c"void test(Data<N, M>) [Iter = random_access_iterator<int *>, Sent = sentinel_wrapper<random_access_iterator<int *>>, N = 2, M = 1]\00", align 1
@__PRETTY_FUNCTION__._Z4testI22random_access_iteratorIPiE16sentinel_wrapperIS2_ELi5ELi0EEv4DataIXT1_EXT2_EE = private unnamed_addr constant [131 x i8] c"void test(Data<N, M>) [Iter = random_access_iterator<int *>, Sent = sentinel_wrapper<random_access_iterator<int *>>, N = 5, M = 0]\00", align 1
@__PRETTY_FUNCTION__._Z4testI22random_access_iteratorIPiE16sentinel_wrapperIS2_ELi8ELi5EEv4DataIXT1_EXT2_EE = private unnamed_addr constant [131 x i8] c"void test(Data<N, M>) [Iter = random_access_iterator<int *>, Sent = sentinel_wrapper<random_access_iterator<int *>>, N = 8, M = 5]\00", align 1
@__PRETTY_FUNCTION__._Z4testI22random_access_iteratorIPiE14sized_sentinelIS2_ELi6ELi5EEv4DataIXT1_EXT2_EE = private unnamed_addr constant [129 x i8] c"void test(Data<N, M>) [Iter = random_access_iterator<int *>, Sent = sized_sentinel<random_access_iterator<int *>>, N = 6, M = 5]\00", align 1
@__PRETTY_FUNCTION__._Z4testI22random_access_iteratorIPiE14sized_sentinelIS2_ELi2ELi1EEv4DataIXT1_EXT2_EE = private unnamed_addr constant [129 x i8] c"void test(Data<N, M>) [Iter = random_access_iterator<int *>, Sent = sized_sentinel<random_access_iterator<int *>>, N = 2, M = 1]\00", align 1
@__PRETTY_FUNCTION__._Z4testI22random_access_iteratorIPiE14sized_sentinelIS2_ELi5ELi0EEv4DataIXT1_EXT2_EE = private unnamed_addr constant [129 x i8] c"void test(Data<N, M>) [Iter = random_access_iterator<int *>, Sent = sized_sentinel<random_access_iterator<int *>>, N = 5, M = 0]\00", align 1
@__PRETTY_FUNCTION__._Z4testI22random_access_iteratorIPiE14sized_sentinelIS2_ELi8ELi5EEv4DataIXT1_EXT2_EE = private unnamed_addr constant [129 x i8] c"void test(Data<N, M>) [Iter = random_access_iterator<int *>, Sent = sized_sentinel<random_access_iterator<int *>>, N = 8, M = 5]\00", align 1
@__PRETTY_FUNCTION__._Z4testI19contiguous_iteratorIPiES2_Li6ELi5EEv4DataIXT1_EXT2_EE = private unnamed_addr constant [107 x i8] c"void test(Data<N, M>) [Iter = contiguous_iterator<int *>, Sent = contiguous_iterator<int *>, N = 6, M = 5]\00", align 1
@__PRETTY_FUNCTION__._Z4testI19contiguous_iteratorIPiES2_Li2ELi1EEv4DataIXT1_EXT2_EE = private unnamed_addr constant [107 x i8] c"void test(Data<N, M>) [Iter = contiguous_iterator<int *>, Sent = contiguous_iterator<int *>, N = 2, M = 1]\00", align 1
@__PRETTY_FUNCTION__._Z4testI19contiguous_iteratorIPiES2_Li5ELi0EEv4DataIXT1_EXT2_EE = private unnamed_addr constant [107 x i8] c"void test(Data<N, M>) [Iter = contiguous_iterator<int *>, Sent = contiguous_iterator<int *>, N = 5, M = 0]\00", align 1
@__PRETTY_FUNCTION__._Z4testI19contiguous_iteratorIPiES2_Li8ELi5EEv4DataIXT1_EXT2_EE = private unnamed_addr constant [107 x i8] c"void test(Data<N, M>) [Iter = contiguous_iterator<int *>, Sent = contiguous_iterator<int *>, N = 8, M = 5]\00", align 1
@__PRETTY_FUNCTION__._Z4testI19contiguous_iteratorIPiE16sentinel_wrapperIS2_ELi6ELi5EEv4DataIXT1_EXT2_EE = private unnamed_addr constant [125 x i8] c"void test(Data<N, M>) [Iter = contiguous_iterator<int *>, Sent = sentinel_wrapper<contiguous_iterator<int *>>, N = 6, M = 5]\00", align 1
@__PRETTY_FUNCTION__._Z4testI19contiguous_iteratorIPiE16sentinel_wrapperIS2_ELi2ELi1EEv4DataIXT1_EXT2_EE = private unnamed_addr constant [125 x i8] c"void test(Data<N, M>) [Iter = contiguous_iterator<int *>, Sent = sentinel_wrapper<contiguous_iterator<int *>>, N = 2, M = 1]\00", align 1
@__PRETTY_FUNCTION__._Z4testI19contiguous_iteratorIPiE16sentinel_wrapperIS2_ELi5ELi0EEv4DataIXT1_EXT2_EE = private unnamed_addr constant [125 x i8] c"void test(Data<N, M>) [Iter = contiguous_iterator<int *>, Sent = sentinel_wrapper<contiguous_iterator<int *>>, N = 5, M = 0]\00", align 1
@__PRETTY_FUNCTION__._Z4testI19contiguous_iteratorIPiE16sentinel_wrapperIS2_ELi8ELi5EEv4DataIXT1_EXT2_EE = private unnamed_addr constant [125 x i8] c"void test(Data<N, M>) [Iter = contiguous_iterator<int *>, Sent = sentinel_wrapper<contiguous_iterator<int *>>, N = 8, M = 5]\00", align 1
@__PRETTY_FUNCTION__._Z4testI19contiguous_iteratorIPiE14sized_sentinelIS2_ELi6ELi5EEv4DataIXT1_EXT2_EE = private unnamed_addr constant [123 x i8] c"void test(Data<N, M>) [Iter = contiguous_iterator<int *>, Sent = sized_sentinel<contiguous_iterator<int *>>, N = 6, M = 5]\00", align 1
@__PRETTY_FUNCTION__._Z4testI19contiguous_iteratorIPiE14sized_sentinelIS2_ELi2ELi1EEv4DataIXT1_EXT2_EE = private unnamed_addr constant [123 x i8] c"void test(Data<N, M>) [Iter = contiguous_iterator<int *>, Sent = sized_sentinel<contiguous_iterator<int *>>, N = 2, M = 1]\00", align 1
@__PRETTY_FUNCTION__._Z4testI19contiguous_iteratorIPiE14sized_sentinelIS2_ELi5ELi0EEv4DataIXT1_EXT2_EE = private unnamed_addr constant [123 x i8] c"void test(Data<N, M>) [Iter = contiguous_iterator<int *>, Sent = sized_sentinel<contiguous_iterator<int *>>, N = 5, M = 0]\00", align 1
@__PRETTY_FUNCTION__._Z4testI19contiguous_iteratorIPiE14sized_sentinelIS2_ELi8ELi5EEv4DataIXT1_EXT2_EE = private unnamed_addr constant [123 x i8] c"void test(Data<N, M>) [Iter = contiguous_iterator<int *>, Sent = sized_sentinel<contiguous_iterator<int *>>, N = 8, M = 5]\00", align 1
@__PRETTY_FUNCTION__._Z4testIPiS0_Li6ELi5EEv4DataIXT1_EXT2_EE = private unnamed_addr constant [65 x i8] c"void test(Data<N, M>) [Iter = int *, Sent = int *, N = 6, M = 5]\00", align 1
@__PRETTY_FUNCTION__._Z4testIPiS0_Li2ELi1EEv4DataIXT1_EXT2_EE = private unnamed_addr constant [65 x i8] c"void test(Data<N, M>) [Iter = int *, Sent = int *, N = 2, M = 1]\00", align 1
@__PRETTY_FUNCTION__._Z4testIPiS0_Li5ELi0EEv4DataIXT1_EXT2_EE = private unnamed_addr constant [65 x i8] c"void test(Data<N, M>) [Iter = int *, Sent = int *, N = 5, M = 0]\00", align 1
@__PRETTY_FUNCTION__._Z4testIPiS0_Li8ELi5EEv4DataIXT1_EXT2_EE = private unnamed_addr constant [65 x i8] c"void test(Data<N, M>) [Iter = int *, Sent = int *, N = 8, M = 5]\00", align 1
@__PRETTY_FUNCTION__._Z4testIPi16sentinel_wrapperIS0_ELi6ELi5EEv4DataIXT1_EXT2_EE = private unnamed_addr constant [83 x i8] c"void test(Data<N, M>) [Iter = int *, Sent = sentinel_wrapper<int *>, N = 6, M = 5]\00", align 1
@__PRETTY_FUNCTION__._Z4testIPi16sentinel_wrapperIS0_ELi2ELi1EEv4DataIXT1_EXT2_EE = private unnamed_addr constant [83 x i8] c"void test(Data<N, M>) [Iter = int *, Sent = sentinel_wrapper<int *>, N = 2, M = 1]\00", align 1
@__PRETTY_FUNCTION__._Z4testIPi16sentinel_wrapperIS0_ELi5ELi0EEv4DataIXT1_EXT2_EE = private unnamed_addr constant [83 x i8] c"void test(Data<N, M>) [Iter = int *, Sent = sentinel_wrapper<int *>, N = 5, M = 0]\00", align 1
@__PRETTY_FUNCTION__._Z4testIPi16sentinel_wrapperIS0_ELi8ELi5EEv4DataIXT1_EXT2_EE = private unnamed_addr constant [83 x i8] c"void test(Data<N, M>) [Iter = int *, Sent = sentinel_wrapper<int *>, N = 8, M = 5]\00", align 1
@constinit.81 = private unnamed_addr constant [6 x i32] [i32 1, i32 2, i32 3, i32 4, i32 5, i32 6], align 4
@constinit.82 = private unnamed_addr constant [5 x i32] [i32 1, i32 2, i32 3, i32 4, i32 6], align 4
@constinit.83 = private unnamed_addr constant [5 x i32] [i32 1, i32 1, i32 1, i32 1, i32 1], align 4
@constinit.84 = private unnamed_addr constant [8 x i32] [i32 1, i32 2, i32 3, i32 2, i32 3, i32 4, i32 2, i32 5], align 4
@constinit.85 = private unnamed_addr constant [5 x i32] [i32 1, i32 3, i32 3, i32 4, i32 5], align 4
@__PRETTY_FUNCTION__._Z4testIPi14sized_sentinelIS0_ELi6ELi5EEv4DataIXT1_EXT2_EE = private unnamed_addr constant [81 x i8] c"void test(Data<N, M>) [Iter = int *, Sent = sized_sentinel<int *>, N = 6, M = 5]\00", align 1
@__PRETTY_FUNCTION__._Z4testIPi14sized_sentinelIS0_ELi2ELi1EEv4DataIXT1_EXT2_EE = private unnamed_addr constant [81 x i8] c"void test(Data<N, M>) [Iter = int *, Sent = sized_sentinel<int *>, N = 2, M = 1]\00", align 1
@__PRETTY_FUNCTION__._Z4testIPi14sized_sentinelIS0_ELi5ELi0EEv4DataIXT1_EXT2_EE = private unnamed_addr constant [81 x i8] c"void test(Data<N, M>) [Iter = int *, Sent = sized_sentinel<int *>, N = 5, M = 0]\00", align 1
@__PRETTY_FUNCTION__._Z4testIPi14sized_sentinelIS0_ELi8ELi5EEv4DataIXT1_EXT2_EE = private unnamed_addr constant [81 x i8] c"void test(Data<N, M>) [Iter = int *, Sent = sized_sentinel<int *>, N = 8, M = 5]\00", align 1

; Function Attrs: mustprogress norecurse uwtable
define dso_local noundef i32 @main(i32 noundef %0, ptr noundef readnone captures(none) %1) local_unnamed_addr #0 personality ptr @__gxx_personality_v0 {
  tail call void @_Z14test_sentinelsI16forward_iteratorIPiEEvv()
  tail call void @_Z14test_sentinelsI22bidirectional_iteratorIPiEEvv()
  tail call void @_Z14test_sentinelsI22random_access_iteratorIPiEEvv()
  tail call void @_Z14test_sentinelsI19contiguous_iteratorIPiEEvv()
  tail call void @_Z14test_sentinelsIPiEvv()
  ret i32 0
}

; Function Attrs: mustprogress nocallback nofree nosync nounwind willreturn memory(argmem: readwrite)
declare void @llvm.lifetime.start.p0(ptr captures(none)) #1

; Function Attrs: mustprogress nocallback nofree nounwind willreturn memory(argmem: readwrite)
declare void @llvm.memcpy.p0.p0.i64(ptr noalias writeonly captures(none), ptr noalias readonly captures(none), i64, i1 immarg) #2

; Function Attrs: mustprogress nocallback nofree nosync nounwind willreturn memory(argmem: readwrite)
declare void @llvm.lifetime.end.p0(ptr captures(none)) #1

; Function Attrs: noreturn nounwind
declare void @__assert_fail(ptr noundef, ptr noundef, i32 noundef, ptr noundef) local_unnamed_addr #3

; Function Attrs: mustprogress uwtable
define linkonce_odr dso_local void @_Z14test_sentinelsI16forward_iteratorIPiEEvv() local_unnamed_addr #4 comdat personality ptr @__gxx_personality_v0 {
  %1 = alloca %struct.Data, align 8
  %2 = alloca %struct.Data.11, align 8
  %3 = alloca %struct.Data.12, align 8
  %4 = alloca %struct.Data, align 8
  %5 = alloca %struct.Data.11, align 8
  %6 = alloca %struct.Data.12, align 8
  %7 = alloca %struct.Data, align 8
  %8 = alloca %struct.Data.11, align 8
  %9 = alloca %struct.Data.12, align 8
  call void @llvm.lifetime.start.p0(ptr nonnull %7)
  call void @llvm.lifetime.start.p0(ptr nonnull %8)
  call void @llvm.lifetime.start.p0(ptr nonnull %9)
  call void @llvm.memcpy.p0.p0.i64(ptr noundef nonnull align 8 dereferenceable(24) %7, ptr noundef nonnull align 4 dereferenceable(24) @constinit.81, i64 24, i1 false), !tbaa.struct !5
  %10 = getelementptr inbounds nuw i8, ptr %7, i64 24
  call void @llvm.memcpy.p0.p0.i64(ptr noundef nonnull align 8 dereferenceable(20) %10, ptr noundef nonnull align 4 dereferenceable(20) @constinit.82, i64 20, i1 false), !tbaa.struct !9
  %11 = getelementptr inbounds nuw i8, ptr %7, i64 44
  store i32 5, ptr %11, align 4, !tbaa !10
  tail call void @_Z4testI16forward_iteratorIPiES2_Li6ELi5EEv4DataIXT1_EXT2_EE(ptr noundef nonnull byval(%struct.Data) align 8 %7)
  tail call void @_Z4testI16forward_iteratorIPiES2_Li2ELi1EEv4DataIXT1_EXT2_EE(i64 8589934593, i64 4294967298)
  call void @llvm.memcpy.p0.p0.i64(ptr noundef nonnull align 8 dereferenceable(20) %8, ptr noundef nonnull align 4 dereferenceable(20) @constinit.83, i64 20, i1 false), !tbaa.struct !9
  %12 = getelementptr inbounds nuw i8, ptr %8, i64 24
  store i32 1, ptr %12, align 8, !tbaa !15
  tail call void @_Z4testI16forward_iteratorIPiES2_Li5ELi0EEv4DataIXT1_EXT2_EE(ptr noundef nonnull byval(%struct.Data.11) align 8 %8)
  call void @llvm.memcpy.p0.p0.i64(ptr noundef nonnull align 8 dereferenceable(32) %9, ptr noundef nonnull align 4 dereferenceable(32) @constinit.84, i64 32, i1 false), !tbaa.struct !19
  %13 = getelementptr inbounds nuw i8, ptr %9, i64 32
  call void @llvm.memcpy.p0.p0.i64(ptr noundef nonnull align 8 dereferenceable(20) %13, ptr noundef nonnull align 4 dereferenceable(20) @constinit.85, i64 20, i1 false), !tbaa.struct !9
  %14 = getelementptr inbounds nuw i8, ptr %9, i64 52
  store i32 2, ptr %14, align 4, !tbaa !20
  tail call void @_Z4testI16forward_iteratorIPiES2_Li8ELi5EEv4DataIXT1_EXT2_EE(ptr noundef nonnull byval(%struct.Data.12) align 8 %9)
  call void @llvm.lifetime.end.p0(ptr nonnull %7)
  call void @llvm.lifetime.end.p0(ptr nonnull %8)
  call void @llvm.lifetime.end.p0(ptr nonnull %9)
  call void @llvm.lifetime.start.p0(ptr nonnull %4)
  call void @llvm.lifetime.start.p0(ptr nonnull %5)
  call void @llvm.lifetime.start.p0(ptr nonnull %6)
  call void @llvm.memcpy.p0.p0.i64(ptr noundef nonnull align 8 dereferenceable(24) %4, ptr noundef nonnull align 4 dereferenceable(24) @constinit.81, i64 24, i1 false), !tbaa.struct !5
  %15 = getelementptr inbounds nuw i8, ptr %4, i64 24
  call void @llvm.memcpy.p0.p0.i64(ptr noundef nonnull align 8 dereferenceable(20) %15, ptr noundef nonnull align 4 dereferenceable(20) @constinit.82, i64 20, i1 false), !tbaa.struct !9
  %16 = getelementptr inbounds nuw i8, ptr %4, i64 44
  store i32 5, ptr %16, align 4, !tbaa !10
  tail call void @_Z4testI16forward_iteratorIPiE16sentinel_wrapperIS2_ELi6ELi5EEv4DataIXT1_EXT2_EE(ptr noundef nonnull byval(%struct.Data) align 8 %4)
  tail call void @_Z4testI16forward_iteratorIPiE16sentinel_wrapperIS2_ELi2ELi1EEv4DataIXT1_EXT2_EE(i64 8589934593, i64 4294967298)
  call void @llvm.memcpy.p0.p0.i64(ptr noundef nonnull align 8 dereferenceable(20) %5, ptr noundef nonnull align 4 dereferenceable(20) @constinit.83, i64 20, i1 false), !tbaa.struct !9
  %17 = getelementptr inbounds nuw i8, ptr %5, i64 24
  store i32 1, ptr %17, align 8, !tbaa !15
  tail call void @_Z4testI16forward_iteratorIPiE16sentinel_wrapperIS2_ELi5ELi0EEv4DataIXT1_EXT2_EE(ptr noundef nonnull byval(%struct.Data.11) align 8 %5)
  call void @llvm.memcpy.p0.p0.i64(ptr noundef nonnull align 8 dereferenceable(32) %6, ptr noundef nonnull align 4 dereferenceable(32) @constinit.84, i64 32, i1 false), !tbaa.struct !19
  %18 = getelementptr inbounds nuw i8, ptr %6, i64 32
  call void @llvm.memcpy.p0.p0.i64(ptr noundef nonnull align 8 dereferenceable(20) %18, ptr noundef nonnull align 4 dereferenceable(20) @constinit.85, i64 20, i1 false), !tbaa.struct !9
  %19 = getelementptr inbounds nuw i8, ptr %6, i64 52
  store i32 2, ptr %19, align 4, !tbaa !20
  tail call void @_Z4testI16forward_iteratorIPiE16sentinel_wrapperIS2_ELi8ELi5EEv4DataIXT1_EXT2_EE(ptr noundef nonnull byval(%struct.Data.12) align 8 %6)
  call void @llvm.lifetime.end.p0(ptr nonnull %4)
  call void @llvm.lifetime.end.p0(ptr nonnull %5)
  call void @llvm.lifetime.end.p0(ptr nonnull %6)
  call void @llvm.lifetime.start.p0(ptr nonnull %1)
  call void @llvm.lifetime.start.p0(ptr nonnull %2)
  call void @llvm.lifetime.start.p0(ptr nonnull %3)
  call void @llvm.memcpy.p0.p0.i64(ptr noundef nonnull align 8 dereferenceable(24) %1, ptr noundef nonnull align 4 dereferenceable(24) @constinit.81, i64 24, i1 false), !tbaa.struct !5
  %20 = getelementptr inbounds nuw i8, ptr %1, i64 24
  call void @llvm.memcpy.p0.p0.i64(ptr noundef nonnull align 8 dereferenceable(20) %20, ptr noundef nonnull align 4 dereferenceable(20) @constinit.82, i64 20, i1 false), !tbaa.struct !9
  %21 = getelementptr inbounds nuw i8, ptr %1, i64 44
  store i32 5, ptr %21, align 4, !tbaa !10
  tail call void @_Z4testI16forward_iteratorIPiE14sized_sentinelIS2_ELi6ELi5EEv4DataIXT1_EXT2_EE(ptr noundef nonnull byval(%struct.Data) align 8 %1)
  tail call void @_Z4testI16forward_iteratorIPiE14sized_sentinelIS2_ELi2ELi1EEv4DataIXT1_EXT2_EE(i64 8589934593, i64 4294967298)
  call void @llvm.memcpy.p0.p0.i64(ptr noundef nonnull align 8 dereferenceable(20) %2, ptr noundef nonnull align 4 dereferenceable(20) @constinit.83, i64 20, i1 false), !tbaa.struct !9
  %22 = getelementptr inbounds nuw i8, ptr %2, i64 24
  store i32 1, ptr %22, align 8, !tbaa !15
  tail call void @_Z4testI16forward_iteratorIPiE14sized_sentinelIS2_ELi5ELi0EEv4DataIXT1_EXT2_EE(ptr noundef nonnull byval(%struct.Data.11) align 8 %2)
  call void @llvm.memcpy.p0.p0.i64(ptr noundef nonnull align 8 dereferenceable(32) %3, ptr noundef nonnull align 4 dereferenceable(32) @constinit.84, i64 32, i1 false), !tbaa.struct !19
  %23 = getelementptr inbounds nuw i8, ptr %3, i64 32
  call void @llvm.memcpy.p0.p0.i64(ptr noundef nonnull align 8 dereferenceable(20) %23, ptr noundef nonnull align 4 dereferenceable(20) @constinit.85, i64 20, i1 false), !tbaa.struct !9
  %24 = getelementptr inbounds nuw i8, ptr %3, i64 52
  store i32 2, ptr %24, align 4, !tbaa !20
  tail call void @_Z4testI16forward_iteratorIPiE14sized_sentinelIS2_ELi8ELi5EEv4DataIXT1_EXT2_EE(ptr noundef nonnull byval(%struct.Data.12) align 8 %3)
  call void @llvm.lifetime.end.p0(ptr nonnull %1)
  call void @llvm.lifetime.end.p0(ptr nonnull %2)
  call void @llvm.lifetime.end.p0(ptr nonnull %3)
  ret void
}

; Function Attrs: mustprogress uwtable
define linkonce_odr dso_local void @_Z14test_sentinelsI22bidirectional_iteratorIPiEEvv() local_unnamed_addr #4 comdat personality ptr @__gxx_personality_v0 {
  %1 = alloca %struct.Data, align 8
  %2 = alloca %struct.Data.11, align 8
  %3 = alloca %struct.Data.12, align 8
  %4 = alloca %struct.Data, align 8
  %5 = alloca %struct.Data.11, align 8
  %6 = alloca %struct.Data.12, align 8
  %7 = alloca %struct.Data, align 8
  %8 = alloca %struct.Data.11, align 8
  %9 = alloca %struct.Data.12, align 8
  call void @llvm.lifetime.start.p0(ptr nonnull %7)
  call void @llvm.lifetime.start.p0(ptr nonnull %8)
  call void @llvm.lifetime.start.p0(ptr nonnull %9)
  call void @llvm.memcpy.p0.p0.i64(ptr noundef nonnull align 8 dereferenceable(24) %7, ptr noundef nonnull align 4 dereferenceable(24) @constinit.81, i64 24, i1 false), !tbaa.struct !5
  %10 = getelementptr inbounds nuw i8, ptr %7, i64 24
  call void @llvm.memcpy.p0.p0.i64(ptr noundef nonnull align 8 dereferenceable(20) %10, ptr noundef nonnull align 4 dereferenceable(20) @constinit.82, i64 20, i1 false), !tbaa.struct !9
  %11 = getelementptr inbounds nuw i8, ptr %7, i64 44
  store i32 5, ptr %11, align 4, !tbaa !10
  tail call void @_Z4testI22bidirectional_iteratorIPiES2_Li6ELi5EEv4DataIXT1_EXT2_EE(ptr noundef nonnull byval(%struct.Data) align 8 %7)
  tail call void @_Z4testI22bidirectional_iteratorIPiES2_Li2ELi1EEv4DataIXT1_EXT2_EE(i64 8589934593, i64 4294967298)
  call void @llvm.memcpy.p0.p0.i64(ptr noundef nonnull align 8 dereferenceable(20) %8, ptr noundef nonnull align 4 dereferenceable(20) @constinit.83, i64 20, i1 false), !tbaa.struct !9
  %12 = getelementptr inbounds nuw i8, ptr %8, i64 24
  store i32 1, ptr %12, align 8, !tbaa !15
  tail call void @_Z4testI22bidirectional_iteratorIPiES2_Li5ELi0EEv4DataIXT1_EXT2_EE(ptr noundef nonnull byval(%struct.Data.11) align 8 %8)
  call void @llvm.memcpy.p0.p0.i64(ptr noundef nonnull align 8 dereferenceable(32) %9, ptr noundef nonnull align 4 dereferenceable(32) @constinit.84, i64 32, i1 false), !tbaa.struct !19
  %13 = getelementptr inbounds nuw i8, ptr %9, i64 32
  call void @llvm.memcpy.p0.p0.i64(ptr noundef nonnull align 8 dereferenceable(20) %13, ptr noundef nonnull align 4 dereferenceable(20) @constinit.85, i64 20, i1 false), !tbaa.struct !9
  %14 = getelementptr inbounds nuw i8, ptr %9, i64 52
  store i32 2, ptr %14, align 4, !tbaa !20
  tail call void @_Z4testI22bidirectional_iteratorIPiES2_Li8ELi5EEv4DataIXT1_EXT2_EE(ptr noundef nonnull byval(%struct.Data.12) align 8 %9)
  call void @llvm.lifetime.end.p0(ptr nonnull %7)
  call void @llvm.lifetime.end.p0(ptr nonnull %8)
  call void @llvm.lifetime.end.p0(ptr nonnull %9)
  call void @llvm.lifetime.start.p0(ptr nonnull %4)
  call void @llvm.lifetime.start.p0(ptr nonnull %5)
  call void @llvm.lifetime.start.p0(ptr nonnull %6)
  call void @llvm.memcpy.p0.p0.i64(ptr noundef nonnull align 8 dereferenceable(24) %4, ptr noundef nonnull align 4 dereferenceable(24) @constinit.81, i64 24, i1 false), !tbaa.struct !5
  %15 = getelementptr inbounds nuw i8, ptr %4, i64 24
  call void @llvm.memcpy.p0.p0.i64(ptr noundef nonnull align 8 dereferenceable(20) %15, ptr noundef nonnull align 4 dereferenceable(20) @constinit.82, i64 20, i1 false), !tbaa.struct !9
  %16 = getelementptr inbounds nuw i8, ptr %4, i64 44
  store i32 5, ptr %16, align 4, !tbaa !10
  tail call void @_Z4testI22bidirectional_iteratorIPiE16sentinel_wrapperIS2_ELi6ELi5EEv4DataIXT1_EXT2_EE(ptr noundef nonnull byval(%struct.Data) align 8 %4)
  tail call void @_Z4testI22bidirectional_iteratorIPiE16sentinel_wrapperIS2_ELi2ELi1EEv4DataIXT1_EXT2_EE(i64 8589934593, i64 4294967298)
  call void @llvm.memcpy.p0.p0.i64(ptr noundef nonnull align 8 dereferenceable(20) %5, ptr noundef nonnull align 4 dereferenceable(20) @constinit.83, i64 20, i1 false), !tbaa.struct !9
  %17 = getelementptr inbounds nuw i8, ptr %5, i64 24
  store i32 1, ptr %17, align 8, !tbaa !15
  tail call void @_Z4testI22bidirectional_iteratorIPiE16sentinel_wrapperIS2_ELi5ELi0EEv4DataIXT1_EXT2_EE(ptr noundef nonnull byval(%struct.Data.11) align 8 %5)
  call void @llvm.memcpy.p0.p0.i64(ptr noundef nonnull align 8 dereferenceable(32) %6, ptr noundef nonnull align 4 dereferenceable(32) @constinit.84, i64 32, i1 false), !tbaa.struct !19
  %18 = getelementptr inbounds nuw i8, ptr %6, i64 32
  call void @llvm.memcpy.p0.p0.i64(ptr noundef nonnull align 8 dereferenceable(20) %18, ptr noundef nonnull align 4 dereferenceable(20) @constinit.85, i64 20, i1 false), !tbaa.struct !9
  %19 = getelementptr inbounds nuw i8, ptr %6, i64 52
  store i32 2, ptr %19, align 4, !tbaa !20
  tail call void @_Z4testI22bidirectional_iteratorIPiE16sentinel_wrapperIS2_ELi8ELi5EEv4DataIXT1_EXT2_EE(ptr noundef nonnull byval(%struct.Data.12) align 8 %6)
  call void @llvm.lifetime.end.p0(ptr nonnull %4)
  call void @llvm.lifetime.end.p0(ptr nonnull %5)
  call void @llvm.lifetime.end.p0(ptr nonnull %6)
  call void @llvm.lifetime.start.p0(ptr nonnull %1)
  call void @llvm.lifetime.start.p0(ptr nonnull %2)
  call void @llvm.lifetime.start.p0(ptr nonnull %3)
  call void @llvm.memcpy.p0.p0.i64(ptr noundef nonnull align 8 dereferenceable(24) %1, ptr noundef nonnull align 4 dereferenceable(24) @constinit.81, i64 24, i1 false), !tbaa.struct !5
  %20 = getelementptr inbounds nuw i8, ptr %1, i64 24
  call void @llvm.memcpy.p0.p0.i64(ptr noundef nonnull align 8 dereferenceable(20) %20, ptr noundef nonnull align 4 dereferenceable(20) @constinit.82, i64 20, i1 false), !tbaa.struct !9
  %21 = getelementptr inbounds nuw i8, ptr %1, i64 44
  store i32 5, ptr %21, align 4, !tbaa !10
  tail call void @_Z4testI22bidirectional_iteratorIPiE14sized_sentinelIS2_ELi6ELi5EEv4DataIXT1_EXT2_EE(ptr noundef nonnull byval(%struct.Data) align 8 %1)
  tail call void @_Z4testI22bidirectional_iteratorIPiE14sized_sentinelIS2_ELi2ELi1EEv4DataIXT1_EXT2_EE(i64 8589934593, i64 4294967298)
  call void @llvm.memcpy.p0.p0.i64(ptr noundef nonnull align 8 dereferenceable(20) %2, ptr noundef nonnull align 4 dereferenceable(20) @constinit.83, i64 20, i1 false), !tbaa.struct !9
  %22 = getelementptr inbounds nuw i8, ptr %2, i64 24
  store i32 1, ptr %22, align 8, !tbaa !15
  tail call void @_Z4testI22bidirectional_iteratorIPiE14sized_sentinelIS2_ELi5ELi0EEv4DataIXT1_EXT2_EE(ptr noundef nonnull byval(%struct.Data.11) align 8 %2)
  call void @llvm.memcpy.p0.p0.i64(ptr noundef nonnull align 8 dereferenceable(32) %3, ptr noundef nonnull align 4 dereferenceable(32) @constinit.84, i64 32, i1 false), !tbaa.struct !19
  %23 = getelementptr inbounds nuw i8, ptr %3, i64 32
  call void @llvm.memcpy.p0.p0.i64(ptr noundef nonnull align 8 dereferenceable(20) %23, ptr noundef nonnull align 4 dereferenceable(20) @constinit.85, i64 20, i1 false), !tbaa.struct !9
  %24 = getelementptr inbounds nuw i8, ptr %3, i64 52
  store i32 2, ptr %24, align 4, !tbaa !20
  tail call void @_Z4testI22bidirectional_iteratorIPiE14sized_sentinelIS2_ELi8ELi5EEv4DataIXT1_EXT2_EE(ptr noundef nonnull byval(%struct.Data.12) align 8 %3)
  call void @llvm.lifetime.end.p0(ptr nonnull %1)
  call void @llvm.lifetime.end.p0(ptr nonnull %2)
  call void @llvm.lifetime.end.p0(ptr nonnull %3)
  ret void
}

; Function Attrs: mustprogress uwtable
define linkonce_odr dso_local void @_Z14test_sentinelsI22random_access_iteratorIPiEEvv() local_unnamed_addr #4 comdat personality ptr @__gxx_personality_v0 {
  %1 = alloca %struct.Data, align 8
  %2 = alloca %struct.Data.11, align 8
  %3 = alloca %struct.Data.12, align 8
  %4 = alloca %struct.Data, align 8
  %5 = alloca %struct.Data.11, align 8
  %6 = alloca %struct.Data.12, align 8
  %7 = alloca %struct.Data, align 8
  %8 = alloca %struct.Data.11, align 8
  %9 = alloca %struct.Data.12, align 8
  call void @llvm.lifetime.start.p0(ptr nonnull %7)
  call void @llvm.lifetime.start.p0(ptr nonnull %8)
  call void @llvm.lifetime.start.p0(ptr nonnull %9)
  call void @llvm.memcpy.p0.p0.i64(ptr noundef nonnull align 8 dereferenceable(24) %7, ptr noundef nonnull align 4 dereferenceable(24) @constinit.81, i64 24, i1 false), !tbaa.struct !5
  %10 = getelementptr inbounds nuw i8, ptr %7, i64 24
  call void @llvm.memcpy.p0.p0.i64(ptr noundef nonnull align 8 dereferenceable(20) %10, ptr noundef nonnull align 4 dereferenceable(20) @constinit.82, i64 20, i1 false), !tbaa.struct !9
  %11 = getelementptr inbounds nuw i8, ptr %7, i64 44
  store i32 5, ptr %11, align 4, !tbaa !10
  tail call void @_Z4testI22random_access_iteratorIPiES2_Li6ELi5EEv4DataIXT1_EXT2_EE(ptr noundef nonnull byval(%struct.Data) align 8 %7)
  tail call void @_Z4testI22random_access_iteratorIPiES2_Li2ELi1EEv4DataIXT1_EXT2_EE(i64 8589934593, i64 4294967298)
  call void @llvm.memcpy.p0.p0.i64(ptr noundef nonnull align 8 dereferenceable(20) %8, ptr noundef nonnull align 4 dereferenceable(20) @constinit.83, i64 20, i1 false), !tbaa.struct !9
  %12 = getelementptr inbounds nuw i8, ptr %8, i64 24
  store i32 1, ptr %12, align 8, !tbaa !15
  tail call void @_Z4testI22random_access_iteratorIPiES2_Li5ELi0EEv4DataIXT1_EXT2_EE(ptr noundef nonnull byval(%struct.Data.11) align 8 %8)
  call void @llvm.memcpy.p0.p0.i64(ptr noundef nonnull align 8 dereferenceable(32) %9, ptr noundef nonnull align 4 dereferenceable(32) @constinit.84, i64 32, i1 false), !tbaa.struct !19
  %13 = getelementptr inbounds nuw i8, ptr %9, i64 32
  call void @llvm.memcpy.p0.p0.i64(ptr noundef nonnull align 8 dereferenceable(20) %13, ptr noundef nonnull align 4 dereferenceable(20) @constinit.85, i64 20, i1 false), !tbaa.struct !9
  %14 = getelementptr inbounds nuw i8, ptr %9, i64 52
  store i32 2, ptr %14, align 4, !tbaa !20
  tail call void @_Z4testI22random_access_iteratorIPiES2_Li8ELi5EEv4DataIXT1_EXT2_EE(ptr noundef nonnull byval(%struct.Data.12) align 8 %9)
  call void @llvm.lifetime.end.p0(ptr nonnull %7)
  call void @llvm.lifetime.end.p0(ptr nonnull %8)
  call void @llvm.lifetime.end.p0(ptr nonnull %9)
  call void @llvm.lifetime.start.p0(ptr nonnull %4)
  call void @llvm.lifetime.start.p0(ptr nonnull %5)
  call void @llvm.lifetime.start.p0(ptr nonnull %6)
  call void @llvm.memcpy.p0.p0.i64(ptr noundef nonnull align 8 dereferenceable(24) %4, ptr noundef nonnull align 4 dereferenceable(24) @constinit.81, i64 24, i1 false), !tbaa.struct !5
  %15 = getelementptr inbounds nuw i8, ptr %4, i64 24
  call void @llvm.memcpy.p0.p0.i64(ptr noundef nonnull align 8 dereferenceable(20) %15, ptr noundef nonnull align 4 dereferenceable(20) @constinit.82, i64 20, i1 false), !tbaa.struct !9
  %16 = getelementptr inbounds nuw i8, ptr %4, i64 44
  store i32 5, ptr %16, align 4, !tbaa !10
  tail call void @_Z4testI22random_access_iteratorIPiE16sentinel_wrapperIS2_ELi6ELi5EEv4DataIXT1_EXT2_EE(ptr noundef nonnull byval(%struct.Data) align 8 %4)
  tail call void @_Z4testI22random_access_iteratorIPiE16sentinel_wrapperIS2_ELi2ELi1EEv4DataIXT1_EXT2_EE(i64 8589934593, i64 4294967298)
  call void @llvm.memcpy.p0.p0.i64(ptr noundef nonnull align 8 dereferenceable(20) %5, ptr noundef nonnull align 4 dereferenceable(20) @constinit.83, i64 20, i1 false), !tbaa.struct !9
  %17 = getelementptr inbounds nuw i8, ptr %5, i64 24
  store i32 1, ptr %17, align 8, !tbaa !15
  tail call void @_Z4testI22random_access_iteratorIPiE16sentinel_wrapperIS2_ELi5ELi0EEv4DataIXT1_EXT2_EE(ptr noundef nonnull byval(%struct.Data.11) align 8 %5)
  call void @llvm.memcpy.p0.p0.i64(ptr noundef nonnull align 8 dereferenceable(32) %6, ptr noundef nonnull align 4 dereferenceable(32) @constinit.84, i64 32, i1 false), !tbaa.struct !19
  %18 = getelementptr inbounds nuw i8, ptr %6, i64 32
  call void @llvm.memcpy.p0.p0.i64(ptr noundef nonnull align 8 dereferenceable(20) %18, ptr noundef nonnull align 4 dereferenceable(20) @constinit.85, i64 20, i1 false), !tbaa.struct !9
  %19 = getelementptr inbounds nuw i8, ptr %6, i64 52
  store i32 2, ptr %19, align 4, !tbaa !20
  tail call void @_Z4testI22random_access_iteratorIPiE16sentinel_wrapperIS2_ELi8ELi5EEv4DataIXT1_EXT2_EE(ptr noundef nonnull byval(%struct.Data.12) align 8 %6)
  call void @llvm.lifetime.end.p0(ptr nonnull %4)
  call void @llvm.lifetime.end.p0(ptr nonnull %5)
  call void @llvm.lifetime.end.p0(ptr nonnull %6)
  call void @llvm.lifetime.start.p0(ptr nonnull %1)
  call void @llvm.lifetime.start.p0(ptr nonnull %2)
  call void @llvm.lifetime.start.p0(ptr nonnull %3)
  call void @llvm.memcpy.p0.p0.i64(ptr noundef nonnull align 8 dereferenceable(24) %1, ptr noundef nonnull align 4 dereferenceable(24) @constinit.81, i64 24, i1 false), !tbaa.struct !5
  %20 = getelementptr inbounds nuw i8, ptr %1, i64 24
  call void @llvm.memcpy.p0.p0.i64(ptr noundef nonnull align 8 dereferenceable(20) %20, ptr noundef nonnull align 4 dereferenceable(20) @constinit.82, i64 20, i1 false), !tbaa.struct !9
  %21 = getelementptr inbounds nuw i8, ptr %1, i64 44
  store i32 5, ptr %21, align 4, !tbaa !10
  tail call void @_Z4testI22random_access_iteratorIPiE14sized_sentinelIS2_ELi6ELi5EEv4DataIXT1_EXT2_EE(ptr noundef nonnull byval(%struct.Data) align 8 %1)
  tail call void @_Z4testI22random_access_iteratorIPiE14sized_sentinelIS2_ELi2ELi1EEv4DataIXT1_EXT2_EE(i64 8589934593, i64 4294967298)
  call void @llvm.memcpy.p0.p0.i64(ptr noundef nonnull align 8 dereferenceable(20) %2, ptr noundef nonnull align 4 dereferenceable(20) @constinit.83, i64 20, i1 false), !tbaa.struct !9
  %22 = getelementptr inbounds nuw i8, ptr %2, i64 24
  store i32 1, ptr %22, align 8, !tbaa !15
  tail call void @_Z4testI22random_access_iteratorIPiE14sized_sentinelIS2_ELi5ELi0EEv4DataIXT1_EXT2_EE(ptr noundef nonnull byval(%struct.Data.11) align 8 %2)
  call void @llvm.memcpy.p0.p0.i64(ptr noundef nonnull align 8 dereferenceable(32) %3, ptr noundef nonnull align 4 dereferenceable(32) @constinit.84, i64 32, i1 false), !tbaa.struct !19
  %23 = getelementptr inbounds nuw i8, ptr %3, i64 32
  call void @llvm.memcpy.p0.p0.i64(ptr noundef nonnull align 8 dereferenceable(20) %23, ptr noundef nonnull align 4 dereferenceable(20) @constinit.85, i64 20, i1 false), !tbaa.struct !9
  %24 = getelementptr inbounds nuw i8, ptr %3, i64 52
  store i32 2, ptr %24, align 4, !tbaa !20
  tail call void @_Z4testI22random_access_iteratorIPiE14sized_sentinelIS2_ELi8ELi5EEv4DataIXT1_EXT2_EE(ptr noundef nonnull byval(%struct.Data.12) align 8 %3)
  call void @llvm.lifetime.end.p0(ptr nonnull %1)
  call void @llvm.lifetime.end.p0(ptr nonnull %2)
  call void @llvm.lifetime.end.p0(ptr nonnull %3)
  ret void
}

; Function Attrs: mustprogress uwtable
define linkonce_odr dso_local void @_Z14test_sentinelsI19contiguous_iteratorIPiEEvv() local_unnamed_addr #4 comdat personality ptr @__gxx_personality_v0 {
  %1 = alloca %struct.Data, align 8
  %2 = alloca %struct.Data.11, align 8
  %3 = alloca %struct.Data.12, align 8
  %4 = alloca %struct.Data, align 8
  %5 = alloca %struct.Data.11, align 8
  %6 = alloca %struct.Data.12, align 8
  %7 = alloca %struct.Data, align 8
  %8 = alloca %struct.Data.11, align 8
  %9 = alloca %struct.Data.12, align 8
  call void @llvm.lifetime.start.p0(ptr nonnull %7)
  call void @llvm.lifetime.start.p0(ptr nonnull %8)
  call void @llvm.lifetime.start.p0(ptr nonnull %9)
  call void @llvm.memcpy.p0.p0.i64(ptr noundef nonnull align 8 dereferenceable(24) %7, ptr noundef nonnull align 4 dereferenceable(24) @constinit.81, i64 24, i1 false), !tbaa.struct !5
  %10 = getelementptr inbounds nuw i8, ptr %7, i64 24
  call void @llvm.memcpy.p0.p0.i64(ptr noundef nonnull align 8 dereferenceable(20) %10, ptr noundef nonnull align 4 dereferenceable(20) @constinit.82, i64 20, i1 false), !tbaa.struct !9
  %11 = getelementptr inbounds nuw i8, ptr %7, i64 44
  store i32 5, ptr %11, align 4, !tbaa !10
  tail call void @_Z4testI19contiguous_iteratorIPiES2_Li6ELi5EEv4DataIXT1_EXT2_EE(ptr noundef nonnull byval(%struct.Data) align 8 %7)
  tail call void @_Z4testI19contiguous_iteratorIPiES2_Li2ELi1EEv4DataIXT1_EXT2_EE(i64 8589934593, i64 4294967298)
  call void @llvm.memcpy.p0.p0.i64(ptr noundef nonnull align 8 dereferenceable(20) %8, ptr noundef nonnull align 4 dereferenceable(20) @constinit.83, i64 20, i1 false), !tbaa.struct !9
  %12 = getelementptr inbounds nuw i8, ptr %8, i64 24
  store i32 1, ptr %12, align 8, !tbaa !15
  tail call void @_Z4testI19contiguous_iteratorIPiES2_Li5ELi0EEv4DataIXT1_EXT2_EE(ptr noundef nonnull byval(%struct.Data.11) align 8 %8)
  call void @llvm.memcpy.p0.p0.i64(ptr noundef nonnull align 8 dereferenceable(32) %9, ptr noundef nonnull align 4 dereferenceable(32) @constinit.84, i64 32, i1 false), !tbaa.struct !19
  %13 = getelementptr inbounds nuw i8, ptr %9, i64 32
  call void @llvm.memcpy.p0.p0.i64(ptr noundef nonnull align 8 dereferenceable(20) %13, ptr noundef nonnull align 4 dereferenceable(20) @constinit.85, i64 20, i1 false), !tbaa.struct !9
  %14 = getelementptr inbounds nuw i8, ptr %9, i64 52
  store i32 2, ptr %14, align 4, !tbaa !20
  tail call void @_Z4testI19contiguous_iteratorIPiES2_Li8ELi5EEv4DataIXT1_EXT2_EE(ptr noundef nonnull byval(%struct.Data.12) align 8 %9)
  call void @llvm.lifetime.end.p0(ptr nonnull %7)
  call void @llvm.lifetime.end.p0(ptr nonnull %8)
  call void @llvm.lifetime.end.p0(ptr nonnull %9)
  call void @llvm.lifetime.start.p0(ptr nonnull %4)
  call void @llvm.lifetime.start.p0(ptr nonnull %5)
  call void @llvm.lifetime.start.p0(ptr nonnull %6)
  call void @llvm.memcpy.p0.p0.i64(ptr noundef nonnull align 8 dereferenceable(24) %4, ptr noundef nonnull align 4 dereferenceable(24) @constinit.81, i64 24, i1 false), !tbaa.struct !5
  %15 = getelementptr inbounds nuw i8, ptr %4, i64 24
  call void @llvm.memcpy.p0.p0.i64(ptr noundef nonnull align 8 dereferenceable(20) %15, ptr noundef nonnull align 4 dereferenceable(20) @constinit.82, i64 20, i1 false), !tbaa.struct !9
  %16 = getelementptr inbounds nuw i8, ptr %4, i64 44
  store i32 5, ptr %16, align 4, !tbaa !10
  tail call void @_Z4testI19contiguous_iteratorIPiE16sentinel_wrapperIS2_ELi6ELi5EEv4DataIXT1_EXT2_EE(ptr noundef nonnull byval(%struct.Data) align 8 %4)
  tail call void @_Z4testI19contiguous_iteratorIPiE16sentinel_wrapperIS2_ELi2ELi1EEv4DataIXT1_EXT2_EE(i64 8589934593, i64 4294967298)
  call void @llvm.memcpy.p0.p0.i64(ptr noundef nonnull align 8 dereferenceable(20) %5, ptr noundef nonnull align 4 dereferenceable(20) @constinit.83, i64 20, i1 false), !tbaa.struct !9
  %17 = getelementptr inbounds nuw i8, ptr %5, i64 24
  store i32 1, ptr %17, align 8, !tbaa !15
  tail call void @_Z4testI19contiguous_iteratorIPiE16sentinel_wrapperIS2_ELi5ELi0EEv4DataIXT1_EXT2_EE(ptr noundef nonnull byval(%struct.Data.11) align 8 %5)
  call void @llvm.memcpy.p0.p0.i64(ptr noundef nonnull align 8 dereferenceable(32) %6, ptr noundef nonnull align 4 dereferenceable(32) @constinit.84, i64 32, i1 false), !tbaa.struct !19
  %18 = getelementptr inbounds nuw i8, ptr %6, i64 32
  call void @llvm.memcpy.p0.p0.i64(ptr noundef nonnull align 8 dereferenceable(20) %18, ptr noundef nonnull align 4 dereferenceable(20) @constinit.85, i64 20, i1 false), !tbaa.struct !9
  %19 = getelementptr inbounds nuw i8, ptr %6, i64 52
  store i32 2, ptr %19, align 4, !tbaa !20
  tail call void @_Z4testI19contiguous_iteratorIPiE16sentinel_wrapperIS2_ELi8ELi5EEv4DataIXT1_EXT2_EE(ptr noundef nonnull byval(%struct.Data.12) align 8 %6)
  call void @llvm.lifetime.end.p0(ptr nonnull %4)
  call void @llvm.lifetime.end.p0(ptr nonnull %5)
  call void @llvm.lifetime.end.p0(ptr nonnull %6)
  call void @llvm.lifetime.start.p0(ptr nonnull %1)
  call void @llvm.lifetime.start.p0(ptr nonnull %2)
  call void @llvm.lifetime.start.p0(ptr nonnull %3)
  call void @llvm.memcpy.p0.p0.i64(ptr noundef nonnull align 8 dereferenceable(24) %1, ptr noundef nonnull align 4 dereferenceable(24) @constinit.81, i64 24, i1 false), !tbaa.struct !5
  %20 = getelementptr inbounds nuw i8, ptr %1, i64 24
  call void @llvm.memcpy.p0.p0.i64(ptr noundef nonnull align 8 dereferenceable(20) %20, ptr noundef nonnull align 4 dereferenceable(20) @constinit.82, i64 20, i1 false), !tbaa.struct !9
  %21 = getelementptr inbounds nuw i8, ptr %1, i64 44
  store i32 5, ptr %21, align 4, !tbaa !10
  tail call void @_Z4testI19contiguous_iteratorIPiE14sized_sentinelIS2_ELi6ELi5EEv4DataIXT1_EXT2_EE(ptr noundef nonnull byval(%struct.Data) align 8 %1)
  tail call void @_Z4testI19contiguous_iteratorIPiE14sized_sentinelIS2_ELi2ELi1EEv4DataIXT1_EXT2_EE(i64 8589934593, i64 4294967298)
  call void @llvm.memcpy.p0.p0.i64(ptr noundef nonnull align 8 dereferenceable(20) %2, ptr noundef nonnull align 4 dereferenceable(20) @constinit.83, i64 20, i1 false), !tbaa.struct !9
  %22 = getelementptr inbounds nuw i8, ptr %2, i64 24
  store i32 1, ptr %22, align 8, !tbaa !15
  tail call void @_Z4testI19contiguous_iteratorIPiE14sized_sentinelIS2_ELi5ELi0EEv4DataIXT1_EXT2_EE(ptr noundef nonnull byval(%struct.Data.11) align 8 %2)
  call void @llvm.memcpy.p0.p0.i64(ptr noundef nonnull align 8 dereferenceable(32) %3, ptr noundef nonnull align 4 dereferenceable(32) @constinit.84, i64 32, i1 false), !tbaa.struct !19
  %23 = getelementptr inbounds nuw i8, ptr %3, i64 32
  call void @llvm.memcpy.p0.p0.i64(ptr noundef nonnull align 8 dereferenceable(20) %23, ptr noundef nonnull align 4 dereferenceable(20) @constinit.85, i64 20, i1 false), !tbaa.struct !9
  %24 = getelementptr inbounds nuw i8, ptr %3, i64 52
  store i32 2, ptr %24, align 4, !tbaa !20
  tail call void @_Z4testI19contiguous_iteratorIPiE14sized_sentinelIS2_ELi8ELi5EEv4DataIXT1_EXT2_EE(ptr noundef nonnull byval(%struct.Data.12) align 8 %3)
  call void @llvm.lifetime.end.p0(ptr nonnull %1)
  call void @llvm.lifetime.end.p0(ptr nonnull %2)
  call void @llvm.lifetime.end.p0(ptr nonnull %3)
  ret void
}

; Function Attrs: mustprogress uwtable
define linkonce_odr dso_local void @_Z14test_sentinelsIPiEvv() local_unnamed_addr #4 comdat personality ptr @__gxx_personality_v0 {
  %1 = alloca %struct.Data, align 8
  %2 = alloca %struct.Data.11, align 8
  %3 = alloca %struct.Data.12, align 8
  %4 = alloca %struct.Data, align 8
  %5 = alloca %struct.Data.11, align 8
  %6 = alloca %struct.Data.12, align 8
  %7 = alloca %struct.Data, align 8
  %8 = alloca %struct.Data.11, align 8
  %9 = alloca %struct.Data.12, align 8
  call void @llvm.lifetime.start.p0(ptr nonnull %7)
  call void @llvm.lifetime.start.p0(ptr nonnull %8)
  call void @llvm.lifetime.start.p0(ptr nonnull %9)
  call void @llvm.memcpy.p0.p0.i64(ptr noundef nonnull align 8 dereferenceable(24) %7, ptr noundef nonnull align 4 dereferenceable(24) @constinit.81, i64 24, i1 false), !tbaa.struct !5
  %10 = getelementptr inbounds nuw i8, ptr %7, i64 24
  call void @llvm.memcpy.p0.p0.i64(ptr noundef nonnull align 8 dereferenceable(20) %10, ptr noundef nonnull align 4 dereferenceable(20) @constinit.82, i64 20, i1 false), !tbaa.struct !9
  %11 = getelementptr inbounds nuw i8, ptr %7, i64 44
  store i32 5, ptr %11, align 4, !tbaa !10
  tail call void @_Z4testIPiS0_Li6ELi5EEv4DataIXT1_EXT2_EE(ptr noundef nonnull byval(%struct.Data) align 8 %7)
  tail call void @_Z4testIPiS0_Li2ELi1EEv4DataIXT1_EXT2_EE(i64 8589934593, i64 4294967298)
  call void @llvm.memcpy.p0.p0.i64(ptr noundef nonnull align 8 dereferenceable(20) %8, ptr noundef nonnull align 4 dereferenceable(20) @constinit.83, i64 20, i1 false), !tbaa.struct !9
  %12 = getelementptr inbounds nuw i8, ptr %8, i64 24
  store i32 1, ptr %12, align 8, !tbaa !15
  tail call void @_Z4testIPiS0_Li5ELi0EEv4DataIXT1_EXT2_EE(ptr noundef nonnull byval(%struct.Data.11) align 8 %8)
  call void @llvm.memcpy.p0.p0.i64(ptr noundef nonnull align 8 dereferenceable(32) %9, ptr noundef nonnull align 4 dereferenceable(32) @constinit.84, i64 32, i1 false), !tbaa.struct !19
  %13 = getelementptr inbounds nuw i8, ptr %9, i64 32
  call void @llvm.memcpy.p0.p0.i64(ptr noundef nonnull align 8 dereferenceable(20) %13, ptr noundef nonnull align 4 dereferenceable(20) @constinit.85, i64 20, i1 false), !tbaa.struct !9
  %14 = getelementptr inbounds nuw i8, ptr %9, i64 52
  store i32 2, ptr %14, align 4, !tbaa !20
  tail call void @_Z4testIPiS0_Li8ELi5EEv4DataIXT1_EXT2_EE(ptr noundef nonnull byval(%struct.Data.12) align 8 %9)
  call void @llvm.lifetime.end.p0(ptr nonnull %7)
  call void @llvm.lifetime.end.p0(ptr nonnull %8)
  call void @llvm.lifetime.end.p0(ptr nonnull %9)
  call void @llvm.lifetime.start.p0(ptr nonnull %4)
  call void @llvm.lifetime.start.p0(ptr nonnull %5)
  call void @llvm.lifetime.start.p0(ptr nonnull %6)
  call void @llvm.memcpy.p0.p0.i64(ptr noundef nonnull align 8 dereferenceable(24) %4, ptr noundef nonnull align 4 dereferenceable(24) @constinit.81, i64 24, i1 false), !tbaa.struct !5
  %15 = getelementptr inbounds nuw i8, ptr %4, i64 24
  call void @llvm.memcpy.p0.p0.i64(ptr noundef nonnull align 8 dereferenceable(20) %15, ptr noundef nonnull align 4 dereferenceable(20) @constinit.82, i64 20, i1 false), !tbaa.struct !9
  %16 = getelementptr inbounds nuw i8, ptr %4, i64 44
  store i32 5, ptr %16, align 4, !tbaa !10
  tail call void @_Z4testIPi16sentinel_wrapperIS0_ELi6ELi5EEv4DataIXT1_EXT2_EE(ptr noundef nonnull byval(%struct.Data) align 8 %4)
  tail call void @_Z4testIPi16sentinel_wrapperIS0_ELi2ELi1EEv4DataIXT1_EXT2_EE(i64 8589934593, i64 4294967298)
  call void @llvm.memcpy.p0.p0.i64(ptr noundef nonnull align 8 dereferenceable(20) %5, ptr noundef nonnull align 4 dereferenceable(20) @constinit.83, i64 20, i1 false), !tbaa.struct !9
  %17 = getelementptr inbounds nuw i8, ptr %5, i64 24
  store i32 1, ptr %17, align 8, !tbaa !15
  tail call void @_Z4testIPi16sentinel_wrapperIS0_ELi5ELi0EEv4DataIXT1_EXT2_EE(ptr noundef nonnull byval(%struct.Data.11) align 8 %5)
  call void @llvm.memcpy.p0.p0.i64(ptr noundef nonnull align 8 dereferenceable(32) %6, ptr noundef nonnull align 4 dereferenceable(32) @constinit.84, i64 32, i1 false), !tbaa.struct !19
  %18 = getelementptr inbounds nuw i8, ptr %6, i64 32
  call void @llvm.memcpy.p0.p0.i64(ptr noundef nonnull align 8 dereferenceable(20) %18, ptr noundef nonnull align 4 dereferenceable(20) @constinit.85, i64 20, i1 false), !tbaa.struct !9
  %19 = getelementptr inbounds nuw i8, ptr %6, i64 52
  store i32 2, ptr %19, align 4, !tbaa !20
  tail call void @_Z4testIPi16sentinel_wrapperIS0_ELi8ELi5EEv4DataIXT1_EXT2_EE(ptr noundef nonnull byval(%struct.Data.12) align 8 %6)
  call void @llvm.lifetime.end.p0(ptr nonnull %4)
  call void @llvm.lifetime.end.p0(ptr nonnull %5)
  call void @llvm.lifetime.end.p0(ptr nonnull %6)
  call void @llvm.lifetime.start.p0(ptr nonnull %1)
  call void @llvm.lifetime.start.p0(ptr nonnull %2)
  call void @llvm.lifetime.start.p0(ptr nonnull %3)
  call void @llvm.memcpy.p0.p0.i64(ptr noundef nonnull align 8 dereferenceable(24) %1, ptr noundef nonnull align 4 dereferenceable(24) @constinit.81, i64 24, i1 false), !tbaa.struct !5
  %20 = getelementptr inbounds nuw i8, ptr %1, i64 24
  call void @llvm.memcpy.p0.p0.i64(ptr noundef nonnull align 8 dereferenceable(20) %20, ptr noundef nonnull align 4 dereferenceable(20) @constinit.82, i64 20, i1 false), !tbaa.struct !9
  %21 = getelementptr inbounds nuw i8, ptr %1, i64 44
  store i32 5, ptr %21, align 4, !tbaa !10
  tail call void @_Z4testIPi14sized_sentinelIS0_ELi6ELi5EEv4DataIXT1_EXT2_EE(ptr noundef nonnull byval(%struct.Data) align 8 %1)
  tail call void @_Z4testIPi14sized_sentinelIS0_ELi2ELi1EEv4DataIXT1_EXT2_EE(i64 8589934593, i64 4294967298)
  call void @llvm.memcpy.p0.p0.i64(ptr noundef nonnull align 8 dereferenceable(20) %2, ptr noundef nonnull align 4 dereferenceable(20) @constinit.83, i64 20, i1 false), !tbaa.struct !9
  %22 = getelementptr inbounds nuw i8, ptr %2, i64 24
  store i32 1, ptr %22, align 8, !tbaa !15
  tail call void @_Z4testIPi14sized_sentinelIS0_ELi5ELi0EEv4DataIXT1_EXT2_EE(ptr noundef nonnull byval(%struct.Data.11) align 8 %2)
  call void @llvm.memcpy.p0.p0.i64(ptr noundef nonnull align 8 dereferenceable(32) %3, ptr noundef nonnull align 4 dereferenceable(32) @constinit.84, i64 32, i1 false), !tbaa.struct !19
  %23 = getelementptr inbounds nuw i8, ptr %3, i64 32
  call void @llvm.memcpy.p0.p0.i64(ptr noundef nonnull align 8 dereferenceable(20) %23, ptr noundef nonnull align 4 dereferenceable(20) @constinit.85, i64 20, i1 false), !tbaa.struct !9
  %24 = getelementptr inbounds nuw i8, ptr %3, i64 52
  store i32 2, ptr %24, align 4, !tbaa !20
  tail call void @_Z4testIPi14sized_sentinelIS0_ELi8ELi5EEv4DataIXT1_EXT2_EE(ptr noundef nonnull byval(%struct.Data.12) align 8 %3)
  call void @llvm.lifetime.end.p0(ptr nonnull %1)
  call void @llvm.lifetime.end.p0(ptr nonnull %2)
  call void @llvm.lifetime.end.p0(ptr nonnull %3)
  ret void
}

; Function Attrs: mustprogress uwtable
define linkonce_odr dso_local void @_Z4testI16forward_iteratorIPiES2_Li6ELi5EEv4DataIXT1_EXT2_EE(ptr noundef byval(%struct.Data) align 8 %0) local_unnamed_addr #4 comdat personality ptr @__gxx_personality_v0 {
  %2 = alloca %"struct.std::array", align 4
  %3 = alloca %"struct.std::array", align 4
  call void @llvm.lifetime.start.p0(ptr nonnull %2) #6
  call void @llvm.memcpy.p0.p0.i64(ptr noundef nonnull align 4 dereferenceable(24) %2, ptr noundef nonnull align 8 dereferenceable(24) %0, i64 24, i1 false), !tbaa.struct !5
  %4 = getelementptr inbounds nuw i8, ptr %0, i64 44
  %5 = load i32, ptr %4, align 4, !tbaa !23, !noalias !24
  %6 = load i32, ptr %2, align 4, !tbaa !23, !noalias !24
  %7 = icmp eq i32 %6, %5
  br i1 %7, label %28, label %8

8:                                                ; preds = %1
  %9 = getelementptr inbounds nuw i8, ptr %2, i64 4
  %10 = load i32, ptr %9, align 4, !tbaa !23, !noalias !24
  %11 = icmp eq i32 %10, %5
  br i1 %11, label %28, label %12

12:                                               ; preds = %8
  %13 = getelementptr inbounds nuw i8, ptr %2, i64 8
  %14 = load i32, ptr %13, align 4, !tbaa !23, !noalias !24
  %15 = icmp eq i32 %14, %5
  br i1 %15, label %28, label %16

16:                                               ; preds = %12
  %17 = getelementptr inbounds nuw i8, ptr %2, i64 12
  %18 = load i32, ptr %17, align 4, !tbaa !23, !noalias !24
  %19 = icmp eq i32 %18, %5
  br i1 %19, label %28, label %20

20:                                               ; preds = %16
  %21 = getelementptr inbounds nuw i8, ptr %2, i64 16
  %22 = load i32, ptr %21, align 4, !tbaa !23, !noalias !24
  %23 = icmp eq i32 %22, %5
  br i1 %23, label %28, label %24

24:                                               ; preds = %20
  %25 = getelementptr inbounds nuw i8, ptr %2, i64 20
  %26 = load i32, ptr %25, align 4, !tbaa !23, !noalias !24
  %27 = icmp eq i32 %26, %5
  br i1 %27, label %47, label %46

28:                                               ; preds = %20, %16, %12, %8, %1
  %29 = phi i64 [ 0, %1 ], [ 4, %8 ], [ 8, %12 ], [ 12, %16 ], [ 16, %20 ]
  %30 = add nuw nsw i64 %29, 4
  br label %31

31:                                               ; preds = %28, %40
  %32 = phi i64 [ %42, %40 ], [ %30, %28 ]
  %33 = phi i64 [ %41, %40 ], [ %29, %28 ]
  %34 = getelementptr inbounds nuw i8, ptr %2, i64 %32
  %35 = load i32, ptr %34, align 4, !tbaa !23, !noalias !31
  %36 = icmp eq i32 %35, %5
  br i1 %36, label %40, label %37

37:                                               ; preds = %31
  %38 = getelementptr inbounds nuw i8, ptr %2, i64 %33
  store i32 %35, ptr %38, align 4, !tbaa !23, !noalias !31
  %39 = add nuw nsw i64 %33, 4
  br label %40

40:                                               ; preds = %37, %31
  %41 = phi i64 [ %33, %31 ], [ %39, %37 ]
  %42 = add nuw nsw i64 %32, 4
  %43 = icmp eq i64 %42, 24
  br i1 %43, label %44, label %31, !llvm.loop !32

44:                                               ; preds = %40
  %45 = icmp eq i64 %41, 20
  br i1 %45, label %47, label %46

46:                                               ; preds = %24, %44
  tail call void @__assert_fail(ptr noundef nonnull @.str.11, ptr noundef nonnull @.str.1, i32 noundef 65, ptr noundef nonnull @__PRETTY_FUNCTION__._Z4testI16forward_iteratorIPiES2_Li6ELi5EEv4DataIXT1_EXT2_EE) #7
  unreachable

47:                                               ; preds = %24, %44
  %48 = getelementptr inbounds nuw i8, ptr %0, i64 24
  %49 = call i32 @bcmp(ptr noundef nonnull dereferenceable(20) %2, ptr noundef nonnull dereferenceable(20) %48, i64 20)
  %50 = icmp eq i32 %49, 0
  br i1 %50, label %52, label %51

51:                                               ; preds = %47
  tail call void @__assert_fail(ptr noundef nonnull @.str.13, ptr noundef nonnull @.str.1, i32 noundef 67, ptr noundef nonnull @__PRETTY_FUNCTION__._Z4testI16forward_iteratorIPiES2_Li6ELi5EEv4DataIXT1_EXT2_EE) #7
  unreachable

52:                                               ; preds = %47
  call void @llvm.lifetime.end.p0(ptr nonnull %2) #6
  call void @llvm.lifetime.start.p0(ptr nonnull %3) #6
  call void @llvm.memcpy.p0.p0.i64(ptr noundef nonnull align 4 dereferenceable(24) %3, ptr noundef nonnull align 8 dereferenceable(24) %0, i64 24, i1 false), !tbaa.struct !5
  %53 = load i32, ptr %3, align 4, !tbaa !23, !noalias !34
  %54 = icmp eq i32 %53, %5
  br i1 %54, label %75, label %55

55:                                               ; preds = %52
  %56 = getelementptr inbounds nuw i8, ptr %3, i64 4
  %57 = load i32, ptr %56, align 4, !tbaa !23, !noalias !34
  %58 = icmp eq i32 %57, %5
  br i1 %58, label %75, label %59

59:                                               ; preds = %55
  %60 = getelementptr inbounds nuw i8, ptr %3, i64 8
  %61 = load i32, ptr %60, align 4, !tbaa !23, !noalias !34
  %62 = icmp eq i32 %61, %5
  br i1 %62, label %75, label %63

63:                                               ; preds = %59
  %64 = getelementptr inbounds nuw i8, ptr %3, i64 12
  %65 = load i32, ptr %64, align 4, !tbaa !23, !noalias !34
  %66 = icmp eq i32 %65, %5
  br i1 %66, label %75, label %67

67:                                               ; preds = %63
  %68 = getelementptr inbounds nuw i8, ptr %3, i64 16
  %69 = load i32, ptr %68, align 4, !tbaa !23, !noalias !34
  %70 = icmp eq i32 %69, %5
  br i1 %70, label %75, label %71

71:                                               ; preds = %67
  %72 = getelementptr inbounds nuw i8, ptr %3, i64 20
  %73 = load i32, ptr %72, align 4, !tbaa !23, !noalias !34
  %74 = icmp eq i32 %73, %5
  br i1 %74, label %94, label %93

75:                                               ; preds = %67, %63, %59, %55, %52
  %76 = phi i64 [ 0, %52 ], [ 4, %55 ], [ 8, %59 ], [ 12, %63 ], [ 16, %67 ]
  %77 = add nuw nsw i64 %76, 4
  br label %78

78:                                               ; preds = %75, %87
  %79 = phi i64 [ %89, %87 ], [ %77, %75 ]
  %80 = phi i64 [ %88, %87 ], [ %76, %75 ]
  %81 = getelementptr inbounds nuw i8, ptr %3, i64 %79
  %82 = load i32, ptr %81, align 4, !tbaa !23, !noalias !43
  %83 = icmp eq i32 %82, %5
  br i1 %83, label %87, label %84

84:                                               ; preds = %78
  %85 = getelementptr inbounds nuw i8, ptr %3, i64 %80
  store i32 %82, ptr %85, align 4, !tbaa !23, !noalias !43
  %86 = add nuw nsw i64 %80, 4
  br label %87

87:                                               ; preds = %84, %78
  %88 = phi i64 [ %80, %78 ], [ %86, %84 ]
  %89 = add nuw nsw i64 %79, 4
  %90 = icmp eq i64 %89, 24
  br i1 %90, label %91, label %78, !llvm.loop !32

91:                                               ; preds = %87
  %92 = icmp eq i64 %88, 20
  br i1 %92, label %94, label %93

93:                                               ; preds = %71, %91
  tail call void @__assert_fail(ptr noundef nonnull @.str.11, ptr noundef nonnull @.str.1, i32 noundef 76, ptr noundef nonnull @__PRETTY_FUNCTION__._Z4testI16forward_iteratorIPiES2_Li6ELi5EEv4DataIXT1_EXT2_EE) #7
  unreachable

94:                                               ; preds = %71, %91
  %95 = call i32 @bcmp(ptr noundef nonnull dereferenceable(20) %3, ptr noundef nonnull dereferenceable(20) %48, i64 20)
  %96 = icmp eq i32 %95, 0
  br i1 %96, label %98, label %97

97:                                               ; preds = %94
  tail call void @__assert_fail(ptr noundef nonnull @.str.13, ptr noundef nonnull @.str.1, i32 noundef 78, ptr noundef nonnull @__PRETTY_FUNCTION__._Z4testI16forward_iteratorIPiES2_Li6ELi5EEv4DataIXT1_EXT2_EE) #7
  unreachable

98:                                               ; preds = %94
  call void @llvm.lifetime.end.p0(ptr nonnull %3) #6
  ret void
}

; Function Attrs: mustprogress uwtable
define linkonce_odr dso_local void @_Z4testI16forward_iteratorIPiES2_Li2ELi1EEv4DataIXT1_EXT2_EE(i64 %0, i64 %1) local_unnamed_addr #4 comdat personality ptr @__gxx_personality_v0 {
  %3 = trunc i64 %1 to i32
  %4 = trunc i64 %0 to i32
  %5 = lshr i64 %0, 32
  %6 = trunc nuw i64 %5 to i32
  %7 = lshr i64 %1, 32
  %8 = trunc nuw i64 %7 to i32
  %9 = trunc i64 %0 to i32
  %10 = icmp eq i32 %9, %8
  %11 = lshr i64 %0, 32
  br i1 %10, label %14, label %12

12:                                               ; preds = %2
  %13 = icmp eq i64 %11, %7
  br i1 %13, label %19, label %18

14:                                               ; preds = %2
  %15 = icmp eq i64 %5, %7
  br i1 %15, label %18, label %16

16:                                               ; preds = %14
  %17 = icmp eq i32 %6, %3
  br i1 %17, label %24, label %23

18:                                               ; preds = %14, %12
  tail call void @__assert_fail(ptr noundef nonnull @.str.11, ptr noundef nonnull @.str.1, i32 noundef 65, ptr noundef nonnull @__PRETTY_FUNCTION__._Z4testI16forward_iteratorIPiES2_Li2ELi1EEv4DataIXT1_EXT2_EE) #7
  unreachable

19:                                               ; preds = %12
  %20 = icmp eq i32 %4, %3
  br i1 %20, label %21, label %23

21:                                               ; preds = %19
  %22 = icmp eq i64 %11, %7
  br i1 %22, label %28, label %27

23:                                               ; preds = %19, %16
  tail call void @__assert_fail(ptr noundef nonnull @.str.13, ptr noundef nonnull @.str.1, i32 noundef 67, ptr noundef nonnull @__PRETTY_FUNCTION__._Z4testI16forward_iteratorIPiES2_Li2ELi1EEv4DataIXT1_EXT2_EE) #7
  unreachable

24:                                               ; preds = %16
  %25 = lshr i64 %0, 32
  %26 = icmp eq i64 %25, %7
  br i1 %26, label %27, label %28

27:                                               ; preds = %24, %21
  tail call void @__assert_fail(ptr noundef nonnull @.str.11, ptr noundef nonnull @.str.1, i32 noundef 76, ptr noundef nonnull @__PRETTY_FUNCTION__._Z4testI16forward_iteratorIPiES2_Li2ELi1EEv4DataIXT1_EXT2_EE) #7
  unreachable

28:                                               ; preds = %24, %21
  %29 = phi i64 [ %0, %21 ], [ %25, %24 ]
  %30 = trunc i64 %29 to i32
  %31 = icmp eq i32 %30, %3
  br i1 %31, label %33, label %32

32:                                               ; preds = %28
  tail call void @__assert_fail(ptr noundef nonnull @.str.13, ptr noundef nonnull @.str.1, i32 noundef 78, ptr noundef nonnull @__PRETTY_FUNCTION__._Z4testI16forward_iteratorIPiES2_Li2ELi1EEv4DataIXT1_EXT2_EE) #7
  unreachable

33:                                               ; preds = %28
  ret void
}

; Function Attrs: mustprogress uwtable
define linkonce_odr dso_local void @_Z4testI16forward_iteratorIPiES2_Li5ELi0EEv4DataIXT1_EXT2_EE(ptr noundef byval(%struct.Data.11) align 8 %0) local_unnamed_addr #4 comdat personality ptr @__gxx_personality_v0 {
  %2 = alloca %"struct.std::array.3", align 4
  %3 = alloca %"struct.std::array.3", align 4
  call void @llvm.lifetime.start.p0(ptr nonnull %2) #6
  call void @llvm.memcpy.p0.p0.i64(ptr noundef nonnull align 4 dereferenceable(20) %2, ptr noundef nonnull align 8 dereferenceable(20) %0, i64 20, i1 false), !tbaa.struct !9
  %4 = getelementptr inbounds nuw i8, ptr %0, i64 24
  %5 = load i32, ptr %4, align 8, !tbaa !23, !noalias !44
  %6 = getelementptr inbounds nuw i8, ptr %3, i64 4
  %7 = getelementptr inbounds nuw i8, ptr %3, i64 8
  %8 = getelementptr inbounds nuw i8, ptr %3, i64 12
  %9 = getelementptr inbounds nuw i8, ptr %2, i64 8
  %10 = getelementptr inbounds nuw i8, ptr %2, i64 12
  %11 = load i32, ptr %2, align 4, !tbaa !23, !noalias !44
  %12 = icmp eq i32 %11, %5
  %13 = getelementptr inbounds nuw i8, ptr %3, i64 16
  %14 = getelementptr inbounds nuw i8, ptr %3, i64 12
  %15 = getelementptr inbounds nuw i8, ptr %3, i64 8
  %16 = getelementptr inbounds nuw i8, ptr %3, i64 4
  %17 = getelementptr inbounds nuw i8, ptr %2, i64 16
  %18 = getelementptr inbounds nuw i8, ptr %2, i64 12
  %19 = getelementptr inbounds nuw i8, ptr %2, i64 4
  br i1 %12, label %31, label %20

20:                                               ; preds = %1
  %21 = getelementptr inbounds nuw i8, ptr %2, i64 8
  %22 = getelementptr inbounds nuw i8, ptr %2, i64 4
  %23 = load i32, ptr %22, align 4, !tbaa !23, !noalias !44
  %24 = icmp eq i32 %23, %5
  br i1 %24, label %31, label %25

25:                                               ; preds = %20
  %26 = load i32, ptr %9, align 4, !tbaa !23, !noalias !44
  %27 = icmp eq i32 %26, %5
  br i1 %27, label %31, label %28

28:                                               ; preds = %25
  %29 = load i32, ptr %10, align 4, !tbaa !23, !noalias !44
  %30 = icmp eq i32 %29, %5
  br i1 %30, label %31, label %76

31:                                               ; preds = %1, %20, %25, %28
  %32 = phi ptr [ %17, %28 ], [ %18, %25 ], [ %21, %20 ], [ %19, %1 ]
  %33 = phi i64 [ 16, %28 ], [ 12, %25 ], [ 8, %20 ], [ 4, %1 ]
  %34 = phi ptr [ %10, %28 ], [ %9, %25 ], [ %22, %20 ], [ %2, %1 ]
  %35 = load i32, ptr %32, align 4, !tbaa !23, !noalias !51
  %36 = load i32, ptr %4, align 8, !tbaa !23, !noalias !51
  %37 = icmp eq i32 %35, %36
  br i1 %37, label %40, label %38

38:                                               ; preds = %31
  store i32 %35, ptr %34, align 4, !tbaa !23, !noalias !51
  %39 = getelementptr inbounds nuw i8, ptr %34, i64 4
  br label %40

40:                                               ; preds = %38, %31
  %41 = phi ptr [ %34, %31 ], [ %39, %38 ]
  %42 = add nuw nsw i64 %33, 4
  %43 = icmp eq i64 %42, 20
  br i1 %43, label %73, label %44, !llvm.loop !32

44:                                               ; preds = %40
  %45 = getelementptr inbounds nuw i8, ptr %2, i64 %42
  %46 = load i32, ptr %45, align 4, !tbaa !23, !noalias !51
  %47 = load i32, ptr %4, align 8, !tbaa !23, !noalias !51
  %48 = icmp eq i32 %46, %47
  br i1 %48, label %51, label %49

49:                                               ; preds = %44
  store i32 %46, ptr %41, align 4, !tbaa !23, !noalias !51
  %50 = getelementptr inbounds nuw i8, ptr %41, i64 4
  br label %51

51:                                               ; preds = %49, %44
  %52 = phi ptr [ %41, %44 ], [ %50, %49 ]
  %53 = add nuw nsw i64 %33, 8
  %54 = icmp eq i64 %53, 20
  br i1 %54, label %73, label %55, !llvm.loop !32

55:                                               ; preds = %51
  %56 = getelementptr inbounds nuw i8, ptr %2, i64 %53
  %57 = load i32, ptr %56, align 4, !tbaa !23, !noalias !51
  %58 = load i32, ptr %4, align 8, !tbaa !23, !noalias !51
  %59 = icmp eq i32 %57, %58
  br i1 %59, label %62, label %60

60:                                               ; preds = %55
  store i32 %57, ptr %52, align 4, !tbaa !23, !noalias !51
  %61 = getelementptr inbounds nuw i8, ptr %52, i64 4
  br label %62

62:                                               ; preds = %60, %55
  %63 = phi ptr [ %52, %55 ], [ %61, %60 ]
  %64 = add nuw nsw i64 %33, 12
  %65 = icmp eq i64 %64, 20
  br i1 %65, label %73, label %66, !llvm.loop !32

66:                                               ; preds = %62
  %67 = getelementptr inbounds nuw i8, ptr %2, i64 %64
  %68 = load i32, ptr %67, align 4, !tbaa !23, !noalias !51
  %69 = load i32, ptr %4, align 8, !tbaa !23, !noalias !51
  %70 = icmp eq i32 %68, %69
  br i1 %70, label %73, label %71

71:                                               ; preds = %66
  store i32 %68, ptr %63, align 4, !tbaa !23, !noalias !51
  %72 = getelementptr inbounds nuw i8, ptr %63, i64 4
  br label %73

73:                                               ; preds = %66, %71, %62, %51, %40
  %74 = phi ptr [ %41, %40 ], [ %52, %51 ], [ %63, %62 ], [ %63, %66 ], [ %72, %71 ]
  %75 = icmp eq ptr %74, %2
  br i1 %75, label %77, label %76

76:                                               ; preds = %28, %73
  call void @__assert_fail(ptr noundef nonnull @.str.11, ptr noundef nonnull @.str.1, i32 noundef 65, ptr noundef nonnull @__PRETTY_FUNCTION__._Z4testI16forward_iteratorIPiES2_Li5ELi0EEv4DataIXT1_EXT2_EE) #7
  unreachable

77:                                               ; preds = %73
  call void @llvm.lifetime.end.p0(ptr nonnull %2) #6
  call void @llvm.lifetime.start.p0(ptr nonnull %3) #6
  call void @llvm.memcpy.p0.p0.i64(ptr noundef nonnull align 4 dereferenceable(20) %3, ptr noundef nonnull align 8 dereferenceable(20) %0, i64 20, i1 false), !tbaa.struct !9
  %78 = load i32, ptr %4, align 8, !tbaa !23, !noalias !52
  %79 = load i32, ptr %3, align 4, !tbaa !23, !noalias !52
  %80 = icmp eq i32 %79, %78
  br i1 %80, label %90, label %81

81:                                               ; preds = %77
  %82 = load i32, ptr %6, align 4, !tbaa !23, !noalias !52
  %83 = icmp eq i32 %82, %78
  br i1 %83, label %90, label %84

84:                                               ; preds = %81
  %85 = load i32, ptr %7, align 4, !tbaa !23, !noalias !52
  %86 = icmp eq i32 %85, %78
  br i1 %86, label %90, label %87

87:                                               ; preds = %84
  %88 = load i32, ptr %8, align 4, !tbaa !23, !noalias !52
  %89 = icmp eq i32 %88, %78
  br i1 %89, label %90, label %135

90:                                               ; preds = %77, %81, %84, %87
  %91 = phi ptr [ %13, %87 ], [ %14, %84 ], [ %15, %81 ], [ %16, %77 ]
  %92 = phi i64 [ 16, %87 ], [ 12, %84 ], [ 8, %81 ], [ 4, %77 ]
  %93 = phi ptr [ %8, %87 ], [ %7, %84 ], [ %6, %81 ], [ %3, %77 ]
  %94 = load i32, ptr %91, align 4, !tbaa !23, !noalias !61
  %95 = load i32, ptr %4, align 8, !tbaa !23, !noalias !61
  %96 = icmp eq i32 %94, %95
  br i1 %96, label %99, label %97

97:                                               ; preds = %90
  store i32 %94, ptr %93, align 4, !tbaa !23, !noalias !61
  %98 = getelementptr inbounds nuw i8, ptr %93, i64 4
  br label %99

99:                                               ; preds = %97, %90
  %100 = phi ptr [ %93, %90 ], [ %98, %97 ]
  %101 = add nuw nsw i64 %92, 4
  %102 = icmp eq i64 %101, 20
  br i1 %102, label %132, label %103, !llvm.loop !32

103:                                              ; preds = %99
  %104 = getelementptr inbounds nuw i8, ptr %3, i64 %101
  %105 = load i32, ptr %104, align 4, !tbaa !23, !noalias !61
  %106 = load i32, ptr %4, align 8, !tbaa !23, !noalias !61
  %107 = icmp eq i32 %105, %106
  br i1 %107, label %110, label %108

108:                                              ; preds = %103
  store i32 %105, ptr %100, align 4, !tbaa !23, !noalias !61
  %109 = getelementptr inbounds nuw i8, ptr %100, i64 4
  br label %110

110:                                              ; preds = %108, %103
  %111 = phi ptr [ %100, %103 ], [ %109, %108 ]
  %112 = add nuw nsw i64 %92, 8
  %113 = icmp eq i64 %112, 20
  br i1 %113, label %132, label %114, !llvm.loop !32

114:                                              ; preds = %110
  %115 = getelementptr inbounds nuw i8, ptr %3, i64 %112
  %116 = load i32, ptr %115, align 4, !tbaa !23, !noalias !61
  %117 = load i32, ptr %4, align 8, !tbaa !23, !noalias !61
  %118 = icmp eq i32 %116, %117
  br i1 %118, label %121, label %119

119:                                              ; preds = %114
  store i32 %116, ptr %111, align 4, !tbaa !23, !noalias !61
  %120 = getelementptr inbounds nuw i8, ptr %111, i64 4
  br label %121

121:                                              ; preds = %119, %114
  %122 = phi ptr [ %111, %114 ], [ %120, %119 ]
  %123 = add nuw nsw i64 %92, 12
  %124 = icmp eq i64 %123, 20
  br i1 %124, label %132, label %125, !llvm.loop !32

125:                                              ; preds = %121
  %126 = getelementptr inbounds nuw i8, ptr %3, i64 %123
  %127 = load i32, ptr %126, align 4, !tbaa !23, !noalias !61
  %128 = load i32, ptr %4, align 8, !tbaa !23, !noalias !61
  %129 = icmp eq i32 %127, %128
  br i1 %129, label %132, label %130

130:                                              ; preds = %125
  store i32 %127, ptr %122, align 4, !tbaa !23, !noalias !61
  %131 = getelementptr inbounds nuw i8, ptr %122, i64 4
  br label %132

132:                                              ; preds = %125, %130, %121, %110, %99
  %133 = phi ptr [ %100, %99 ], [ %111, %110 ], [ %122, %121 ], [ %122, %125 ], [ %131, %130 ]
  %134 = icmp eq ptr %133, %3
  br i1 %134, label %136, label %135

135:                                              ; preds = %87, %132
  call void @__assert_fail(ptr noundef nonnull @.str.11, ptr noundef nonnull @.str.1, i32 noundef 76, ptr noundef nonnull @__PRETTY_FUNCTION__._Z4testI16forward_iteratorIPiES2_Li5ELi0EEv4DataIXT1_EXT2_EE) #7
  unreachable

136:                                              ; preds = %132
  call void @llvm.lifetime.end.p0(ptr nonnull %3) #6
  ret void
}

; Function Attrs: mustprogress uwtable
define linkonce_odr dso_local void @_Z4testI16forward_iteratorIPiES2_Li8ELi5EEv4DataIXT1_EXT2_EE(ptr noundef byval(%struct.Data.12) align 8 %0) local_unnamed_addr #4 comdat personality ptr @__gxx_personality_v0 {
  %2 = alloca %"struct.std::array.13", align 4
  %3 = alloca %"struct.std::array.13", align 4
  call void @llvm.lifetime.start.p0(ptr nonnull %2) #6
  call void @llvm.memcpy.p0.p0.i64(ptr noundef nonnull align 4 dereferenceable(32) %2, ptr noundef nonnull align 8 dereferenceable(32) %0, i64 32, i1 false), !tbaa.struct !19
  %4 = getelementptr inbounds nuw i8, ptr %0, i64 52
  %5 = load i32, ptr %4, align 4, !tbaa !23, !noalias !62
  %6 = load i32, ptr %2, align 4, !tbaa !23, !noalias !62
  %7 = icmp eq i32 %6, %5
  br i1 %7, label %32, label %8

8:                                                ; preds = %1
  %9 = getelementptr inbounds nuw i8, ptr %2, i64 4
  %10 = load i32, ptr %9, align 4, !tbaa !23, !noalias !62
  %11 = icmp eq i32 %10, %5
  br i1 %11, label %32, label %12

12:                                               ; preds = %8
  %13 = getelementptr inbounds nuw i8, ptr %2, i64 8
  %14 = load i32, ptr %13, align 4, !tbaa !23, !noalias !62
  %15 = icmp eq i32 %14, %5
  br i1 %15, label %32, label %16

16:                                               ; preds = %12
  %17 = getelementptr inbounds nuw i8, ptr %2, i64 12
  %18 = load i32, ptr %17, align 4, !tbaa !23, !noalias !62
  %19 = icmp eq i32 %18, %5
  br i1 %19, label %32, label %20

20:                                               ; preds = %16
  %21 = getelementptr inbounds nuw i8, ptr %2, i64 16
  %22 = load i32, ptr %21, align 4, !tbaa !23, !noalias !62
  %23 = icmp eq i32 %22, %5
  br i1 %23, label %32, label %24

24:                                               ; preds = %20
  %25 = getelementptr inbounds nuw i8, ptr %2, i64 20
  %26 = load i32, ptr %25, align 4, !tbaa !23, !noalias !62
  %27 = icmp eq i32 %26, %5
  br i1 %27, label %32, label %28

28:                                               ; preds = %24
  %29 = getelementptr inbounds nuw i8, ptr %2, i64 24
  %30 = load i32, ptr %29, align 4, !tbaa !23, !noalias !62
  %31 = icmp eq i32 %30, %5
  br i1 %31, label %32, label %50

32:                                               ; preds = %28, %24, %20, %16, %12, %8, %1
  %33 = phi i64 [ 0, %1 ], [ 4, %8 ], [ 8, %12 ], [ 12, %16 ], [ 16, %20 ], [ 20, %24 ], [ 24, %28 ]
  %34 = add nuw nsw i64 %33, 4
  br label %35

35:                                               ; preds = %32, %44
  %36 = phi i64 [ %46, %44 ], [ %34, %32 ]
  %37 = phi i64 [ %45, %44 ], [ %33, %32 ]
  %38 = getelementptr inbounds nuw i8, ptr %2, i64 %36
  %39 = load i32, ptr %38, align 4, !tbaa !23, !noalias !69
  %40 = icmp eq i32 %39, %5
  br i1 %40, label %44, label %41

41:                                               ; preds = %35
  %42 = getelementptr inbounds nuw i8, ptr %2, i64 %37
  store i32 %39, ptr %42, align 4, !tbaa !23, !noalias !69
  %43 = add nuw nsw i64 %37, 4
  br label %44

44:                                               ; preds = %41, %35
  %45 = phi i64 [ %37, %35 ], [ %43, %41 ]
  %46 = add nuw nsw i64 %36, 4
  %47 = icmp eq i64 %46, 32
  br i1 %47, label %48, label %35, !llvm.loop !32

48:                                               ; preds = %44
  %49 = icmp eq i64 %45, 20
  br i1 %49, label %51, label %50

50:                                               ; preds = %28, %48
  tail call void @__assert_fail(ptr noundef nonnull @.str.11, ptr noundef nonnull @.str.1, i32 noundef 65, ptr noundef nonnull @__PRETTY_FUNCTION__._Z4testI16forward_iteratorIPiES2_Li8ELi5EEv4DataIXT1_EXT2_EE) #7
  unreachable

51:                                               ; preds = %48
  %52 = getelementptr inbounds nuw i8, ptr %0, i64 32
  %53 = call i32 @bcmp(ptr noundef nonnull dereferenceable(20) %2, ptr noundef nonnull dereferenceable(20) %52, i64 20)
  %54 = icmp eq i32 %53, 0
  br i1 %54, label %56, label %55

55:                                               ; preds = %51
  tail call void @__assert_fail(ptr noundef nonnull @.str.13, ptr noundef nonnull @.str.1, i32 noundef 67, ptr noundef nonnull @__PRETTY_FUNCTION__._Z4testI16forward_iteratorIPiES2_Li8ELi5EEv4DataIXT1_EXT2_EE) #7
  unreachable

56:                                               ; preds = %51
  call void @llvm.lifetime.end.p0(ptr nonnull %2) #6
  call void @llvm.lifetime.start.p0(ptr nonnull %3) #6
  call void @llvm.memcpy.p0.p0.i64(ptr noundef nonnull align 4 dereferenceable(32) %3, ptr noundef nonnull align 8 dereferenceable(32) %0, i64 32, i1 false), !tbaa.struct !19
  %57 = load i32, ptr %3, align 4, !tbaa !23, !noalias !70
  %58 = icmp eq i32 %57, %5
  br i1 %58, label %83, label %59

59:                                               ; preds = %56
  %60 = getelementptr inbounds nuw i8, ptr %3, i64 4
  %61 = load i32, ptr %60, align 4, !tbaa !23, !noalias !70
  %62 = icmp eq i32 %61, %5
  br i1 %62, label %83, label %63

63:                                               ; preds = %59
  %64 = getelementptr inbounds nuw i8, ptr %3, i64 8
  %65 = load i32, ptr %64, align 4, !tbaa !23, !noalias !70
  %66 = icmp eq i32 %65, %5
  br i1 %66, label %83, label %67

67:                                               ; preds = %63
  %68 = getelementptr inbounds nuw i8, ptr %3, i64 12
  %69 = load i32, ptr %68, align 4, !tbaa !23, !noalias !70
  %70 = icmp eq i32 %69, %5
  br i1 %70, label %83, label %71

71:                                               ; preds = %67
  %72 = getelementptr inbounds nuw i8, ptr %3, i64 16
  %73 = load i32, ptr %72, align 4, !tbaa !23, !noalias !70
  %74 = icmp eq i32 %73, %5
  br i1 %74, label %83, label %75

75:                                               ; preds = %71
  %76 = getelementptr inbounds nuw i8, ptr %3, i64 20
  %77 = load i32, ptr %76, align 4, !tbaa !23, !noalias !70
  %78 = icmp eq i32 %77, %5
  br i1 %78, label %83, label %79

79:                                               ; preds = %75
  %80 = getelementptr inbounds nuw i8, ptr %3, i64 24
  %81 = load i32, ptr %80, align 4, !tbaa !23, !noalias !70
  %82 = icmp eq i32 %81, %5
  br i1 %82, label %83, label %101

83:                                               ; preds = %79, %75, %71, %67, %63, %59, %56
  %84 = phi i64 [ 0, %56 ], [ 4, %59 ], [ 8, %63 ], [ 12, %67 ], [ 16, %71 ], [ 20, %75 ], [ 24, %79 ]
  %85 = add nuw nsw i64 %84, 4
  br label %86

86:                                               ; preds = %83, %95
  %87 = phi i64 [ %97, %95 ], [ %85, %83 ]
  %88 = phi i64 [ %96, %95 ], [ %84, %83 ]
  %89 = getelementptr inbounds nuw i8, ptr %3, i64 %87
  %90 = load i32, ptr %89, align 4, !tbaa !23, !noalias !79
  %91 = icmp eq i32 %90, %5
  br i1 %91, label %95, label %92

92:                                               ; preds = %86
  %93 = getelementptr inbounds nuw i8, ptr %3, i64 %88
  store i32 %90, ptr %93, align 4, !tbaa !23, !noalias !79
  %94 = add nuw nsw i64 %88, 4
  br label %95

95:                                               ; preds = %92, %86
  %96 = phi i64 [ %88, %86 ], [ %94, %92 ]
  %97 = add nuw nsw i64 %87, 4
  %98 = icmp eq i64 %97, 32
  br i1 %98, label %99, label %86, !llvm.loop !32

99:                                               ; preds = %95
  %100 = icmp eq i64 %96, 20
  br i1 %100, label %102, label %101

101:                                              ; preds = %79, %99
  tail call void @__assert_fail(ptr noundef nonnull @.str.11, ptr noundef nonnull @.str.1, i32 noundef 76, ptr noundef nonnull @__PRETTY_FUNCTION__._Z4testI16forward_iteratorIPiES2_Li8ELi5EEv4DataIXT1_EXT2_EE) #7
  unreachable

102:                                              ; preds = %99
  %103 = call i32 @bcmp(ptr noundef nonnull dereferenceable(20) %3, ptr noundef nonnull dereferenceable(20) %52, i64 20)
  %104 = icmp eq i32 %103, 0
  br i1 %104, label %106, label %105

105:                                              ; preds = %102
  tail call void @__assert_fail(ptr noundef nonnull @.str.13, ptr noundef nonnull @.str.1, i32 noundef 78, ptr noundef nonnull @__PRETTY_FUNCTION__._Z4testI16forward_iteratorIPiES2_Li8ELi5EEv4DataIXT1_EXT2_EE) #7
  unreachable

106:                                              ; preds = %102
  call void @llvm.lifetime.end.p0(ptr nonnull %3) #6
  ret void
}

declare i32 @__gxx_personality_v0(...)

; Function Attrs: mustprogress uwtable
define linkonce_odr dso_local void @_Z4testI16forward_iteratorIPiE16sentinel_wrapperIS2_ELi6ELi5EEv4DataIXT1_EXT2_EE(ptr noundef byval(%struct.Data) align 8 %0) local_unnamed_addr #4 comdat personality ptr @__gxx_personality_v0 {
  %2 = alloca %"struct.std::array", align 4
  %3 = alloca %"struct.std::array", align 4
  call void @llvm.lifetime.start.p0(ptr nonnull %2) #6
  call void @llvm.memcpy.p0.p0.i64(ptr noundef nonnull align 4 dereferenceable(24) %2, ptr noundef nonnull align 8 dereferenceable(24) %0, i64 24, i1 false), !tbaa.struct !5
  %4 = getelementptr inbounds nuw i8, ptr %0, i64 44
  %5 = load i32, ptr %4, align 4, !tbaa !23, !noalias !80
  %6 = load i32, ptr %2, align 4, !tbaa !23, !noalias !80
  %7 = icmp eq i32 %6, %5
  br i1 %7, label %28, label %8

8:                                                ; preds = %1
  %9 = getelementptr inbounds nuw i8, ptr %2, i64 4
  %10 = load i32, ptr %9, align 4, !tbaa !23, !noalias !80
  %11 = icmp eq i32 %10, %5
  br i1 %11, label %28, label %12

12:                                               ; preds = %8
  %13 = getelementptr inbounds nuw i8, ptr %2, i64 8
  %14 = load i32, ptr %13, align 4, !tbaa !23, !noalias !80
  %15 = icmp eq i32 %14, %5
  br i1 %15, label %28, label %16

16:                                               ; preds = %12
  %17 = getelementptr inbounds nuw i8, ptr %2, i64 12
  %18 = load i32, ptr %17, align 4, !tbaa !23, !noalias !80
  %19 = icmp eq i32 %18, %5
  br i1 %19, label %28, label %20

20:                                               ; preds = %16
  %21 = getelementptr inbounds nuw i8, ptr %2, i64 16
  %22 = load i32, ptr %21, align 4, !tbaa !23, !noalias !80
  %23 = icmp eq i32 %22, %5
  br i1 %23, label %28, label %24

24:                                               ; preds = %20
  %25 = getelementptr inbounds nuw i8, ptr %2, i64 20
  %26 = load i32, ptr %25, align 4, !tbaa !23, !noalias !80
  %27 = icmp eq i32 %26, %5
  br i1 %27, label %47, label %46

28:                                               ; preds = %20, %16, %12, %8, %1
  %29 = phi i64 [ 0, %1 ], [ 4, %8 ], [ 8, %12 ], [ 12, %16 ], [ 16, %20 ]
  %30 = add nuw nsw i64 %29, 4
  br label %31

31:                                               ; preds = %28, %40
  %32 = phi i64 [ %42, %40 ], [ %30, %28 ]
  %33 = phi i64 [ %41, %40 ], [ %29, %28 ]
  %34 = getelementptr inbounds nuw i8, ptr %2, i64 %32
  %35 = load i32, ptr %34, align 4, !tbaa !23, !noalias !87
  %36 = icmp eq i32 %35, %5
  br i1 %36, label %40, label %37

37:                                               ; preds = %31
  %38 = getelementptr inbounds nuw i8, ptr %2, i64 %33
  store i32 %35, ptr %38, align 4, !tbaa !23, !noalias !87
  %39 = add nuw nsw i64 %33, 4
  br label %40

40:                                               ; preds = %37, %31
  %41 = phi i64 [ %33, %31 ], [ %39, %37 ]
  %42 = add nuw nsw i64 %32, 4
  %43 = icmp eq i64 %42, 24
  br i1 %43, label %44, label %31, !llvm.loop !88

44:                                               ; preds = %40
  %45 = icmp eq i64 %41, 20
  br i1 %45, label %47, label %46

46:                                               ; preds = %24, %44
  tail call void @__assert_fail(ptr noundef nonnull @.str.11, ptr noundef nonnull @.str.1, i32 noundef 65, ptr noundef nonnull @__PRETTY_FUNCTION__._Z4testI16forward_iteratorIPiE16sentinel_wrapperIS2_ELi6ELi5EEv4DataIXT1_EXT2_EE) #7
  unreachable

47:                                               ; preds = %24, %44
  %48 = getelementptr inbounds nuw i8, ptr %0, i64 24
  %49 = call i32 @bcmp(ptr noundef nonnull dereferenceable(20) %2, ptr noundef nonnull dereferenceable(20) %48, i64 20)
  %50 = icmp eq i32 %49, 0
  br i1 %50, label %52, label %51

51:                                               ; preds = %47
  tail call void @__assert_fail(ptr noundef nonnull @.str.13, ptr noundef nonnull @.str.1, i32 noundef 67, ptr noundef nonnull @__PRETTY_FUNCTION__._Z4testI16forward_iteratorIPiE16sentinel_wrapperIS2_ELi6ELi5EEv4DataIXT1_EXT2_EE) #7
  unreachable

52:                                               ; preds = %47
  call void @llvm.lifetime.end.p0(ptr nonnull %2) #6
  call void @llvm.lifetime.start.p0(ptr nonnull %3) #6
  call void @llvm.memcpy.p0.p0.i64(ptr noundef nonnull align 4 dereferenceable(24) %3, ptr noundef nonnull align 8 dereferenceable(24) %0, i64 24, i1 false), !tbaa.struct !5
  %53 = load i32, ptr %3, align 4, !tbaa !23, !noalias !89
  %54 = icmp eq i32 %53, %5
  br i1 %54, label %75, label %55

55:                                               ; preds = %52
  %56 = getelementptr inbounds nuw i8, ptr %3, i64 4
  %57 = load i32, ptr %56, align 4, !tbaa !23, !noalias !89
  %58 = icmp eq i32 %57, %5
  br i1 %58, label %75, label %59

59:                                               ; preds = %55
  %60 = getelementptr inbounds nuw i8, ptr %3, i64 8
  %61 = load i32, ptr %60, align 4, !tbaa !23, !noalias !89
  %62 = icmp eq i32 %61, %5
  br i1 %62, label %75, label %63

63:                                               ; preds = %59
  %64 = getelementptr inbounds nuw i8, ptr %3, i64 12
  %65 = load i32, ptr %64, align 4, !tbaa !23, !noalias !89
  %66 = icmp eq i32 %65, %5
  br i1 %66, label %75, label %67

67:                                               ; preds = %63
  %68 = getelementptr inbounds nuw i8, ptr %3, i64 16
  %69 = load i32, ptr %68, align 4, !tbaa !23, !noalias !89
  %70 = icmp eq i32 %69, %5
  br i1 %70, label %75, label %71

71:                                               ; preds = %67
  %72 = getelementptr inbounds nuw i8, ptr %3, i64 20
  %73 = load i32, ptr %72, align 4, !tbaa !23, !noalias !89
  %74 = icmp eq i32 %73, %5
  br i1 %74, label %94, label %93

75:                                               ; preds = %67, %63, %59, %55, %52
  %76 = phi i64 [ 0, %52 ], [ 4, %55 ], [ 8, %59 ], [ 12, %63 ], [ 16, %67 ]
  %77 = add nuw nsw i64 %76, 4
  br label %78

78:                                               ; preds = %75, %87
  %79 = phi i64 [ %89, %87 ], [ %77, %75 ]
  %80 = phi i64 [ %88, %87 ], [ %76, %75 ]
  %81 = getelementptr inbounds nuw i8, ptr %3, i64 %79
  %82 = load i32, ptr %81, align 4, !tbaa !23, !noalias !98
  %83 = icmp eq i32 %82, %5
  br i1 %83, label %87, label %84

84:                                               ; preds = %78
  %85 = getelementptr inbounds nuw i8, ptr %3, i64 %80
  store i32 %82, ptr %85, align 4, !tbaa !23, !noalias !98
  %86 = add nuw nsw i64 %80, 4
  br label %87

87:                                               ; preds = %84, %78
  %88 = phi i64 [ %80, %78 ], [ %86, %84 ]
  %89 = add nuw nsw i64 %79, 4
  %90 = icmp eq i64 %89, 24
  br i1 %90, label %91, label %78, !llvm.loop !88

91:                                               ; preds = %87
  %92 = icmp eq i64 %88, 20
  br i1 %92, label %94, label %93

93:                                               ; preds = %71, %91
  tail call void @__assert_fail(ptr noundef nonnull @.str.11, ptr noundef nonnull @.str.1, i32 noundef 76, ptr noundef nonnull @__PRETTY_FUNCTION__._Z4testI16forward_iteratorIPiE16sentinel_wrapperIS2_ELi6ELi5EEv4DataIXT1_EXT2_EE) #7
  unreachable

94:                                               ; preds = %71, %91
  %95 = call i32 @bcmp(ptr noundef nonnull dereferenceable(20) %3, ptr noundef nonnull dereferenceable(20) %48, i64 20)
  %96 = icmp eq i32 %95, 0
  br i1 %96, label %98, label %97

97:                                               ; preds = %94
  tail call void @__assert_fail(ptr noundef nonnull @.str.13, ptr noundef nonnull @.str.1, i32 noundef 78, ptr noundef nonnull @__PRETTY_FUNCTION__._Z4testI16forward_iteratorIPiE16sentinel_wrapperIS2_ELi6ELi5EEv4DataIXT1_EXT2_EE) #7
  unreachable

98:                                               ; preds = %94
  call void @llvm.lifetime.end.p0(ptr nonnull %3) #6
  ret void
}

; Function Attrs: mustprogress uwtable
define linkonce_odr dso_local void @_Z4testI16forward_iteratorIPiE16sentinel_wrapperIS2_ELi2ELi1EEv4DataIXT1_EXT2_EE(i64 %0, i64 %1) local_unnamed_addr #4 comdat personality ptr @__gxx_personality_v0 {
  %3 = trunc i64 %1 to i32
  %4 = trunc i64 %0 to i32
  %5 = lshr i64 %0, 32
  %6 = trunc nuw i64 %5 to i32
  %7 = lshr i64 %1, 32
  %8 = trunc nuw i64 %7 to i32
  %9 = trunc i64 %0 to i32
  %10 = icmp eq i32 %9, %8
  %11 = lshr i64 %0, 32
  br i1 %10, label %14, label %12

12:                                               ; preds = %2
  %13 = icmp eq i64 %11, %7
  br i1 %13, label %19, label %18

14:                                               ; preds = %2
  %15 = icmp eq i64 %5, %7
  br i1 %15, label %18, label %16

16:                                               ; preds = %14
  %17 = icmp eq i32 %6, %3
  br i1 %17, label %24, label %23

18:                                               ; preds = %14, %12
  tail call void @__assert_fail(ptr noundef nonnull @.str.11, ptr noundef nonnull @.str.1, i32 noundef 65, ptr noundef nonnull @__PRETTY_FUNCTION__._Z4testI16forward_iteratorIPiE16sentinel_wrapperIS2_ELi2ELi1EEv4DataIXT1_EXT2_EE) #7
  unreachable

19:                                               ; preds = %12
  %20 = icmp eq i32 %4, %3
  br i1 %20, label %21, label %23

21:                                               ; preds = %19
  %22 = icmp eq i64 %11, %7
  br i1 %22, label %28, label %27

23:                                               ; preds = %19, %16
  tail call void @__assert_fail(ptr noundef nonnull @.str.13, ptr noundef nonnull @.str.1, i32 noundef 67, ptr noundef nonnull @__PRETTY_FUNCTION__._Z4testI16forward_iteratorIPiE16sentinel_wrapperIS2_ELi2ELi1EEv4DataIXT1_EXT2_EE) #7
  unreachable

24:                                               ; preds = %16
  %25 = lshr i64 %0, 32
  %26 = icmp eq i64 %25, %7
  br i1 %26, label %27, label %28

27:                                               ; preds = %24, %21
  tail call void @__assert_fail(ptr noundef nonnull @.str.11, ptr noundef nonnull @.str.1, i32 noundef 76, ptr noundef nonnull @__PRETTY_FUNCTION__._Z4testI16forward_iteratorIPiE16sentinel_wrapperIS2_ELi2ELi1EEv4DataIXT1_EXT2_EE) #7
  unreachable

28:                                               ; preds = %24, %21
  %29 = phi i64 [ %0, %21 ], [ %25, %24 ]
  %30 = trunc i64 %29 to i32
  %31 = icmp eq i32 %30, %3
  br i1 %31, label %33, label %32

32:                                               ; preds = %28
  tail call void @__assert_fail(ptr noundef nonnull @.str.13, ptr noundef nonnull @.str.1, i32 noundef 78, ptr noundef nonnull @__PRETTY_FUNCTION__._Z4testI16forward_iteratorIPiE16sentinel_wrapperIS2_ELi2ELi1EEv4DataIXT1_EXT2_EE) #7
  unreachable

33:                                               ; preds = %28
  ret void
}

; Function Attrs: mustprogress uwtable
define linkonce_odr dso_local void @_Z4testI16forward_iteratorIPiE16sentinel_wrapperIS2_ELi5ELi0EEv4DataIXT1_EXT2_EE(ptr noundef byval(%struct.Data.11) align 8 %0) local_unnamed_addr #4 comdat personality ptr @__gxx_personality_v0 {
  %2 = alloca %"struct.std::array.3", align 4
  %3 = alloca %"struct.std::array.3", align 4
  call void @llvm.lifetime.start.p0(ptr nonnull %2) #6
  call void @llvm.memcpy.p0.p0.i64(ptr noundef nonnull align 4 dereferenceable(20) %2, ptr noundef nonnull align 8 dereferenceable(20) %0, i64 20, i1 false), !tbaa.struct !9
  %4 = getelementptr inbounds nuw i8, ptr %0, i64 24
  %5 = load i32, ptr %4, align 8, !tbaa !23, !noalias !99
  %6 = getelementptr inbounds nuw i8, ptr %3, i64 4
  %7 = getelementptr inbounds nuw i8, ptr %3, i64 8
  %8 = getelementptr inbounds nuw i8, ptr %3, i64 12
  %9 = getelementptr inbounds nuw i8, ptr %2, i64 8
  %10 = getelementptr inbounds nuw i8, ptr %2, i64 12
  %11 = load i32, ptr %2, align 4, !tbaa !23, !noalias !99
  %12 = icmp eq i32 %11, %5
  %13 = getelementptr inbounds nuw i8, ptr %3, i64 16
  %14 = getelementptr inbounds nuw i8, ptr %3, i64 12
  %15 = getelementptr inbounds nuw i8, ptr %3, i64 8
  %16 = getelementptr inbounds nuw i8, ptr %3, i64 4
  %17 = getelementptr inbounds nuw i8, ptr %2, i64 16
  %18 = getelementptr inbounds nuw i8, ptr %2, i64 12
  %19 = getelementptr inbounds nuw i8, ptr %2, i64 4
  br i1 %12, label %31, label %20

20:                                               ; preds = %1
  %21 = getelementptr inbounds nuw i8, ptr %2, i64 8
  %22 = getelementptr inbounds nuw i8, ptr %2, i64 4
  %23 = load i32, ptr %22, align 4, !tbaa !23, !noalias !99
  %24 = icmp eq i32 %23, %5
  br i1 %24, label %31, label %25

25:                                               ; preds = %20
  %26 = load i32, ptr %9, align 4, !tbaa !23, !noalias !99
  %27 = icmp eq i32 %26, %5
  br i1 %27, label %31, label %28

28:                                               ; preds = %25
  %29 = load i32, ptr %10, align 4, !tbaa !23, !noalias !99
  %30 = icmp eq i32 %29, %5
  br i1 %30, label %31, label %76

31:                                               ; preds = %1, %20, %25, %28
  %32 = phi ptr [ %17, %28 ], [ %18, %25 ], [ %21, %20 ], [ %19, %1 ]
  %33 = phi i64 [ 16, %28 ], [ 12, %25 ], [ 8, %20 ], [ 4, %1 ]
  %34 = phi ptr [ %10, %28 ], [ %9, %25 ], [ %22, %20 ], [ %2, %1 ]
  %35 = load i32, ptr %32, align 4, !tbaa !23, !noalias !106
  %36 = load i32, ptr %4, align 8, !tbaa !23, !noalias !106
  %37 = icmp eq i32 %35, %36
  br i1 %37, label %40, label %38

38:                                               ; preds = %31
  store i32 %35, ptr %34, align 4, !tbaa !23, !noalias !106
  %39 = getelementptr inbounds nuw i8, ptr %34, i64 4
  br label %40

40:                                               ; preds = %38, %31
  %41 = phi ptr [ %34, %31 ], [ %39, %38 ]
  %42 = add nuw nsw i64 %33, 4
  %43 = icmp eq i64 %42, 20
  br i1 %43, label %73, label %44, !llvm.loop !88

44:                                               ; preds = %40
  %45 = getelementptr inbounds nuw i8, ptr %2, i64 %42
  %46 = load i32, ptr %45, align 4, !tbaa !23, !noalias !106
  %47 = load i32, ptr %4, align 8, !tbaa !23, !noalias !106
  %48 = icmp eq i32 %46, %47
  br i1 %48, label %51, label %49

49:                                               ; preds = %44
  store i32 %46, ptr %41, align 4, !tbaa !23, !noalias !106
  %50 = getelementptr inbounds nuw i8, ptr %41, i64 4
  br label %51

51:                                               ; preds = %49, %44
  %52 = phi ptr [ %41, %44 ], [ %50, %49 ]
  %53 = add nuw nsw i64 %33, 8
  %54 = icmp eq i64 %53, 20
  br i1 %54, label %73, label %55, !llvm.loop !88

55:                                               ; preds = %51
  %56 = getelementptr inbounds nuw i8, ptr %2, i64 %53
  %57 = load i32, ptr %56, align 4, !tbaa !23, !noalias !106
  %58 = load i32, ptr %4, align 8, !tbaa !23, !noalias !106
  %59 = icmp eq i32 %57, %58
  br i1 %59, label %62, label %60

60:                                               ; preds = %55
  store i32 %57, ptr %52, align 4, !tbaa !23, !noalias !106
  %61 = getelementptr inbounds nuw i8, ptr %52, i64 4
  br label %62

62:                                               ; preds = %60, %55
  %63 = phi ptr [ %52, %55 ], [ %61, %60 ]
  %64 = add nuw nsw i64 %33, 12
  %65 = icmp eq i64 %64, 20
  br i1 %65, label %73, label %66, !llvm.loop !88

66:                                               ; preds = %62
  %67 = getelementptr inbounds nuw i8, ptr %2, i64 %64
  %68 = load i32, ptr %67, align 4, !tbaa !23, !noalias !106
  %69 = load i32, ptr %4, align 8, !tbaa !23, !noalias !106
  %70 = icmp eq i32 %68, %69
  br i1 %70, label %73, label %71

71:                                               ; preds = %66
  store i32 %68, ptr %63, align 4, !tbaa !23, !noalias !106
  %72 = getelementptr inbounds nuw i8, ptr %63, i64 4
  br label %73

73:                                               ; preds = %66, %71, %62, %51, %40
  %74 = phi ptr [ %41, %40 ], [ %52, %51 ], [ %63, %62 ], [ %63, %66 ], [ %72, %71 ]
  %75 = icmp eq ptr %74, %2
  br i1 %75, label %77, label %76

76:                                               ; preds = %28, %73
  call void @__assert_fail(ptr noundef nonnull @.str.11, ptr noundef nonnull @.str.1, i32 noundef 65, ptr noundef nonnull @__PRETTY_FUNCTION__._Z4testI16forward_iteratorIPiE16sentinel_wrapperIS2_ELi5ELi0EEv4DataIXT1_EXT2_EE) #7
  unreachable

77:                                               ; preds = %73
  call void @llvm.lifetime.end.p0(ptr nonnull %2) #6
  call void @llvm.lifetime.start.p0(ptr nonnull %3) #6
  call void @llvm.memcpy.p0.p0.i64(ptr noundef nonnull align 4 dereferenceable(20) %3, ptr noundef nonnull align 8 dereferenceable(20) %0, i64 20, i1 false), !tbaa.struct !9
  %78 = load i32, ptr %4, align 8, !tbaa !23, !noalias !107
  %79 = load i32, ptr %3, align 4, !tbaa !23, !noalias !107
  %80 = icmp eq i32 %79, %78
  br i1 %80, label %90, label %81

81:                                               ; preds = %77
  %82 = load i32, ptr %6, align 4, !tbaa !23, !noalias !107
  %83 = icmp eq i32 %82, %78
  br i1 %83, label %90, label %84

84:                                               ; preds = %81
  %85 = load i32, ptr %7, align 4, !tbaa !23, !noalias !107
  %86 = icmp eq i32 %85, %78
  br i1 %86, label %90, label %87

87:                                               ; preds = %84
  %88 = load i32, ptr %8, align 4, !tbaa !23, !noalias !107
  %89 = icmp eq i32 %88, %78
  br i1 %89, label %90, label %135

90:                                               ; preds = %77, %81, %84, %87
  %91 = phi ptr [ %13, %87 ], [ %14, %84 ], [ %15, %81 ], [ %16, %77 ]
  %92 = phi i64 [ 16, %87 ], [ 12, %84 ], [ 8, %81 ], [ 4, %77 ]
  %93 = phi ptr [ %8, %87 ], [ %7, %84 ], [ %6, %81 ], [ %3, %77 ]
  %94 = load i32, ptr %91, align 4, !tbaa !23, !noalias !116
  %95 = load i32, ptr %4, align 8, !tbaa !23, !noalias !116
  %96 = icmp eq i32 %94, %95
  br i1 %96, label %99, label %97

97:                                               ; preds = %90
  store i32 %94, ptr %93, align 4, !tbaa !23, !noalias !116
  %98 = getelementptr inbounds nuw i8, ptr %93, i64 4
  br label %99

99:                                               ; preds = %97, %90
  %100 = phi ptr [ %93, %90 ], [ %98, %97 ]
  %101 = add nuw nsw i64 %92, 4
  %102 = icmp eq i64 %101, 20
  br i1 %102, label %132, label %103, !llvm.loop !88

103:                                              ; preds = %99
  %104 = getelementptr inbounds nuw i8, ptr %3, i64 %101
  %105 = load i32, ptr %104, align 4, !tbaa !23, !noalias !116
  %106 = load i32, ptr %4, align 8, !tbaa !23, !noalias !116
  %107 = icmp eq i32 %105, %106
  br i1 %107, label %110, label %108

108:                                              ; preds = %103
  store i32 %105, ptr %100, align 4, !tbaa !23, !noalias !116
  %109 = getelementptr inbounds nuw i8, ptr %100, i64 4
  br label %110

110:                                              ; preds = %108, %103
  %111 = phi ptr [ %100, %103 ], [ %109, %108 ]
  %112 = add nuw nsw i64 %92, 8
  %113 = icmp eq i64 %112, 20
  br i1 %113, label %132, label %114, !llvm.loop !88

114:                                              ; preds = %110
  %115 = getelementptr inbounds nuw i8, ptr %3, i64 %112
  %116 = load i32, ptr %115, align 4, !tbaa !23, !noalias !116
  %117 = load i32, ptr %4, align 8, !tbaa !23, !noalias !116
  %118 = icmp eq i32 %116, %117
  br i1 %118, label %121, label %119

119:                                              ; preds = %114
  store i32 %116, ptr %111, align 4, !tbaa !23, !noalias !116
  %120 = getelementptr inbounds nuw i8, ptr %111, i64 4
  br label %121

121:                                              ; preds = %119, %114
  %122 = phi ptr [ %111, %114 ], [ %120, %119 ]
  %123 = add nuw nsw i64 %92, 12
  %124 = icmp eq i64 %123, 20
  br i1 %124, label %132, label %125, !llvm.loop !88

125:                                              ; preds = %121
  %126 = getelementptr inbounds nuw i8, ptr %3, i64 %123
  %127 = load i32, ptr %126, align 4, !tbaa !23, !noalias !116
  %128 = load i32, ptr %4, align 8, !tbaa !23, !noalias !116
  %129 = icmp eq i32 %127, %128
  br i1 %129, label %132, label %130

130:                                              ; preds = %125
  store i32 %127, ptr %122, align 4, !tbaa !23, !noalias !116
  %131 = getelementptr inbounds nuw i8, ptr %122, i64 4
  br label %132

132:                                              ; preds = %125, %130, %121, %110, %99
  %133 = phi ptr [ %100, %99 ], [ %111, %110 ], [ %122, %121 ], [ %122, %125 ], [ %131, %130 ]
  %134 = icmp eq ptr %133, %3
  br i1 %134, label %136, label %135

135:                                              ; preds = %87, %132
  call void @__assert_fail(ptr noundef nonnull @.str.11, ptr noundef nonnull @.str.1, i32 noundef 76, ptr noundef nonnull @__PRETTY_FUNCTION__._Z4testI16forward_iteratorIPiE16sentinel_wrapperIS2_ELi5ELi0EEv4DataIXT1_EXT2_EE) #7
  unreachable

136:                                              ; preds = %132
  call void @llvm.lifetime.end.p0(ptr nonnull %3) #6
  ret void
}

; Function Attrs: mustprogress uwtable
define linkonce_odr dso_local void @_Z4testI16forward_iteratorIPiE16sentinel_wrapperIS2_ELi8ELi5EEv4DataIXT1_EXT2_EE(ptr noundef byval(%struct.Data.12) align 8 %0) local_unnamed_addr #4 comdat personality ptr @__gxx_personality_v0 {
  %2 = alloca %"struct.std::array.13", align 4
  %3 = alloca %"struct.std::array.13", align 4
  call void @llvm.lifetime.start.p0(ptr nonnull %2) #6
  call void @llvm.memcpy.p0.p0.i64(ptr noundef nonnull align 4 dereferenceable(32) %2, ptr noundef nonnull align 8 dereferenceable(32) %0, i64 32, i1 false), !tbaa.struct !19
  %4 = getelementptr inbounds nuw i8, ptr %0, i64 52
  %5 = load i32, ptr %4, align 4, !tbaa !23, !noalias !117
  %6 = load i32, ptr %2, align 4, !tbaa !23, !noalias !117
  %7 = icmp eq i32 %6, %5
  br i1 %7, label %32, label %8

8:                                                ; preds = %1
  %9 = getelementptr inbounds nuw i8, ptr %2, i64 4
  %10 = load i32, ptr %9, align 4, !tbaa !23, !noalias !117
  %11 = icmp eq i32 %10, %5
  br i1 %11, label %32, label %12

12:                                               ; preds = %8
  %13 = getelementptr inbounds nuw i8, ptr %2, i64 8
  %14 = load i32, ptr %13, align 4, !tbaa !23, !noalias !117
  %15 = icmp eq i32 %14, %5
  br i1 %15, label %32, label %16

16:                                               ; preds = %12
  %17 = getelementptr inbounds nuw i8, ptr %2, i64 12
  %18 = load i32, ptr %17, align 4, !tbaa !23, !noalias !117
  %19 = icmp eq i32 %18, %5
  br i1 %19, label %32, label %20

20:                                               ; preds = %16
  %21 = getelementptr inbounds nuw i8, ptr %2, i64 16
  %22 = load i32, ptr %21, align 4, !tbaa !23, !noalias !117
  %23 = icmp eq i32 %22, %5
  br i1 %23, label %32, label %24

24:                                               ; preds = %20
  %25 = getelementptr inbounds nuw i8, ptr %2, i64 20
  %26 = load i32, ptr %25, align 4, !tbaa !23, !noalias !117
  %27 = icmp eq i32 %26, %5
  br i1 %27, label %32, label %28

28:                                               ; preds = %24
  %29 = getelementptr inbounds nuw i8, ptr %2, i64 24
  %30 = load i32, ptr %29, align 4, !tbaa !23, !noalias !117
  %31 = icmp eq i32 %30, %5
  br i1 %31, label %32, label %50

32:                                               ; preds = %28, %24, %20, %16, %12, %8, %1
  %33 = phi i64 [ 0, %1 ], [ 4, %8 ], [ 8, %12 ], [ 12, %16 ], [ 16, %20 ], [ 20, %24 ], [ 24, %28 ]
  %34 = add nuw nsw i64 %33, 4
  br label %35

35:                                               ; preds = %32, %44
  %36 = phi i64 [ %46, %44 ], [ %34, %32 ]
  %37 = phi i64 [ %45, %44 ], [ %33, %32 ]
  %38 = getelementptr inbounds nuw i8, ptr %2, i64 %36
  %39 = load i32, ptr %38, align 4, !tbaa !23, !noalias !124
  %40 = icmp eq i32 %39, %5
  br i1 %40, label %44, label %41

41:                                               ; preds = %35
  %42 = getelementptr inbounds nuw i8, ptr %2, i64 %37
  store i32 %39, ptr %42, align 4, !tbaa !23, !noalias !124
  %43 = add nuw nsw i64 %37, 4
  br label %44

44:                                               ; preds = %41, %35
  %45 = phi i64 [ %37, %35 ], [ %43, %41 ]
  %46 = add nuw nsw i64 %36, 4
  %47 = icmp eq i64 %46, 32
  br i1 %47, label %48, label %35, !llvm.loop !88

48:                                               ; preds = %44
  %49 = icmp eq i64 %45, 20
  br i1 %49, label %51, label %50

50:                                               ; preds = %28, %48
  tail call void @__assert_fail(ptr noundef nonnull @.str.11, ptr noundef nonnull @.str.1, i32 noundef 65, ptr noundef nonnull @__PRETTY_FUNCTION__._Z4testI16forward_iteratorIPiE16sentinel_wrapperIS2_ELi8ELi5EEv4DataIXT1_EXT2_EE) #7
  unreachable

51:                                               ; preds = %48
  %52 = getelementptr inbounds nuw i8, ptr %0, i64 32
  %53 = call i32 @bcmp(ptr noundef nonnull dereferenceable(20) %2, ptr noundef nonnull dereferenceable(20) %52, i64 20)
  %54 = icmp eq i32 %53, 0
  br i1 %54, label %56, label %55

55:                                               ; preds = %51
  tail call void @__assert_fail(ptr noundef nonnull @.str.13, ptr noundef nonnull @.str.1, i32 noundef 67, ptr noundef nonnull @__PRETTY_FUNCTION__._Z4testI16forward_iteratorIPiE16sentinel_wrapperIS2_ELi8ELi5EEv4DataIXT1_EXT2_EE) #7
  unreachable

56:                                               ; preds = %51
  call void @llvm.lifetime.end.p0(ptr nonnull %2) #6
  call void @llvm.lifetime.start.p0(ptr nonnull %3) #6
  call void @llvm.memcpy.p0.p0.i64(ptr noundef nonnull align 4 dereferenceable(32) %3, ptr noundef nonnull align 8 dereferenceable(32) %0, i64 32, i1 false), !tbaa.struct !19
  %57 = load i32, ptr %3, align 4, !tbaa !23, !noalias !125
  %58 = icmp eq i32 %57, %5
  br i1 %58, label %83, label %59

59:                                               ; preds = %56
  %60 = getelementptr inbounds nuw i8, ptr %3, i64 4
  %61 = load i32, ptr %60, align 4, !tbaa !23, !noalias !125
  %62 = icmp eq i32 %61, %5
  br i1 %62, label %83, label %63

63:                                               ; preds = %59
  %64 = getelementptr inbounds nuw i8, ptr %3, i64 8
  %65 = load i32, ptr %64, align 4, !tbaa !23, !noalias !125
  %66 = icmp eq i32 %65, %5
  br i1 %66, label %83, label %67

67:                                               ; preds = %63
  %68 = getelementptr inbounds nuw i8, ptr %3, i64 12
  %69 = load i32, ptr %68, align 4, !tbaa !23, !noalias !125
  %70 = icmp eq i32 %69, %5
  br i1 %70, label %83, label %71

71:                                               ; preds = %67
  %72 = getelementptr inbounds nuw i8, ptr %3, i64 16
  %73 = load i32, ptr %72, align 4, !tbaa !23, !noalias !125
  %74 = icmp eq i32 %73, %5
  br i1 %74, label %83, label %75

75:                                               ; preds = %71
  %76 = getelementptr inbounds nuw i8, ptr %3, i64 20
  %77 = load i32, ptr %76, align 4, !tbaa !23, !noalias !125
  %78 = icmp eq i32 %77, %5
  br i1 %78, label %83, label %79

79:                                               ; preds = %75
  %80 = getelementptr inbounds nuw i8, ptr %3, i64 24
  %81 = load i32, ptr %80, align 4, !tbaa !23, !noalias !125
  %82 = icmp eq i32 %81, %5
  br i1 %82, label %83, label %101

83:                                               ; preds = %79, %75, %71, %67, %63, %59, %56
  %84 = phi i64 [ 0, %56 ], [ 4, %59 ], [ 8, %63 ], [ 12, %67 ], [ 16, %71 ], [ 20, %75 ], [ 24, %79 ]
  %85 = add nuw nsw i64 %84, 4
  br label %86

86:                                               ; preds = %83, %95
  %87 = phi i64 [ %97, %95 ], [ %85, %83 ]
  %88 = phi i64 [ %96, %95 ], [ %84, %83 ]
  %89 = getelementptr inbounds nuw i8, ptr %3, i64 %87
  %90 = load i32, ptr %89, align 4, !tbaa !23, !noalias !134
  %91 = icmp eq i32 %90, %5
  br i1 %91, label %95, label %92

92:                                               ; preds = %86
  %93 = getelementptr inbounds nuw i8, ptr %3, i64 %88
  store i32 %90, ptr %93, align 4, !tbaa !23, !noalias !134
  %94 = add nuw nsw i64 %88, 4
  br label %95

95:                                               ; preds = %92, %86
  %96 = phi i64 [ %88, %86 ], [ %94, %92 ]
  %97 = add nuw nsw i64 %87, 4
  %98 = icmp eq i64 %97, 32
  br i1 %98, label %99, label %86, !llvm.loop !88

99:                                               ; preds = %95
  %100 = icmp eq i64 %96, 20
  br i1 %100, label %102, label %101

101:                                              ; preds = %79, %99
  tail call void @__assert_fail(ptr noundef nonnull @.str.11, ptr noundef nonnull @.str.1, i32 noundef 76, ptr noundef nonnull @__PRETTY_FUNCTION__._Z4testI16forward_iteratorIPiE16sentinel_wrapperIS2_ELi8ELi5EEv4DataIXT1_EXT2_EE) #7
  unreachable

102:                                              ; preds = %99
  %103 = call i32 @bcmp(ptr noundef nonnull dereferenceable(20) %3, ptr noundef nonnull dereferenceable(20) %52, i64 20)
  %104 = icmp eq i32 %103, 0
  br i1 %104, label %106, label %105

105:                                              ; preds = %102
  tail call void @__assert_fail(ptr noundef nonnull @.str.13, ptr noundef nonnull @.str.1, i32 noundef 78, ptr noundef nonnull @__PRETTY_FUNCTION__._Z4testI16forward_iteratorIPiE16sentinel_wrapperIS2_ELi8ELi5EEv4DataIXT1_EXT2_EE) #7
  unreachable

106:                                              ; preds = %102
  call void @llvm.lifetime.end.p0(ptr nonnull %3) #6
  ret void
}

; Function Attrs: mustprogress uwtable
define linkonce_odr dso_local void @_Z4testI16forward_iteratorIPiE14sized_sentinelIS2_ELi6ELi5EEv4DataIXT1_EXT2_EE(ptr noundef byval(%struct.Data) align 8 %0) local_unnamed_addr #4 comdat personality ptr @__gxx_personality_v0 {
  %2 = alloca %"struct.std::array", align 4
  %3 = alloca %"struct.std::array", align 4
  call void @llvm.lifetime.start.p0(ptr nonnull %2) #6
  call void @llvm.memcpy.p0.p0.i64(ptr noundef nonnull align 4 dereferenceable(24) %2, ptr noundef nonnull align 8 dereferenceable(24) %0, i64 24, i1 false), !tbaa.struct !5
  %4 = getelementptr inbounds nuw i8, ptr %0, i64 44
  %5 = load i32, ptr %4, align 4, !tbaa !23, !noalias !135
  %6 = load i32, ptr %2, align 4, !tbaa !23, !noalias !135
  %7 = icmp eq i32 %6, %5
  br i1 %7, label %28, label %8

8:                                                ; preds = %1
  %9 = getelementptr inbounds nuw i8, ptr %2, i64 4
  %10 = load i32, ptr %9, align 4, !tbaa !23, !noalias !135
  %11 = icmp eq i32 %10, %5
  br i1 %11, label %28, label %12

12:                                               ; preds = %8
  %13 = getelementptr inbounds nuw i8, ptr %2, i64 8
  %14 = load i32, ptr %13, align 4, !tbaa !23, !noalias !135
  %15 = icmp eq i32 %14, %5
  br i1 %15, label %28, label %16

16:                                               ; preds = %12
  %17 = getelementptr inbounds nuw i8, ptr %2, i64 12
  %18 = load i32, ptr %17, align 4, !tbaa !23, !noalias !135
  %19 = icmp eq i32 %18, %5
  br i1 %19, label %28, label %20

20:                                               ; preds = %16
  %21 = getelementptr inbounds nuw i8, ptr %2, i64 16
  %22 = load i32, ptr %21, align 4, !tbaa !23, !noalias !135
  %23 = icmp eq i32 %22, %5
  br i1 %23, label %28, label %24

24:                                               ; preds = %20
  %25 = getelementptr inbounds nuw i8, ptr %2, i64 20
  %26 = load i32, ptr %25, align 4, !tbaa !23, !noalias !135
  %27 = icmp eq i32 %26, %5
  br i1 %27, label %47, label %46

28:                                               ; preds = %20, %16, %12, %8, %1
  %29 = phi i64 [ 0, %1 ], [ 4, %8 ], [ 8, %12 ], [ 12, %16 ], [ 16, %20 ]
  %30 = add nuw nsw i64 %29, 4
  br label %31

31:                                               ; preds = %28, %40
  %32 = phi i64 [ %42, %40 ], [ %30, %28 ]
  %33 = phi i64 [ %41, %40 ], [ %29, %28 ]
  %34 = getelementptr inbounds nuw i8, ptr %2, i64 %32
  %35 = load i32, ptr %34, align 4, !tbaa !23, !noalias !142
  %36 = icmp eq i32 %35, %5
  br i1 %36, label %40, label %37

37:                                               ; preds = %31
  %38 = getelementptr inbounds nuw i8, ptr %2, i64 %33
  store i32 %35, ptr %38, align 4, !tbaa !23, !noalias !142
  %39 = add nuw nsw i64 %33, 4
  br label %40

40:                                               ; preds = %37, %31
  %41 = phi i64 [ %33, %31 ], [ %39, %37 ]
  %42 = add nuw nsw i64 %32, 4
  %43 = icmp eq i64 %42, 24
  br i1 %43, label %44, label %31, !llvm.loop !143

44:                                               ; preds = %40
  %45 = icmp eq i64 %41, 20
  br i1 %45, label %47, label %46

46:                                               ; preds = %24, %44
  tail call void @__assert_fail(ptr noundef nonnull @.str.11, ptr noundef nonnull @.str.1, i32 noundef 65, ptr noundef nonnull @__PRETTY_FUNCTION__._Z4testI16forward_iteratorIPiE14sized_sentinelIS2_ELi6ELi5EEv4DataIXT1_EXT2_EE) #7
  unreachable

47:                                               ; preds = %24, %44
  %48 = getelementptr inbounds nuw i8, ptr %0, i64 24
  %49 = call i32 @bcmp(ptr noundef nonnull dereferenceable(20) %2, ptr noundef nonnull dereferenceable(20) %48, i64 20)
  %50 = icmp eq i32 %49, 0
  br i1 %50, label %52, label %51

51:                                               ; preds = %47
  tail call void @__assert_fail(ptr noundef nonnull @.str.13, ptr noundef nonnull @.str.1, i32 noundef 67, ptr noundef nonnull @__PRETTY_FUNCTION__._Z4testI16forward_iteratorIPiE14sized_sentinelIS2_ELi6ELi5EEv4DataIXT1_EXT2_EE) #7
  unreachable

52:                                               ; preds = %47
  call void @llvm.lifetime.end.p0(ptr nonnull %2) #6
  call void @llvm.lifetime.start.p0(ptr nonnull %3) #6
  call void @llvm.memcpy.p0.p0.i64(ptr noundef nonnull align 4 dereferenceable(24) %3, ptr noundef nonnull align 8 dereferenceable(24) %0, i64 24, i1 false), !tbaa.struct !5
  %53 = load i32, ptr %3, align 4, !tbaa !23, !noalias !144
  %54 = icmp eq i32 %53, %5
  br i1 %54, label %75, label %55

55:                                               ; preds = %52
  %56 = getelementptr inbounds nuw i8, ptr %3, i64 4
  %57 = load i32, ptr %56, align 4, !tbaa !23, !noalias !144
  %58 = icmp eq i32 %57, %5
  br i1 %58, label %75, label %59

59:                                               ; preds = %55
  %60 = getelementptr inbounds nuw i8, ptr %3, i64 8
  %61 = load i32, ptr %60, align 4, !tbaa !23, !noalias !144
  %62 = icmp eq i32 %61, %5
  br i1 %62, label %75, label %63

63:                                               ; preds = %59
  %64 = getelementptr inbounds nuw i8, ptr %3, i64 12
  %65 = load i32, ptr %64, align 4, !tbaa !23, !noalias !144
  %66 = icmp eq i32 %65, %5
  br i1 %66, label %75, label %67

67:                                               ; preds = %63
  %68 = getelementptr inbounds nuw i8, ptr %3, i64 16
  %69 = load i32, ptr %68, align 4, !tbaa !23, !noalias !144
  %70 = icmp eq i32 %69, %5
  br i1 %70, label %75, label %71

71:                                               ; preds = %67
  %72 = getelementptr inbounds nuw i8, ptr %3, i64 20
  %73 = load i32, ptr %72, align 4, !tbaa !23, !noalias !144
  %74 = icmp eq i32 %73, %5
  br i1 %74, label %94, label %93

75:                                               ; preds = %67, %63, %59, %55, %52
  %76 = phi i64 [ 0, %52 ], [ 4, %55 ], [ 8, %59 ], [ 12, %63 ], [ 16, %67 ]
  %77 = add nuw nsw i64 %76, 4
  br label %78

78:                                               ; preds = %75, %87
  %79 = phi i64 [ %89, %87 ], [ %77, %75 ]
  %80 = phi i64 [ %88, %87 ], [ %76, %75 ]
  %81 = getelementptr inbounds nuw i8, ptr %3, i64 %79
  %82 = load i32, ptr %81, align 4, !tbaa !23, !noalias !153
  %83 = icmp eq i32 %82, %5
  br i1 %83, label %87, label %84

84:                                               ; preds = %78
  %85 = getelementptr inbounds nuw i8, ptr %3, i64 %80
  store i32 %82, ptr %85, align 4, !tbaa !23, !noalias !153
  %86 = add nuw nsw i64 %80, 4
  br label %87

87:                                               ; preds = %84, %78
  %88 = phi i64 [ %80, %78 ], [ %86, %84 ]
  %89 = add nuw nsw i64 %79, 4
  %90 = icmp eq i64 %89, 24
  br i1 %90, label %91, label %78, !llvm.loop !143

91:                                               ; preds = %87
  %92 = icmp eq i64 %88, 20
  br i1 %92, label %94, label %93

93:                                               ; preds = %71, %91
  tail call void @__assert_fail(ptr noundef nonnull @.str.11, ptr noundef nonnull @.str.1, i32 noundef 76, ptr noundef nonnull @__PRETTY_FUNCTION__._Z4testI16forward_iteratorIPiE14sized_sentinelIS2_ELi6ELi5EEv4DataIXT1_EXT2_EE) #7
  unreachable

94:                                               ; preds = %71, %91
  %95 = call i32 @bcmp(ptr noundef nonnull dereferenceable(20) %3, ptr noundef nonnull dereferenceable(20) %48, i64 20)
  %96 = icmp eq i32 %95, 0
  br i1 %96, label %98, label %97

97:                                               ; preds = %94
  tail call void @__assert_fail(ptr noundef nonnull @.str.13, ptr noundef nonnull @.str.1, i32 noundef 78, ptr noundef nonnull @__PRETTY_FUNCTION__._Z4testI16forward_iteratorIPiE14sized_sentinelIS2_ELi6ELi5EEv4DataIXT1_EXT2_EE) #7
  unreachable

98:                                               ; preds = %94
  call void @llvm.lifetime.end.p0(ptr nonnull %3) #6
  ret void
}

; Function Attrs: mustprogress uwtable
define linkonce_odr dso_local void @_Z4testI16forward_iteratorIPiE14sized_sentinelIS2_ELi2ELi1EEv4DataIXT1_EXT2_EE(i64 %0, i64 %1) local_unnamed_addr #4 comdat personality ptr @__gxx_personality_v0 {
  %3 = trunc i64 %1 to i32
  %4 = trunc i64 %0 to i32
  %5 = lshr i64 %0, 32
  %6 = trunc nuw i64 %5 to i32
  %7 = lshr i64 %1, 32
  %8 = trunc nuw i64 %7 to i32
  %9 = trunc i64 %0 to i32
  %10 = icmp eq i32 %9, %8
  %11 = lshr i64 %0, 32
  br i1 %10, label %14, label %12

12:                                               ; preds = %2
  %13 = icmp eq i64 %11, %7
  br i1 %13, label %19, label %18

14:                                               ; preds = %2
  %15 = icmp eq i64 %5, %7
  br i1 %15, label %18, label %16

16:                                               ; preds = %14
  %17 = icmp eq i32 %6, %3
  br i1 %17, label %24, label %23

18:                                               ; preds = %14, %12
  tail call void @__assert_fail(ptr noundef nonnull @.str.11, ptr noundef nonnull @.str.1, i32 noundef 65, ptr noundef nonnull @__PRETTY_FUNCTION__._Z4testI16forward_iteratorIPiE14sized_sentinelIS2_ELi2ELi1EEv4DataIXT1_EXT2_EE) #7
  unreachable

19:                                               ; preds = %12
  %20 = icmp eq i32 %4, %3
  br i1 %20, label %21, label %23

21:                                               ; preds = %19
  %22 = icmp eq i64 %11, %7
  br i1 %22, label %28, label %27

23:                                               ; preds = %19, %16
  tail call void @__assert_fail(ptr noundef nonnull @.str.13, ptr noundef nonnull @.str.1, i32 noundef 67, ptr noundef nonnull @__PRETTY_FUNCTION__._Z4testI16forward_iteratorIPiE14sized_sentinelIS2_ELi2ELi1EEv4DataIXT1_EXT2_EE) #7
  unreachable

24:                                               ; preds = %16
  %25 = lshr i64 %0, 32
  %26 = icmp eq i64 %25, %7
  br i1 %26, label %27, label %28

27:                                               ; preds = %24, %21
  tail call void @__assert_fail(ptr noundef nonnull @.str.11, ptr noundef nonnull @.str.1, i32 noundef 76, ptr noundef nonnull @__PRETTY_FUNCTION__._Z4testI16forward_iteratorIPiE14sized_sentinelIS2_ELi2ELi1EEv4DataIXT1_EXT2_EE) #7
  unreachable

28:                                               ; preds = %24, %21
  %29 = phi i64 [ %0, %21 ], [ %25, %24 ]
  %30 = trunc i64 %29 to i32
  %31 = icmp eq i32 %30, %3
  br i1 %31, label %33, label %32

32:                                               ; preds = %28
  tail call void @__assert_fail(ptr noundef nonnull @.str.13, ptr noundef nonnull @.str.1, i32 noundef 78, ptr noundef nonnull @__PRETTY_FUNCTION__._Z4testI16forward_iteratorIPiE14sized_sentinelIS2_ELi2ELi1EEv4DataIXT1_EXT2_EE) #7
  unreachable

33:                                               ; preds = %28
  ret void
}

; Function Attrs: mustprogress uwtable
define linkonce_odr dso_local void @_Z4testI16forward_iteratorIPiE14sized_sentinelIS2_ELi5ELi0EEv4DataIXT1_EXT2_EE(ptr noundef byval(%struct.Data.11) align 8 %0) local_unnamed_addr #4 comdat personality ptr @__gxx_personality_v0 {
  %2 = alloca %"struct.std::array.3", align 4
  %3 = alloca %"struct.std::array.3", align 4
  call void @llvm.lifetime.start.p0(ptr nonnull %2) #6
  call void @llvm.memcpy.p0.p0.i64(ptr noundef nonnull align 4 dereferenceable(20) %2, ptr noundef nonnull align 8 dereferenceable(20) %0, i64 20, i1 false), !tbaa.struct !9
  %4 = getelementptr inbounds nuw i8, ptr %0, i64 24
  %5 = load i32, ptr %4, align 8, !tbaa !23, !noalias !154
  %6 = getelementptr inbounds nuw i8, ptr %3, i64 4
  %7 = getelementptr inbounds nuw i8, ptr %3, i64 8
  %8 = getelementptr inbounds nuw i8, ptr %3, i64 12
  %9 = getelementptr inbounds nuw i8, ptr %2, i64 8
  %10 = getelementptr inbounds nuw i8, ptr %2, i64 12
  %11 = load i32, ptr %2, align 4, !tbaa !23, !noalias !154
  %12 = icmp eq i32 %11, %5
  %13 = getelementptr inbounds nuw i8, ptr %3, i64 16
  %14 = getelementptr inbounds nuw i8, ptr %3, i64 12
  %15 = getelementptr inbounds nuw i8, ptr %3, i64 8
  %16 = getelementptr inbounds nuw i8, ptr %3, i64 4
  %17 = getelementptr inbounds nuw i8, ptr %2, i64 16
  %18 = getelementptr inbounds nuw i8, ptr %2, i64 12
  %19 = getelementptr inbounds nuw i8, ptr %2, i64 4
  br i1 %12, label %31, label %20

20:                                               ; preds = %1
  %21 = getelementptr inbounds nuw i8, ptr %2, i64 8
  %22 = getelementptr inbounds nuw i8, ptr %2, i64 4
  %23 = load i32, ptr %22, align 4, !tbaa !23, !noalias !154
  %24 = icmp eq i32 %23, %5
  br i1 %24, label %31, label %25

25:                                               ; preds = %20
  %26 = load i32, ptr %9, align 4, !tbaa !23, !noalias !154
  %27 = icmp eq i32 %26, %5
  br i1 %27, label %31, label %28

28:                                               ; preds = %25
  %29 = load i32, ptr %10, align 4, !tbaa !23, !noalias !154
  %30 = icmp eq i32 %29, %5
  br i1 %30, label %31, label %76

31:                                               ; preds = %1, %20, %25, %28
  %32 = phi ptr [ %17, %28 ], [ %18, %25 ], [ %21, %20 ], [ %19, %1 ]
  %33 = phi i64 [ 16, %28 ], [ 12, %25 ], [ 8, %20 ], [ 4, %1 ]
  %34 = phi ptr [ %10, %28 ], [ %9, %25 ], [ %22, %20 ], [ %2, %1 ]
  %35 = load i32, ptr %32, align 4, !tbaa !23, !noalias !161
  %36 = load i32, ptr %4, align 8, !tbaa !23, !noalias !161
  %37 = icmp eq i32 %35, %36
  br i1 %37, label %40, label %38

38:                                               ; preds = %31
  store i32 %35, ptr %34, align 4, !tbaa !23, !noalias !161
  %39 = getelementptr inbounds nuw i8, ptr %34, i64 4
  br label %40

40:                                               ; preds = %38, %31
  %41 = phi ptr [ %34, %31 ], [ %39, %38 ]
  %42 = add nuw nsw i64 %33, 4
  %43 = icmp eq i64 %42, 20
  br i1 %43, label %73, label %44, !llvm.loop !143

44:                                               ; preds = %40
  %45 = getelementptr inbounds nuw i8, ptr %2, i64 %42
  %46 = load i32, ptr %45, align 4, !tbaa !23, !noalias !161
  %47 = load i32, ptr %4, align 8, !tbaa !23, !noalias !161
  %48 = icmp eq i32 %46, %47
  br i1 %48, label %51, label %49

49:                                               ; preds = %44
  store i32 %46, ptr %41, align 4, !tbaa !23, !noalias !161
  %50 = getelementptr inbounds nuw i8, ptr %41, i64 4
  br label %51

51:                                               ; preds = %49, %44
  %52 = phi ptr [ %41, %44 ], [ %50, %49 ]
  %53 = add nuw nsw i64 %33, 8
  %54 = icmp eq i64 %53, 20
  br i1 %54, label %73, label %55, !llvm.loop !143

55:                                               ; preds = %51
  %56 = getelementptr inbounds nuw i8, ptr %2, i64 %53
  %57 = load i32, ptr %56, align 4, !tbaa !23, !noalias !161
  %58 = load i32, ptr %4, align 8, !tbaa !23, !noalias !161
  %59 = icmp eq i32 %57, %58
  br i1 %59, label %62, label %60

60:                                               ; preds = %55
  store i32 %57, ptr %52, align 4, !tbaa !23, !noalias !161
  %61 = getelementptr inbounds nuw i8, ptr %52, i64 4
  br label %62

62:                                               ; preds = %60, %55
  %63 = phi ptr [ %52, %55 ], [ %61, %60 ]
  %64 = add nuw nsw i64 %33, 12
  %65 = icmp eq i64 %64, 20
  br i1 %65, label %73, label %66, !llvm.loop !143

66:                                               ; preds = %62
  %67 = getelementptr inbounds nuw i8, ptr %2, i64 %64
  %68 = load i32, ptr %67, align 4, !tbaa !23, !noalias !161
  %69 = load i32, ptr %4, align 8, !tbaa !23, !noalias !161
  %70 = icmp eq i32 %68, %69
  br i1 %70, label %73, label %71

71:                                               ; preds = %66
  store i32 %68, ptr %63, align 4, !tbaa !23, !noalias !161
  %72 = getelementptr inbounds nuw i8, ptr %63, i64 4
  br label %73

73:                                               ; preds = %66, %71, %62, %51, %40
  %74 = phi ptr [ %41, %40 ], [ %52, %51 ], [ %63, %62 ], [ %63, %66 ], [ %72, %71 ]
  %75 = icmp eq ptr %74, %2
  br i1 %75, label %77, label %76

76:                                               ; preds = %28, %73
  call void @__assert_fail(ptr noundef nonnull @.str.11, ptr noundef nonnull @.str.1, i32 noundef 65, ptr noundef nonnull @__PRETTY_FUNCTION__._Z4testI16forward_iteratorIPiE14sized_sentinelIS2_ELi5ELi0EEv4DataIXT1_EXT2_EE) #7
  unreachable

77:                                               ; preds = %73
  call void @llvm.lifetime.end.p0(ptr nonnull %2) #6
  call void @llvm.lifetime.start.p0(ptr nonnull %3) #6
  call void @llvm.memcpy.p0.p0.i64(ptr noundef nonnull align 4 dereferenceable(20) %3, ptr noundef nonnull align 8 dereferenceable(20) %0, i64 20, i1 false), !tbaa.struct !9
  %78 = load i32, ptr %4, align 8, !tbaa !23, !noalias !162
  %79 = load i32, ptr %3, align 4, !tbaa !23, !noalias !162
  %80 = icmp eq i32 %79, %78
  br i1 %80, label %90, label %81

81:                                               ; preds = %77
  %82 = load i32, ptr %6, align 4, !tbaa !23, !noalias !162
  %83 = icmp eq i32 %82, %78
  br i1 %83, label %90, label %84

84:                                               ; preds = %81
  %85 = load i32, ptr %7, align 4, !tbaa !23, !noalias !162
  %86 = icmp eq i32 %85, %78
  br i1 %86, label %90, label %87

87:                                               ; preds = %84
  %88 = load i32, ptr %8, align 4, !tbaa !23, !noalias !162
  %89 = icmp eq i32 %88, %78
  br i1 %89, label %90, label %135

90:                                               ; preds = %77, %81, %84, %87
  %91 = phi ptr [ %13, %87 ], [ %14, %84 ], [ %15, %81 ], [ %16, %77 ]
  %92 = phi i64 [ 16, %87 ], [ 12, %84 ], [ 8, %81 ], [ 4, %77 ]
  %93 = phi ptr [ %8, %87 ], [ %7, %84 ], [ %6, %81 ], [ %3, %77 ]
  %94 = load i32, ptr %91, align 4, !tbaa !23, !noalias !171
  %95 = load i32, ptr %4, align 8, !tbaa !23, !noalias !171
  %96 = icmp eq i32 %94, %95
  br i1 %96, label %99, label %97

97:                                               ; preds = %90
  store i32 %94, ptr %93, align 4, !tbaa !23, !noalias !171
  %98 = getelementptr inbounds nuw i8, ptr %93, i64 4
  br label %99

99:                                               ; preds = %97, %90
  %100 = phi ptr [ %93, %90 ], [ %98, %97 ]
  %101 = add nuw nsw i64 %92, 4
  %102 = icmp eq i64 %101, 20
  br i1 %102, label %132, label %103, !llvm.loop !143

103:                                              ; preds = %99
  %104 = getelementptr inbounds nuw i8, ptr %3, i64 %101
  %105 = load i32, ptr %104, align 4, !tbaa !23, !noalias !171
  %106 = load i32, ptr %4, align 8, !tbaa !23, !noalias !171
  %107 = icmp eq i32 %105, %106
  br i1 %107, label %110, label %108

108:                                              ; preds = %103
  store i32 %105, ptr %100, align 4, !tbaa !23, !noalias !171
  %109 = getelementptr inbounds nuw i8, ptr %100, i64 4
  br label %110

110:                                              ; preds = %108, %103
  %111 = phi ptr [ %100, %103 ], [ %109, %108 ]
  %112 = add nuw nsw i64 %92, 8
  %113 = icmp eq i64 %112, 20
  br i1 %113, label %132, label %114, !llvm.loop !143

114:                                              ; preds = %110
  %115 = getelementptr inbounds nuw i8, ptr %3, i64 %112
  %116 = load i32, ptr %115, align 4, !tbaa !23, !noalias !171
  %117 = load i32, ptr %4, align 8, !tbaa !23, !noalias !171
  %118 = icmp eq i32 %116, %117
  br i1 %118, label %121, label %119

119:                                              ; preds = %114
  store i32 %116, ptr %111, align 4, !tbaa !23, !noalias !171
  %120 = getelementptr inbounds nuw i8, ptr %111, i64 4
  br label %121

121:                                              ; preds = %119, %114
  %122 = phi ptr [ %111, %114 ], [ %120, %119 ]
  %123 = add nuw nsw i64 %92, 12
  %124 = icmp eq i64 %123, 20
  br i1 %124, label %132, label %125, !llvm.loop !143

125:                                              ; preds = %121
  %126 = getelementptr inbounds nuw i8, ptr %3, i64 %123
  %127 = load i32, ptr %126, align 4, !tbaa !23, !noalias !171
  %128 = load i32, ptr %4, align 8, !tbaa !23, !noalias !171
  %129 = icmp eq i32 %127, %128
  br i1 %129, label %132, label %130

130:                                              ; preds = %125
  store i32 %127, ptr %122, align 4, !tbaa !23, !noalias !171
  %131 = getelementptr inbounds nuw i8, ptr %122, i64 4
  br label %132

132:                                              ; preds = %125, %130, %121, %110, %99
  %133 = phi ptr [ %100, %99 ], [ %111, %110 ], [ %122, %121 ], [ %122, %125 ], [ %131, %130 ]
  %134 = icmp eq ptr %133, %3
  br i1 %134, label %136, label %135

135:                                              ; preds = %87, %132
  call void @__assert_fail(ptr noundef nonnull @.str.11, ptr noundef nonnull @.str.1, i32 noundef 76, ptr noundef nonnull @__PRETTY_FUNCTION__._Z4testI16forward_iteratorIPiE14sized_sentinelIS2_ELi5ELi0EEv4DataIXT1_EXT2_EE) #7
  unreachable

136:                                              ; preds = %132
  call void @llvm.lifetime.end.p0(ptr nonnull %3) #6
  ret void
}

; Function Attrs: mustprogress uwtable
define linkonce_odr dso_local void @_Z4testI16forward_iteratorIPiE14sized_sentinelIS2_ELi8ELi5EEv4DataIXT1_EXT2_EE(ptr noundef byval(%struct.Data.12) align 8 %0) local_unnamed_addr #4 comdat personality ptr @__gxx_personality_v0 {
  %2 = alloca %"struct.std::array.13", align 4
  %3 = alloca %"struct.std::array.13", align 4
  call void @llvm.lifetime.start.p0(ptr nonnull %2) #6
  call void @llvm.memcpy.p0.p0.i64(ptr noundef nonnull align 4 dereferenceable(32) %2, ptr noundef nonnull align 8 dereferenceable(32) %0, i64 32, i1 false), !tbaa.struct !19
  %4 = getelementptr inbounds nuw i8, ptr %0, i64 52
  %5 = load i32, ptr %4, align 4, !tbaa !23, !noalias !172
  %6 = load i32, ptr %2, align 4, !tbaa !23, !noalias !172
  %7 = icmp eq i32 %6, %5
  br i1 %7, label %32, label %8

8:                                                ; preds = %1
  %9 = getelementptr inbounds nuw i8, ptr %2, i64 4
  %10 = load i32, ptr %9, align 4, !tbaa !23, !noalias !172
  %11 = icmp eq i32 %10, %5
  br i1 %11, label %32, label %12

12:                                               ; preds = %8
  %13 = getelementptr inbounds nuw i8, ptr %2, i64 8
  %14 = load i32, ptr %13, align 4, !tbaa !23, !noalias !172
  %15 = icmp eq i32 %14, %5
  br i1 %15, label %32, label %16

16:                                               ; preds = %12
  %17 = getelementptr inbounds nuw i8, ptr %2, i64 12
  %18 = load i32, ptr %17, align 4, !tbaa !23, !noalias !172
  %19 = icmp eq i32 %18, %5
  br i1 %19, label %32, label %20

20:                                               ; preds = %16
  %21 = getelementptr inbounds nuw i8, ptr %2, i64 16
  %22 = load i32, ptr %21, align 4, !tbaa !23, !noalias !172
  %23 = icmp eq i32 %22, %5
  br i1 %23, label %32, label %24

24:                                               ; preds = %20
  %25 = getelementptr inbounds nuw i8, ptr %2, i64 20
  %26 = load i32, ptr %25, align 4, !tbaa !23, !noalias !172
  %27 = icmp eq i32 %26, %5
  br i1 %27, label %32, label %28

28:                                               ; preds = %24
  %29 = getelementptr inbounds nuw i8, ptr %2, i64 24
  %30 = load i32, ptr %29, align 4, !tbaa !23, !noalias !172
  %31 = icmp eq i32 %30, %5
  br i1 %31, label %32, label %50

32:                                               ; preds = %28, %24, %20, %16, %12, %8, %1
  %33 = phi i64 [ 0, %1 ], [ 4, %8 ], [ 8, %12 ], [ 12, %16 ], [ 16, %20 ], [ 20, %24 ], [ 24, %28 ]
  %34 = add nuw nsw i64 %33, 4
  br label %35

35:                                               ; preds = %32, %44
  %36 = phi i64 [ %46, %44 ], [ %34, %32 ]
  %37 = phi i64 [ %45, %44 ], [ %33, %32 ]
  %38 = getelementptr inbounds nuw i8, ptr %2, i64 %36
  %39 = load i32, ptr %38, align 4, !tbaa !23, !noalias !179
  %40 = icmp eq i32 %39, %5
  br i1 %40, label %44, label %41

41:                                               ; preds = %35
  %42 = getelementptr inbounds nuw i8, ptr %2, i64 %37
  store i32 %39, ptr %42, align 4, !tbaa !23, !noalias !179
  %43 = add nuw nsw i64 %37, 4
  br label %44

44:                                               ; preds = %41, %35
  %45 = phi i64 [ %37, %35 ], [ %43, %41 ]
  %46 = add nuw nsw i64 %36, 4
  %47 = icmp eq i64 %46, 32
  br i1 %47, label %48, label %35, !llvm.loop !143

48:                                               ; preds = %44
  %49 = icmp eq i64 %45, 20
  br i1 %49, label %51, label %50

50:                                               ; preds = %28, %48
  tail call void @__assert_fail(ptr noundef nonnull @.str.11, ptr noundef nonnull @.str.1, i32 noundef 65, ptr noundef nonnull @__PRETTY_FUNCTION__._Z4testI16forward_iteratorIPiE14sized_sentinelIS2_ELi8ELi5EEv4DataIXT1_EXT2_EE) #7
  unreachable

51:                                               ; preds = %48
  %52 = getelementptr inbounds nuw i8, ptr %0, i64 32
  %53 = call i32 @bcmp(ptr noundef nonnull dereferenceable(20) %2, ptr noundef nonnull dereferenceable(20) %52, i64 20)
  %54 = icmp eq i32 %53, 0
  br i1 %54, label %56, label %55

55:                                               ; preds = %51
  tail call void @__assert_fail(ptr noundef nonnull @.str.13, ptr noundef nonnull @.str.1, i32 noundef 67, ptr noundef nonnull @__PRETTY_FUNCTION__._Z4testI16forward_iteratorIPiE14sized_sentinelIS2_ELi8ELi5EEv4DataIXT1_EXT2_EE) #7
  unreachable

56:                                               ; preds = %51
  call void @llvm.lifetime.end.p0(ptr nonnull %2) #6
  call void @llvm.lifetime.start.p0(ptr nonnull %3) #6
  call void @llvm.memcpy.p0.p0.i64(ptr noundef nonnull align 4 dereferenceable(32) %3, ptr noundef nonnull align 8 dereferenceable(32) %0, i64 32, i1 false), !tbaa.struct !19
  %57 = load i32, ptr %3, align 4, !tbaa !23, !noalias !180
  %58 = icmp eq i32 %57, %5
  br i1 %58, label %83, label %59

59:                                               ; preds = %56
  %60 = getelementptr inbounds nuw i8, ptr %3, i64 4
  %61 = load i32, ptr %60, align 4, !tbaa !23, !noalias !180
  %62 = icmp eq i32 %61, %5
  br i1 %62, label %83, label %63

63:                                               ; preds = %59
  %64 = getelementptr inbounds nuw i8, ptr %3, i64 8
  %65 = load i32, ptr %64, align 4, !tbaa !23, !noalias !180
  %66 = icmp eq i32 %65, %5
  br i1 %66, label %83, label %67

67:                                               ; preds = %63
  %68 = getelementptr inbounds nuw i8, ptr %3, i64 12
  %69 = load i32, ptr %68, align 4, !tbaa !23, !noalias !180
  %70 = icmp eq i32 %69, %5
  br i1 %70, label %83, label %71

71:                                               ; preds = %67
  %72 = getelementptr inbounds nuw i8, ptr %3, i64 16
  %73 = load i32, ptr %72, align 4, !tbaa !23, !noalias !180
  %74 = icmp eq i32 %73, %5
  br i1 %74, label %83, label %75

75:                                               ; preds = %71
  %76 = getelementptr inbounds nuw i8, ptr %3, i64 20
  %77 = load i32, ptr %76, align 4, !tbaa !23, !noalias !180
  %78 = icmp eq i32 %77, %5
  br i1 %78, label %83, label %79

79:                                               ; preds = %75
  %80 = getelementptr inbounds nuw i8, ptr %3, i64 24
  %81 = load i32, ptr %80, align 4, !tbaa !23, !noalias !180
  %82 = icmp eq i32 %81, %5
  br i1 %82, label %83, label %101

83:                                               ; preds = %79, %75, %71, %67, %63, %59, %56
  %84 = phi i64 [ 0, %56 ], [ 4, %59 ], [ 8, %63 ], [ 12, %67 ], [ 16, %71 ], [ 20, %75 ], [ 24, %79 ]
  %85 = add nuw nsw i64 %84, 4
  br label %86

86:                                               ; preds = %83, %95
  %87 = phi i64 [ %97, %95 ], [ %85, %83 ]
  %88 = phi i64 [ %96, %95 ], [ %84, %83 ]
  %89 = getelementptr inbounds nuw i8, ptr %3, i64 %87
  %90 = load i32, ptr %89, align 4, !tbaa !23, !noalias !189
  %91 = icmp eq i32 %90, %5
  br i1 %91, label %95, label %92

92:                                               ; preds = %86
  %93 = getelementptr inbounds nuw i8, ptr %3, i64 %88
  store i32 %90, ptr %93, align 4, !tbaa !23, !noalias !189
  %94 = add nuw nsw i64 %88, 4
  br label %95

95:                                               ; preds = %92, %86
  %96 = phi i64 [ %88, %86 ], [ %94, %92 ]
  %97 = add nuw nsw i64 %87, 4
  %98 = icmp eq i64 %97, 32
  br i1 %98, label %99, label %86, !llvm.loop !143

99:                                               ; preds = %95
  %100 = icmp eq i64 %96, 20
  br i1 %100, label %102, label %101

101:                                              ; preds = %79, %99
  tail call void @__assert_fail(ptr noundef nonnull @.str.11, ptr noundef nonnull @.str.1, i32 noundef 76, ptr noundef nonnull @__PRETTY_FUNCTION__._Z4testI16forward_iteratorIPiE14sized_sentinelIS2_ELi8ELi5EEv4DataIXT1_EXT2_EE) #7
  unreachable

102:                                              ; preds = %99
  %103 = call i32 @bcmp(ptr noundef nonnull dereferenceable(20) %3, ptr noundef nonnull dereferenceable(20) %52, i64 20)
  %104 = icmp eq i32 %103, 0
  br i1 %104, label %106, label %105

105:                                              ; preds = %102
  tail call void @__assert_fail(ptr noundef nonnull @.str.13, ptr noundef nonnull @.str.1, i32 noundef 78, ptr noundef nonnull @__PRETTY_FUNCTION__._Z4testI16forward_iteratorIPiE14sized_sentinelIS2_ELi8ELi5EEv4DataIXT1_EXT2_EE) #7
  unreachable

106:                                              ; preds = %102
  call void @llvm.lifetime.end.p0(ptr nonnull %3) #6
  ret void
}

; Function Attrs: mustprogress uwtable
define linkonce_odr dso_local void @_Z4testI22bidirectional_iteratorIPiES2_Li6ELi5EEv4DataIXT1_EXT2_EE(ptr noundef byval(%struct.Data) align 8 %0) local_unnamed_addr #4 comdat personality ptr @__gxx_personality_v0 {
  %2 = alloca %"struct.std::array", align 4
  %3 = alloca %"struct.std::array", align 4
  call void @llvm.lifetime.start.p0(ptr nonnull %2) #6
  call void @llvm.memcpy.p0.p0.i64(ptr noundef nonnull align 4 dereferenceable(24) %2, ptr noundef nonnull align 8 dereferenceable(24) %0, i64 24, i1 false), !tbaa.struct !5
  %4 = getelementptr inbounds nuw i8, ptr %0, i64 44
  %5 = load i32, ptr %4, align 4, !tbaa !23, !noalias !190
  %6 = load i32, ptr %2, align 4, !tbaa !23, !noalias !190
  %7 = icmp eq i32 %6, %5
  br i1 %7, label %28, label %8

8:                                                ; preds = %1
  %9 = getelementptr inbounds nuw i8, ptr %2, i64 4
  %10 = load i32, ptr %9, align 4, !tbaa !23, !noalias !190
  %11 = icmp eq i32 %10, %5
  br i1 %11, label %28, label %12

12:                                               ; preds = %8
  %13 = getelementptr inbounds nuw i8, ptr %2, i64 8
  %14 = load i32, ptr %13, align 4, !tbaa !23, !noalias !190
  %15 = icmp eq i32 %14, %5
  br i1 %15, label %28, label %16

16:                                               ; preds = %12
  %17 = getelementptr inbounds nuw i8, ptr %2, i64 12
  %18 = load i32, ptr %17, align 4, !tbaa !23, !noalias !190
  %19 = icmp eq i32 %18, %5
  br i1 %19, label %28, label %20

20:                                               ; preds = %16
  %21 = getelementptr inbounds nuw i8, ptr %2, i64 16
  %22 = load i32, ptr %21, align 4, !tbaa !23, !noalias !190
  %23 = icmp eq i32 %22, %5
  br i1 %23, label %28, label %24

24:                                               ; preds = %20
  %25 = getelementptr inbounds nuw i8, ptr %2, i64 20
  %26 = load i32, ptr %25, align 4, !tbaa !23, !noalias !190
  %27 = icmp eq i32 %26, %5
  br i1 %27, label %47, label %46

28:                                               ; preds = %20, %16, %12, %8, %1
  %29 = phi i64 [ 0, %1 ], [ 4, %8 ], [ 8, %12 ], [ 12, %16 ], [ 16, %20 ]
  %30 = add nuw nsw i64 %29, 4
  br label %31

31:                                               ; preds = %28, %40
  %32 = phi i64 [ %42, %40 ], [ %30, %28 ]
  %33 = phi i64 [ %41, %40 ], [ %29, %28 ]
  %34 = getelementptr inbounds nuw i8, ptr %2, i64 %32
  %35 = load i32, ptr %34, align 4, !tbaa !23, !noalias !197
  %36 = icmp eq i32 %35, %5
  br i1 %36, label %40, label %37

37:                                               ; preds = %31
  %38 = getelementptr inbounds nuw i8, ptr %2, i64 %33
  store i32 %35, ptr %38, align 4, !tbaa !23, !noalias !197
  %39 = add nuw nsw i64 %33, 4
  br label %40

40:                                               ; preds = %37, %31
  %41 = phi i64 [ %33, %31 ], [ %39, %37 ]
  %42 = add nuw nsw i64 %32, 4
  %43 = icmp eq i64 %42, 24
  br i1 %43, label %44, label %31, !llvm.loop !198

44:                                               ; preds = %40
  %45 = icmp eq i64 %41, 20
  br i1 %45, label %47, label %46

46:                                               ; preds = %24, %44
  tail call void @__assert_fail(ptr noundef nonnull @.str.11, ptr noundef nonnull @.str.1, i32 noundef 65, ptr noundef nonnull @__PRETTY_FUNCTION__._Z4testI22bidirectional_iteratorIPiES2_Li6ELi5EEv4DataIXT1_EXT2_EE) #7
  unreachable

47:                                               ; preds = %24, %44
  %48 = getelementptr inbounds nuw i8, ptr %0, i64 24
  %49 = call i32 @bcmp(ptr noundef nonnull dereferenceable(20) %2, ptr noundef nonnull dereferenceable(20) %48, i64 20)
  %50 = icmp eq i32 %49, 0
  br i1 %50, label %52, label %51

51:                                               ; preds = %47
  tail call void @__assert_fail(ptr noundef nonnull @.str.13, ptr noundef nonnull @.str.1, i32 noundef 67, ptr noundef nonnull @__PRETTY_FUNCTION__._Z4testI22bidirectional_iteratorIPiES2_Li6ELi5EEv4DataIXT1_EXT2_EE) #7
  unreachable

52:                                               ; preds = %47
  call void @llvm.lifetime.end.p0(ptr nonnull %2) #6
  call void @llvm.lifetime.start.p0(ptr nonnull %3) #6
  call void @llvm.memcpy.p0.p0.i64(ptr noundef nonnull align 4 dereferenceable(24) %3, ptr noundef nonnull align 8 dereferenceable(24) %0, i64 24, i1 false), !tbaa.struct !5
  %53 = load i32, ptr %3, align 4, !tbaa !23, !noalias !199
  %54 = icmp eq i32 %53, %5
  br i1 %54, label %75, label %55

55:                                               ; preds = %52
  %56 = getelementptr inbounds nuw i8, ptr %3, i64 4
  %57 = load i32, ptr %56, align 4, !tbaa !23, !noalias !199
  %58 = icmp eq i32 %57, %5
  br i1 %58, label %75, label %59

59:                                               ; preds = %55
  %60 = getelementptr inbounds nuw i8, ptr %3, i64 8
  %61 = load i32, ptr %60, align 4, !tbaa !23, !noalias !199
  %62 = icmp eq i32 %61, %5
  br i1 %62, label %75, label %63

63:                                               ; preds = %59
  %64 = getelementptr inbounds nuw i8, ptr %3, i64 12
  %65 = load i32, ptr %64, align 4, !tbaa !23, !noalias !199
  %66 = icmp eq i32 %65, %5
  br i1 %66, label %75, label %67

67:                                               ; preds = %63
  %68 = getelementptr inbounds nuw i8, ptr %3, i64 16
  %69 = load i32, ptr %68, align 4, !tbaa !23, !noalias !199
  %70 = icmp eq i32 %69, %5
  br i1 %70, label %75, label %71

71:                                               ; preds = %67
  %72 = getelementptr inbounds nuw i8, ptr %3, i64 20
  %73 = load i32, ptr %72, align 4, !tbaa !23, !noalias !199
  %74 = icmp eq i32 %73, %5
  br i1 %74, label %94, label %93

75:                                               ; preds = %67, %63, %59, %55, %52
  %76 = phi i64 [ 0, %52 ], [ 4, %55 ], [ 8, %59 ], [ 12, %63 ], [ 16, %67 ]
  %77 = add nuw nsw i64 %76, 4
  br label %78

78:                                               ; preds = %75, %87
  %79 = phi i64 [ %89, %87 ], [ %77, %75 ]
  %80 = phi i64 [ %88, %87 ], [ %76, %75 ]
  %81 = getelementptr inbounds nuw i8, ptr %3, i64 %79
  %82 = load i32, ptr %81, align 4, !tbaa !23, !noalias !208
  %83 = icmp eq i32 %82, %5
  br i1 %83, label %87, label %84

84:                                               ; preds = %78
  %85 = getelementptr inbounds nuw i8, ptr %3, i64 %80
  store i32 %82, ptr %85, align 4, !tbaa !23, !noalias !208
  %86 = add nuw nsw i64 %80, 4
  br label %87

87:                                               ; preds = %84, %78
  %88 = phi i64 [ %80, %78 ], [ %86, %84 ]
  %89 = add nuw nsw i64 %79, 4
  %90 = icmp eq i64 %89, 24
  br i1 %90, label %91, label %78, !llvm.loop !198

91:                                               ; preds = %87
  %92 = icmp eq i64 %88, 20
  br i1 %92, label %94, label %93

93:                                               ; preds = %71, %91
  tail call void @__assert_fail(ptr noundef nonnull @.str.11, ptr noundef nonnull @.str.1, i32 noundef 76, ptr noundef nonnull @__PRETTY_FUNCTION__._Z4testI22bidirectional_iteratorIPiES2_Li6ELi5EEv4DataIXT1_EXT2_EE) #7
  unreachable

94:                                               ; preds = %71, %91
  %95 = call i32 @bcmp(ptr noundef nonnull dereferenceable(20) %3, ptr noundef nonnull dereferenceable(20) %48, i64 20)
  %96 = icmp eq i32 %95, 0
  br i1 %96, label %98, label %97

97:                                               ; preds = %94
  tail call void @__assert_fail(ptr noundef nonnull @.str.13, ptr noundef nonnull @.str.1, i32 noundef 78, ptr noundef nonnull @__PRETTY_FUNCTION__._Z4testI22bidirectional_iteratorIPiES2_Li6ELi5EEv4DataIXT1_EXT2_EE) #7
  unreachable

98:                                               ; preds = %94
  call void @llvm.lifetime.end.p0(ptr nonnull %3) #6
  ret void
}

; Function Attrs: mustprogress uwtable
define linkonce_odr dso_local void @_Z4testI22bidirectional_iteratorIPiES2_Li2ELi1EEv4DataIXT1_EXT2_EE(i64 %0, i64 %1) local_unnamed_addr #4 comdat personality ptr @__gxx_personality_v0 {
  %3 = trunc i64 %1 to i32
  %4 = trunc i64 %0 to i32
  %5 = lshr i64 %0, 32
  %6 = trunc nuw i64 %5 to i32
  %7 = lshr i64 %1, 32
  %8 = trunc nuw i64 %7 to i32
  %9 = trunc i64 %0 to i32
  %10 = icmp eq i32 %9, %8
  %11 = lshr i64 %0, 32
  br i1 %10, label %14, label %12

12:                                               ; preds = %2
  %13 = icmp eq i64 %11, %7
  br i1 %13, label %19, label %18

14:                                               ; preds = %2
  %15 = icmp eq i64 %5, %7
  br i1 %15, label %18, label %16

16:                                               ; preds = %14
  %17 = icmp eq i32 %6, %3
  br i1 %17, label %24, label %23

18:                                               ; preds = %14, %12
  tail call void @__assert_fail(ptr noundef nonnull @.str.11, ptr noundef nonnull @.str.1, i32 noundef 65, ptr noundef nonnull @__PRETTY_FUNCTION__._Z4testI22bidirectional_iteratorIPiES2_Li2ELi1EEv4DataIXT1_EXT2_EE) #7
  unreachable

19:                                               ; preds = %12
  %20 = icmp eq i32 %4, %3
  br i1 %20, label %21, label %23

21:                                               ; preds = %19
  %22 = icmp eq i64 %11, %7
  br i1 %22, label %28, label %27

23:                                               ; preds = %19, %16
  tail call void @__assert_fail(ptr noundef nonnull @.str.13, ptr noundef nonnull @.str.1, i32 noundef 67, ptr noundef nonnull @__PRETTY_FUNCTION__._Z4testI22bidirectional_iteratorIPiES2_Li2ELi1EEv4DataIXT1_EXT2_EE) #7
  unreachable

24:                                               ; preds = %16
  %25 = lshr i64 %0, 32
  %26 = icmp eq i64 %25, %7
  br i1 %26, label %27, label %28

27:                                               ; preds = %24, %21
  tail call void @__assert_fail(ptr noundef nonnull @.str.11, ptr noundef nonnull @.str.1, i32 noundef 76, ptr noundef nonnull @__PRETTY_FUNCTION__._Z4testI22bidirectional_iteratorIPiES2_Li2ELi1EEv4DataIXT1_EXT2_EE) #7
  unreachable

28:                                               ; preds = %24, %21
  %29 = phi i64 [ %0, %21 ], [ %25, %24 ]
  %30 = trunc i64 %29 to i32
  %31 = icmp eq i32 %30, %3
  br i1 %31, label %33, label %32

32:                                               ; preds = %28
  tail call void @__assert_fail(ptr noundef nonnull @.str.13, ptr noundef nonnull @.str.1, i32 noundef 78, ptr noundef nonnull @__PRETTY_FUNCTION__._Z4testI22bidirectional_iteratorIPiES2_Li2ELi1EEv4DataIXT1_EXT2_EE) #7
  unreachable

33:                                               ; preds = %28
  ret void
}

; Function Attrs: mustprogress uwtable
define linkonce_odr dso_local void @_Z4testI22bidirectional_iteratorIPiES2_Li5ELi0EEv4DataIXT1_EXT2_EE(ptr noundef byval(%struct.Data.11) align 8 %0) local_unnamed_addr #4 comdat personality ptr @__gxx_personality_v0 {
  %2 = alloca %"struct.std::array.3", align 4
  %3 = alloca %"struct.std::array.3", align 4
  call void @llvm.lifetime.start.p0(ptr nonnull %2) #6
  call void @llvm.memcpy.p0.p0.i64(ptr noundef nonnull align 4 dereferenceable(20) %2, ptr noundef nonnull align 8 dereferenceable(20) %0, i64 20, i1 false), !tbaa.struct !9
  %4 = getelementptr inbounds nuw i8, ptr %0, i64 24
  %5 = load i32, ptr %4, align 8, !tbaa !23, !noalias !209
  %6 = getelementptr inbounds nuw i8, ptr %3, i64 4
  %7 = getelementptr inbounds nuw i8, ptr %3, i64 8
  %8 = getelementptr inbounds nuw i8, ptr %3, i64 12
  %9 = getelementptr inbounds nuw i8, ptr %2, i64 8
  %10 = getelementptr inbounds nuw i8, ptr %2, i64 12
  %11 = load i32, ptr %2, align 4, !tbaa !23, !noalias !209
  %12 = icmp eq i32 %11, %5
  %13 = getelementptr inbounds nuw i8, ptr %3, i64 16
  %14 = getelementptr inbounds nuw i8, ptr %3, i64 12
  %15 = getelementptr inbounds nuw i8, ptr %3, i64 8
  %16 = getelementptr inbounds nuw i8, ptr %3, i64 4
  %17 = getelementptr inbounds nuw i8, ptr %2, i64 16
  %18 = getelementptr inbounds nuw i8, ptr %2, i64 12
  %19 = getelementptr inbounds nuw i8, ptr %2, i64 4
  br i1 %12, label %31, label %20

20:                                               ; preds = %1
  %21 = getelementptr inbounds nuw i8, ptr %2, i64 8
  %22 = getelementptr inbounds nuw i8, ptr %2, i64 4
  %23 = load i32, ptr %22, align 4, !tbaa !23, !noalias !209
  %24 = icmp eq i32 %23, %5
  br i1 %24, label %31, label %25

25:                                               ; preds = %20
  %26 = load i32, ptr %9, align 4, !tbaa !23, !noalias !209
  %27 = icmp eq i32 %26, %5
  br i1 %27, label %31, label %28

28:                                               ; preds = %25
  %29 = load i32, ptr %10, align 4, !tbaa !23, !noalias !209
  %30 = icmp eq i32 %29, %5
  br i1 %30, label %31, label %76

31:                                               ; preds = %1, %20, %25, %28
  %32 = phi ptr [ %17, %28 ], [ %18, %25 ], [ %21, %20 ], [ %19, %1 ]
  %33 = phi i64 [ 16, %28 ], [ 12, %25 ], [ 8, %20 ], [ 4, %1 ]
  %34 = phi ptr [ %10, %28 ], [ %9, %25 ], [ %22, %20 ], [ %2, %1 ]
  %35 = load i32, ptr %32, align 4, !tbaa !23, !noalias !216
  %36 = load i32, ptr %4, align 8, !tbaa !23, !noalias !216
  %37 = icmp eq i32 %35, %36
  br i1 %37, label %40, label %38

38:                                               ; preds = %31
  store i32 %35, ptr %34, align 4, !tbaa !23, !noalias !216
  %39 = getelementptr inbounds nuw i8, ptr %34, i64 4
  br label %40

40:                                               ; preds = %38, %31
  %41 = phi ptr [ %34, %31 ], [ %39, %38 ]
  %42 = add nuw nsw i64 %33, 4
  %43 = icmp eq i64 %42, 20
  br i1 %43, label %73, label %44, !llvm.loop !198

44:                                               ; preds = %40
  %45 = getelementptr inbounds nuw i8, ptr %2, i64 %42
  %46 = load i32, ptr %45, align 4, !tbaa !23, !noalias !216
  %47 = load i32, ptr %4, align 8, !tbaa !23, !noalias !216
  %48 = icmp eq i32 %46, %47
  br i1 %48, label %51, label %49

49:                                               ; preds = %44
  store i32 %46, ptr %41, align 4, !tbaa !23, !noalias !216
  %50 = getelementptr inbounds nuw i8, ptr %41, i64 4
  br label %51

51:                                               ; preds = %49, %44
  %52 = phi ptr [ %41, %44 ], [ %50, %49 ]
  %53 = add nuw nsw i64 %33, 8
  %54 = icmp eq i64 %53, 20
  br i1 %54, label %73, label %55, !llvm.loop !198

55:                                               ; preds = %51
  %56 = getelementptr inbounds nuw i8, ptr %2, i64 %53
  %57 = load i32, ptr %56, align 4, !tbaa !23, !noalias !216
  %58 = load i32, ptr %4, align 8, !tbaa !23, !noalias !216
  %59 = icmp eq i32 %57, %58
  br i1 %59, label %62, label %60

60:                                               ; preds = %55
  store i32 %57, ptr %52, align 4, !tbaa !23, !noalias !216
  %61 = getelementptr inbounds nuw i8, ptr %52, i64 4
  br label %62

62:                                               ; preds = %60, %55
  %63 = phi ptr [ %52, %55 ], [ %61, %60 ]
  %64 = add nuw nsw i64 %33, 12
  %65 = icmp eq i64 %64, 20
  br i1 %65, label %73, label %66, !llvm.loop !198

66:                                               ; preds = %62
  %67 = getelementptr inbounds nuw i8, ptr %2, i64 %64
  %68 = load i32, ptr %67, align 4, !tbaa !23, !noalias !216
  %69 = load i32, ptr %4, align 8, !tbaa !23, !noalias !216
  %70 = icmp eq i32 %68, %69
  br i1 %70, label %73, label %71

71:                                               ; preds = %66
  store i32 %68, ptr %63, align 4, !tbaa !23, !noalias !216
  %72 = getelementptr inbounds nuw i8, ptr %63, i64 4
  br label %73

73:                                               ; preds = %66, %71, %62, %51, %40
  %74 = phi ptr [ %41, %40 ], [ %52, %51 ], [ %63, %62 ], [ %63, %66 ], [ %72, %71 ]
  %75 = icmp eq ptr %74, %2
  br i1 %75, label %77, label %76

76:                                               ; preds = %28, %73
  call void @__assert_fail(ptr noundef nonnull @.str.11, ptr noundef nonnull @.str.1, i32 noundef 65, ptr noundef nonnull @__PRETTY_FUNCTION__._Z4testI22bidirectional_iteratorIPiES2_Li5ELi0EEv4DataIXT1_EXT2_EE) #7
  unreachable

77:                                               ; preds = %73
  call void @llvm.lifetime.end.p0(ptr nonnull %2) #6
  call void @llvm.lifetime.start.p0(ptr nonnull %3) #6
  call void @llvm.memcpy.p0.p0.i64(ptr noundef nonnull align 4 dereferenceable(20) %3, ptr noundef nonnull align 8 dereferenceable(20) %0, i64 20, i1 false), !tbaa.struct !9
  %78 = load i32, ptr %4, align 8, !tbaa !23, !noalias !217
  %79 = load i32, ptr %3, align 4, !tbaa !23, !noalias !217
  %80 = icmp eq i32 %79, %78
  br i1 %80, label %90, label %81

81:                                               ; preds = %77
  %82 = load i32, ptr %6, align 4, !tbaa !23, !noalias !217
  %83 = icmp eq i32 %82, %78
  br i1 %83, label %90, label %84

84:                                               ; preds = %81
  %85 = load i32, ptr %7, align 4, !tbaa !23, !noalias !217
  %86 = icmp eq i32 %85, %78
  br i1 %86, label %90, label %87

87:                                               ; preds = %84
  %88 = load i32, ptr %8, align 4, !tbaa !23, !noalias !217
  %89 = icmp eq i32 %88, %78
  br i1 %89, label %90, label %135

90:                                               ; preds = %77, %81, %84, %87
  %91 = phi ptr [ %13, %87 ], [ %14, %84 ], [ %15, %81 ], [ %16, %77 ]
  %92 = phi i64 [ 16, %87 ], [ 12, %84 ], [ 8, %81 ], [ 4, %77 ]
  %93 = phi ptr [ %8, %87 ], [ %7, %84 ], [ %6, %81 ], [ %3, %77 ]
  %94 = load i32, ptr %91, align 4, !tbaa !23, !noalias !226
  %95 = load i32, ptr %4, align 8, !tbaa !23, !noalias !226
  %96 = icmp eq i32 %94, %95
  br i1 %96, label %99, label %97

97:                                               ; preds = %90
  store i32 %94, ptr %93, align 4, !tbaa !23, !noalias !226
  %98 = getelementptr inbounds nuw i8, ptr %93, i64 4
  br label %99

99:                                               ; preds = %97, %90
  %100 = phi ptr [ %93, %90 ], [ %98, %97 ]
  %101 = add nuw nsw i64 %92, 4
  %102 = icmp eq i64 %101, 20
  br i1 %102, label %132, label %103, !llvm.loop !198

103:                                              ; preds = %99
  %104 = getelementptr inbounds nuw i8, ptr %3, i64 %101
  %105 = load i32, ptr %104, align 4, !tbaa !23, !noalias !226
  %106 = load i32, ptr %4, align 8, !tbaa !23, !noalias !226
  %107 = icmp eq i32 %105, %106
  br i1 %107, label %110, label %108

108:                                              ; preds = %103
  store i32 %105, ptr %100, align 4, !tbaa !23, !noalias !226
  %109 = getelementptr inbounds nuw i8, ptr %100, i64 4
  br label %110

110:                                              ; preds = %108, %103
  %111 = phi ptr [ %100, %103 ], [ %109, %108 ]
  %112 = add nuw nsw i64 %92, 8
  %113 = icmp eq i64 %112, 20
  br i1 %113, label %132, label %114, !llvm.loop !198

114:                                              ; preds = %110
  %115 = getelementptr inbounds nuw i8, ptr %3, i64 %112
  %116 = load i32, ptr %115, align 4, !tbaa !23, !noalias !226
  %117 = load i32, ptr %4, align 8, !tbaa !23, !noalias !226
  %118 = icmp eq i32 %116, %117
  br i1 %118, label %121, label %119

119:                                              ; preds = %114
  store i32 %116, ptr %111, align 4, !tbaa !23, !noalias !226
  %120 = getelementptr inbounds nuw i8, ptr %111, i64 4
  br label %121

121:                                              ; preds = %119, %114
  %122 = phi ptr [ %111, %114 ], [ %120, %119 ]
  %123 = add nuw nsw i64 %92, 12
  %124 = icmp eq i64 %123, 20
  br i1 %124, label %132, label %125, !llvm.loop !198

125:                                              ; preds = %121
  %126 = getelementptr inbounds nuw i8, ptr %3, i64 %123
  %127 = load i32, ptr %126, align 4, !tbaa !23, !noalias !226
  %128 = load i32, ptr %4, align 8, !tbaa !23, !noalias !226
  %129 = icmp eq i32 %127, %128
  br i1 %129, label %132, label %130

130:                                              ; preds = %125
  store i32 %127, ptr %122, align 4, !tbaa !23, !noalias !226
  %131 = getelementptr inbounds nuw i8, ptr %122, i64 4
  br label %132

132:                                              ; preds = %125, %130, %121, %110, %99
  %133 = phi ptr [ %100, %99 ], [ %111, %110 ], [ %122, %121 ], [ %122, %125 ], [ %131, %130 ]
  %134 = icmp eq ptr %133, %3
  br i1 %134, label %136, label %135

135:                                              ; preds = %87, %132
  call void @__assert_fail(ptr noundef nonnull @.str.11, ptr noundef nonnull @.str.1, i32 noundef 76, ptr noundef nonnull @__PRETTY_FUNCTION__._Z4testI22bidirectional_iteratorIPiES2_Li5ELi0EEv4DataIXT1_EXT2_EE) #7
  unreachable

136:                                              ; preds = %132
  call void @llvm.lifetime.end.p0(ptr nonnull %3) #6
  ret void
}

; Function Attrs: mustprogress uwtable
define linkonce_odr dso_local void @_Z4testI22bidirectional_iteratorIPiES2_Li8ELi5EEv4DataIXT1_EXT2_EE(ptr noundef byval(%struct.Data.12) align 8 %0) local_unnamed_addr #4 comdat personality ptr @__gxx_personality_v0 {
  %2 = alloca %"struct.std::array.13", align 4
  %3 = alloca %"struct.std::array.13", align 4
  call void @llvm.lifetime.start.p0(ptr nonnull %2) #6
  call void @llvm.memcpy.p0.p0.i64(ptr noundef nonnull align 4 dereferenceable(32) %2, ptr noundef nonnull align 8 dereferenceable(32) %0, i64 32, i1 false), !tbaa.struct !19
  %4 = getelementptr inbounds nuw i8, ptr %0, i64 52
  %5 = load i32, ptr %4, align 4, !tbaa !23, !noalias !227
  %6 = load i32, ptr %2, align 4, !tbaa !23, !noalias !227
  %7 = icmp eq i32 %6, %5
  br i1 %7, label %32, label %8

8:                                                ; preds = %1
  %9 = getelementptr inbounds nuw i8, ptr %2, i64 4
  %10 = load i32, ptr %9, align 4, !tbaa !23, !noalias !227
  %11 = icmp eq i32 %10, %5
  br i1 %11, label %32, label %12

12:                                               ; preds = %8
  %13 = getelementptr inbounds nuw i8, ptr %2, i64 8
  %14 = load i32, ptr %13, align 4, !tbaa !23, !noalias !227
  %15 = icmp eq i32 %14, %5
  br i1 %15, label %32, label %16

16:                                               ; preds = %12
  %17 = getelementptr inbounds nuw i8, ptr %2, i64 12
  %18 = load i32, ptr %17, align 4, !tbaa !23, !noalias !227
  %19 = icmp eq i32 %18, %5
  br i1 %19, label %32, label %20

20:                                               ; preds = %16
  %21 = getelementptr inbounds nuw i8, ptr %2, i64 16
  %22 = load i32, ptr %21, align 4, !tbaa !23, !noalias !227
  %23 = icmp eq i32 %22, %5
  br i1 %23, label %32, label %24

24:                                               ; preds = %20
  %25 = getelementptr inbounds nuw i8, ptr %2, i64 20
  %26 = load i32, ptr %25, align 4, !tbaa !23, !noalias !227
  %27 = icmp eq i32 %26, %5
  br i1 %27, label %32, label %28

28:                                               ; preds = %24
  %29 = getelementptr inbounds nuw i8, ptr %2, i64 24
  %30 = load i32, ptr %29, align 4, !tbaa !23, !noalias !227
  %31 = icmp eq i32 %30, %5
  br i1 %31, label %32, label %50

32:                                               ; preds = %28, %24, %20, %16, %12, %8, %1
  %33 = phi i64 [ 0, %1 ], [ 4, %8 ], [ 8, %12 ], [ 12, %16 ], [ 16, %20 ], [ 20, %24 ], [ 24, %28 ]
  %34 = add nuw nsw i64 %33, 4
  br label %35

35:                                               ; preds = %32, %44
  %36 = phi i64 [ %46, %44 ], [ %34, %32 ]
  %37 = phi i64 [ %45, %44 ], [ %33, %32 ]
  %38 = getelementptr inbounds nuw i8, ptr %2, i64 %36
  %39 = load i32, ptr %38, align 4, !tbaa !23, !noalias !234
  %40 = icmp eq i32 %39, %5
  br i1 %40, label %44, label %41

41:                                               ; preds = %35
  %42 = getelementptr inbounds nuw i8, ptr %2, i64 %37
  store i32 %39, ptr %42, align 4, !tbaa !23, !noalias !234
  %43 = add nuw nsw i64 %37, 4
  br label %44

44:                                               ; preds = %41, %35
  %45 = phi i64 [ %37, %35 ], [ %43, %41 ]
  %46 = add nuw nsw i64 %36, 4
  %47 = icmp eq i64 %46, 32
  br i1 %47, label %48, label %35, !llvm.loop !198

48:                                               ; preds = %44
  %49 = icmp eq i64 %45, 20
  br i1 %49, label %51, label %50

50:                                               ; preds = %28, %48
  tail call void @__assert_fail(ptr noundef nonnull @.str.11, ptr noundef nonnull @.str.1, i32 noundef 65, ptr noundef nonnull @__PRETTY_FUNCTION__._Z4testI22bidirectional_iteratorIPiES2_Li8ELi5EEv4DataIXT1_EXT2_EE) #7
  unreachable

51:                                               ; preds = %48
  %52 = getelementptr inbounds nuw i8, ptr %0, i64 32
  %53 = call i32 @bcmp(ptr noundef nonnull dereferenceable(20) %2, ptr noundef nonnull dereferenceable(20) %52, i64 20)
  %54 = icmp eq i32 %53, 0
  br i1 %54, label %56, label %55

55:                                               ; preds = %51
  tail call void @__assert_fail(ptr noundef nonnull @.str.13, ptr noundef nonnull @.str.1, i32 noundef 67, ptr noundef nonnull @__PRETTY_FUNCTION__._Z4testI22bidirectional_iteratorIPiES2_Li8ELi5EEv4DataIXT1_EXT2_EE) #7
  unreachable

56:                                               ; preds = %51
  call void @llvm.lifetime.end.p0(ptr nonnull %2) #6
  call void @llvm.lifetime.start.p0(ptr nonnull %3) #6
  call void @llvm.memcpy.p0.p0.i64(ptr noundef nonnull align 4 dereferenceable(32) %3, ptr noundef nonnull align 8 dereferenceable(32) %0, i64 32, i1 false), !tbaa.struct !19
  %57 = load i32, ptr %3, align 4, !tbaa !23, !noalias !235
  %58 = icmp eq i32 %57, %5
  br i1 %58, label %83, label %59

59:                                               ; preds = %56
  %60 = getelementptr inbounds nuw i8, ptr %3, i64 4
  %61 = load i32, ptr %60, align 4, !tbaa !23, !noalias !235
  %62 = icmp eq i32 %61, %5
  br i1 %62, label %83, label %63

63:                                               ; preds = %59
  %64 = getelementptr inbounds nuw i8, ptr %3, i64 8
  %65 = load i32, ptr %64, align 4, !tbaa !23, !noalias !235
  %66 = icmp eq i32 %65, %5
  br i1 %66, label %83, label %67

67:                                               ; preds = %63
  %68 = getelementptr inbounds nuw i8, ptr %3, i64 12
  %69 = load i32, ptr %68, align 4, !tbaa !23, !noalias !235
  %70 = icmp eq i32 %69, %5
  br i1 %70, label %83, label %71

71:                                               ; preds = %67
  %72 = getelementptr inbounds nuw i8, ptr %3, i64 16
  %73 = load i32, ptr %72, align 4, !tbaa !23, !noalias !235
  %74 = icmp eq i32 %73, %5
  br i1 %74, label %83, label %75

75:                                               ; preds = %71
  %76 = getelementptr inbounds nuw i8, ptr %3, i64 20
  %77 = load i32, ptr %76, align 4, !tbaa !23, !noalias !235
  %78 = icmp eq i32 %77, %5
  br i1 %78, label %83, label %79

79:                                               ; preds = %75
  %80 = getelementptr inbounds nuw i8, ptr %3, i64 24
  %81 = load i32, ptr %80, align 4, !tbaa !23, !noalias !235
  %82 = icmp eq i32 %81, %5
  br i1 %82, label %83, label %101

83:                                               ; preds = %79, %75, %71, %67, %63, %59, %56
  %84 = phi i64 [ 0, %56 ], [ 4, %59 ], [ 8, %63 ], [ 12, %67 ], [ 16, %71 ], [ 20, %75 ], [ 24, %79 ]
  %85 = add nuw nsw i64 %84, 4
  br label %86

86:                                               ; preds = %83, %95
  %87 = phi i64 [ %97, %95 ], [ %85, %83 ]
  %88 = phi i64 [ %96, %95 ], [ %84, %83 ]
  %89 = getelementptr inbounds nuw i8, ptr %3, i64 %87
  %90 = load i32, ptr %89, align 4, !tbaa !23, !noalias !244
  %91 = icmp eq i32 %90, %5
  br i1 %91, label %95, label %92

92:                                               ; preds = %86
  %93 = getelementptr inbounds nuw i8, ptr %3, i64 %88
  store i32 %90, ptr %93, align 4, !tbaa !23, !noalias !244
  %94 = add nuw nsw i64 %88, 4
  br label %95

95:                                               ; preds = %92, %86
  %96 = phi i64 [ %88, %86 ], [ %94, %92 ]
  %97 = add nuw nsw i64 %87, 4
  %98 = icmp eq i64 %97, 32
  br i1 %98, label %99, label %86, !llvm.loop !198

99:                                               ; preds = %95
  %100 = icmp eq i64 %96, 20
  br i1 %100, label %102, label %101

101:                                              ; preds = %79, %99
  tail call void @__assert_fail(ptr noundef nonnull @.str.11, ptr noundef nonnull @.str.1, i32 noundef 76, ptr noundef nonnull @__PRETTY_FUNCTION__._Z4testI22bidirectional_iteratorIPiES2_Li8ELi5EEv4DataIXT1_EXT2_EE) #7
  unreachable

102:                                              ; preds = %99
  %103 = call i32 @bcmp(ptr noundef nonnull dereferenceable(20) %3, ptr noundef nonnull dereferenceable(20) %52, i64 20)
  %104 = icmp eq i32 %103, 0
  br i1 %104, label %106, label %105

105:                                              ; preds = %102
  tail call void @__assert_fail(ptr noundef nonnull @.str.13, ptr noundef nonnull @.str.1, i32 noundef 78, ptr noundef nonnull @__PRETTY_FUNCTION__._Z4testI22bidirectional_iteratorIPiES2_Li8ELi5EEv4DataIXT1_EXT2_EE) #7
  unreachable

106:                                              ; preds = %102
  call void @llvm.lifetime.end.p0(ptr nonnull %3) #6
  ret void
}

; Function Attrs: mustprogress uwtable
define linkonce_odr dso_local void @_Z4testI22bidirectional_iteratorIPiE16sentinel_wrapperIS2_ELi6ELi5EEv4DataIXT1_EXT2_EE(ptr noundef byval(%struct.Data) align 8 %0) local_unnamed_addr #4 comdat personality ptr @__gxx_personality_v0 {
  %2 = alloca %"struct.std::array", align 4
  %3 = alloca %"struct.std::array", align 4
  call void @llvm.lifetime.start.p0(ptr nonnull %2) #6
  call void @llvm.memcpy.p0.p0.i64(ptr noundef nonnull align 4 dereferenceable(24) %2, ptr noundef nonnull align 8 dereferenceable(24) %0, i64 24, i1 false), !tbaa.struct !5
  %4 = getelementptr inbounds nuw i8, ptr %0, i64 44
  %5 = load i32, ptr %4, align 4, !tbaa !23, !noalias !245
  %6 = load i32, ptr %2, align 4, !tbaa !23, !noalias !245
  %7 = icmp eq i32 %6, %5
  br i1 %7, label %28, label %8

8:                                                ; preds = %1
  %9 = getelementptr inbounds nuw i8, ptr %2, i64 4
  %10 = load i32, ptr %9, align 4, !tbaa !23, !noalias !245
  %11 = icmp eq i32 %10, %5
  br i1 %11, label %28, label %12

12:                                               ; preds = %8
  %13 = getelementptr inbounds nuw i8, ptr %2, i64 8
  %14 = load i32, ptr %13, align 4, !tbaa !23, !noalias !245
  %15 = icmp eq i32 %14, %5
  br i1 %15, label %28, label %16

16:                                               ; preds = %12
  %17 = getelementptr inbounds nuw i8, ptr %2, i64 12
  %18 = load i32, ptr %17, align 4, !tbaa !23, !noalias !245
  %19 = icmp eq i32 %18, %5
  br i1 %19, label %28, label %20

20:                                               ; preds = %16
  %21 = getelementptr inbounds nuw i8, ptr %2, i64 16
  %22 = load i32, ptr %21, align 4, !tbaa !23, !noalias !245
  %23 = icmp eq i32 %22, %5
  br i1 %23, label %28, label %24

24:                                               ; preds = %20
  %25 = getelementptr inbounds nuw i8, ptr %2, i64 20
  %26 = load i32, ptr %25, align 4, !tbaa !23, !noalias !245
  %27 = icmp eq i32 %26, %5
  br i1 %27, label %47, label %46

28:                                               ; preds = %20, %16, %12, %8, %1
  %29 = phi i64 [ 0, %1 ], [ 4, %8 ], [ 8, %12 ], [ 12, %16 ], [ 16, %20 ]
  %30 = add nuw nsw i64 %29, 4
  br label %31

31:                                               ; preds = %28, %40
  %32 = phi i64 [ %42, %40 ], [ %30, %28 ]
  %33 = phi i64 [ %41, %40 ], [ %29, %28 ]
  %34 = getelementptr inbounds nuw i8, ptr %2, i64 %32
  %35 = load i32, ptr %34, align 4, !tbaa !23, !noalias !252
  %36 = icmp eq i32 %35, %5
  br i1 %36, label %40, label %37

37:                                               ; preds = %31
  %38 = getelementptr inbounds nuw i8, ptr %2, i64 %33
  store i32 %35, ptr %38, align 4, !tbaa !23, !noalias !252
  %39 = add nuw nsw i64 %33, 4
  br label %40

40:                                               ; preds = %37, %31
  %41 = phi i64 [ %33, %31 ], [ %39, %37 ]
  %42 = add nuw nsw i64 %32, 4
  %43 = icmp eq i64 %42, 24
  br i1 %43, label %44, label %31, !llvm.loop !253

44:                                               ; preds = %40
  %45 = icmp eq i64 %41, 20
  br i1 %45, label %47, label %46

46:                                               ; preds = %24, %44
  tail call void @__assert_fail(ptr noundef nonnull @.str.11, ptr noundef nonnull @.str.1, i32 noundef 65, ptr noundef nonnull @__PRETTY_FUNCTION__._Z4testI22bidirectional_iteratorIPiE16sentinel_wrapperIS2_ELi6ELi5EEv4DataIXT1_EXT2_EE) #7
  unreachable

47:                                               ; preds = %24, %44
  %48 = getelementptr inbounds nuw i8, ptr %0, i64 24
  %49 = call i32 @bcmp(ptr noundef nonnull dereferenceable(20) %2, ptr noundef nonnull dereferenceable(20) %48, i64 20)
  %50 = icmp eq i32 %49, 0
  br i1 %50, label %52, label %51

51:                                               ; preds = %47
  tail call void @__assert_fail(ptr noundef nonnull @.str.13, ptr noundef nonnull @.str.1, i32 noundef 67, ptr noundef nonnull @__PRETTY_FUNCTION__._Z4testI22bidirectional_iteratorIPiE16sentinel_wrapperIS2_ELi6ELi5EEv4DataIXT1_EXT2_EE) #7
  unreachable

52:                                               ; preds = %47
  call void @llvm.lifetime.end.p0(ptr nonnull %2) #6
  call void @llvm.lifetime.start.p0(ptr nonnull %3) #6
  call void @llvm.memcpy.p0.p0.i64(ptr noundef nonnull align 4 dereferenceable(24) %3, ptr noundef nonnull align 8 dereferenceable(24) %0, i64 24, i1 false), !tbaa.struct !5
  %53 = load i32, ptr %3, align 4, !tbaa !23, !noalias !254
  %54 = icmp eq i32 %53, %5
  br i1 %54, label %75, label %55

55:                                               ; preds = %52
  %56 = getelementptr inbounds nuw i8, ptr %3, i64 4
  %57 = load i32, ptr %56, align 4, !tbaa !23, !noalias !254
  %58 = icmp eq i32 %57, %5
  br i1 %58, label %75, label %59

59:                                               ; preds = %55
  %60 = getelementptr inbounds nuw i8, ptr %3, i64 8
  %61 = load i32, ptr %60, align 4, !tbaa !23, !noalias !254
  %62 = icmp eq i32 %61, %5
  br i1 %62, label %75, label %63

63:                                               ; preds = %59
  %64 = getelementptr inbounds nuw i8, ptr %3, i64 12
  %65 = load i32, ptr %64, align 4, !tbaa !23, !noalias !254
  %66 = icmp eq i32 %65, %5
  br i1 %66, label %75, label %67

67:                                               ; preds = %63
  %68 = getelementptr inbounds nuw i8, ptr %3, i64 16
  %69 = load i32, ptr %68, align 4, !tbaa !23, !noalias !254
  %70 = icmp eq i32 %69, %5
  br i1 %70, label %75, label %71

71:                                               ; preds = %67
  %72 = getelementptr inbounds nuw i8, ptr %3, i64 20
  %73 = load i32, ptr %72, align 4, !tbaa !23, !noalias !254
  %74 = icmp eq i32 %73, %5
  br i1 %74, label %94, label %93

75:                                               ; preds = %67, %63, %59, %55, %52
  %76 = phi i64 [ 0, %52 ], [ 4, %55 ], [ 8, %59 ], [ 12, %63 ], [ 16, %67 ]
  %77 = add nuw nsw i64 %76, 4
  br label %78

78:                                               ; preds = %75, %87
  %79 = phi i64 [ %89, %87 ], [ %77, %75 ]
  %80 = phi i64 [ %88, %87 ], [ %76, %75 ]
  %81 = getelementptr inbounds nuw i8, ptr %3, i64 %79
  %82 = load i32, ptr %81, align 4, !tbaa !23, !noalias !263
  %83 = icmp eq i32 %82, %5
  br i1 %83, label %87, label %84

84:                                               ; preds = %78
  %85 = getelementptr inbounds nuw i8, ptr %3, i64 %80
  store i32 %82, ptr %85, align 4, !tbaa !23, !noalias !263
  %86 = add nuw nsw i64 %80, 4
  br label %87

87:                                               ; preds = %84, %78
  %88 = phi i64 [ %80, %78 ], [ %86, %84 ]
  %89 = add nuw nsw i64 %79, 4
  %90 = icmp eq i64 %89, 24
  br i1 %90, label %91, label %78, !llvm.loop !253

91:                                               ; preds = %87
  %92 = icmp eq i64 %88, 20
  br i1 %92, label %94, label %93

93:                                               ; preds = %71, %91
  tail call void @__assert_fail(ptr noundef nonnull @.str.11, ptr noundef nonnull @.str.1, i32 noundef 76, ptr noundef nonnull @__PRETTY_FUNCTION__._Z4testI22bidirectional_iteratorIPiE16sentinel_wrapperIS2_ELi6ELi5EEv4DataIXT1_EXT2_EE) #7
  unreachable

94:                                               ; preds = %71, %91
  %95 = call i32 @bcmp(ptr noundef nonnull dereferenceable(20) %3, ptr noundef nonnull dereferenceable(20) %48, i64 20)
  %96 = icmp eq i32 %95, 0
  br i1 %96, label %98, label %97

97:                                               ; preds = %94
  tail call void @__assert_fail(ptr noundef nonnull @.str.13, ptr noundef nonnull @.str.1, i32 noundef 78, ptr noundef nonnull @__PRETTY_FUNCTION__._Z4testI22bidirectional_iteratorIPiE16sentinel_wrapperIS2_ELi6ELi5EEv4DataIXT1_EXT2_EE) #7
  unreachable

98:                                               ; preds = %94
  call void @llvm.lifetime.end.p0(ptr nonnull %3) #6
  ret void
}

; Function Attrs: mustprogress uwtable
define linkonce_odr dso_local void @_Z4testI22bidirectional_iteratorIPiE16sentinel_wrapperIS2_ELi2ELi1EEv4DataIXT1_EXT2_EE(i64 %0, i64 %1) local_unnamed_addr #4 comdat personality ptr @__gxx_personality_v0 {
  %3 = trunc i64 %1 to i32
  %4 = trunc i64 %0 to i32
  %5 = lshr i64 %0, 32
  %6 = trunc nuw i64 %5 to i32
  %7 = lshr i64 %1, 32
  %8 = trunc nuw i64 %7 to i32
  %9 = trunc i64 %0 to i32
  %10 = icmp eq i32 %9, %8
  %11 = lshr i64 %0, 32
  br i1 %10, label %14, label %12

12:                                               ; preds = %2
  %13 = icmp eq i64 %11, %7
  br i1 %13, label %19, label %18

14:                                               ; preds = %2
  %15 = icmp eq i64 %5, %7
  br i1 %15, label %18, label %16

16:                                               ; preds = %14
  %17 = icmp eq i32 %6, %3
  br i1 %17, label %24, label %23

18:                                               ; preds = %14, %12
  tail call void @__assert_fail(ptr noundef nonnull @.str.11, ptr noundef nonnull @.str.1, i32 noundef 65, ptr noundef nonnull @__PRETTY_FUNCTION__._Z4testI22bidirectional_iteratorIPiE16sentinel_wrapperIS2_ELi2ELi1EEv4DataIXT1_EXT2_EE) #7
  unreachable

19:                                               ; preds = %12
  %20 = icmp eq i32 %4, %3
  br i1 %20, label %21, label %23

21:                                               ; preds = %19
  %22 = icmp eq i64 %11, %7
  br i1 %22, label %28, label %27

23:                                               ; preds = %19, %16
  tail call void @__assert_fail(ptr noundef nonnull @.str.13, ptr noundef nonnull @.str.1, i32 noundef 67, ptr noundef nonnull @__PRETTY_FUNCTION__._Z4testI22bidirectional_iteratorIPiE16sentinel_wrapperIS2_ELi2ELi1EEv4DataIXT1_EXT2_EE) #7
  unreachable

24:                                               ; preds = %16
  %25 = lshr i64 %0, 32
  %26 = icmp eq i64 %25, %7
  br i1 %26, label %27, label %28

27:                                               ; preds = %24, %21
  tail call void @__assert_fail(ptr noundef nonnull @.str.11, ptr noundef nonnull @.str.1, i32 noundef 76, ptr noundef nonnull @__PRETTY_FUNCTION__._Z4testI22bidirectional_iteratorIPiE16sentinel_wrapperIS2_ELi2ELi1EEv4DataIXT1_EXT2_EE) #7
  unreachable

28:                                               ; preds = %24, %21
  %29 = phi i64 [ %0, %21 ], [ %25, %24 ]
  %30 = trunc i64 %29 to i32
  %31 = icmp eq i32 %30, %3
  br i1 %31, label %33, label %32

32:                                               ; preds = %28
  tail call void @__assert_fail(ptr noundef nonnull @.str.13, ptr noundef nonnull @.str.1, i32 noundef 78, ptr noundef nonnull @__PRETTY_FUNCTION__._Z4testI22bidirectional_iteratorIPiE16sentinel_wrapperIS2_ELi2ELi1EEv4DataIXT1_EXT2_EE) #7
  unreachable

33:                                               ; preds = %28
  ret void
}

; Function Attrs: mustprogress uwtable
define linkonce_odr dso_local void @_Z4testI22bidirectional_iteratorIPiE16sentinel_wrapperIS2_ELi5ELi0EEv4DataIXT1_EXT2_EE(ptr noundef byval(%struct.Data.11) align 8 %0) local_unnamed_addr #4 comdat personality ptr @__gxx_personality_v0 {
  %2 = alloca %"struct.std::array.3", align 4
  %3 = alloca %"struct.std::array.3", align 4
  call void @llvm.lifetime.start.p0(ptr nonnull %2) #6
  call void @llvm.memcpy.p0.p0.i64(ptr noundef nonnull align 4 dereferenceable(20) %2, ptr noundef nonnull align 8 dereferenceable(20) %0, i64 20, i1 false), !tbaa.struct !9
  %4 = getelementptr inbounds nuw i8, ptr %0, i64 24
  %5 = load i32, ptr %4, align 8, !tbaa !23, !noalias !264
  %6 = getelementptr inbounds nuw i8, ptr %3, i64 4
  %7 = getelementptr inbounds nuw i8, ptr %3, i64 8
  %8 = getelementptr inbounds nuw i8, ptr %3, i64 12
  %9 = getelementptr inbounds nuw i8, ptr %2, i64 8
  %10 = getelementptr inbounds nuw i8, ptr %2, i64 12
  %11 = load i32, ptr %2, align 4, !tbaa !23, !noalias !264
  %12 = icmp eq i32 %11, %5
  %13 = getelementptr inbounds nuw i8, ptr %3, i64 16
  %14 = getelementptr inbounds nuw i8, ptr %3, i64 12
  %15 = getelementptr inbounds nuw i8, ptr %3, i64 8
  %16 = getelementptr inbounds nuw i8, ptr %3, i64 4
  %17 = getelementptr inbounds nuw i8, ptr %2, i64 16
  %18 = getelementptr inbounds nuw i8, ptr %2, i64 12
  %19 = getelementptr inbounds nuw i8, ptr %2, i64 4
  br i1 %12, label %31, label %20

20:                                               ; preds = %1
  %21 = getelementptr inbounds nuw i8, ptr %2, i64 8
  %22 = getelementptr inbounds nuw i8, ptr %2, i64 4
  %23 = load i32, ptr %22, align 4, !tbaa !23, !noalias !264
  %24 = icmp eq i32 %23, %5
  br i1 %24, label %31, label %25

25:                                               ; preds = %20
  %26 = load i32, ptr %9, align 4, !tbaa !23, !noalias !264
  %27 = icmp eq i32 %26, %5
  br i1 %27, label %31, label %28

28:                                               ; preds = %25
  %29 = load i32, ptr %10, align 4, !tbaa !23, !noalias !264
  %30 = icmp eq i32 %29, %5
  br i1 %30, label %31, label %76

31:                                               ; preds = %1, %20, %25, %28
  %32 = phi ptr [ %17, %28 ], [ %18, %25 ], [ %21, %20 ], [ %19, %1 ]
  %33 = phi i64 [ 16, %28 ], [ 12, %25 ], [ 8, %20 ], [ 4, %1 ]
  %34 = phi ptr [ %10, %28 ], [ %9, %25 ], [ %22, %20 ], [ %2, %1 ]
  %35 = load i32, ptr %32, align 4, !tbaa !23, !noalias !271
  %36 = load i32, ptr %4, align 8, !tbaa !23, !noalias !271
  %37 = icmp eq i32 %35, %36
  br i1 %37, label %40, label %38

38:                                               ; preds = %31
  store i32 %35, ptr %34, align 4, !tbaa !23, !noalias !271
  %39 = getelementptr inbounds nuw i8, ptr %34, i64 4
  br label %40

40:                                               ; preds = %38, %31
  %41 = phi ptr [ %34, %31 ], [ %39, %38 ]
  %42 = add nuw nsw i64 %33, 4
  %43 = icmp eq i64 %42, 20
  br i1 %43, label %73, label %44, !llvm.loop !253

44:                                               ; preds = %40
  %45 = getelementptr inbounds nuw i8, ptr %2, i64 %42
  %46 = load i32, ptr %45, align 4, !tbaa !23, !noalias !271
  %47 = load i32, ptr %4, align 8, !tbaa !23, !noalias !271
  %48 = icmp eq i32 %46, %47
  br i1 %48, label %51, label %49

49:                                               ; preds = %44
  store i32 %46, ptr %41, align 4, !tbaa !23, !noalias !271
  %50 = getelementptr inbounds nuw i8, ptr %41, i64 4
  br label %51

51:                                               ; preds = %49, %44
  %52 = phi ptr [ %41, %44 ], [ %50, %49 ]
  %53 = add nuw nsw i64 %33, 8
  %54 = icmp eq i64 %53, 20
  br i1 %54, label %73, label %55, !llvm.loop !253

55:                                               ; preds = %51
  %56 = getelementptr inbounds nuw i8, ptr %2, i64 %53
  %57 = load i32, ptr %56, align 4, !tbaa !23, !noalias !271
  %58 = load i32, ptr %4, align 8, !tbaa !23, !noalias !271
  %59 = icmp eq i32 %57, %58
  br i1 %59, label %62, label %60

60:                                               ; preds = %55
  store i32 %57, ptr %52, align 4, !tbaa !23, !noalias !271
  %61 = getelementptr inbounds nuw i8, ptr %52, i64 4
  br label %62

62:                                               ; preds = %60, %55
  %63 = phi ptr [ %52, %55 ], [ %61, %60 ]
  %64 = add nuw nsw i64 %33, 12
  %65 = icmp eq i64 %64, 20
  br i1 %65, label %73, label %66, !llvm.loop !253

66:                                               ; preds = %62
  %67 = getelementptr inbounds nuw i8, ptr %2, i64 %64
  %68 = load i32, ptr %67, align 4, !tbaa !23, !noalias !271
  %69 = load i32, ptr %4, align 8, !tbaa !23, !noalias !271
  %70 = icmp eq i32 %68, %69
  br i1 %70, label %73, label %71

71:                                               ; preds = %66
  store i32 %68, ptr %63, align 4, !tbaa !23, !noalias !271
  %72 = getelementptr inbounds nuw i8, ptr %63, i64 4
  br label %73

73:                                               ; preds = %66, %71, %62, %51, %40
  %74 = phi ptr [ %41, %40 ], [ %52, %51 ], [ %63, %62 ], [ %63, %66 ], [ %72, %71 ]
  %75 = icmp eq ptr %74, %2
  br i1 %75, label %77, label %76

76:                                               ; preds = %28, %73
  call void @__assert_fail(ptr noundef nonnull @.str.11, ptr noundef nonnull @.str.1, i32 noundef 65, ptr noundef nonnull @__PRETTY_FUNCTION__._Z4testI22bidirectional_iteratorIPiE16sentinel_wrapperIS2_ELi5ELi0EEv4DataIXT1_EXT2_EE) #7
  unreachable

77:                                               ; preds = %73
  call void @llvm.lifetime.end.p0(ptr nonnull %2) #6
  call void @llvm.lifetime.start.p0(ptr nonnull %3) #6
  call void @llvm.memcpy.p0.p0.i64(ptr noundef nonnull align 4 dereferenceable(20) %3, ptr noundef nonnull align 8 dereferenceable(20) %0, i64 20, i1 false), !tbaa.struct !9
  %78 = load i32, ptr %4, align 8, !tbaa !23, !noalias !272
  %79 = load i32, ptr %3, align 4, !tbaa !23, !noalias !272
  %80 = icmp eq i32 %79, %78
  br i1 %80, label %90, label %81

81:                                               ; preds = %77
  %82 = load i32, ptr %6, align 4, !tbaa !23, !noalias !272
  %83 = icmp eq i32 %82, %78
  br i1 %83, label %90, label %84

84:                                               ; preds = %81
  %85 = load i32, ptr %7, align 4, !tbaa !23, !noalias !272
  %86 = icmp eq i32 %85, %78
  br i1 %86, label %90, label %87

87:                                               ; preds = %84
  %88 = load i32, ptr %8, align 4, !tbaa !23, !noalias !272
  %89 = icmp eq i32 %88, %78
  br i1 %89, label %90, label %135

90:                                               ; preds = %77, %81, %84, %87
  %91 = phi ptr [ %13, %87 ], [ %14, %84 ], [ %15, %81 ], [ %16, %77 ]
  %92 = phi i64 [ 16, %87 ], [ 12, %84 ], [ 8, %81 ], [ 4, %77 ]
  %93 = phi ptr [ %8, %87 ], [ %7, %84 ], [ %6, %81 ], [ %3, %77 ]
  %94 = load i32, ptr %91, align 4, !tbaa !23, !noalias !281
  %95 = load i32, ptr %4, align 8, !tbaa !23, !noalias !281
  %96 = icmp eq i32 %94, %95
  br i1 %96, label %99, label %97

97:                                               ; preds = %90
  store i32 %94, ptr %93, align 4, !tbaa !23, !noalias !281
  %98 = getelementptr inbounds nuw i8, ptr %93, i64 4
  br label %99

99:                                               ; preds = %97, %90
  %100 = phi ptr [ %93, %90 ], [ %98, %97 ]
  %101 = add nuw nsw i64 %92, 4
  %102 = icmp eq i64 %101, 20
  br i1 %102, label %132, label %103, !llvm.loop !253

103:                                              ; preds = %99
  %104 = getelementptr inbounds nuw i8, ptr %3, i64 %101
  %105 = load i32, ptr %104, align 4, !tbaa !23, !noalias !281
  %106 = load i32, ptr %4, align 8, !tbaa !23, !noalias !281
  %107 = icmp eq i32 %105, %106
  br i1 %107, label %110, label %108

108:                                              ; preds = %103
  store i32 %105, ptr %100, align 4, !tbaa !23, !noalias !281
  %109 = getelementptr inbounds nuw i8, ptr %100, i64 4
  br label %110

110:                                              ; preds = %108, %103
  %111 = phi ptr [ %100, %103 ], [ %109, %108 ]
  %112 = add nuw nsw i64 %92, 8
  %113 = icmp eq i64 %112, 20
  br i1 %113, label %132, label %114, !llvm.loop !253

114:                                              ; preds = %110
  %115 = getelementptr inbounds nuw i8, ptr %3, i64 %112
  %116 = load i32, ptr %115, align 4, !tbaa !23, !noalias !281
  %117 = load i32, ptr %4, align 8, !tbaa !23, !noalias !281
  %118 = icmp eq i32 %116, %117
  br i1 %118, label %121, label %119

119:                                              ; preds = %114
  store i32 %116, ptr %111, align 4, !tbaa !23, !noalias !281
  %120 = getelementptr inbounds nuw i8, ptr %111, i64 4
  br label %121

121:                                              ; preds = %119, %114
  %122 = phi ptr [ %111, %114 ], [ %120, %119 ]
  %123 = add nuw nsw i64 %92, 12
  %124 = icmp eq i64 %123, 20
  br i1 %124, label %132, label %125, !llvm.loop !253

125:                                              ; preds = %121
  %126 = getelementptr inbounds nuw i8, ptr %3, i64 %123
  %127 = load i32, ptr %126, align 4, !tbaa !23, !noalias !281
  %128 = load i32, ptr %4, align 8, !tbaa !23, !noalias !281
  %129 = icmp eq i32 %127, %128
  br i1 %129, label %132, label %130

130:                                              ; preds = %125
  store i32 %127, ptr %122, align 4, !tbaa !23, !noalias !281
  %131 = getelementptr inbounds nuw i8, ptr %122, i64 4
  br label %132

132:                                              ; preds = %125, %130, %121, %110, %99
  %133 = phi ptr [ %100, %99 ], [ %111, %110 ], [ %122, %121 ], [ %122, %125 ], [ %131, %130 ]
  %134 = icmp eq ptr %133, %3
  br i1 %134, label %136, label %135

135:                                              ; preds = %87, %132
  call void @__assert_fail(ptr noundef nonnull @.str.11, ptr noundef nonnull @.str.1, i32 noundef 76, ptr noundef nonnull @__PRETTY_FUNCTION__._Z4testI22bidirectional_iteratorIPiE16sentinel_wrapperIS2_ELi5ELi0EEv4DataIXT1_EXT2_EE) #7
  unreachable

136:                                              ; preds = %132
  call void @llvm.lifetime.end.p0(ptr nonnull %3) #6
  ret void
}

; Function Attrs: mustprogress uwtable
define linkonce_odr dso_local void @_Z4testI22bidirectional_iteratorIPiE16sentinel_wrapperIS2_ELi8ELi5EEv4DataIXT1_EXT2_EE(ptr noundef byval(%struct.Data.12) align 8 %0) local_unnamed_addr #4 comdat personality ptr @__gxx_personality_v0 {
  %2 = alloca %"struct.std::array.13", align 4
  %3 = alloca %"struct.std::array.13", align 4
  call void @llvm.lifetime.start.p0(ptr nonnull %2) #6
  call void @llvm.memcpy.p0.p0.i64(ptr noundef nonnull align 4 dereferenceable(32) %2, ptr noundef nonnull align 8 dereferenceable(32) %0, i64 32, i1 false), !tbaa.struct !19
  %4 = getelementptr inbounds nuw i8, ptr %0, i64 52
  %5 = load i32, ptr %4, align 4, !tbaa !23, !noalias !282
  %6 = load i32, ptr %2, align 4, !tbaa !23, !noalias !282
  %7 = icmp eq i32 %6, %5
  br i1 %7, label %32, label %8

8:                                                ; preds = %1
  %9 = getelementptr inbounds nuw i8, ptr %2, i64 4
  %10 = load i32, ptr %9, align 4, !tbaa !23, !noalias !282
  %11 = icmp eq i32 %10, %5
  br i1 %11, label %32, label %12

12:                                               ; preds = %8
  %13 = getelementptr inbounds nuw i8, ptr %2, i64 8
  %14 = load i32, ptr %13, align 4, !tbaa !23, !noalias !282
  %15 = icmp eq i32 %14, %5
  br i1 %15, label %32, label %16

16:                                               ; preds = %12
  %17 = getelementptr inbounds nuw i8, ptr %2, i64 12
  %18 = load i32, ptr %17, align 4, !tbaa !23, !noalias !282
  %19 = icmp eq i32 %18, %5
  br i1 %19, label %32, label %20

20:                                               ; preds = %16
  %21 = getelementptr inbounds nuw i8, ptr %2, i64 16
  %22 = load i32, ptr %21, align 4, !tbaa !23, !noalias !282
  %23 = icmp eq i32 %22, %5
  br i1 %23, label %32, label %24

24:                                               ; preds = %20
  %25 = getelementptr inbounds nuw i8, ptr %2, i64 20
  %26 = load i32, ptr %25, align 4, !tbaa !23, !noalias !282
  %27 = icmp eq i32 %26, %5
  br i1 %27, label %32, label %28

28:                                               ; preds = %24
  %29 = getelementptr inbounds nuw i8, ptr %2, i64 24
  %30 = load i32, ptr %29, align 4, !tbaa !23, !noalias !282
  %31 = icmp eq i32 %30, %5
  br i1 %31, label %32, label %50

32:                                               ; preds = %28, %24, %20, %16, %12, %8, %1
  %33 = phi i64 [ 0, %1 ], [ 4, %8 ], [ 8, %12 ], [ 12, %16 ], [ 16, %20 ], [ 20, %24 ], [ 24, %28 ]
  %34 = add nuw nsw i64 %33, 4
  br label %35

35:                                               ; preds = %32, %44
  %36 = phi i64 [ %46, %44 ], [ %34, %32 ]
  %37 = phi i64 [ %45, %44 ], [ %33, %32 ]
  %38 = getelementptr inbounds nuw i8, ptr %2, i64 %36
  %39 = load i32, ptr %38, align 4, !tbaa !23, !noalias !289
  %40 = icmp eq i32 %39, %5
  br i1 %40, label %44, label %41

41:                                               ; preds = %35
  %42 = getelementptr inbounds nuw i8, ptr %2, i64 %37
  store i32 %39, ptr %42, align 4, !tbaa !23, !noalias !289
  %43 = add nuw nsw i64 %37, 4
  br label %44

44:                                               ; preds = %41, %35
  %45 = phi i64 [ %37, %35 ], [ %43, %41 ]
  %46 = add nuw nsw i64 %36, 4
  %47 = icmp eq i64 %46, 32
  br i1 %47, label %48, label %35, !llvm.loop !253

48:                                               ; preds = %44
  %49 = icmp eq i64 %45, 20
  br i1 %49, label %51, label %50

50:                                               ; preds = %28, %48
  tail call void @__assert_fail(ptr noundef nonnull @.str.11, ptr noundef nonnull @.str.1, i32 noundef 65, ptr noundef nonnull @__PRETTY_FUNCTION__._Z4testI22bidirectional_iteratorIPiE16sentinel_wrapperIS2_ELi8ELi5EEv4DataIXT1_EXT2_EE) #7
  unreachable

51:                                               ; preds = %48
  %52 = getelementptr inbounds nuw i8, ptr %0, i64 32
  %53 = call i32 @bcmp(ptr noundef nonnull dereferenceable(20) %2, ptr noundef nonnull dereferenceable(20) %52, i64 20)
  %54 = icmp eq i32 %53, 0
  br i1 %54, label %56, label %55

55:                                               ; preds = %51
  tail call void @__assert_fail(ptr noundef nonnull @.str.13, ptr noundef nonnull @.str.1, i32 noundef 67, ptr noundef nonnull @__PRETTY_FUNCTION__._Z4testI22bidirectional_iteratorIPiE16sentinel_wrapperIS2_ELi8ELi5EEv4DataIXT1_EXT2_EE) #7
  unreachable

56:                                               ; preds = %51
  call void @llvm.lifetime.end.p0(ptr nonnull %2) #6
  call void @llvm.lifetime.start.p0(ptr nonnull %3) #6
  call void @llvm.memcpy.p0.p0.i64(ptr noundef nonnull align 4 dereferenceable(32) %3, ptr noundef nonnull align 8 dereferenceable(32) %0, i64 32, i1 false), !tbaa.struct !19
  %57 = load i32, ptr %3, align 4, !tbaa !23, !noalias !290
  %58 = icmp eq i32 %57, %5
  br i1 %58, label %83, label %59

59:                                               ; preds = %56
  %60 = getelementptr inbounds nuw i8, ptr %3, i64 4
  %61 = load i32, ptr %60, align 4, !tbaa !23, !noalias !290
  %62 = icmp eq i32 %61, %5
  br i1 %62, label %83, label %63

63:                                               ; preds = %59
  %64 = getelementptr inbounds nuw i8, ptr %3, i64 8
  %65 = load i32, ptr %64, align 4, !tbaa !23, !noalias !290
  %66 = icmp eq i32 %65, %5
  br i1 %66, label %83, label %67

67:                                               ; preds = %63
  %68 = getelementptr inbounds nuw i8, ptr %3, i64 12
  %69 = load i32, ptr %68, align 4, !tbaa !23, !noalias !290
  %70 = icmp eq i32 %69, %5
  br i1 %70, label %83, label %71

71:                                               ; preds = %67
  %72 = getelementptr inbounds nuw i8, ptr %3, i64 16
  %73 = load i32, ptr %72, align 4, !tbaa !23, !noalias !290
  %74 = icmp eq i32 %73, %5
  br i1 %74, label %83, label %75

75:                                               ; preds = %71
  %76 = getelementptr inbounds nuw i8, ptr %3, i64 20
  %77 = load i32, ptr %76, align 4, !tbaa !23, !noalias !290
  %78 = icmp eq i32 %77, %5
  br i1 %78, label %83, label %79

79:                                               ; preds = %75
  %80 = getelementptr inbounds nuw i8, ptr %3, i64 24
  %81 = load i32, ptr %80, align 4, !tbaa !23, !noalias !290
  %82 = icmp eq i32 %81, %5
  br i1 %82, label %83, label %101

83:                                               ; preds = %79, %75, %71, %67, %63, %59, %56
  %84 = phi i64 [ 0, %56 ], [ 4, %59 ], [ 8, %63 ], [ 12, %67 ], [ 16, %71 ], [ 20, %75 ], [ 24, %79 ]
  %85 = add nuw nsw i64 %84, 4
  br label %86

86:                                               ; preds = %83, %95
  %87 = phi i64 [ %97, %95 ], [ %85, %83 ]
  %88 = phi i64 [ %96, %95 ], [ %84, %83 ]
  %89 = getelementptr inbounds nuw i8, ptr %3, i64 %87
  %90 = load i32, ptr %89, align 4, !tbaa !23, !noalias !299
  %91 = icmp eq i32 %90, %5
  br i1 %91, label %95, label %92

92:                                               ; preds = %86
  %93 = getelementptr inbounds nuw i8, ptr %3, i64 %88
  store i32 %90, ptr %93, align 4, !tbaa !23, !noalias !299
  %94 = add nuw nsw i64 %88, 4
  br label %95

95:                                               ; preds = %92, %86
  %96 = phi i64 [ %88, %86 ], [ %94, %92 ]
  %97 = add nuw nsw i64 %87, 4
  %98 = icmp eq i64 %97, 32
  br i1 %98, label %99, label %86, !llvm.loop !253

99:                                               ; preds = %95
  %100 = icmp eq i64 %96, 20
  br i1 %100, label %102, label %101

101:                                              ; preds = %79, %99
  tail call void @__assert_fail(ptr noundef nonnull @.str.11, ptr noundef nonnull @.str.1, i32 noundef 76, ptr noundef nonnull @__PRETTY_FUNCTION__._Z4testI22bidirectional_iteratorIPiE16sentinel_wrapperIS2_ELi8ELi5EEv4DataIXT1_EXT2_EE) #7
  unreachable

102:                                              ; preds = %99
  %103 = call i32 @bcmp(ptr noundef nonnull dereferenceable(20) %3, ptr noundef nonnull dereferenceable(20) %52, i64 20)
  %104 = icmp eq i32 %103, 0
  br i1 %104, label %106, label %105

105:                                              ; preds = %102
  tail call void @__assert_fail(ptr noundef nonnull @.str.13, ptr noundef nonnull @.str.1, i32 noundef 78, ptr noundef nonnull @__PRETTY_FUNCTION__._Z4testI22bidirectional_iteratorIPiE16sentinel_wrapperIS2_ELi8ELi5EEv4DataIXT1_EXT2_EE) #7
  unreachable

106:                                              ; preds = %102
  call void @llvm.lifetime.end.p0(ptr nonnull %3) #6
  ret void
}

; Function Attrs: mustprogress uwtable
define linkonce_odr dso_local void @_Z4testI22bidirectional_iteratorIPiE14sized_sentinelIS2_ELi6ELi5EEv4DataIXT1_EXT2_EE(ptr noundef byval(%struct.Data) align 8 %0) local_unnamed_addr #4 comdat personality ptr @__gxx_personality_v0 {
  %2 = alloca %"struct.std::array", align 4
  %3 = alloca %"struct.std::array", align 4
  call void @llvm.lifetime.start.p0(ptr nonnull %2) #6
  call void @llvm.memcpy.p0.p0.i64(ptr noundef nonnull align 4 dereferenceable(24) %2, ptr noundef nonnull align 8 dereferenceable(24) %0, i64 24, i1 false), !tbaa.struct !5
  %4 = getelementptr inbounds nuw i8, ptr %0, i64 44
  %5 = load i32, ptr %4, align 4, !tbaa !23, !noalias !300
  %6 = load i32, ptr %2, align 4, !tbaa !23, !noalias !300
  %7 = icmp eq i32 %6, %5
  br i1 %7, label %28, label %8

8:                                                ; preds = %1
  %9 = getelementptr inbounds nuw i8, ptr %2, i64 4
  %10 = load i32, ptr %9, align 4, !tbaa !23, !noalias !300
  %11 = icmp eq i32 %10, %5
  br i1 %11, label %28, label %12

12:                                               ; preds = %8
  %13 = getelementptr inbounds nuw i8, ptr %2, i64 8
  %14 = load i32, ptr %13, align 4, !tbaa !23, !noalias !300
  %15 = icmp eq i32 %14, %5
  br i1 %15, label %28, label %16

16:                                               ; preds = %12
  %17 = getelementptr inbounds nuw i8, ptr %2, i64 12
  %18 = load i32, ptr %17, align 4, !tbaa !23, !noalias !300
  %19 = icmp eq i32 %18, %5
  br i1 %19, label %28, label %20

20:                                               ; preds = %16
  %21 = getelementptr inbounds nuw i8, ptr %2, i64 16
  %22 = load i32, ptr %21, align 4, !tbaa !23, !noalias !300
  %23 = icmp eq i32 %22, %5
  br i1 %23, label %28, label %24

24:                                               ; preds = %20
  %25 = getelementptr inbounds nuw i8, ptr %2, i64 20
  %26 = load i32, ptr %25, align 4, !tbaa !23, !noalias !300
  %27 = icmp eq i32 %26, %5
  br i1 %27, label %47, label %46

28:                                               ; preds = %20, %16, %12, %8, %1
  %29 = phi i64 [ 0, %1 ], [ 4, %8 ], [ 8, %12 ], [ 12, %16 ], [ 16, %20 ]
  %30 = add nuw nsw i64 %29, 4
  br label %31

31:                                               ; preds = %28, %40
  %32 = phi i64 [ %42, %40 ], [ %30, %28 ]
  %33 = phi i64 [ %41, %40 ], [ %29, %28 ]
  %34 = getelementptr inbounds nuw i8, ptr %2, i64 %32
  %35 = load i32, ptr %34, align 4, !tbaa !23, !noalias !307
  %36 = icmp eq i32 %35, %5
  br i1 %36, label %40, label %37

37:                                               ; preds = %31
  %38 = getelementptr inbounds nuw i8, ptr %2, i64 %33
  store i32 %35, ptr %38, align 4, !tbaa !23, !noalias !307
  %39 = add nuw nsw i64 %33, 4
  br label %40

40:                                               ; preds = %37, %31
  %41 = phi i64 [ %33, %31 ], [ %39, %37 ]
  %42 = add nuw nsw i64 %32, 4
  %43 = icmp eq i64 %42, 24
  br i1 %43, label %44, label %31, !llvm.loop !308

44:                                               ; preds = %40
  %45 = icmp eq i64 %41, 20
  br i1 %45, label %47, label %46

46:                                               ; preds = %24, %44
  tail call void @__assert_fail(ptr noundef nonnull @.str.11, ptr noundef nonnull @.str.1, i32 noundef 65, ptr noundef nonnull @__PRETTY_FUNCTION__._Z4testI22bidirectional_iteratorIPiE14sized_sentinelIS2_ELi6ELi5EEv4DataIXT1_EXT2_EE) #7
  unreachable

47:                                               ; preds = %24, %44
  %48 = getelementptr inbounds nuw i8, ptr %0, i64 24
  %49 = call i32 @bcmp(ptr noundef nonnull dereferenceable(20) %2, ptr noundef nonnull dereferenceable(20) %48, i64 20)
  %50 = icmp eq i32 %49, 0
  br i1 %50, label %52, label %51

51:                                               ; preds = %47
  tail call void @__assert_fail(ptr noundef nonnull @.str.13, ptr noundef nonnull @.str.1, i32 noundef 67, ptr noundef nonnull @__PRETTY_FUNCTION__._Z4testI22bidirectional_iteratorIPiE14sized_sentinelIS2_ELi6ELi5EEv4DataIXT1_EXT2_EE) #7
  unreachable

52:                                               ; preds = %47
  call void @llvm.lifetime.end.p0(ptr nonnull %2) #6
  call void @llvm.lifetime.start.p0(ptr nonnull %3) #6
  call void @llvm.memcpy.p0.p0.i64(ptr noundef nonnull align 4 dereferenceable(24) %3, ptr noundef nonnull align 8 dereferenceable(24) %0, i64 24, i1 false), !tbaa.struct !5
  %53 = load i32, ptr %3, align 4, !tbaa !23, !noalias !309
  %54 = icmp eq i32 %53, %5
  br i1 %54, label %75, label %55

55:                                               ; preds = %52
  %56 = getelementptr inbounds nuw i8, ptr %3, i64 4
  %57 = load i32, ptr %56, align 4, !tbaa !23, !noalias !309
  %58 = icmp eq i32 %57, %5
  br i1 %58, label %75, label %59

59:                                               ; preds = %55
  %60 = getelementptr inbounds nuw i8, ptr %3, i64 8
  %61 = load i32, ptr %60, align 4, !tbaa !23, !noalias !309
  %62 = icmp eq i32 %61, %5
  br i1 %62, label %75, label %63

63:                                               ; preds = %59
  %64 = getelementptr inbounds nuw i8, ptr %3, i64 12
  %65 = load i32, ptr %64, align 4, !tbaa !23, !noalias !309
  %66 = icmp eq i32 %65, %5
  br i1 %66, label %75, label %67

67:                                               ; preds = %63
  %68 = getelementptr inbounds nuw i8, ptr %3, i64 16
  %69 = load i32, ptr %68, align 4, !tbaa !23, !noalias !309
  %70 = icmp eq i32 %69, %5
  br i1 %70, label %75, label %71

71:                                               ; preds = %67
  %72 = getelementptr inbounds nuw i8, ptr %3, i64 20
  %73 = load i32, ptr %72, align 4, !tbaa !23, !noalias !309
  %74 = icmp eq i32 %73, %5
  br i1 %74, label %94, label %93

75:                                               ; preds = %67, %63, %59, %55, %52
  %76 = phi i64 [ 0, %52 ], [ 4, %55 ], [ 8, %59 ], [ 12, %63 ], [ 16, %67 ]
  %77 = add nuw nsw i64 %76, 4
  br label %78

78:                                               ; preds = %75, %87
  %79 = phi i64 [ %89, %87 ], [ %77, %75 ]
  %80 = phi i64 [ %88, %87 ], [ %76, %75 ]
  %81 = getelementptr inbounds nuw i8, ptr %3, i64 %79
  %82 = load i32, ptr %81, align 4, !tbaa !23, !noalias !318
  %83 = icmp eq i32 %82, %5
  br i1 %83, label %87, label %84

84:                                               ; preds = %78
  %85 = getelementptr inbounds nuw i8, ptr %3, i64 %80
  store i32 %82, ptr %85, align 4, !tbaa !23, !noalias !318
  %86 = add nuw nsw i64 %80, 4
  br label %87

87:                                               ; preds = %84, %78
  %88 = phi i64 [ %80, %78 ], [ %86, %84 ]
  %89 = add nuw nsw i64 %79, 4
  %90 = icmp eq i64 %89, 24
  br i1 %90, label %91, label %78, !llvm.loop !308

91:                                               ; preds = %87
  %92 = icmp eq i64 %88, 20
  br i1 %92, label %94, label %93

93:                                               ; preds = %71, %91
  tail call void @__assert_fail(ptr noundef nonnull @.str.11, ptr noundef nonnull @.str.1, i32 noundef 76, ptr noundef nonnull @__PRETTY_FUNCTION__._Z4testI22bidirectional_iteratorIPiE14sized_sentinelIS2_ELi6ELi5EEv4DataIXT1_EXT2_EE) #7
  unreachable

94:                                               ; preds = %71, %91
  %95 = call i32 @bcmp(ptr noundef nonnull dereferenceable(20) %3, ptr noundef nonnull dereferenceable(20) %48, i64 20)
  %96 = icmp eq i32 %95, 0
  br i1 %96, label %98, label %97

97:                                               ; preds = %94
  tail call void @__assert_fail(ptr noundef nonnull @.str.13, ptr noundef nonnull @.str.1, i32 noundef 78, ptr noundef nonnull @__PRETTY_FUNCTION__._Z4testI22bidirectional_iteratorIPiE14sized_sentinelIS2_ELi6ELi5EEv4DataIXT1_EXT2_EE) #7
  unreachable

98:                                               ; preds = %94
  call void @llvm.lifetime.end.p0(ptr nonnull %3) #6
  ret void
}

; Function Attrs: mustprogress uwtable
define linkonce_odr dso_local void @_Z4testI22bidirectional_iteratorIPiE14sized_sentinelIS2_ELi2ELi1EEv4DataIXT1_EXT2_EE(i64 %0, i64 %1) local_unnamed_addr #4 comdat personality ptr @__gxx_personality_v0 {
  %3 = trunc i64 %1 to i32
  %4 = trunc i64 %0 to i32
  %5 = lshr i64 %0, 32
  %6 = trunc nuw i64 %5 to i32
  %7 = lshr i64 %1, 32
  %8 = trunc nuw i64 %7 to i32
  %9 = trunc i64 %0 to i32
  %10 = icmp eq i32 %9, %8
  %11 = lshr i64 %0, 32
  br i1 %10, label %14, label %12

12:                                               ; preds = %2
  %13 = icmp eq i64 %11, %7
  br i1 %13, label %19, label %18

14:                                               ; preds = %2
  %15 = icmp eq i64 %5, %7
  br i1 %15, label %18, label %16

16:                                               ; preds = %14
  %17 = icmp eq i32 %6, %3
  br i1 %17, label %24, label %23

18:                                               ; preds = %14, %12
  tail call void @__assert_fail(ptr noundef nonnull @.str.11, ptr noundef nonnull @.str.1, i32 noundef 65, ptr noundef nonnull @__PRETTY_FUNCTION__._Z4testI22bidirectional_iteratorIPiE14sized_sentinelIS2_ELi2ELi1EEv4DataIXT1_EXT2_EE) #7
  unreachable

19:                                               ; preds = %12
  %20 = icmp eq i32 %4, %3
  br i1 %20, label %21, label %23

21:                                               ; preds = %19
  %22 = icmp eq i64 %11, %7
  br i1 %22, label %28, label %27

23:                                               ; preds = %19, %16
  tail call void @__assert_fail(ptr noundef nonnull @.str.13, ptr noundef nonnull @.str.1, i32 noundef 67, ptr noundef nonnull @__PRETTY_FUNCTION__._Z4testI22bidirectional_iteratorIPiE14sized_sentinelIS2_ELi2ELi1EEv4DataIXT1_EXT2_EE) #7
  unreachable

24:                                               ; preds = %16
  %25 = lshr i64 %0, 32
  %26 = icmp eq i64 %25, %7
  br i1 %26, label %27, label %28

27:                                               ; preds = %24, %21
  tail call void @__assert_fail(ptr noundef nonnull @.str.11, ptr noundef nonnull @.str.1, i32 noundef 76, ptr noundef nonnull @__PRETTY_FUNCTION__._Z4testI22bidirectional_iteratorIPiE14sized_sentinelIS2_ELi2ELi1EEv4DataIXT1_EXT2_EE) #7
  unreachable

28:                                               ; preds = %24, %21
  %29 = phi i64 [ %0, %21 ], [ %25, %24 ]
  %30 = trunc i64 %29 to i32
  %31 = icmp eq i32 %30, %3
  br i1 %31, label %33, label %32

32:                                               ; preds = %28
  tail call void @__assert_fail(ptr noundef nonnull @.str.13, ptr noundef nonnull @.str.1, i32 noundef 78, ptr noundef nonnull @__PRETTY_FUNCTION__._Z4testI22bidirectional_iteratorIPiE14sized_sentinelIS2_ELi2ELi1EEv4DataIXT1_EXT2_EE) #7
  unreachable

33:                                               ; preds = %28
  ret void
}

; Function Attrs: mustprogress uwtable
define linkonce_odr dso_local void @_Z4testI22bidirectional_iteratorIPiE14sized_sentinelIS2_ELi5ELi0EEv4DataIXT1_EXT2_EE(ptr noundef byval(%struct.Data.11) align 8 %0) local_unnamed_addr #4 comdat personality ptr @__gxx_personality_v0 {
  %2 = alloca %"struct.std::array.3", align 4
  %3 = alloca %"struct.std::array.3", align 4
  call void @llvm.lifetime.start.p0(ptr nonnull %2) #6
  call void @llvm.memcpy.p0.p0.i64(ptr noundef nonnull align 4 dereferenceable(20) %2, ptr noundef nonnull align 8 dereferenceable(20) %0, i64 20, i1 false), !tbaa.struct !9
  %4 = getelementptr inbounds nuw i8, ptr %0, i64 24
  %5 = load i32, ptr %4, align 8, !tbaa !23, !noalias !319
  %6 = getelementptr inbounds nuw i8, ptr %3, i64 4
  %7 = getelementptr inbounds nuw i8, ptr %3, i64 8
  %8 = getelementptr inbounds nuw i8, ptr %3, i64 12
  %9 = getelementptr inbounds nuw i8, ptr %2, i64 8
  %10 = getelementptr inbounds nuw i8, ptr %2, i64 12
  %11 = load i32, ptr %2, align 4, !tbaa !23, !noalias !319
  %12 = icmp eq i32 %11, %5
  %13 = getelementptr inbounds nuw i8, ptr %3, i64 16
  %14 = getelementptr inbounds nuw i8, ptr %3, i64 12
  %15 = getelementptr inbounds nuw i8, ptr %3, i64 8
  %16 = getelementptr inbounds nuw i8, ptr %3, i64 4
  %17 = getelementptr inbounds nuw i8, ptr %2, i64 16
  %18 = getelementptr inbounds nuw i8, ptr %2, i64 12
  %19 = getelementptr inbounds nuw i8, ptr %2, i64 4
  br i1 %12, label %31, label %20

20:                                               ; preds = %1
  %21 = getelementptr inbounds nuw i8, ptr %2, i64 8
  %22 = getelementptr inbounds nuw i8, ptr %2, i64 4
  %23 = load i32, ptr %22, align 4, !tbaa !23, !noalias !319
  %24 = icmp eq i32 %23, %5
  br i1 %24, label %31, label %25

25:                                               ; preds = %20
  %26 = load i32, ptr %9, align 4, !tbaa !23, !noalias !319
  %27 = icmp eq i32 %26, %5
  br i1 %27, label %31, label %28

28:                                               ; preds = %25
  %29 = load i32, ptr %10, align 4, !tbaa !23, !noalias !319
  %30 = icmp eq i32 %29, %5
  br i1 %30, label %31, label %76

31:                                               ; preds = %1, %20, %25, %28
  %32 = phi ptr [ %17, %28 ], [ %18, %25 ], [ %21, %20 ], [ %19, %1 ]
  %33 = phi i64 [ 16, %28 ], [ 12, %25 ], [ 8, %20 ], [ 4, %1 ]
  %34 = phi ptr [ %10, %28 ], [ %9, %25 ], [ %22, %20 ], [ %2, %1 ]
  %35 = load i32, ptr %32, align 4, !tbaa !23, !noalias !326
  %36 = load i32, ptr %4, align 8, !tbaa !23, !noalias !326
  %37 = icmp eq i32 %35, %36
  br i1 %37, label %40, label %38

38:                                               ; preds = %31
  store i32 %35, ptr %34, align 4, !tbaa !23, !noalias !326
  %39 = getelementptr inbounds nuw i8, ptr %34, i64 4
  br label %40

40:                                               ; preds = %38, %31
  %41 = phi ptr [ %34, %31 ], [ %39, %38 ]
  %42 = add nuw nsw i64 %33, 4
  %43 = icmp eq i64 %42, 20
  br i1 %43, label %73, label %44, !llvm.loop !308

44:                                               ; preds = %40
  %45 = getelementptr inbounds nuw i8, ptr %2, i64 %42
  %46 = load i32, ptr %45, align 4, !tbaa !23, !noalias !326
  %47 = load i32, ptr %4, align 8, !tbaa !23, !noalias !326
  %48 = icmp eq i32 %46, %47
  br i1 %48, label %51, label %49

49:                                               ; preds = %44
  store i32 %46, ptr %41, align 4, !tbaa !23, !noalias !326
  %50 = getelementptr inbounds nuw i8, ptr %41, i64 4
  br label %51

51:                                               ; preds = %49, %44
  %52 = phi ptr [ %41, %44 ], [ %50, %49 ]
  %53 = add nuw nsw i64 %33, 8
  %54 = icmp eq i64 %53, 20
  br i1 %54, label %73, label %55, !llvm.loop !308

55:                                               ; preds = %51
  %56 = getelementptr inbounds nuw i8, ptr %2, i64 %53
  %57 = load i32, ptr %56, align 4, !tbaa !23, !noalias !326
  %58 = load i32, ptr %4, align 8, !tbaa !23, !noalias !326
  %59 = icmp eq i32 %57, %58
  br i1 %59, label %62, label %60

60:                                               ; preds = %55
  store i32 %57, ptr %52, align 4, !tbaa !23, !noalias !326
  %61 = getelementptr inbounds nuw i8, ptr %52, i64 4
  br label %62

62:                                               ; preds = %60, %55
  %63 = phi ptr [ %52, %55 ], [ %61, %60 ]
  %64 = add nuw nsw i64 %33, 12
  %65 = icmp eq i64 %64, 20
  br i1 %65, label %73, label %66, !llvm.loop !308

66:                                               ; preds = %62
  %67 = getelementptr inbounds nuw i8, ptr %2, i64 %64
  %68 = load i32, ptr %67, align 4, !tbaa !23, !noalias !326
  %69 = load i32, ptr %4, align 8, !tbaa !23, !noalias !326
  %70 = icmp eq i32 %68, %69
  br i1 %70, label %73, label %71

71:                                               ; preds = %66
  store i32 %68, ptr %63, align 4, !tbaa !23, !noalias !326
  %72 = getelementptr inbounds nuw i8, ptr %63, i64 4
  br label %73

73:                                               ; preds = %66, %71, %62, %51, %40
  %74 = phi ptr [ %41, %40 ], [ %52, %51 ], [ %63, %62 ], [ %63, %66 ], [ %72, %71 ]
  %75 = icmp eq ptr %74, %2
  br i1 %75, label %77, label %76

76:                                               ; preds = %28, %73
  call void @__assert_fail(ptr noundef nonnull @.str.11, ptr noundef nonnull @.str.1, i32 noundef 65, ptr noundef nonnull @__PRETTY_FUNCTION__._Z4testI22bidirectional_iteratorIPiE14sized_sentinelIS2_ELi5ELi0EEv4DataIXT1_EXT2_EE) #7
  unreachable

77:                                               ; preds = %73
  call void @llvm.lifetime.end.p0(ptr nonnull %2) #6
  call void @llvm.lifetime.start.p0(ptr nonnull %3) #6
  call void @llvm.memcpy.p0.p0.i64(ptr noundef nonnull align 4 dereferenceable(20) %3, ptr noundef nonnull align 8 dereferenceable(20) %0, i64 20, i1 false), !tbaa.struct !9
  %78 = load i32, ptr %4, align 8, !tbaa !23, !noalias !327
  %79 = load i32, ptr %3, align 4, !tbaa !23, !noalias !327
  %80 = icmp eq i32 %79, %78
  br i1 %80, label %90, label %81

81:                                               ; preds = %77
  %82 = load i32, ptr %6, align 4, !tbaa !23, !noalias !327
  %83 = icmp eq i32 %82, %78
  br i1 %83, label %90, label %84

84:                                               ; preds = %81
  %85 = load i32, ptr %7, align 4, !tbaa !23, !noalias !327
  %86 = icmp eq i32 %85, %78
  br i1 %86, label %90, label %87

87:                                               ; preds = %84
  %88 = load i32, ptr %8, align 4, !tbaa !23, !noalias !327
  %89 = icmp eq i32 %88, %78
  br i1 %89, label %90, label %135

90:                                               ; preds = %77, %81, %84, %87
  %91 = phi ptr [ %13, %87 ], [ %14, %84 ], [ %15, %81 ], [ %16, %77 ]
  %92 = phi i64 [ 16, %87 ], [ 12, %84 ], [ 8, %81 ], [ 4, %77 ]
  %93 = phi ptr [ %8, %87 ], [ %7, %84 ], [ %6, %81 ], [ %3, %77 ]
  %94 = load i32, ptr %91, align 4, !tbaa !23, !noalias !336
  %95 = load i32, ptr %4, align 8, !tbaa !23, !noalias !336
  %96 = icmp eq i32 %94, %95
  br i1 %96, label %99, label %97

97:                                               ; preds = %90
  store i32 %94, ptr %93, align 4, !tbaa !23, !noalias !336
  %98 = getelementptr inbounds nuw i8, ptr %93, i64 4
  br label %99

99:                                               ; preds = %97, %90
  %100 = phi ptr [ %93, %90 ], [ %98, %97 ]
  %101 = add nuw nsw i64 %92, 4
  %102 = icmp eq i64 %101, 20
  br i1 %102, label %132, label %103, !llvm.loop !308

103:                                              ; preds = %99
  %104 = getelementptr inbounds nuw i8, ptr %3, i64 %101
  %105 = load i32, ptr %104, align 4, !tbaa !23, !noalias !336
  %106 = load i32, ptr %4, align 8, !tbaa !23, !noalias !336
  %107 = icmp eq i32 %105, %106
  br i1 %107, label %110, label %108

108:                                              ; preds = %103
  store i32 %105, ptr %100, align 4, !tbaa !23, !noalias !336
  %109 = getelementptr inbounds nuw i8, ptr %100, i64 4
  br label %110

110:                                              ; preds = %108, %103
  %111 = phi ptr [ %100, %103 ], [ %109, %108 ]
  %112 = add nuw nsw i64 %92, 8
  %113 = icmp eq i64 %112, 20
  br i1 %113, label %132, label %114, !llvm.loop !308

114:                                              ; preds = %110
  %115 = getelementptr inbounds nuw i8, ptr %3, i64 %112
  %116 = load i32, ptr %115, align 4, !tbaa !23, !noalias !336
  %117 = load i32, ptr %4, align 8, !tbaa !23, !noalias !336
  %118 = icmp eq i32 %116, %117
  br i1 %118, label %121, label %119

119:                                              ; preds = %114
  store i32 %116, ptr %111, align 4, !tbaa !23, !noalias !336
  %120 = getelementptr inbounds nuw i8, ptr %111, i64 4
  br label %121

121:                                              ; preds = %119, %114
  %122 = phi ptr [ %111, %114 ], [ %120, %119 ]
  %123 = add nuw nsw i64 %92, 12
  %124 = icmp eq i64 %123, 20
  br i1 %124, label %132, label %125, !llvm.loop !308

125:                                              ; preds = %121
  %126 = getelementptr inbounds nuw i8, ptr %3, i64 %123
  %127 = load i32, ptr %126, align 4, !tbaa !23, !noalias !336
  %128 = load i32, ptr %4, align 8, !tbaa !23, !noalias !336
  %129 = icmp eq i32 %127, %128
  br i1 %129, label %132, label %130

130:                                              ; preds = %125
  store i32 %127, ptr %122, align 4, !tbaa !23, !noalias !336
  %131 = getelementptr inbounds nuw i8, ptr %122, i64 4
  br label %132

132:                                              ; preds = %125, %130, %121, %110, %99
  %133 = phi ptr [ %100, %99 ], [ %111, %110 ], [ %122, %121 ], [ %122, %125 ], [ %131, %130 ]
  %134 = icmp eq ptr %133, %3
  br i1 %134, label %136, label %135

135:                                              ; preds = %87, %132
  call void @__assert_fail(ptr noundef nonnull @.str.11, ptr noundef nonnull @.str.1, i32 noundef 76, ptr noundef nonnull @__PRETTY_FUNCTION__._Z4testI22bidirectional_iteratorIPiE14sized_sentinelIS2_ELi5ELi0EEv4DataIXT1_EXT2_EE) #7
  unreachable

136:                                              ; preds = %132
  call void @llvm.lifetime.end.p0(ptr nonnull %3) #6
  ret void
}

; Function Attrs: mustprogress uwtable
define linkonce_odr dso_local void @_Z4testI22bidirectional_iteratorIPiE14sized_sentinelIS2_ELi8ELi5EEv4DataIXT1_EXT2_EE(ptr noundef byval(%struct.Data.12) align 8 %0) local_unnamed_addr #4 comdat personality ptr @__gxx_personality_v0 {
  %2 = alloca %"struct.std::array.13", align 4
  %3 = alloca %"struct.std::array.13", align 4
  call void @llvm.lifetime.start.p0(ptr nonnull %2) #6
  call void @llvm.memcpy.p0.p0.i64(ptr noundef nonnull align 4 dereferenceable(32) %2, ptr noundef nonnull align 8 dereferenceable(32) %0, i64 32, i1 false), !tbaa.struct !19
  %4 = getelementptr inbounds nuw i8, ptr %0, i64 52
  %5 = load i32, ptr %4, align 4, !tbaa !23, !noalias !337
  %6 = load i32, ptr %2, align 4, !tbaa !23, !noalias !337
  %7 = icmp eq i32 %6, %5
  br i1 %7, label %32, label %8

8:                                                ; preds = %1
  %9 = getelementptr inbounds nuw i8, ptr %2, i64 4
  %10 = load i32, ptr %9, align 4, !tbaa !23, !noalias !337
  %11 = icmp eq i32 %10, %5
  br i1 %11, label %32, label %12

12:                                               ; preds = %8
  %13 = getelementptr inbounds nuw i8, ptr %2, i64 8
  %14 = load i32, ptr %13, align 4, !tbaa !23, !noalias !337
  %15 = icmp eq i32 %14, %5
  br i1 %15, label %32, label %16

16:                                               ; preds = %12
  %17 = getelementptr inbounds nuw i8, ptr %2, i64 12
  %18 = load i32, ptr %17, align 4, !tbaa !23, !noalias !337
  %19 = icmp eq i32 %18, %5
  br i1 %19, label %32, label %20

20:                                               ; preds = %16
  %21 = getelementptr inbounds nuw i8, ptr %2, i64 16
  %22 = load i32, ptr %21, align 4, !tbaa !23, !noalias !337
  %23 = icmp eq i32 %22, %5
  br i1 %23, label %32, label %24

24:                                               ; preds = %20
  %25 = getelementptr inbounds nuw i8, ptr %2, i64 20
  %26 = load i32, ptr %25, align 4, !tbaa !23, !noalias !337
  %27 = icmp eq i32 %26, %5
  br i1 %27, label %32, label %28

28:                                               ; preds = %24
  %29 = getelementptr inbounds nuw i8, ptr %2, i64 24
  %30 = load i32, ptr %29, align 4, !tbaa !23, !noalias !337
  %31 = icmp eq i32 %30, %5
  br i1 %31, label %32, label %50

32:                                               ; preds = %28, %24, %20, %16, %12, %8, %1
  %33 = phi i64 [ 0, %1 ], [ 4, %8 ], [ 8, %12 ], [ 12, %16 ], [ 16, %20 ], [ 20, %24 ], [ 24, %28 ]
  %34 = add nuw nsw i64 %33, 4
  br label %35

35:                                               ; preds = %32, %44
  %36 = phi i64 [ %46, %44 ], [ %34, %32 ]
  %37 = phi i64 [ %45, %44 ], [ %33, %32 ]
  %38 = getelementptr inbounds nuw i8, ptr %2, i64 %36
  %39 = load i32, ptr %38, align 4, !tbaa !23, !noalias !344
  %40 = icmp eq i32 %39, %5
  br i1 %40, label %44, label %41

41:                                               ; preds = %35
  %42 = getelementptr inbounds nuw i8, ptr %2, i64 %37
  store i32 %39, ptr %42, align 4, !tbaa !23, !noalias !344
  %43 = add nuw nsw i64 %37, 4
  br label %44

44:                                               ; preds = %41, %35
  %45 = phi i64 [ %37, %35 ], [ %43, %41 ]
  %46 = add nuw nsw i64 %36, 4
  %47 = icmp eq i64 %46, 32
  br i1 %47, label %48, label %35, !llvm.loop !308

48:                                               ; preds = %44
  %49 = icmp eq i64 %45, 20
  br i1 %49, label %51, label %50

50:                                               ; preds = %28, %48
  tail call void @__assert_fail(ptr noundef nonnull @.str.11, ptr noundef nonnull @.str.1, i32 noundef 65, ptr noundef nonnull @__PRETTY_FUNCTION__._Z4testI22bidirectional_iteratorIPiE14sized_sentinelIS2_ELi8ELi5EEv4DataIXT1_EXT2_EE) #7
  unreachable

51:                                               ; preds = %48
  %52 = getelementptr inbounds nuw i8, ptr %0, i64 32
  %53 = call i32 @bcmp(ptr noundef nonnull dereferenceable(20) %2, ptr noundef nonnull dereferenceable(20) %52, i64 20)
  %54 = icmp eq i32 %53, 0
  br i1 %54, label %56, label %55

55:                                               ; preds = %51
  tail call void @__assert_fail(ptr noundef nonnull @.str.13, ptr noundef nonnull @.str.1, i32 noundef 67, ptr noundef nonnull @__PRETTY_FUNCTION__._Z4testI22bidirectional_iteratorIPiE14sized_sentinelIS2_ELi8ELi5EEv4DataIXT1_EXT2_EE) #7
  unreachable

56:                                               ; preds = %51
  call void @llvm.lifetime.end.p0(ptr nonnull %2) #6
  call void @llvm.lifetime.start.p0(ptr nonnull %3) #6
  call void @llvm.memcpy.p0.p0.i64(ptr noundef nonnull align 4 dereferenceable(32) %3, ptr noundef nonnull align 8 dereferenceable(32) %0, i64 32, i1 false), !tbaa.struct !19
  %57 = load i32, ptr %3, align 4, !tbaa !23, !noalias !345
  %58 = icmp eq i32 %57, %5
  br i1 %58, label %83, label %59

59:                                               ; preds = %56
  %60 = getelementptr inbounds nuw i8, ptr %3, i64 4
  %61 = load i32, ptr %60, align 4, !tbaa !23, !noalias !345
  %62 = icmp eq i32 %61, %5
  br i1 %62, label %83, label %63

63:                                               ; preds = %59
  %64 = getelementptr inbounds nuw i8, ptr %3, i64 8
  %65 = load i32, ptr %64, align 4, !tbaa !23, !noalias !345
  %66 = icmp eq i32 %65, %5
  br i1 %66, label %83, label %67

67:                                               ; preds = %63
  %68 = getelementptr inbounds nuw i8, ptr %3, i64 12
  %69 = load i32, ptr %68, align 4, !tbaa !23, !noalias !345
  %70 = icmp eq i32 %69, %5
  br i1 %70, label %83, label %71

71:                                               ; preds = %67
  %72 = getelementptr inbounds nuw i8, ptr %3, i64 16
  %73 = load i32, ptr %72, align 4, !tbaa !23, !noalias !345
  %74 = icmp eq i32 %73, %5
  br i1 %74, label %83, label %75

75:                                               ; preds = %71
  %76 = getelementptr inbounds nuw i8, ptr %3, i64 20
  %77 = load i32, ptr %76, align 4, !tbaa !23, !noalias !345
  %78 = icmp eq i32 %77, %5
  br i1 %78, label %83, label %79

79:                                               ; preds = %75
  %80 = getelementptr inbounds nuw i8, ptr %3, i64 24
  %81 = load i32, ptr %80, align 4, !tbaa !23, !noalias !345
  %82 = icmp eq i32 %81, %5
  br i1 %82, label %83, label %101

83:                                               ; preds = %79, %75, %71, %67, %63, %59, %56
  %84 = phi i64 [ 0, %56 ], [ 4, %59 ], [ 8, %63 ], [ 12, %67 ], [ 16, %71 ], [ 20, %75 ], [ 24, %79 ]
  %85 = add nuw nsw i64 %84, 4
  br label %86

86:                                               ; preds = %83, %95
  %87 = phi i64 [ %97, %95 ], [ %85, %83 ]
  %88 = phi i64 [ %96, %95 ], [ %84, %83 ]
  %89 = getelementptr inbounds nuw i8, ptr %3, i64 %87
  %90 = load i32, ptr %89, align 4, !tbaa !23, !noalias !354
  %91 = icmp eq i32 %90, %5
  br i1 %91, label %95, label %92

92:                                               ; preds = %86
  %93 = getelementptr inbounds nuw i8, ptr %3, i64 %88
  store i32 %90, ptr %93, align 4, !tbaa !23, !noalias !354
  %94 = add nuw nsw i64 %88, 4
  br label %95

95:                                               ; preds = %92, %86
  %96 = phi i64 [ %88, %86 ], [ %94, %92 ]
  %97 = add nuw nsw i64 %87, 4
  %98 = icmp eq i64 %97, 32
  br i1 %98, label %99, label %86, !llvm.loop !308

99:                                               ; preds = %95
  %100 = icmp eq i64 %96, 20
  br i1 %100, label %102, label %101

101:                                              ; preds = %79, %99
  tail call void @__assert_fail(ptr noundef nonnull @.str.11, ptr noundef nonnull @.str.1, i32 noundef 76, ptr noundef nonnull @__PRETTY_FUNCTION__._Z4testI22bidirectional_iteratorIPiE14sized_sentinelIS2_ELi8ELi5EEv4DataIXT1_EXT2_EE) #7
  unreachable

102:                                              ; preds = %99
  %103 = call i32 @bcmp(ptr noundef nonnull dereferenceable(20) %3, ptr noundef nonnull dereferenceable(20) %52, i64 20)
  %104 = icmp eq i32 %103, 0
  br i1 %104, label %106, label %105

105:                                              ; preds = %102
  tail call void @__assert_fail(ptr noundef nonnull @.str.13, ptr noundef nonnull @.str.1, i32 noundef 78, ptr noundef nonnull @__PRETTY_FUNCTION__._Z4testI22bidirectional_iteratorIPiE14sized_sentinelIS2_ELi8ELi5EEv4DataIXT1_EXT2_EE) #7
  unreachable

106:                                              ; preds = %102
  call void @llvm.lifetime.end.p0(ptr nonnull %3) #6
  ret void
}

; Function Attrs: mustprogress uwtable
define linkonce_odr dso_local void @_Z4testI22random_access_iteratorIPiES2_Li6ELi5EEv4DataIXT1_EXT2_EE(ptr noundef byval(%struct.Data) align 8 %0) local_unnamed_addr #4 comdat personality ptr @__gxx_personality_v0 {
  %2 = alloca %"struct.std::array", align 4
  %3 = alloca %"struct.std::array", align 4
  call void @llvm.lifetime.start.p0(ptr nonnull %2) #6
  call void @llvm.memcpy.p0.p0.i64(ptr noundef nonnull align 4 dereferenceable(24) %2, ptr noundef nonnull align 8 dereferenceable(24) %0, i64 24, i1 false), !tbaa.struct !5
  %4 = getelementptr inbounds nuw i8, ptr %0, i64 44
  %5 = load i32, ptr %4, align 4, !tbaa !23, !noalias !355
  %6 = load i32, ptr %2, align 4, !tbaa !23, !noalias !355
  %7 = icmp eq i32 %6, %5
  br i1 %7, label %28, label %8

8:                                                ; preds = %1
  %9 = getelementptr inbounds nuw i8, ptr %2, i64 4
  %10 = load i32, ptr %9, align 4, !tbaa !23, !noalias !355
  %11 = icmp eq i32 %10, %5
  br i1 %11, label %28, label %12

12:                                               ; preds = %8
  %13 = getelementptr inbounds nuw i8, ptr %2, i64 8
  %14 = load i32, ptr %13, align 4, !tbaa !23, !noalias !355
  %15 = icmp eq i32 %14, %5
  br i1 %15, label %28, label %16

16:                                               ; preds = %12
  %17 = getelementptr inbounds nuw i8, ptr %2, i64 12
  %18 = load i32, ptr %17, align 4, !tbaa !23, !noalias !355
  %19 = icmp eq i32 %18, %5
  br i1 %19, label %28, label %20

20:                                               ; preds = %16
  %21 = getelementptr inbounds nuw i8, ptr %2, i64 16
  %22 = load i32, ptr %21, align 4, !tbaa !23, !noalias !355
  %23 = icmp eq i32 %22, %5
  br i1 %23, label %28, label %24

24:                                               ; preds = %20
  %25 = getelementptr inbounds nuw i8, ptr %2, i64 20
  %26 = load i32, ptr %25, align 4, !tbaa !23, !noalias !355
  %27 = icmp eq i32 %26, %5
  br i1 %27, label %47, label %46

28:                                               ; preds = %20, %16, %12, %8, %1
  %29 = phi i64 [ 0, %1 ], [ 4, %8 ], [ 8, %12 ], [ 12, %16 ], [ 16, %20 ]
  %30 = add nuw nsw i64 %29, 4
  br label %31

31:                                               ; preds = %28, %40
  %32 = phi i64 [ %42, %40 ], [ %30, %28 ]
  %33 = phi i64 [ %41, %40 ], [ %29, %28 ]
  %34 = getelementptr inbounds nuw i8, ptr %2, i64 %32
  %35 = load i32, ptr %34, align 4, !tbaa !23, !noalias !362
  %36 = icmp eq i32 %35, %5
  br i1 %36, label %40, label %37

37:                                               ; preds = %31
  %38 = getelementptr inbounds nuw i8, ptr %2, i64 %33
  store i32 %35, ptr %38, align 4, !tbaa !23, !noalias !362
  %39 = add nuw nsw i64 %33, 4
  br label %40

40:                                               ; preds = %37, %31
  %41 = phi i64 [ %33, %31 ], [ %39, %37 ]
  %42 = add nuw nsw i64 %32, 4
  %43 = icmp eq i64 %42, 24
  br i1 %43, label %44, label %31, !llvm.loop !363

44:                                               ; preds = %40
  %45 = icmp eq i64 %41, 20
  br i1 %45, label %47, label %46

46:                                               ; preds = %24, %44
  tail call void @__assert_fail(ptr noundef nonnull @.str.11, ptr noundef nonnull @.str.1, i32 noundef 65, ptr noundef nonnull @__PRETTY_FUNCTION__._Z4testI22random_access_iteratorIPiES2_Li6ELi5EEv4DataIXT1_EXT2_EE) #7
  unreachable

47:                                               ; preds = %24, %44
  %48 = getelementptr inbounds nuw i8, ptr %0, i64 24
  %49 = call i32 @bcmp(ptr noundef nonnull dereferenceable(20) %2, ptr noundef nonnull dereferenceable(20) %48, i64 20)
  %50 = icmp eq i32 %49, 0
  br i1 %50, label %52, label %51

51:                                               ; preds = %47
  tail call void @__assert_fail(ptr noundef nonnull @.str.13, ptr noundef nonnull @.str.1, i32 noundef 67, ptr noundef nonnull @__PRETTY_FUNCTION__._Z4testI22random_access_iteratorIPiES2_Li6ELi5EEv4DataIXT1_EXT2_EE) #7
  unreachable

52:                                               ; preds = %47
  call void @llvm.lifetime.end.p0(ptr nonnull %2) #6
  call void @llvm.lifetime.start.p0(ptr nonnull %3) #6
  call void @llvm.memcpy.p0.p0.i64(ptr noundef nonnull align 4 dereferenceable(24) %3, ptr noundef nonnull align 8 dereferenceable(24) %0, i64 24, i1 false), !tbaa.struct !5
  %53 = load i32, ptr %3, align 4, !tbaa !23, !noalias !364
  %54 = icmp eq i32 %53, %5
  br i1 %54, label %75, label %55

55:                                               ; preds = %52
  %56 = getelementptr inbounds nuw i8, ptr %3, i64 4
  %57 = load i32, ptr %56, align 4, !tbaa !23, !noalias !364
  %58 = icmp eq i32 %57, %5
  br i1 %58, label %75, label %59

59:                                               ; preds = %55
  %60 = getelementptr inbounds nuw i8, ptr %3, i64 8
  %61 = load i32, ptr %60, align 4, !tbaa !23, !noalias !364
  %62 = icmp eq i32 %61, %5
  br i1 %62, label %75, label %63

63:                                               ; preds = %59
  %64 = getelementptr inbounds nuw i8, ptr %3, i64 12
  %65 = load i32, ptr %64, align 4, !tbaa !23, !noalias !364
  %66 = icmp eq i32 %65, %5
  br i1 %66, label %75, label %67

67:                                               ; preds = %63
  %68 = getelementptr inbounds nuw i8, ptr %3, i64 16
  %69 = load i32, ptr %68, align 4, !tbaa !23, !noalias !364
  %70 = icmp eq i32 %69, %5
  br i1 %70, label %75, label %71

71:                                               ; preds = %67
  %72 = getelementptr inbounds nuw i8, ptr %3, i64 20
  %73 = load i32, ptr %72, align 4, !tbaa !23, !noalias !364
  %74 = icmp eq i32 %73, %5
  br i1 %74, label %94, label %93

75:                                               ; preds = %67, %63, %59, %55, %52
  %76 = phi i64 [ 0, %52 ], [ 4, %55 ], [ 8, %59 ], [ 12, %63 ], [ 16, %67 ]
  %77 = add nuw nsw i64 %76, 4
  br label %78

78:                                               ; preds = %75, %87
  %79 = phi i64 [ %89, %87 ], [ %77, %75 ]
  %80 = phi i64 [ %88, %87 ], [ %76, %75 ]
  %81 = getelementptr inbounds nuw i8, ptr %3, i64 %79
  %82 = load i32, ptr %81, align 4, !tbaa !23, !noalias !373
  %83 = icmp eq i32 %82, %5
  br i1 %83, label %87, label %84

84:                                               ; preds = %78
  %85 = getelementptr inbounds nuw i8, ptr %3, i64 %80
  store i32 %82, ptr %85, align 4, !tbaa !23, !noalias !373
  %86 = add nuw nsw i64 %80, 4
  br label %87

87:                                               ; preds = %84, %78
  %88 = phi i64 [ %80, %78 ], [ %86, %84 ]
  %89 = add nuw nsw i64 %79, 4
  %90 = icmp eq i64 %89, 24
  br i1 %90, label %91, label %78, !llvm.loop !363

91:                                               ; preds = %87
  %92 = icmp eq i64 %88, 20
  br i1 %92, label %94, label %93

93:                                               ; preds = %71, %91
  tail call void @__assert_fail(ptr noundef nonnull @.str.11, ptr noundef nonnull @.str.1, i32 noundef 76, ptr noundef nonnull @__PRETTY_FUNCTION__._Z4testI22random_access_iteratorIPiES2_Li6ELi5EEv4DataIXT1_EXT2_EE) #7
  unreachable

94:                                               ; preds = %71, %91
  %95 = call i32 @bcmp(ptr noundef nonnull dereferenceable(20) %3, ptr noundef nonnull dereferenceable(20) %48, i64 20)
  %96 = icmp eq i32 %95, 0
  br i1 %96, label %98, label %97

97:                                               ; preds = %94
  tail call void @__assert_fail(ptr noundef nonnull @.str.13, ptr noundef nonnull @.str.1, i32 noundef 78, ptr noundef nonnull @__PRETTY_FUNCTION__._Z4testI22random_access_iteratorIPiES2_Li6ELi5EEv4DataIXT1_EXT2_EE) #7
  unreachable

98:                                               ; preds = %94
  call void @llvm.lifetime.end.p0(ptr nonnull %3) #6
  ret void
}

; Function Attrs: mustprogress uwtable
define linkonce_odr dso_local void @_Z4testI22random_access_iteratorIPiES2_Li2ELi1EEv4DataIXT1_EXT2_EE(i64 %0, i64 %1) local_unnamed_addr #4 comdat personality ptr @__gxx_personality_v0 {
  %3 = trunc i64 %1 to i32
  %4 = trunc i64 %0 to i32
  %5 = lshr i64 %0, 32
  %6 = trunc nuw i64 %5 to i32
  %7 = lshr i64 %1, 32
  %8 = trunc nuw i64 %7 to i32
  %9 = trunc i64 %0 to i32
  %10 = icmp eq i32 %9, %8
  %11 = lshr i64 %0, 32
  br i1 %10, label %14, label %12

12:                                               ; preds = %2
  %13 = icmp eq i64 %11, %7
  br i1 %13, label %19, label %18

14:                                               ; preds = %2
  %15 = icmp eq i64 %5, %7
  br i1 %15, label %18, label %16

16:                                               ; preds = %14
  %17 = icmp eq i32 %6, %3
  br i1 %17, label %24, label %23

18:                                               ; preds = %14, %12
  tail call void @__assert_fail(ptr noundef nonnull @.str.11, ptr noundef nonnull @.str.1, i32 noundef 65, ptr noundef nonnull @__PRETTY_FUNCTION__._Z4testI22random_access_iteratorIPiES2_Li2ELi1EEv4DataIXT1_EXT2_EE) #7
  unreachable

19:                                               ; preds = %12
  %20 = icmp eq i32 %4, %3
  br i1 %20, label %21, label %23

21:                                               ; preds = %19
  %22 = icmp eq i64 %11, %7
  br i1 %22, label %28, label %27

23:                                               ; preds = %19, %16
  tail call void @__assert_fail(ptr noundef nonnull @.str.13, ptr noundef nonnull @.str.1, i32 noundef 67, ptr noundef nonnull @__PRETTY_FUNCTION__._Z4testI22random_access_iteratorIPiES2_Li2ELi1EEv4DataIXT1_EXT2_EE) #7
  unreachable

24:                                               ; preds = %16
  %25 = lshr i64 %0, 32
  %26 = icmp eq i64 %25, %7
  br i1 %26, label %27, label %28

27:                                               ; preds = %24, %21
  tail call void @__assert_fail(ptr noundef nonnull @.str.11, ptr noundef nonnull @.str.1, i32 noundef 76, ptr noundef nonnull @__PRETTY_FUNCTION__._Z4testI22random_access_iteratorIPiES2_Li2ELi1EEv4DataIXT1_EXT2_EE) #7
  unreachable

28:                                               ; preds = %24, %21
  %29 = phi i64 [ %0, %21 ], [ %25, %24 ]
  %30 = trunc i64 %29 to i32
  %31 = icmp eq i32 %30, %3
  br i1 %31, label %33, label %32

32:                                               ; preds = %28
  tail call void @__assert_fail(ptr noundef nonnull @.str.13, ptr noundef nonnull @.str.1, i32 noundef 78, ptr noundef nonnull @__PRETTY_FUNCTION__._Z4testI22random_access_iteratorIPiES2_Li2ELi1EEv4DataIXT1_EXT2_EE) #7
  unreachable

33:                                               ; preds = %28
  ret void
}

; Function Attrs: mustprogress uwtable
define linkonce_odr dso_local void @_Z4testI22random_access_iteratorIPiES2_Li5ELi0EEv4DataIXT1_EXT2_EE(ptr noundef byval(%struct.Data.11) align 8 %0) local_unnamed_addr #4 comdat personality ptr @__gxx_personality_v0 {
  %2 = alloca %"struct.std::array.3", align 4
  %3 = alloca %"struct.std::array.3", align 4
  call void @llvm.lifetime.start.p0(ptr nonnull %2) #6
  call void @llvm.memcpy.p0.p0.i64(ptr noundef nonnull align 4 dereferenceable(20) %2, ptr noundef nonnull align 8 dereferenceable(20) %0, i64 20, i1 false), !tbaa.struct !9
  %4 = getelementptr inbounds nuw i8, ptr %0, i64 24
  %5 = load i32, ptr %4, align 8, !tbaa !23, !noalias !374
  %6 = getelementptr inbounds nuw i8, ptr %3, i64 4
  %7 = getelementptr inbounds nuw i8, ptr %3, i64 8
  %8 = getelementptr inbounds nuw i8, ptr %3, i64 12
  %9 = getelementptr inbounds nuw i8, ptr %2, i64 8
  %10 = getelementptr inbounds nuw i8, ptr %2, i64 12
  %11 = load i32, ptr %2, align 4, !tbaa !23, !noalias !374
  %12 = icmp eq i32 %11, %5
  %13 = getelementptr inbounds nuw i8, ptr %3, i64 16
  %14 = getelementptr inbounds nuw i8, ptr %3, i64 12
  %15 = getelementptr inbounds nuw i8, ptr %3, i64 8
  %16 = getelementptr inbounds nuw i8, ptr %3, i64 4
  %17 = getelementptr inbounds nuw i8, ptr %2, i64 16
  %18 = getelementptr inbounds nuw i8, ptr %2, i64 12
  %19 = getelementptr inbounds nuw i8, ptr %2, i64 4
  br i1 %12, label %31, label %20

20:                                               ; preds = %1
  %21 = getelementptr inbounds nuw i8, ptr %2, i64 8
  %22 = getelementptr inbounds nuw i8, ptr %2, i64 4
  %23 = load i32, ptr %22, align 4, !tbaa !23, !noalias !374
  %24 = icmp eq i32 %23, %5
  br i1 %24, label %31, label %25

25:                                               ; preds = %20
  %26 = load i32, ptr %9, align 4, !tbaa !23, !noalias !374
  %27 = icmp eq i32 %26, %5
  br i1 %27, label %31, label %28

28:                                               ; preds = %25
  %29 = load i32, ptr %10, align 4, !tbaa !23, !noalias !374
  %30 = icmp eq i32 %29, %5
  br i1 %30, label %31, label %76

31:                                               ; preds = %1, %20, %25, %28
  %32 = phi ptr [ %17, %28 ], [ %18, %25 ], [ %21, %20 ], [ %19, %1 ]
  %33 = phi i64 [ 16, %28 ], [ 12, %25 ], [ 8, %20 ], [ 4, %1 ]
  %34 = phi ptr [ %10, %28 ], [ %9, %25 ], [ %22, %20 ], [ %2, %1 ]
  %35 = load i32, ptr %32, align 4, !tbaa !23, !noalias !381
  %36 = load i32, ptr %4, align 8, !tbaa !23, !noalias !381
  %37 = icmp eq i32 %35, %36
  br i1 %37, label %40, label %38

38:                                               ; preds = %31
  store i32 %35, ptr %34, align 4, !tbaa !23, !noalias !381
  %39 = getelementptr inbounds nuw i8, ptr %34, i64 4
  br label %40

40:                                               ; preds = %38, %31
  %41 = phi ptr [ %34, %31 ], [ %39, %38 ]
  %42 = add nuw nsw i64 %33, 4
  %43 = icmp eq i64 %42, 20
  br i1 %43, label %73, label %44, !llvm.loop !363

44:                                               ; preds = %40
  %45 = getelementptr inbounds nuw i8, ptr %2, i64 %42
  %46 = load i32, ptr %45, align 4, !tbaa !23, !noalias !381
  %47 = load i32, ptr %4, align 8, !tbaa !23, !noalias !381
  %48 = icmp eq i32 %46, %47
  br i1 %48, label %51, label %49

49:                                               ; preds = %44
  store i32 %46, ptr %41, align 4, !tbaa !23, !noalias !381
  %50 = getelementptr inbounds nuw i8, ptr %41, i64 4
  br label %51

51:                                               ; preds = %49, %44
  %52 = phi ptr [ %41, %44 ], [ %50, %49 ]
  %53 = add nuw nsw i64 %33, 8
  %54 = icmp eq i64 %53, 20
  br i1 %54, label %73, label %55, !llvm.loop !363

55:                                               ; preds = %51
  %56 = getelementptr inbounds nuw i8, ptr %2, i64 %53
